 PhysXCommon_64

 Timestamp is 65380409 (Tue Oct 24 19:51:05 2023)

 Preferred load address is 0000000180000000

 Start         Length     Name                   Class
 0001:00000000 00003530H .text$di                CODE
 0001:00003530 001d3e80H .text$mn                CODE
 0001:001d73b0 00000040H .text$mn$00             CODE
 0001:001d73f0 00000680H .text$x                 CODE
 0001:001d7a70 0000000fH .text$yd                CODE
 0002:00000000 00000280H .idata$5                DATA
 0002:00000280 00000038H .00cfg                  DATA
 0002:000002b8 00000008H .CRT$XCA                DATA
 0002:000002c0 000019d0H .CRT$XCU                DATA
 0002:00001c90 00000008H .CRT$XCZ                DATA
 0002:00001c98 00000008H .CRT$XIA                DATA
 0002:00001ca0 00000018H .CRT$XIC                DATA
 0002:00001cb8 00000008H .CRT$XIZ                DATA
 0002:00001cc0 00000008H .CRT$XPA                DATA
 0002:00001cc8 00000010H .CRT$XPX                DATA
 0002:00001cd8 00000008H .CRT$XPXA               DATA
 0002:00001ce0 00000008H .CRT$XPZ                DATA
 0002:00001ce8 00000008H .CRT$XTA                DATA
 0002:00001cf0 00000010H .CRT$XTZ                DATA
 0002:00001cf8 00000000H .gehcont$y              DATA
 0002:00001cf8 00000000H .gfids$y                DATA
 0002:00001d00 00011700H .rdata                  DATA
 0002:00013400 00000000H .rdata$CastGuardVftablesA DATA
 0002:00013400 00000000H .rdata$CastGuardVftablesC DATA
 0002:00013400 0000043cH .rdata$r                DATA
 0002:0001383c 0000045cH .rdata$voltmd           DATA
 0002:00013c98 00000420H .rdata$zzzdbg           DATA
 0002:000140b8 00000008H .rtc$IAA                DATA
 0002:000140c0 00000008H .rtc$IZZ                DATA
 0002:000140c8 00000008H .rtc$TAA                DATA
 0002:000140d0 00000008H .rtc$TZZ                DATA
 0002:000140d8 000150f8H .xdata                  DATA
 0002:000291d0 00000084H .xdata$x                DATA
 0002:00029254 00000020H .didat$2                DATA
 0002:00029274 00000024H .didat$3                DATA
 0002:00029298 000000d0H .didat$4                DATA
 0002:00029368 00000430H .didat$6                DATA
 0002:00029798 000000d8H .didat$7                DATA
 0002:00029870 0000c6a8H .edata                  DATA
 0002:00035f18 00000014H .idata$2                DATA
 0002:00035f2c 00000014H .idata$3                DATA
 0002:00035f40 00000280H .idata$4                DATA
 0002:000361c0 000005beH .idata$6                DATA
 0003:00000000 00001c40H .data                   DATA
 0003:00001c40 00001158H .data$r                 DATA
 0003:00002d98 000000f0H .data$rs                DATA
 0003:00002e88 000000d8H .didat$5                DATA
 0003:00002f60 0000463cH .bss                    DATA
 0004:00000000 0000c5e8H .pdata                  DATA
 0005:00000000 0000236cH _RDATA                  DATA
 0006:00000000 000000a0H .rsrc$01                DATA
 0006:000000a0 000004b0H .rsrc$02                DATA

  Address         Publics by Value              Rva+Base               Lib:Object

 0000:00000000       __AbsoluteZero             0000000000000000     <absolute>
 0000:00000000       ___safe_se_handler_count   0000000000000000     <absolute>
 0000:00000000       ___safe_se_handler_table   0000000000000000     <absolute>
 0000:00000000       __arm64x_extra_rfe_table   0000000000000000     <absolute>
 0000:00000000       __arm64x_extra_rfe_table_size 0000000000000000     <absolute>
 0000:00000000       __arm64x_native_entrypoint 0000000000000000     <absolute>
 0000:00000000       __arm64x_redirection_metadata 0000000000000000     <absolute>
 0000:00000000       __arm64x_redirection_metadata_count 0000000000000000     <absolute>
 0000:00000000       __dynamic_value_reloc_table 0000000000000000     <absolute>
 0000:00000000       __enclave_config           0000000000000000     <absolute>
 0000:00000000       __guard_check_icall_a64n_fptr 0000000000000000     <absolute>
 0000:00000000       __guard_eh_cont_count      0000000000000000     <absolute>
 0000:00000000       __guard_eh_cont_table      0000000000000000     <absolute>
 0000:00000000       __guard_fids_count         0000000000000000     <absolute>
 0000:00000000       __guard_fids_table         0000000000000000     <absolute>
 0000:00000000       __guard_iat_count          0000000000000000     <absolute>
 0000:00000000       __guard_iat_table          0000000000000000     <absolute>
 0000:00000000       __guard_longjmp_count      0000000000000000     <absolute>
 0000:00000000       __guard_longjmp_table      0000000000000000     <absolute>
 0000:00000000       __hybrid_auxiliary_delayload_iat 0000000000000000     <absolute>
 0000:00000000       __hybrid_auxiliary_delayload_iat_copy 0000000000000000     <absolute>
 0000:00000000       __hybrid_auxiliary_iat     0000000000000000     <absolute>
 0000:00000000       __hybrid_auxiliary_iat_copy 0000000000000000     <absolute>
 0000:00000000       __hybrid_code_map          0000000000000000     <absolute>
 0000:00000000       __hybrid_code_map_count    0000000000000000     <absolute>
 0000:00000000       __hybrid_image_info_bitfield 0000000000000000     <absolute>
 0000:00000000       __x64_code_ranges_to_entry_points 0000000000000000     <absolute>
 0000:00000000       __x64_code_ranges_to_entry_points_count 0000000000000000     <absolute>
 0000:00000100       __guard_flags              0000000000000100     <absolute>
 0000:00000000       __ImageBase                0000000180000000     <linker-defined>
 0001:00003530       ??0PtrTable@Cm@physx@@QEAA@W4PxEMPTY@2@@Z 0000000180004530 f i CmPtrTable.obj
 0001:00003550       ??0PtrTable@Cm@physx@@QEAA@XZ 0000000180004550 f   CmPtrTable.obj
 0001:00003560       ??1AABBTreeBuildNode@Gu@physx@@QEAA@XZ 0000000180004560 f   GuMeshFactory.obj
 0001:00003560       ??1BigConvexDataBuilder@physx@@QEAA@XZ 0000000180004560 f   GuCookingBigConvexDataBuilder.obj
 0001:00003560       ??1Box@Gu@physx@@QEAA@XZ   0000000180004560 f   GuBox.obj
 0001:00003560       ??1HeightFieldData@Gu@physx@@QEAA@XZ 0000000180004560 f   GuCCTSweepTests.obj
 0001:00003560       ??1PtrTable@Cm@physx@@QEAA@XZ 0000000180004560 f   CmPtrTable.obj
 0001:00003560       ?build@CompanionPrunerIncremental@@UEAAXXZ 0000000180004560 f   GuSecondaryPruner.obj
 0001:00003560       ?checkTreeLeaf@IncrementalAABBTree@Gu@physx@@QEAAXPEAVIncrementalAABBTreeNode@23@I@Z 0000000180004560 f   GuIncrementalAABBTree.obj
 0001:00003560       ?execute@?$PxThreadT@V?$PxReflectionAllocator@VPxThreadImpl@physx@@@physx@@@physx@@UEAAXXZ 0000000180004560 f   GuSDF.obj
 0001:00003560       ?execute@PxRunnable@physx@@UEAAXXZ 0000000180004560 f   GuSDF.obj
 0001:00003560       ?merge@BucketPruner@Gu@physx@@UEAAXPEBX@Z 0000000180004560 f   GuBucketPruner.obj
 0001:00003560       ?merge@IncrementalAABBPruner@Gu@physx@@UEAAXPEBX@Z 0000000180004560 f   GuIncrementalAABBPruner.obj
 0001:00003560       ?onMeshIndexFormatChange@TriangleMeshBuilder@physx@@UEAAXXZ 0000000180004560 f   GuCookingTriangleMesh.obj
 0001:00003560       ?profile@Callback@RTree@Gu@physx@@UEAAXXZ 0000000180004560 f   GuMidphaseRTree.obj
 0001:00003560       ?purge@BucketPruner@Gu@physx@@UEAAXXZ 0000000180004560 f   GuBucketPruner.obj
 0001:00003560       ?requiresObjects@ConvexMesh@Gu@physx@@UEAAXAEAVPxProcessPxBaseCallback@3@@Z 0000000180004560 f   GuConvexMesh.obj
 0001:00003560       ?requiresObjects@HeightField@Gu@physx@@UEAAXAEAVPxProcessPxBaseCallback@3@@Z 0000000180004560 f   GuHeightField.obj
 0001:00003560       ?requiresObjects@SoftBodyMesh@Gu@physx@@UEAAXAEAVPxProcessPxBaseCallback@3@@Z 0000000180004560 f   GuTetrahedronMesh.obj
 0001:00003560       ?requiresObjects@TriangleMesh@Gu@physx@@UEAAXAEAVPxProcessPxBaseCallback@3@@Z 0000000180004560 f   GuTriangleMesh.obj
 0001:00003560       ?swapIndex@CompanionPrunerAABBTree@@UEAAXII@Z 0000000180004560 f   GuSecondaryPruner.obj
 0001:00003560       ?swapIndex@CompanionPrunerBucket@@UEAAXII@Z 0000000180004560 f   GuSecondaryPruner.obj
 0001:00003560       ?timeStampChange@CompanionPrunerAABBTree@@UEAAXXZ 0000000180004560 f   GuSecondaryPruner.obj
 0001:00003560       ?timeStampChange@CompanionPrunerBucket@@UEAAXXZ 0000000180004560 f   GuSecondaryPruner.obj
 0001:00003560       ?visualize@BasePruner@Gu@physx@@UEBAXAEAVPxRenderOutput@3@II@Z 0000000180004560 f   GuIncrementalAABBPruner.obj
 0001:00003560       _guard_check_icall_nop     0000000180004560 f   LIBCMT:guard_support.obj
 0001:00003570       ??4AABBTreeBounds@Gu@physx@@QEAAAEAV012@AEBV012@@Z 0000000180004570 f i GuMeshFactory.obj
 0001:00003570       ??4CmModuleUpdateLoader@Cm@physx@@QEAAAEAV012@AEBV012@@Z 0000000180004570 f i CmWindowsModuleUpdateLoader.obj
 0001:00003570       ??4PtrTable@Cm@physx@@QEAAAEAU012@AEBU012@@Z 0000000180004570 f i CmPtrTable.obj
 0001:00003580       ?add@PtrTable@Cm@physx@@QEAAXPEAXAEAVPtrTableStorageManager@23@@Z 0000000180004580 f   CmPtrTable.obj
 0001:00003690       ?clear@PtrTable@Cm@physx@@QEAAXAEAVPtrTableStorageManager@23@@Z 0000000180004690 f   CmPtrTable.obj
 0001:00003700       ?exportExtraData@PtrTable@Cm@physx@@QEAAXAEAVPxSerializationContext@3@@Z 0000000180004700 f   CmPtrTable.obj
 0001:00003750       ?find@PtrTable@Cm@physx@@QEBAIPEBX@Z 0000000180004750 f   CmPtrTable.obj
 0001:00003780       ?getBinaryMetaData@PtrTable@Cm@physx@@SAXAEAVPxOutputStream@3@@Z 0000000180004780 f   CmPtrTable.obj
 0001:00003970       ?getCount@PtrTable@Cm@physx@@QEBAIXZ 0000000180004970 f i CmPtrTable.obj
 0001:00003980       ?getPtrs@PtrTable@Cm@physx@@QEAAPEAPEAXXZ 0000000180004980 f i CmPtrTable.obj
 0001:00003980       ?getPtrs@PtrTable@Cm@physx@@QEBAPEBQEAXXZ 0000000180004980 f i CmPtrTable.obj
 0001:00003990       ?importExtraData@PtrTable@Cm@physx@@QEAAXAEAVPxDeserializationContext@3@@Z 0000000180004990 f   CmPtrTable.obj
 0001:000039c0       ?realloc@PtrTable@Cm@physx@@AEAAXIIAEAVPtrTableStorageManager@23@@Z 00000001800049c0 f   CmPtrTable.obj
 0001:00003a50       ?replaceWithLast@PtrTable@Cm@physx@@QEAAXIAEAVPtrTableStorageManager@23@@Z 0000000180004a50 f   CmPtrTable.obj
 0001:00003b50       ??_ECollection@Cm@physx@@UEAAPEAXI@Z 0000000180004b50 f i CmCollection.obj
 0001:00003b50       ??_GCollection@Cm@physx@@UEAAPEAXI@Z 0000000180004b50 f i CmCollection.obj
 0001:00003c00       ??_EPxCollection@physx@@MEAAPEAXI@Z 0000000180004c00 f i CmCollection.obj
 0001:00003c00       ??_GPxCollection@physx@@MEAAPEAXI@Z 0000000180004c00 f i CmCollection.obj
 0001:00003c30       ?add@Collection@Cm@physx@@UEAAXAEAVPxBase@3@_K@Z 0000000180004c30 f   CmCollection.obj
 0001:00003d20       ?add@Collection@Cm@physx@@UEAAXAEAVPxCollection@3@@Z 0000000180004d20 f   CmCollection.obj
 0001:00003ec0       ?addId@Collection@Cm@physx@@UEAAXAEAVPxBase@3@_K@Z 0000000180004ec0 f   CmCollection.obj
 0001:00003ff0       ?contains@Collection@Cm@physx@@UEBA_NAEAVPxBase@3@@Z 0000000180004ff0 f   CmCollection.obj
 0001:000040a0       ?create@?$PxHashBase@V?$PxPair@$$CB_KPEAVPxBase@physx@@@physx@@_KU?$PxHash@_K@2@UGetKey@?$PxHashMapBase@_KPEAVPxBase@physx@@U?$PxHash@_K@2@VPxAllocator@2@@2@VPxAllocator@2@$00@physx@@QEAAPEAV?$PxPair@$$CB_KPEAVPxBase@physx@@@2@AEB_KAEA_N@Z 00000001800050a0 f i CmCollection.obj
 0001:000040a0       ?create@?$PxHashBase@V?$PxPair@QEAVPxBase@physx@@_K@physx@@PEAVPxBase@2@U?$PxHash@PEAVPxBase@physx@@@2@UGetKey@?$PxHashMapBase@PEAVPxBase@physx@@_KU?$PxHash@PEAVPxBase@physx@@@2@VPxAllocator@2@@2@VPxAllocator@2@$00@physx@@QEAAPEAV?$PxPair@QEAVPxBase@physx@@_K@2@AEBQEAVPxBase@2@AEA_N@Z 00000001800050a0 f i CmCollection.obj
 0001:00004230       ?erase@?$PxHashBase@V?$PxPair@$$CB_KPEAVPxBase@physx@@@physx@@_KU?$PxHash@_K@2@UGetKey@?$PxHashMapBase@_KPEAVPxBase@physx@@U?$PxHash@_K@2@VPxAllocator@2@@2@VPxAllocator@2@$00@physx@@QEAA_NAEB_K@Z 0000000180005230 f i CmCollection.obj
 0001:00004230       ?erase@?$PxHashBase@V?$PxPair@QEAVPxBase@physx@@_K@physx@@PEAVPxBase@2@U?$PxHash@PEAVPxBase@physx@@@2@UGetKey@?$PxHashMapBase@PEAVPxBase@physx@@_KU?$PxHash@PEAVPxBase@physx@@@2@VPxAllocator@2@@2@VPxAllocator@2@$00@physx@@QEAA_NAEBQEAVPxBase@2@@Z 0000000180005230 f i CmCollection.obj
 0001:000043e0       ?find@?$PxHashMapBase@_KPEAVPxBase@physx@@U?$PxHash@_K@2@VPxAllocator@2@@physx@@QEBAPEBV?$PxPair@$$CB_KPEAVPxBase@physx@@@2@AEB_K@Z 00000001800053e0 f i CmCollection.obj
 0001:00004480       ?find@Collection@Cm@physx@@UEBAPEAVPxBase@3@_K@Z 0000000180005480 f   CmCollection.obj
 0001:000044b0       ?getId@Collection@Cm@physx@@UEBA_KAEBVPxBase@3@@Z 00000001800054b0 f   CmCollection.obj
 0001:00004560       ?getIds@Collection@Cm@physx@@UEBAIPEA_KII@Z 0000000180005560 f   CmCollection.obj
 0001:00004630       ?getNbIds@Collection@Cm@physx@@UEBAIXZ 0000000180005630 f   CmCollection.obj
 0001:00004640       ?getNbObjects@Collection@Cm@physx@@UEBAIXZ 0000000180005640 f   CmCollection.obj
 0001:00004650       ?getObject@Collection@Cm@physx@@UEBAAEAVPxBase@3@I@Z 0000000180005650 f   CmCollection.obj
 0001:00004660       ?getObjects@Collection@Cm@physx@@UEBAIPEAPEAVPxBase@3@II@Z 0000000180005660 f   CmCollection.obj
 0001:000046a0       ?release@Collection@Cm@physx@@UEAAXXZ 00000001800056a0 f i CmCollection.obj
 0001:000046c0       ?remove@Collection@Cm@physx@@UEAAXAEAVPxBase@3@@Z 00000001800056c0 f   CmCollection.obj
 0001:000047b0       ?remove@Collection@Cm@physx@@UEAAXAEAVPxCollection@3@@Z 00000001800057b0 f   CmCollection.obj
 0001:000048c0       ?removeId@Collection@Cm@physx@@UEAAX_K@Z 00000001800058c0 f   CmCollection.obj
 0001:00004940       ?reserveInternal@?$PxHashBase@V?$PxPair@$$CB_KPEAVPxBase@physx@@@physx@@_KU?$PxHash@_K@2@UGetKey@?$PxHashMapBase@_KPEAVPxBase@physx@@U?$PxHash@_K@2@VPxAllocator@2@@2@VPxAllocator@2@$00@physx@@AEAAXI@Z 0000000180005940 f i CmCollection.obj
 0001:00004940       ?reserveInternal@?$PxHashBase@V?$PxPair@QEAVPxBase@physx@@_K@physx@@PEAVPxBase@2@U?$PxHash@PEAVPxBase@physx@@@2@UGetKey@?$PxHashMapBase@PEAVPxBase@physx@@_KU?$PxHash@PEAVPxBase@physx@@@2@VPxAllocator@2@@2@VPxAllocator@2@$00@physx@@AEAAXI@Z 0000000180005940 f i CmCollection.obj
 0001:00004b20       PxCreateCollection         0000000180005b20 f   CmCollection.obj
 0001:00004c10       ??0RadixSort@Cm@physx@@QEAA@XZ 0000000180005c10 f   CmRadixSort.obj
 0001:00004c40       ??0RadixSortBuffered@Cm@physx@@QEAA@XZ 0000000180005c40 f   CmRadixSort.obj
 0001:00004c70       ??1RadixSort@Cm@physx@@UEAA@XZ 0000000180005c70 f   CmRadixSort.obj
 0001:00004c80       ??1RadixSortBuffered@Cm@physx@@UEAA@XZ 0000000180005c80 f   CmRadixSort.obj
 0001:00004cb0       ??_ERadixSort@Cm@physx@@UEAAPEAXI@Z 0000000180005cb0 f i CmRadixSort.obj
 0001:00004d40       ??_ERadixSortBuffered@Cm@physx@@UEAAPEAXI@Z 0000000180005d40 f i CmRadixSort.obj
 0001:00004e30       ?CheckResize@RadixSortBuffered@Cm@physx@@AEAAXI@Z 0000000180005e30 f i CmRadixSort.obj
 0001:00004e70       ?GetNbHits@RadixSort@Cm@physx@@QEBAIXZ 0000000180005e70 f i CmRadixSort.obj
 0001:00004e80       ?GetNbTotalCalls@RadixSort@Cm@physx@@QEBAIXZ 0000000180005e80 f i CmRadixSort.obj
 0001:00004e90       ?GetRanks@RadixSort@Cm@physx@@QEBAPEBIXZ 0000000180005e90 f i CmRadixSort.obj
 0001:00004e90       ?getGridModelInvMass@SoftBodyAuxData@Gu@physx@@UEAAPEAMXZ 0000000180005e90 f i GuTetrahedronMesh.obj
 0001:00004e90       ?getHeightField@HeightFieldUtil@Gu@physx@@QEBAAEBVHeightField@23@XZ 0000000180005e90 f i GuCCTSweepTests.obj
 0001:00004e90       ?getSimulationMesh@SoftBodyMesh@Gu@physx@@UEAAPEAVPxTetrahedronMesh@3@XZ 0000000180005e90 f i GuTetrahedronMesh.obj
 0001:00004e90       ?getSimulationMesh@SoftBodyMesh@Gu@physx@@UEBAPEBVPxTetrahedronMesh@3@XZ 0000000180005e90 f i GuTetrahedronMesh.obj
 0001:00004ea0       ?GetRecyclable@RadixSort@Cm@physx@@QEBAPEAIXZ 0000000180005ea0 f i CmRadixSort.obj
 0001:00004ea0       ?GetValencies@BigConvexData@physx@@QEBAPEBUValency@Gu@2@XZ 0000000180005ea0 f i GuMetaData.obj
 0001:00004ea0       ?getCollisionMesh@SoftBodyMesh@Gu@physx@@UEAAPEAVPxTetrahedronMesh@3@XZ 0000000180005ea0 f i GuTetrahedronMesh.obj
 0001:00004ea0       ?getCollisionMesh@SoftBodyMesh@Gu@physx@@UEBAPEBVPxTetrahedronMesh@3@XZ 0000000180005ea0 f i GuTetrahedronMesh.obj
 0001:00004ea0       ?getHeightFieldGeometry@HeightFieldUtil@Gu@physx@@QEBAAEBVPxHeightFieldGeometry@3@XZ 0000000180005ea0 f i GuCCTSweepTests.obj
 0001:00004ea0       ?getObjects@PruningPool@Gu@physx@@QEBAPEAUPrunerPayload@23@XZ 0000000180005ea0 f i GuIncrementalAABBPrunerCore.obj
 0001:00004ea0       ?getPos@AABBTreeBuildNode@Gu@physx@@QEBAPEBV123@XZ 0000000180005ea0 f i GuMeshFactory.obj
 0001:00004ea0       ?getVertices@TetrahedronMesh@Gu@physx@@UEBAPEBV?$PxVec3T@M@3@XZ 0000000180005ea0 f i GuTetrahedronMesh.obj
 0001:00004ea0       ?getVertices@TriangleMesh@Gu@physx@@UEBAPEBV?$PxVec3T@M@3@XZ 0000000180005ea0 f i GuTriangleMesh.obj
 0001:00004eb0       ?Resize@RadixSortBuffered@Cm@physx@@AEAA_NI@Z 0000000180005eb0 f   CmRadixSort.obj
 0001:00004fb0       ?SetBuffers@RadixSort@Cm@physx@@QEAA_NPEAI00PEAPEAI@Z 0000000180005fb0 f   CmRadixSort.obj
 0001:00004ff0       ?Sort@RadixSort@Cm@physx@@QEAAAEAV123@PEBIIW4RadixHint@23@@Z 0000000180005ff0 f   CmRadixSort.obj
 0001:000056a0       ?Sort@RadixSort@Cm@physx@@QEAAAEAV123@PEBMI@Z 00000001800066a0 f   CmRadixSort.obj
 0001:00005e40       ?Sort@RadixSortBuffered@Cm@physx@@QEAAAEAV123@PEBIIW4RadixHint@23@@Z 0000000180006e40 f   CmRadixSort.obj
 0001:00005ee0       ?Sort@RadixSortBuffered@Cm@physx@@QEAAAEAV123@PEBMI@Z 0000000180006ee0 f   CmRadixSort.obj
 0001:00005f70       ?invalidateRanks@RadixSort@Cm@physx@@QEAAXXZ 0000000180006f70 f i CmRadixSort.obj
 0001:00005f80       ?reset@RadixSortBuffered@Cm@physx@@QEAAXXZ 0000000180006f80 f   CmRadixSort.obj
 0001:00006000       ?ReadHeader@Cm@physx@@YA_NEEEEAEAIAEA_NAEAVPxInputStream@2@@Z 0000000180007000 f   CmSerialize.obj
 0001:00006160       ?ReadIndices@Cm@physx@@YAXGIPEAGAEAVPxInputStream@2@_N@Z 0000000180007160 f   CmSerialize.obj
 0001:000062f0       ?StoreIndices@Cm@physx@@YAXGIPEBGAEAVPxOutputStream@2@_N@Z 00000001800072f0 f   CmSerialize.obj
 0001:000063e0       ?WriteHeader@Cm@physx@@YA_NEEEEI_NAEAVPxOutputStream@2@@Z 00000001800073e0 f   CmSerialize.obj
 0001:00006510       ?computeMaxIndex@physx@@YAGPEBGI@Z 0000000180007510 f   CmSerialize.obj
 0001:00006540       ?computeMaxIndex@physx@@YAIPEBII@Z 0000000180007540 f   CmSerialize.obj
 0001:00006570       ?readByteBuffer@physx@@YAXPEAEIAEAVPxInputStream@1@@Z 0000000180007570 f   CmSerialize.obj
 0001:00006570       ?writeByteBuffer@physx@@YAXPEBEIAEAVPxOutputStream@1@@Z 0000000180007570 f   CmSerialize.obj
 0001:00006590       ?readChunk@physx@@YAXAEAC000AEAVPxInputStream@1@@Z 0000000180007590 f   CmSerialize.obj
 0001:00006610       ?readDword@physx@@YAI_NAEAVPxInputStream@1@@Z 0000000180007610 f   CmSerialize.obj
 0001:00006670       ?readFloat@physx@@YAM_NAEAVPxInputStream@1@@Z 0000000180007670 f   CmSerialize.obj
 0001:000066d0       ?readFloatBuffer@physx@@YA_NPEAMI_NAEAVPxInputStream@1@@Z 00000001800076d0 f   CmSerialize.obj
 0001:00006750       ?readHeader@physx@@YA_NCCCCAEAIAEA_NAEAVPxInputStream@1@@Z 0000000180007750 f   CmSerialize.obj
 0001:000068a0       ?readIndices@physx@@YAXIIPEAIAEAVPxInputStream@1@_N@Z 00000001800078a0 f   CmSerialize.obj
 0001:000069d0       ?readWord@physx@@YAG_NAEAVPxInputStream@1@@Z 00000001800079d0 f   CmSerialize.obj
 0001:00006a10       ?readWordBuffer@physx@@YAXPEAGI_NAEAVPxInputStream@1@@Z 0000000180007a10 f   CmSerialize.obj
 0001:00006a80       ?storeIndices@physx@@YAXIIPEBIAEAVPxOutputStream@1@_N@Z 0000000180007a80 f   CmSerialize.obj
 0001:00006c10       ?writeDword@physx@@YAXI_NAEAVPxOutputStream@1@@Z 0000000180007c10 f   CmSerialize.obj
 0001:00006c60       ?writeFloat@physx@@YAXM_NAEAVPxOutputStream@1@@Z 0000000180007c60 f   CmSerialize.obj
 0001:00006cb0       ?writeFloatBuffer@physx@@YAXPEBMI_NAEAVPxOutputStream@1@@Z 0000000180007cb0 f   CmSerialize.obj
 0001:00006d50       ?writeHeader@physx@@YA_NCCCCI_NAEAVPxOutputStream@1@@Z 0000000180007d50 f   CmSerialize.obj
 0001:00006e80       ?writeWord@physx@@YAXG_NAEAVPxOutputStream@1@@Z 0000000180007e80 f   CmSerialize.obj
 0001:00006ec0       ?writeWordBuffer@physx@@YAXPEBGI_NAEAVPxOutputStream@1@@Z 0000000180007ec0 f   CmSerialize.obj
 0001:00006f40       ??6PxRenderOutput@physx@@QEAAAEAV01@AEBV?$PxTransformT@M@1@@Z 0000000180007f40 f i CmVisualization.obj
 0001:000070c0       ??6PxRenderOutput@physx@@QEAAAEAV01@AEBV?$PxVec3T@M@1@@Z 00000001800080c0 f i CmVisualization.obj
 0001:000073b0       ?renderOutputDebugArrow@Cm@physx@@YAXAEAVPxRenderOutput@2@AEBUPxDebugArrow@2@@Z 00000001800083b0 f   CmVisualization.obj
 0001:00007750       ?renderOutputDebugBasis@Cm@physx@@YAXAEAVPxRenderOutput@2@AEBUPxDebugBasis@2@@Z 0000000180008750 f   CmVisualization.obj
 0001:00007ce0       ?renderOutputDebugBox@Cm@physx@@YAXAEAVPxRenderOutput@2@AEBVPxBounds3@2@@Z 0000000180008ce0 f   CmVisualization.obj
 0001:00007f50       ?renderOutputDebugCircle@Cm@physx@@YAXAEAVPxRenderOutput@2@IM@Z 0000000180008f50 f   CmVisualization.obj
 0001:00008030       ?visualizeAngularLimit@Cm@physx@@YAXAEAVPxRenderOutput@2@MAEBV?$PxTransformT@M@2@MM@Z 0000000180009030 f   CmVisualization.obj
 0001:000081c0       ?visualizeDoubleCone@Cm@physx@@YAXAEAVPxRenderOutput@2@MAEBV?$PxTransformT@M@2@M@Z 00000001800091c0 f   CmVisualization.obj
 0001:000083e0       ?visualizeJointFrames@Cm@physx@@YAXAEAVPxRenderOutput@2@MAEBV?$PxTransformT@M@2@1@Z 00000001800093e0 f   CmVisualization.obj
 0001:00008ee0       ?visualizeLimitCone@Cm@physx@@YAXAEAVPxRenderOutput@2@MAEBV?$PxTransformT@M@2@MM@Z 0000000180009ee0 f   CmVisualization.obj
 0001:00009110       ?visualizeLinearLimit@Cm@physx@@YAXAEAVPxRenderOutput@2@MAEBV?$PxTransformT@M@2@1M@Z 000000018000a110 f   CmVisualization.obj
 0001:00009700       ??0CmModuleUpdateLoader@Cm@physx@@QEAA@PEBD@Z 000000018000a700 f   CmWindowsModuleUpdateLoader.obj
 0001:00009740       ??1CmModuleUpdateLoader@Cm@physx@@QEAA@XZ 000000018000a740 f   CmWindowsModuleUpdateLoader.obj
 0001:00009770       ?LoadModule@CmModuleUpdateLoader@Cm@physx@@QEAAPEAUHINSTANCE__@@PEBD0@Z 000000018000a770 f   CmWindowsModuleUpdateLoader.obj
 0001:000097e0       __local_stdio_printf_options 000000018000a7e0 f i CmWindowsModuleUpdateLoader.obj
 0001:000097f0       printf                     000000018000a7f0 f i CmWindowsModuleUpdateLoader.obj
 0001:00009850       ?commonDelayHook@@YAP6A_JXZIPEAUDelayLoadInfo@@@Z 000000018000a850 f   CmWindowsDelayLoadHook.obj
 0001:00009930       PxSetPhysXCommonDelayLoadHook 000000018000a930 f   CmWindowsDelayLoadHook.obj
 0001:00009940       ??0?$PxQuatT@M@physx@@QEAA@AEBV?$PxMat33T@M@1@@Z 000000018000a940 f i GuBox.obj
 0001:00009b40       ??0Box@Gu@physx@@QEAA@AEBV012@@Z 000000018000ab40 f i GuBox.obj
 0001:00009b40       ??4Box@Gu@physx@@QEAAAEBV012@AEBV012@@Z 000000018000ab40 f i GuBox.obj
 0001:00009ba0       ??0Box@Gu@physx@@QEAA@AEBV?$PxVec3T@M@2@0AEBV?$PxMat33T@M@2@@Z 000000018000aba0 f i GuBox.obj
 0001:00009c10       ??0AABBTreeBuildNode@Gu@physx@@QEAA@XZ 000000018000ac10 f i GuMeshFactory.obj
 0001:00009c10       ??0BigConvexData@physx@@QEAA@W4PxEMPTY@1@@Z 000000018000ac10 f i GuMetaData.obj
 0001:00009c10       ??0Box@Gu@physx@@QEAA@XZ   000000018000ac10 f i GuBox.obj
 0001:00009c10       ??0HeightFieldData@Gu@physx@@QEAA@W4PxEMPTY@2@@Z 000000018000ac10 f i GuCCTSweepTests.obj
 0001:00009c10       ?getAABB@AABBTreeBuildNode@Gu@physx@@QEBAAEBVPxBounds3@3@XZ 000000018000ac10 f i GuMeshFactory.obj
 0001:00009c10       ?getPaddedBounds@HeightFieldData@Gu@physx@@QEBAAEBVCenterExtentsPadded@23@XZ 000000018000ac10 f i GuCCTSweepTests.obj
 0001:00009c20       ?computeAABBExtent@Box@Gu@physx@@QEBA?AV?$PxVec3T@M@3@XZ 000000018000ac20 f i GuBox.obj
 0001:00009ce0       ?computeBoxPoints@Box@Gu@physx@@QEBAXPEIAV?$PxVec3T@M@3@@Z 000000018000ace0 f i GuBox.obj
 0001:00009d20       ?computeOBBPoints@Gu@physx@@YAXPEIAV?$PxVec3T@M@2@AEBV32@1111@Z 000000018000ad20 f   GuBox.obj
 0001:00009fa0       ?create@Box@Gu@physx@@QEAAXAEBVCapsule@23@@Z 000000018000afa0 f   GuBox.obj
 0001:0000a1d0       ?getBoxEdges@Gu@physx@@YAPEBEXZ 000000018000b1d0 f   GuBox.obj
 0001:0000a1e0       ?getTransform@Box@Gu@physx@@QEBA?AV?$PxTransformT@M@3@XZ 000000018000b1e0 f i GuBox.obj
 0001:0000a240       ?isValid@Box@Gu@physx@@QEBA_NXZ 000000018000b240 f i GuBox.obj
 0001:0000a260       ?rotate@Box@Gu@physx@@QEBA?AV?$PxVec3T@M@3@AEBV43@@Z 000000018000b260 f i GuBox.obj
 0001:0000a2f0       ?rotateInv@Box@Gu@physx@@QEBA?AV?$PxVec3T@M@3@AEBV43@@Z 000000018000b2f0 f i GuBox.obj
 0001:0000a380       ?setAxes@Box@Gu@physx@@QEAAXAEBV?$PxVec3T@M@3@00@Z 000000018000b380 f i GuBox.obj
 0001:0000a3c0       ?setEmpty@Box@Gu@physx@@QEAAXXZ 000000018000b3c0 f i GuBox.obj
 0001:0000a400       ?transform@Box@Gu@physx@@QEBA?AV?$PxVec3T@M@3@AEBV43@@Z 000000018000b400 f i GuBox.obj
 0001:0000a4a0       ?PxComputeBasisVectors@physx@@YAXAEBV?$PxVec3T@M@1@0AEAV21@11@Z 000000018000b4a0 f i GuCapsule.obj
 0001:0000a640       ?computeBoxAroundCapsule@Gu@physx@@YAXAEBVCapsule@12@AEAVBox@12@@Z 000000018000b640 f   GuCapsule.obj
 0001:0000a790       ??0HeightFieldData@Gu@physx@@QEAA@$$QEAU012@@Z 000000018000b790 f i GuCCTSweepTests.obj
 0001:0000a790       ??0HeightFieldData@Gu@physx@@QEAA@AEBU012@@Z 000000018000b790 f i GuCCTSweepTests.obj
 0001:0000a790       ??4HeightFieldData@Gu@physx@@QEAAAEAU012@$$QEAU012@@Z 000000018000b790 f i GuCCTSweepTests.obj
 0001:0000a790       ??4HeightFieldData@Gu@physx@@QEAAAEAU012@AEBU012@@Z 000000018000b790 f i GuCCTSweepTests.obj
 0001:0000a7f0       ??0HeightFieldData@Gu@physx@@QEAA@XZ 000000018000b7f0 f i GuCCTSweepTests.obj
 0001:0000a800       ??0HeightFieldTraceUtil@Gu@physx@@QEAA@AEBVPxHeightFieldGeometry@2@@Z 000000018000b800 f i GuCCTSweepTests.obj
 0001:0000a800       ??0HeightFieldUtil@Gu@physx@@QEAA@AEBVPxHeightFieldGeometry@2@@Z 000000018000b800 f i GuCCTSweepTests.obj
 0001:0000a840       ??4AABBTreeBuildParams@Gu@physx@@QEAAAEAV012@AEBV012@@Z 000000018000b840 f i GuMeshFactory.obj
 0001:0000a840       ??4HeightFieldTraceUtil@Gu@physx@@QEAAAEAV012@$$QEAV012@@Z 000000018000b840 f i GuCCTSweepTests.obj
 0001:0000a840       ??4HeightFieldTraceUtil@Gu@physx@@QEAAAEAV012@AEBV012@@Z 000000018000b840 f i GuCCTSweepTests.obj
 0001:0000a840       ??4HeightFieldUtil@Gu@physx@@QEAAAEAV012@AEBV012@@Z 000000018000b840 f i GuCCTSweepTests.obj
 0001:0000a860       ??4HeightFieldUtil@Gu@physx@@QEAAAEAV012@$$QEAV012@@Z 000000018000b860 f i GuCCTSweepTests.obj
 0001:0000a8c0       ??_EEntityReport@Gu@physx@@UEAAPEAXI@Z 000000018000b8c0 f i GuSweepsHF.obj
 0001:0000a8c0       ??_EOverlapCallback@PxBVH@physx@@UEAAPEAXI@Z 000000018000b8c0 f i GuQuerySystem.obj
 0001:0000a8c0       ??_EOverlapReport@Gu@physx@@UEAAPEAXI@Z 000000018000b8c0 f i GuCCTSweepTests.obj
 0001:0000a8c0       ??_ERaycastCallback@PxBVH@physx@@UEAAPEAXI@Z 000000018000b8c0 f i GuQuerySystem.obj
 0001:0000a8c0       ??_ERemapCallback@RTreeCooker@physx@@UEAAPEAXI@Z 000000018000b8c0 f i GuCookingTriangleMesh.obj
 0001:0000a8c0       ??_GEntityReport@Gu@physx@@UEAAPEAXI@Z 000000018000b8c0 f i GuSweepsHF.obj
 0001:0000a8c0       ??_GOverlapCallback@PxBVH@physx@@UEAAPEAXI@Z 000000018000b8c0 f i GuQuerySystem.obj
 0001:0000a8c0       ??_GOverlapReport@Gu@physx@@UEAAPEAXI@Z 000000018000b8c0 f i GuCCTSweepTests.obj
 0001:0000a8c0       ??_GRaycastCallback@PxBVH@physx@@UEAAPEAXI@Z 000000018000b8c0 f i GuQuerySystem.obj
 0001:0000a8c0       ??_GRemapCallback@RTreeCooker@physx@@UEAAPEAXI@Z 000000018000b8c0 f i GuCookingTriangleMesh.obj
 0001:0000a8f0       ??_H@YAXPEAX_K1P6APEAX0@Z@Z 000000018000b8f0 f i GuCCTSweepTests.obj
 0001:0000a940       ?ceilUp@HeightFieldTraceUtil@Gu@physx@@SAMM@Z 000000018000b940 f i GuCCTSweepTests.obj
 0001:0000a980       ?floorDown@HeightFieldTraceUtil@Gu@physx@@SAMM@Z 000000018000b980 f i GuCCTSweepTests.obj
 0001:0000a9c0       ?getHeightAtShapePoint@HeightFieldUtil@Gu@physx@@QEBAMMM@Z 000000018000b9c0 f i GuCCTSweepTests.obj
 0001:0000aa20       ?getHeightInternal2@HeightField@Gu@physx@@QEBAMIMM@Z 000000018000ba20 f i GuCCTSweepTests.obj
 0001:0000ab90       ?getNormalAtShapePoint@HeightFieldUtil@Gu@physx@@QEBA?AV?$PxVec3T@M@3@MM@Z 000000018000bb90 f i GuCCTSweepTests.obj
 0001:0000ac50       ?getNormal_2@HeightField@Gu@physx@@QEBA?AV?$PxVec3T@M@3@IMMMMM@Z 000000018000bc50 f i GuCCTSweepTests.obj
 0001:0000ad70       ?getOneOverColumnScale@HeightFieldUtil@Gu@physx@@QEBAMXZ 000000018000bd70 f i GuCCTSweepTests.obj
 0001:0000ad80       ?getOneOverHeightScale@HeightFieldUtil@Gu@physx@@QEBAMXZ 000000018000bd80 f i GuCCTSweepTests.obj
 0001:0000ad90       ?getOneOverRowScale@HeightFieldUtil@Gu@physx@@QEBAMXZ 000000018000bd90 f i GuCCTSweepTests.obj
 0001:0000ada0       ?hf2shapen@HeightFieldUtil@Gu@physx@@QEBA?AV?$PxVec3T@M@3@AEBV43@@Z 000000018000bda0 f i GuCCTSweepTests.obj
 0001:0000ada0       ?shape2hfp@HeightFieldUtil@Gu@physx@@QEBA?AV?$PxVec3T@M@3@AEBV43@@Z 000000018000bda0 f i GuCCTSweepTests.obj
 0001:0000ade0       ?hf2shapep@HeightFieldUtil@Gu@physx@@QEBA?AV?$PxVec3T@M@3@AEBV43@@Z 000000018000bde0 f i GuCCTSweepTests.obj
 0001:0000ae20       ?hf2worldn@HeightFieldUtil@Gu@physx@@QEBA?AV?$PxVec3T@M@3@AEBV?$PxTransformT@M@3@AEBV43@@Z 000000018000be20 f i GuCCTSweepTests.obj
 0001:0000af90       ?hf2worldp@HeightFieldUtil@Gu@physx@@QEBA?AV?$PxVec3T@M@3@AEBV?$PxTransformT@M@3@AEBV43@@Z 000000018000bf90 f i GuCCTSweepTests.obj
 0001:0000b110       ?overlapAABBTriangles0to1@HeightFieldUtil@Gu@physx@@QEBAXAEBV?$PxTransformT@M@3@AEBVPxBounds3@3@AEAVOverlapReport@23@I@Z 000000018000c110 f i GuCCTSweepTests.obj
 0001:0000b490       ?overlapAABBTriangles@HeightFieldUtil@Gu@physx@@QEBAXAEBV?$PxTransformT@M@3@0AEBVPxBounds3@3@AEAVOverlapReport@23@I@Z 000000018000c490 f i GuCCTSweepTests.obj
 0001:0000bab0       ?overlapAABBTriangles@HeightFieldUtil@Gu@physx@@QEBAXAEBV?$PxTransformT@M@3@AEBVPxBounds3@3@AEAVOverlapReport@23@I@Z 000000018000cab0 f i GuCCTSweepTests.obj
 0001:0000c160       ?sweepBoxTriangles_Precise@Gu@physx@@YA_NIPEBVPxTriangle@2@_NAEBVPxBoxGeometry@2@AEBV?$PxTransformT@M@2@AEBV?$PxVec3T@M@2@MAEAUPxGeomSweepHit@2@PEBIMV?$PxFlags@W4Enum@PxHitFlag@physx@@G@2@@Z 000000018000d160 f   GuCCTSweepTests.obj
 0001:0000cef0       ?sweepBox_BoxGeom_Precise@@YA_NAEBVPxGeometry@physx@@AEBV?$PxTransformT@M@2@AEBVPxBoxGeometry@2@1AEBVBox@Gu@2@AEBV?$PxVec3T@M@2@MAEAUPxGeomSweepHit@2@V?$PxFlags@W4Enum@PxHitFlag@physx@@G@2@MPEAUPxQueryThreadContext@2@@Z 000000018000def0 f   GuCCTSweepTests.obj
 0001:0000d0b0       ?sweepBox_CapsuleGeom_Precise@@YA_NAEBVPxGeometry@physx@@AEBV?$PxTransformT@M@2@AEBVPxBoxGeometry@2@1AEBVBox@Gu@2@AEBV?$PxVec3T@M@2@MAEAUPxGeomSweepHit@2@V?$PxFlags@W4Enum@PxHitFlag@physx@@G@2@MPEAUPxQueryThreadContext@2@@Z 000000018000e0b0 f   GuCCTSweepTests.obj
 0001:0000d480       ?sweepBox_HeightFieldGeom_Precise@@YA_NAEBVPxGeometry@physx@@AEBV?$PxTransformT@M@2@AEBVPxBoxGeometry@2@1AEBVBox@Gu@2@AEBV?$PxVec3T@M@2@MAEAUPxGeomSweepHit@2@V?$PxFlags@W4Enum@PxHitFlag@physx@@G@2@MPEAUPxQueryThreadContext@2@@Z 000000018000e480 f   GuCCTSweepTests.obj
 0001:0000dc80       ?sweepBox_SphereGeom_Precise@@YA_NAEBVPxGeometry@physx@@AEBV?$PxTransformT@M@2@AEBVPxBoxGeometry@2@1AEBVBox@Gu@2@AEBV?$PxVec3T@M@2@MAEAUPxGeomSweepHit@2@V?$PxFlags@W4Enum@PxHitFlag@physx@@G@2@MPEAUPxQueryThreadContext@2@@Z 000000018000ec80 f   GuCCTSweepTests.obj
 0001:0000df50       ?sweepCapsule_BoxGeom_Precise@@YA_NAEBVPxGeometry@physx@@AEBV?$PxTransformT@M@2@AEBVPxCapsuleGeometry@2@1AEBVCapsule@Gu@2@AEBV?$PxVec3T@M@2@MAEAUPxGeomSweepHit@2@V?$PxFlags@W4Enum@PxHitFlag@physx@@G@2@MPEAUPxQueryThreadContext@2@@Z 000000018000ef50 f   GuCCTSweepTests.obj
 0001:0000e5e0       ??0?$CacheMap@UCachedEdge@Gu@physx@@$0IA@@Gu@physx@@QEAA@XZ 000000018000f5e0 f i GuGeometryQuery.obj
 0001:0000e6a0       ??0?$CacheMap@UCachedVertex@Gu@physx@@$0IA@@Gu@physx@@QEAA@XZ 000000018000f6a0 f i GuGeometryQuery.obj
 0001:0000e760       ??0MultiplePersistentContactManifold@Gu@physx@@QEAA@XZ 000000018000f760 f i GuGeometryQuery.obj
 0001:0000e7c0       ??0PCMMeshContactGeneration@Gu@physx@@QEAA@AEBT__m128@@0AEBVPxTransformV@aos@2@1AEAVMultiplePersistentContactManifold@12@AEAVPxContactBuffer@2@PEAV?$PxInlineArray@I$0DMA@V?$PxReflectionAllocator@I@physx@@@2@PEAVPxRenderOutput@2@@Z 000000018000f7c0 f i GuGeometryQuery.obj
 0001:0000f0f0       ??0PolygonalBox@Gu@physx@@QEAA@AEBV012@@Z 00000001800100f0 f i GuGeometryQuery.obj
 0001:0000f370       ??4MultiplePersistentContactManifold@Gu@physx@@QEAAAEAV012@$$QEAV012@@Z 0000000180010370 f i GuGeometryQuery.obj
 0001:0000f680       ??4MultiplePersistentContactManifold@Gu@physx@@QEAAAEAV012@AEBV012@@Z 0000000180010680 f i GuGeometryQuery.obj
 0001:0000f6a0       ??_E?$SupportLocalImpl@VBoxV@Gu@physx@@@Gu@physx@@UEAAPEAXI@Z 00000001800106a0 f i GuGeometryQuery.obj
 0001:0000f6a0       ??_E?$SupportLocalImpl@VConvexHullNoScaleV@Gu@physx@@@Gu@physx@@UEAAPEAXI@Z 00000001800106a0 f i GuMTD.obj
 0001:0000f6a0       ??_E?$SupportLocalImpl@VConvexHullV@Gu@physx@@@Gu@physx@@UEAAPEAXI@Z 00000001800106a0 f i GuGeometryQuery.obj
 0001:0000f6a0       ??_E?$SupportLocalImpl@VTriangleV@Gu@physx@@@Gu@physx@@UEAAPEAXI@Z 00000001800106a0 f i GuPCMContactConvexCommon.obj
 0001:0000f6a0       ??_G?$SupportLocalImpl@VBoxV@Gu@physx@@@Gu@physx@@UEAAPEAXI@Z 00000001800106a0 f i GuGeometryQuery.obj
 0001:0000f6a0       ??_G?$SupportLocalImpl@VConvexHullNoScaleV@Gu@physx@@@Gu@physx@@UEAAPEAXI@Z 00000001800106a0 f i GuMTD.obj
 0001:0000f6a0       ??_G?$SupportLocalImpl@VConvexHullV@Gu@physx@@@Gu@physx@@UEAAPEAXI@Z 00000001800106a0 f i GuGeometryQuery.obj
 0001:0000f6a0       ??_G?$SupportLocalImpl@VTriangleV@Gu@physx@@@Gu@physx@@UEAAPEAXI@Z 00000001800106a0 f i GuPCMContactConvexCommon.obj
 0001:0000f6d0       ??_ESupportLocal@Gu@physx@@UEAAPEAXI@Z 00000001800106d0 f i GuGeometryQuery.obj
 0001:0000f6d0       ??_GSupportLocal@Gu@physx@@UEAAPEAXI@Z 00000001800106d0 f i GuGeometryQuery.obj
 0001:0000f700       ?clearManifold@MultiplePersistentContactManifold@Gu@physx@@QEAAXXZ 0000000180010700 f i GuGeometryQuery.obj
 0001:0000f760       ?computeGeomBounds@PxGeometryQuery@physx@@SAXAEAVPxBounds3@2@AEBVPxGeometry@2@AEBV?$PxTransformT@M@2@MMV?$PxFlags@W4Enum@PxGeometryQueryFlag@physx@@I@2@@Z 0000000180010760 f   GuGeometryQuery.obj
 0001:0000f7e0       ?computePenetration@PxGeometryQuery@physx@@SA_NAEAV?$PxVec3T@M@2@AEAMAEBVPxGeometry@2@AEBV?$PxTransformT@M@2@23V?$PxFlags@W4Enum@PxGeometryQueryFlag@physx@@I@2@@Z 00000001800107e0 f   GuGeometryQuery.obj
 0001:0000f960       ?doSupport@?$SupportLocalImpl@VBoxV@Gu@physx@@@Gu@physx@@UEBA?AT__m128@@AEBT4@@Z 0000000180010960 f i GuGeometryQuery.obj
 0001:0000f990       ?doSupport@?$SupportLocalImpl@VBoxV@Gu@physx@@@Gu@physx@@UEBAXAEBT__m128@@AEAT4@1@Z 0000000180010990 f i GuGeometryQuery.obj
 0001:0000f9e0       ?doSupport@?$SupportLocalImpl@VConvexHullV@Gu@physx@@@Gu@physx@@UEBA?AT__m128@@AEBT4@@Z 00000001800109e0 f i GuGeometryQuery.obj
 0001:0000fac0       ?doSupport@?$SupportLocalImpl@VConvexHullV@Gu@physx@@@Gu@physx@@UEBAXAEBT__m128@@AEAT4@1@Z 0000000180010ac0 f i GuGeometryQuery.obj
 0001:0000fe20       ?generateTriangleContacts@PxGeometryQuery@physx@@SA_NAEBVPxGeometry@2@AEBV?$PxTransformT@M@2@QEBV?$PxVec3T@M@2@IMMMAEAVPxContactBuffer@2@@Z 0000000180010e20 f   GuGeometryQuery.obj
 0001:000117d0       ?getEmptyManifold@MultiplePersistentContactManifold@Gu@physx@@QEAAPEAVSinglePersistentContactManifold@23@XZ 00000001800127d0 f i GuGeometryQuery.obj
 0001:000117f0       ?getManifold@MultiplePersistentContactManifold@Gu@physx@@QEAAPEAVSinglePersistentContactManifold@23@I@Z 00000001800127f0 f i GuGeometryQuery.obj
 0001:000117f0       ?getManifold@MultiplePersistentContactManifold@Gu@physx@@QEBAPEBVSinglePersistentContactManifold@23@I@Z 00000001800127f0 f i GuGeometryQuery.obj
 0001:00011810       ?getUniqueID@PxCustomGeometry@physx@@SAIXZ 0000000180012810 f   GuGeometryQuery.obj
 0001:00011830       ?hillClimbing@ConvexHullV@Gu@physx@@QEBAIAEBT__m128@@@Z 0000000180012830 f i GuGeometryQuery.obj
 0001:00011a60       ?initialize@MultiplePersistentContactManifold@Gu@physx@@QEAAXXZ 0000000180012a60 f i GuGeometryQuery.obj
 0001:00011ac0       ?invalidate@MultiplePersistentContactManifold@Gu@physx@@QEBAIAEBVPxTransformV@aos@3@AEBT__m128@@1@Z 0000000180012ac0 f i GuGeometryQuery.obj
 0001:00011b30       ?invalidate@MultiplePersistentContactManifold@Gu@physx@@QEBAIAEBVPxTransformV@aos@3@AEBT__m128@@@Z 0000000180012b30 f i GuGeometryQuery.obj
 0001:00011ba0       ?isUnit@?$PxQuatT@M@physx@@QEBA_NXZ 0000000180012ba0 f i GuGeometryQuery.obj
 0001:00011c60       ?isValid@PxGeometryQuery@physx@@SA_NAEBVPxGeometry@2@@Z 0000000180012c60 f   GuGeometryQuery.obj
 0001:00011f50       ?maxTransformPositionDelta@MultiplePersistentContactManifold@Gu@physx@@QEBA?AT__m128@@AEBT4@@Z 0000000180012f50 f i GuGeometryQuery.obj
 0001:00011f90       ?maxTransformQuatDelta@MultiplePersistentContactManifold@Gu@physx@@QEBA?AT__m128@@AEBT4@@Z 0000000180012f90 f i GuGeometryQuery.obj
 0001:00011fd0       ?overlap@PxGeometryQuery@physx@@SA_NAEBVPxGeometry@2@AEBV?$PxTransformT@M@2@01V?$PxFlags@W4Enum@PxGeometryQueryFlag@physx@@I@2@PEAUPxQueryThreadContext@2@@Z 0000000180012fd0 f   GuGeometryQuery.obj
 0001:000120a0       ?pointDistance@PxGeometryQuery@physx@@SAMAEBV?$PxVec3T@M@2@AEBVPxGeometry@2@AEBV?$PxTransformT@M@2@PEAV32@PEAIV?$PxFlags@W4Enum@PxGeometryQueryFlag@physx@@I@2@@Z 00000001800130a0 f   GuGeometryQuery.obj
 0001:00012830       ?populateVerts@?$SupportLocalImpl@VBoxV@Gu@physx@@@Gu@physx@@UEBAXPEBEIPEBV?$PxVec3T@M@3@PEAT__m128@@@Z 0000000180013830 f i GuGeometryQuery.obj
 0001:00012870       ?populateVerts@?$SupportLocalImpl@VConvexHullV@Gu@physx@@@Gu@physx@@UEBAXPEBEIPEBV?$PxVec3T@M@3@PEAT__m128@@@Z 0000000180013870 f i GuGeometryQuery.obj
 0001:000128d0       ?raycast@PxGeometryQuery@physx@@SAIAEBV?$PxVec3T@M@2@0AEBVPxGeometry@2@AEBV?$PxTransformT@M@2@MV?$PxFlags@W4Enum@PxHitFlag@physx@@G@2@IPEIAUPxGeomRaycastHit@2@IV?$PxFlags@W4Enum@PxGeometryQueryFlag@physx@@I@2@PEAUPxQueryThreadContext@2@@Z 00000001800138d0 f   GuGeometryQuery.obj
 0001:000129d0       ?reduceManifoldContactsInDifferentPatches@MultiplePersistentContactManifold@Gu@physx@@QEBAIPEAPEAUPCMContactPatch@23@IPEAVMeshPersistentContact@23@IAEBT__m128@@@Z 00000001800139d0 f i GuGeometryQuery.obj
 0001:00012b40       ?refineContactPatchConnective@MultiplePersistentContactManifold@Gu@physx@@QEBAXPEAPEAUPCMContactPatch@23@IPEAVMeshPersistentContact@23@AEBT__m128@@@Z 0000000180013b40 f i GuGeometryQuery.obj
 0001:00012c30       ?refreshManifold@MultiplePersistentContactManifold@Gu@physx@@QEAAXAEBVPxMatTransformV@aos@3@AEBT__m128@@1@Z 0000000180013c30 f i GuGeometryQuery.obj
 0001:00012d30       ?setRelativeTransform@MultiplePersistentContactManifold@Gu@physx@@QEAAXAEBVPxTransformV@aos@3@@Z 0000000180013d30 f i GuGeometryQuery.obj
 0001:00012d40       ?supportVertexIndex@ConvexHullV@Gu@physx@@QEBAIAEBT__m128@@@Z 0000000180013d40 f i GuGeometryQuery.obj
 0001:00012fc0       ?sweep@PxGeometryQuery@physx@@SA_NAEBV?$PxVec3T@M@2@MAEBVPxGeometry@2@AEBV?$PxTransformT@M@2@12AEAUPxGeomSweepHit@2@V?$PxFlags@W4Enum@PxHitFlag@physx@@G@2@MV?$PxFlags@W4Enum@PxGeometryQueryFlag@physx@@I@2@PEAUPxQueryThreadContext@2@@Z 0000000180013fc0 f   GuGeometryQuery.obj
 0001:00013450       ?computeBoxPoints@Gu@physx@@YAXAEBVPxBounds3@2@PEIAV?$PxVec3T@M@2@@Z 0000000180014450 f   GuInternal.obj
 0001:000134f0       ?computeSweptBox@Gu@physx@@YAXAEAVBox@12@AEBV?$PxVec3T@M@2@1AEBV?$PxMat33T@M@2@1M@Z 00000001800144f0 f   GuInternal.obj
 0001:00013a30       ?getPlane@Gu@physx@@YA?AVPxPlane@2@AEBV?$PxTransformT@M@2@@Z 0000000180014a30 f   GuInternal.obj
 0001:00013e80       ??_ECallbackRaycast@RTree@Gu@physx@@UEAAPEAXI@Z 0000000180014e80 f i GuMidphaseRTree.obj
 0001:00013e80       ??_ECallbackRefit@RTree@Gu@physx@@UEAAPEAXI@Z 0000000180014e80 f i GuTriangleMeshRTree.obj
 0001:00013e80       ??_EPxInsertionCallback@physx@@MEAAPEAXI@Z 0000000180014e80 f i GuMeshFactory.obj
 0001:00013e80       ??_GCallbackRaycast@RTree@Gu@physx@@UEAAPEAXI@Z 0000000180014e80 f i GuMidphaseRTree.obj
 0001:00013e80       ??_GCallbackRefit@RTree@Gu@physx@@UEAAPEAXI@Z 0000000180014e80 f i GuTriangleMeshRTree.obj
 0001:00013e80       ??_GPxInsertionCallback@physx@@MEAAPEAXI@Z 0000000180014e80 f i GuMeshFactory.obj
 0001:00013eb0       ??$copy@V?$PxReflectionAllocator@USlab@NodeAllocator@Gu@physx@@@physx@@@?$PxArray@USlab@NodeAllocator@Gu@physx@@V?$PxReflectionAllocator@USlab@NodeAllocator@Gu@physx@@@4@@physx@@IEAAXAEBV01@@Z 0000000180014eb0 f i GuMeshFactory.obj
 0001:00013f70       ??0AABBTreeBounds@Gu@physx@@QEAA@XZ 0000000180014f70 f i GuMeshFactory.obj
 0001:00013f80       ??0AABBTreeBuildNode@Gu@physx@@QEAA@AEBV012@@Z 0000000180014f80 f i GuMeshFactory.obj
 0001:00013f80       ??4AABBTreeBuildNode@Gu@physx@@QEAAAEAV012@AEBV012@@Z 0000000180014f80 f i GuMeshFactory.obj
 0001:00013fc0       ??0AABBTreeBuildParams@Gu@physx@@QEAA@IIPEBVAABBTreeBounds@12@W4BVHBuildStrategy@12@@Z 0000000180014fc0 f i GuMeshFactory.obj
 0001:00013fe0       ??0MeshFactory@Gu@physx@@QEAA@XZ 0000000180014fe0 f   GuMeshFactory.obj
 0001:000141e0       ??0NodeAllocator@Gu@physx@@QEAA@AEBV012@@Z 00000001800151e0 f i GuMeshFactory.obj
 0001:00014220       ??0TriangleMeshData@Gu@physx@@QEAA@XZ 0000000180015220 f i GuMeshFactory.obj
 0001:00014330       ??1AABBTreeBounds@Gu@physx@@QEAA@XZ 0000000180015330 f i GuMeshFactory.obj
 0001:00014340       ??1AABBTreeBuildParams@Gu@physx@@QEAA@XZ 0000000180015340 f i GuMeshFactory.obj
 0001:00014340       ?reset@AABBTreeBuildParams@Gu@physx@@QEAAXXZ 0000000180015340 f i GuMeshFactory.obj
 0001:00014390       ??1CollisionMeshMappingData@Gu@physx@@UEAA@XZ 0000000180015390 f i GuMeshFactory.obj
 0001:000144e0       ??1MeshDataBase@Gu@physx@@UEAA@XZ 00000001800154e0 f i GuMeshFactory.obj
 0001:00014620       ??1MeshFactory@Gu@physx@@MEAA@XZ 0000000180015620 f   GuMeshFactory.obj
 0001:00014760       ??1RTreeTriangleData@Gu@physx@@UEAA@XZ 0000000180015760 f i GuMeshFactory.obj
 0001:000147d0       ??1SoftBodyCollisionData@Gu@physx@@UEAA@XZ 00000001800157d0 f i GuMeshFactory.obj
 0001:00014910       ??1SoftBodySimulationData@Gu@physx@@UEAA@XZ 0000000180015910 f i GuMeshFactory.obj
 0001:00014a30       ??1TetrahedronMeshData@Gu@physx@@QEAA@XZ 0000000180015a30 f i GuMeshFactory.obj
 0001:00014ac0       ??1TriangleMeshData@Gu@physx@@UEAA@XZ 0000000180015ac0 f i GuMeshFactory.obj
 0001:00014bf0       ??4NodeAllocator@Gu@physx@@QEAAAEAV012@AEBV012@@Z 0000000180015bf0 f i GuMeshFactory.obj
 0001:00014ca0       ??_EMeshFactory@Gu@physx@@MEAAPEAXI@Z 0000000180015ca0 f i GuMeshFactory.obj
 0001:00014dc0       ??_FAABBTreeBuildParams@Gu@physx@@QEAAXXZ 0000000180015dc0 f i GuMeshFactory.obj
 0001:00014de0       ??_EBV4TriangleData@Gu@physx@@UEAAPEAXI@Z 0000000180015de0 f i GuMeshFactory.obj
 0001:00014de0       ??_GBV4TriangleData@Gu@physx@@UEAAPEAXI@Z 0000000180015de0 f i GuMeshFactory.obj
 0001:00014e70       ??_ECollisionMeshMappingData@Gu@physx@@UEAAPEAXI@Z 0000000180015e70 f i GuMeshFactory.obj
 0001:00014e70       ??_GCollisionMeshMappingData@Gu@physx@@UEAAPEAXI@Z 0000000180015e70 f i GuMeshFactory.obj
 0001:00014ee0       ??_EMeshDataBase@Gu@physx@@UEAAPEAXI@Z 0000000180015ee0 f i GuMeshFactory.obj
 0001:00014ee0       ??_GMeshDataBase@Gu@physx@@UEAAPEAXI@Z 0000000180015ee0 f i GuMeshFactory.obj
 0001:00014f50       ??_EPxCollisionMeshMappingData@physx@@UEAAPEAXI@Z 0000000180015f50 f i GuMeshFactory.obj
 0001:00014f50       ??_GPxCollisionMeshMappingData@physx@@UEAAPEAXI@Z 0000000180015f50 f i GuMeshFactory.obj
 0001:00014fa0       ??_ERTreeTriangleData@Gu@physx@@UEAAPEAXI@Z 0000000180015fa0 f i GuMeshFactory.obj
 0001:00014fa0       ??_GRTreeTriangleData@Gu@physx@@UEAAPEAXI@Z 0000000180015fa0 f i GuMeshFactory.obj
 0001:00015050       ??_ESoftBodyCollisionData@Gu@physx@@UEAAPEAXI@Z 0000000180016050 f i GuMeshFactory.obj
 0001:00015050       ??_GSoftBodyCollisionData@Gu@physx@@UEAAPEAXI@Z 0000000180016050 f i GuMeshFactory.obj
 0001:000150c0       ??_ESoftBodySimulationData@Gu@physx@@UEAAPEAXI@Z 00000001800160c0 f i GuMeshFactory.obj
 0001:000150c0       ??_GSoftBodySimulationData@Gu@physx@@UEAAPEAXI@Z 00000001800160c0 f i GuMeshFactory.obj
 0001:00015130       ??_ETriangleMeshData@Gu@physx@@UEAAPEAXI@Z 0000000180016130 f i GuMeshFactory.obj
 0001:00015130       ??_GTriangleMeshData@Gu@physx@@UEAAPEAXI@Z 0000000180016130 f i GuMeshFactory.obj
 0001:000151a0       ??_V@YAXPEAX_K@Z           00000001800161a0 f i LIBCMT:delete_array_size.obj
 0001:000151a0       ?__global_delete@@YAXPEAX_K@Z 00000001800161a0 f i GuMeshFactory.obj
 0001:000151b0       ?addBVH@MeshFactory@Gu@physx@@QEAAXPEAVBVH@23@_N@Z 00000001800161b0 f   GuMeshFactory.obj
 0001:00015250       ?addConvexMesh@MeshFactory@Gu@physx@@QEAAXPEAVConvexMesh@23@_N@Z 0000000180016250 f   GuMeshFactory.obj
 0001:000152f0       ?addFactoryListener@MeshFactory@Gu@physx@@QEAAXAEAVMeshFactoryListener@23@@Z 00000001800162f0 f   GuMeshFactory.obj
 0001:00015360       ?addHeightField@MeshFactory@Gu@physx@@QEAAXPEAVHeightField@23@_N@Z 0000000180016360 f   GuMeshFactory.obj
 0001:00015400       ?addSoftBodyMesh@MeshFactory@Gu@physx@@QEAAXPEAVSoftBodyMesh@23@_N@Z 0000000180016400 f   GuMeshFactory.obj
 0001:000154a0       ?addTetrahedronMesh@MeshFactory@Gu@physx@@QEAAXPEAVTetrahedronMesh@23@_N@Z 00000001800164a0 f   GuMeshFactory.obj
 0001:00015540       ?addTriangleMesh@MeshFactory@Gu@physx@@QEAAXPEAVTriangleMesh@23@_N@Z 0000000180016540 f   GuMeshFactory.obj
 0001:000155e0       ?allocate@?$PxArray@USlab@NodeAllocator@Gu@physx@@V?$PxReflectionAllocator@USlab@NodeAllocator@Gu@physx@@@4@@physx@@IEAAPEAUSlab@NodeAllocator@Gu@2@I@Z 00000001800165e0 f i GuMeshFactory.obj
 0001:00015670       ?allocateAdjacencies@TriangleMeshData@Gu@physx@@QEAAPEAIXZ 0000000180016670 f i GuMeshFactory.obj
 0001:000156e0       ?allocateExtraTrigData@TriangleMeshData@Gu@physx@@QEAAPEAEXZ 00000001800166e0 f i GuMeshFactory.obj
 0001:00015750       ?allocateFaceRemap@TriangleMeshData@Gu@physx@@QEAAPEAIXZ 0000000180016750 f i GuMeshFactory.obj
 0001:000157c0       ?allocateGridModelData@SoftBodySimulationData@Gu@physx@@QEAAXIIIIIII@Z 00000001800167c0 f i GuMeshFactory.obj
 0001:00015a40       ?allocateMaterials@TetrahedronMeshData@Gu@physx@@QEAAPEAGXZ 0000000180016a40 f i GuMeshFactory.obj
 0001:00015ab0       ?allocateMaterials@TriangleMeshData@Gu@physx@@QEAAPEAGXZ 0000000180016ab0 f i GuMeshFactory.obj
 0001:00015b20       ?allocateTetrahedrons@TetrahedronMeshData@Gu@physx@@QEAAXII@Z 0000000180016b20 f i GuMeshFactory.obj
 0001:00015bb0       ?allocateTriangles@TriangleMeshData@Gu@physx@@QEAAPEAXI_NI@Z 0000000180016bb0 f i GuMeshFactory.obj
 0001:00015ca0       ?allocateVertices@MeshDataBase@Gu@physx@@QEAAPEAV?$PxVec3T@M@3@I@Z 0000000180016ca0 f i GuMeshFactory.obj
 0001:00015d10       ?allocateVertices@TetrahedronMeshData@Gu@physx@@QEAAPEAV?$PxVec3T@M@3@II@Z 0000000180016d10 f i GuMeshFactory.obj
 0001:00015db0       ?allocatemappingData@CollisionMeshMappingData@Gu@physx@@QEAAXIIII@Z 0000000180016db0 f i GuMeshFactory.obj
 0001:00015f90       ?create@?$PxHashBase@PEAVBVH@Gu@physx@@PEAV123@U?$PxHash@PEAVBVH@Gu@physx@@@3@UGetKey@?$PxHashSetBase@PEAVBVH@Gu@physx@@U?$PxHash@PEAVBVH@Gu@physx@@@3@VPxAllocator@3@$00@3@VPxAllocator@3@$00@physx@@QEAAPEAPEAVBVH@Gu@2@AEBQEAV342@AEA_N@Z 0000000180016f90 f i GuMeshFactory.obj
 0001:00015f90       ?create@?$PxHashBase@PEAVConvexMesh@Gu@physx@@PEAV123@U?$PxHash@PEAVConvexMesh@Gu@physx@@@3@UGetKey@?$PxHashSetBase@PEAVConvexMesh@Gu@physx@@U?$PxHash@PEAVConvexMesh@Gu@physx@@@3@VPxAllocator@3@$00@3@VPxAllocator@3@$00@physx@@QEAAPEAPEAVConvexMesh@Gu@2@AEBQEAV342@AEA_N@Z 0000000180016f90 f i GuMeshFactory.obj
 0001:00015f90       ?create@?$PxHashBase@PEAVHeightField@Gu@physx@@PEAV123@U?$PxHash@PEAVHeightField@Gu@physx@@@3@UGetKey@?$PxHashSetBase@PEAVHeightField@Gu@physx@@U?$PxHash@PEAVHeightField@Gu@physx@@@3@VPxAllocator@3@$00@3@VPxAllocator@3@$00@physx@@QEAAPEAPEAVHeightField@Gu@2@AEBQEAV342@AEA_N@Z 0000000180016f90 f i GuMeshFactory.obj
 0001:00015f90       ?create@?$PxHashBase@PEAVSoftBodyMesh@Gu@physx@@PEAV123@U?$PxHash@PEAVSoftBodyMesh@Gu@physx@@@3@UGetKey@?$PxHashSetBase@PEAVSoftBodyMesh@Gu@physx@@U?$PxHash@PEAVSoftBodyMesh@Gu@physx@@@3@VPxAllocator@3@$00@3@VPxAllocator@3@$00@physx@@QEAAPEAPEAVSoftBodyMesh@Gu@2@AEBQEAV342@AEA_N@Z 0000000180016f90 f i GuMeshFactory.obj
 0001:00015f90       ?create@?$PxHashBase@PEAVTetrahedronMesh@Gu@physx@@PEAV123@U?$PxHash@PEAVTetrahedronMesh@Gu@physx@@@3@UGetKey@?$PxHashSetBase@PEAVTetrahedronMesh@Gu@physx@@U?$PxHash@PEAVTetrahedronMesh@Gu@physx@@@3@VPxAllocator@3@$00@3@VPxAllocator@3@$00@physx@@QEAAPEAPEAVTetrahedronMesh@Gu@2@AEBQEAV342@AEA_N@Z 0000000180016f90 f i GuMeshFactory.obj
 0001:00015f90       ?create@?$PxHashBase@PEAVTriangleMesh@Gu@physx@@PEAV123@U?$PxHash@PEAVTriangleMesh@Gu@physx@@@3@UGetKey@?$PxHashSetBase@PEAVTriangleMesh@Gu@physx@@U?$PxHash@PEAVTriangleMesh@Gu@physx@@@3@VPxAllocator@3@$00@3@VPxAllocator@3@$00@physx@@QEAAPEAPEAVTriangleMesh@Gu@2@AEBQEAV342@AEA_N@Z 0000000180016f90 f i GuMeshFactory.obj
 0001:00016120       ?createBVH@MeshFactory@Gu@physx@@IEAAPEAVPxBVH@3@AEAVBVHData@23@@Z 0000000180017120 f   GuMeshFactory.obj
 0001:00016250       ?createBVH@MeshFactory@Gu@physx@@QEAAPEAVPxBVH@3@AEAVPxInputStream@3@@Z 0000000180017250 f   GuMeshFactory.obj
 0001:000163a0       ?createBVH@MeshFactory@Gu@physx@@QEAAPEAVPxBVH@3@PEAX@Z 00000001800173a0 f   GuMeshFactory.obj
 0001:000163b0       ?createConvexMesh@MeshFactory@Gu@physx@@IEAAPEAVPxConvexMesh@3@AEAUConvexHullInitData@23@@Z 00000001800173b0 f   GuMeshFactory.obj
 0001:000164e0       ?createConvexMesh@MeshFactory@Gu@physx@@QEAAPEAVPxConvexMesh@3@AEAVPxInputStream@3@@Z 00000001800174e0 f   GuMeshFactory.obj
 0001:00016630       ?createConvexMesh@MeshFactory@Gu@physx@@QEAAPEAVPxConvexMesh@3@PEAX@Z 0000000180017630 f   GuMeshFactory.obj
 0001:00016640       ?createHeightField@MeshFactory@Gu@physx@@QEAAPEAVPxHeightField@3@AEAVPxInputStream@3@@Z 0000000180017640 f   GuMeshFactory.obj
 0001:00016790       ?createHeightField@MeshFactory@Gu@physx@@QEAAPEAVPxHeightField@3@PEAX@Z 0000000180017790 f   GuMeshFactory.obj
 0001:000168c0       ?createSoftBodyMesh@MeshFactory@Gu@physx@@IEAAPEAVPxSoftBodyMesh@3@AEAVSoftBodyMeshData@23@@Z 00000001800178c0 f   GuMeshFactory.obj
 0001:000169f0       ?createSoftBodyMesh@MeshFactory@Gu@physx@@QEAAPEAVPxSoftBodyMesh@3@AEAVPxInputStream@3@@Z 00000001800179f0 f   GuMeshFactory.obj
 0001:00016ff0       ?createSoftBodyMesh@MeshFactory@Gu@physx@@QEAAPEAVPxSoftBodyMesh@3@PEAX@Z 0000000180017ff0 f   GuMeshFactory.obj
 0001:00017000       ?createTetrahedronMesh@MeshFactory@Gu@physx@@IEAAPEAVPxTetrahedronMesh@3@AEAVTetrahedronMeshData@23@@Z 0000000180018000 f   GuMeshFactory.obj
 0001:00017130       ?createTetrahedronMesh@MeshFactory@Gu@physx@@QEAAPEAVPxTetrahedronMesh@3@AEAVPxInputStream@3@@Z 0000000180018130 f   GuMeshFactory.obj
 0001:000171a0       ?createTetrahedronMesh@MeshFactory@Gu@physx@@QEAAPEAVPxTetrahedronMesh@3@PEAX@Z 00000001800181a0 f   GuMeshFactory.obj
 0001:000171b0       ?createTriangleMesh@MeshFactory@Gu@physx@@IEAAPEAVPxTriangleMesh@3@AEAVTriangleMeshData@23@@Z 00000001800181b0 f   GuMeshFactory.obj
 0001:00017360       ?createTriangleMesh@MeshFactory@Gu@physx@@QEAAPEAVPxTriangleMesh@3@AEAVPxInputStream@3@@Z 0000000180018360 f   GuMeshFactory.obj
 0001:000173c0       ?createTriangleMesh@MeshFactory@Gu@physx@@QEAAPEAVPxTriangleMesh@3@PEAX@Z 00000001800183c0 f   GuMeshFactory.obj
 0001:000173d0       ?erase@?$PxHashBase@PEAVBVH@Gu@physx@@PEAV123@U?$PxHash@PEAVBVH@Gu@physx@@@3@UGetKey@?$PxHashSetBase@PEAVBVH@Gu@physx@@U?$PxHash@PEAVBVH@Gu@physx@@@3@VPxAllocator@3@$00@3@VPxAllocator@3@$00@physx@@QEAA_NAEBQEAVBVH@Gu@2@@Z 00000001800183d0 f i GuMeshFactory.obj
 0001:000173d0       ?erase@?$PxHashBase@PEAVConvexMesh@Gu@physx@@PEAV123@U?$PxHash@PEAVConvexMesh@Gu@physx@@@3@UGetKey@?$PxHashSetBase@PEAVConvexMesh@Gu@physx@@U?$PxHash@PEAVConvexMesh@Gu@physx@@@3@VPxAllocator@3@$00@3@VPxAllocator@3@$00@physx@@QEAA_NAEBQEAVConvexMesh@Gu@2@@Z 00000001800183d0 f i GuMeshFactory.obj
 0001:000173d0       ?erase@?$PxHashBase@PEAVHeightField@Gu@physx@@PEAV123@U?$PxHash@PEAVHeightField@Gu@physx@@@3@UGetKey@?$PxHashSetBase@PEAVHeightField@Gu@physx@@U?$PxHash@PEAVHeightField@Gu@physx@@@3@VPxAllocator@3@$00@3@VPxAllocator@3@$00@physx@@QEAA_NAEBQEAVHeightField@Gu@2@@Z 00000001800183d0 f i GuMeshFactory.obj
 0001:000173d0       ?erase@?$PxHashBase@PEAVSoftBodyMesh@Gu@physx@@PEAV123@U?$PxHash@PEAVSoftBodyMesh@Gu@physx@@@3@UGetKey@?$PxHashSetBase@PEAVSoftBodyMesh@Gu@physx@@U?$PxHash@PEAVSoftBodyMesh@Gu@physx@@@3@VPxAllocator@3@$00@3@VPxAllocator@3@$00@physx@@QEAA_NAEBQEAVSoftBodyMesh@Gu@2@@Z 00000001800183d0 f i GuMeshFactory.obj
 0001:000173d0       ?erase@?$PxHashBase@PEAVTetrahedronMesh@Gu@physx@@PEAV123@U?$PxHash@PEAVTetrahedronMesh@Gu@physx@@@3@UGetKey@?$PxHashSetBase@PEAVTetrahedronMesh@Gu@physx@@U?$PxHash@PEAVTetrahedronMesh@Gu@physx@@@3@VPxAllocator@3@$00@3@VPxAllocator@3@$00@physx@@QEAA_NAEBQEAVTetrahedronMesh@Gu@2@@Z 00000001800183d0 f i GuMeshFactory.obj
 0001:000173d0       ?erase@?$PxHashBase@PEAVTriangleMesh@Gu@physx@@PEAV123@U?$PxHash@PEAVTriangleMesh@Gu@physx@@@3@UGetKey@?$PxHashSetBase@PEAVTriangleMesh@Gu@physx@@U?$PxHash@PEAVTriangleMesh@Gu@physx@@@3@VPxAllocator@3@$00@3@VPxAllocator@3@$00@physx@@QEAA_NAEBQEAVTriangleMesh@Gu@2@@Z 00000001800183d0 f i GuMeshFactory.obj
 0001:00017550       ?getBVHs@MeshFactory@Gu@physx@@QEBAIPEAPEAVPxBVH@3@II@Z 0000000180018550 f   GuMeshFactory.obj
 0001:000175f0       ?getBounds@AABBTreeBounds@Gu@physx@@QEAAPEAVPxBounds3@3@XZ 00000001800185f0 f i GuMeshFactory.obj
 0001:000175f0       ?getBounds@AABBTreeBounds@Gu@physx@@QEBAPEBVPxBounds3@3@XZ 00000001800185f0 f i GuMeshFactory.obj
 0001:00017600       ?getConvexMeshes@MeshFactory@Gu@physx@@QEBAIPEAPEAVPxConvexMesh@3@II@Z 0000000180018600 f   GuMeshFactory.obj
 0001:000176a0       ?getHeightFields@MeshFactory@Gu@physx@@QEBAIPEAPEAVPxHeightField@3@II@Z 00000001800186a0 f   GuMeshFactory.obj
 0001:00017740       ?getNbBVHs@MeshFactory@Gu@physx@@QEBAIXZ 0000000180018740 f   GuMeshFactory.obj
 0001:00017780       ?getNbConvexMeshes@MeshFactory@Gu@physx@@QEBAIXZ 0000000180018780 f   GuMeshFactory.obj
 0001:000177c0       ?getNbHeightFields@MeshFactory@Gu@physx@@QEBAIXZ 00000001800187c0 f   GuMeshFactory.obj
 0001:00017800       ?getNbPrimitives@AABBTreeBuildNode@Gu@physx@@QEBAIXZ 0000000180018800 f i GuMeshFactory.obj
 0001:00017800       ?getNbRuntimePrimitives@AABBTreeBuildNode@Gu@physx@@QEBAIXZ 0000000180018800 f i GuMeshFactory.obj
 0001:00017810       ?getNbSoftBodyMeshes@MeshFactory@Gu@physx@@QEBAIXZ 0000000180018810 f   GuMeshFactory.obj
 0001:00017850       ?getNbTetrahedronMeshes@MeshFactory@Gu@physx@@QEBAIXZ 0000000180018850 f   GuMeshFactory.obj
 0001:00017890       ?getNbTriangleMeshes@MeshFactory@Gu@physx@@QEBAIXZ 0000000180018890 f   GuMeshFactory.obj
 0001:000178d0       ?getNeg@AABBTreeBuildNode@Gu@physx@@QEBAPEBV123@XZ 00000001800188d0 f i GuMeshFactory.obj
 0001:000178f0       ?getPrimitives@AABBTreeBuildNode@Gu@physx@@QEAAPEAIPEAI@Z 00000001800188f0 f i GuMeshFactory.obj
 0001:000178f0       ?getPrimitives@AABBTreeBuildNode@Gu@physx@@QEBAPEBIPEBI@Z 00000001800188f0 f i GuMeshFactory.obj
 0001:00017900       ?getSoftBodyMeshes@MeshFactory@Gu@physx@@QEBAIPEAPEAVPxSoftBodyMesh@3@II@Z 0000000180018900 f   GuMeshFactory.obj
 0001:000179a0       ?getTetrahedronMeshes@MeshFactory@Gu@physx@@QEBAIPEAPEAVPxTetrahedronMesh@3@II@Z 00000001800189a0 f   GuMeshFactory.obj
 0001:00017a30       ?getTriangleMeshes@MeshFactory@Gu@physx@@QEBAIPEAPEAVPxTriangleMesh@3@II@Z 0000000180018a30 f   GuMeshFactory.obj
 0001:00017ac0       ?growAndPushBack@?$PxArray@PEAVMeshFactoryListener@Gu@physx@@V?$PxReflectionAllocator@PEAVMeshFactoryListener@Gu@physx@@@3@@physx@@IEAAAEAPEAVMeshFactoryListener@Gu@2@AEBQEAV342@@Z 0000000180018ac0 f i GuMeshFactory.obj
 0001:00017be0       ?isLeaf@AABBTreeBuildNode@Gu@physx@@QEBA_NXZ 0000000180018be0 f i GuMeshFactory.obj
 0001:000196a0       ?moveFrom@AABBTreeBounds@Gu@physx@@QEAAXAEAV123@@Z 000000018001a6a0 f i GuMeshFactory.obj
 0001:000196b0       ?notifyFactoryListener@MeshFactory@Gu@physx@@QEAAXPEBVPxBase@3@G@Z 000000018001a6b0 f   GuMeshFactory.obj
 0001:00019720       ?notifyListenersAdd@MeshFactory@Gu@physx@@IEAAXPEBVPxBase@3@@Z 000000018001a720 f   GuMeshFactory.obj
 0001:00019770       ?notifyListenersRemove@MeshFactory@Gu@physx@@IEAAXPEBVPxBase@3@@Z 000000018001a770 f   GuMeshFactory.obj
 0001:000197c0       ?ownsMemory@AABBTreeBounds@Gu@physx@@QEBA_NXZ 000000018001a7c0 f i GuMeshFactory.obj
 0001:00019aa0       ?recreate@?$PxArray@USlab@NodeAllocator@Gu@physx@@V?$PxReflectionAllocator@USlab@NodeAllocator@Gu@physx@@@4@@physx@@IEAAXI@Z 000000018001aaa0 f i GuMeshFactory.obj
 0001:00019b50       ?release@CollisionMeshMappingData@Gu@physx@@UEAAXXZ 000000018001ab50 f i GuMeshFactory.obj
 0001:00019b70       ?release@MeshFactory@Gu@physx@@QEAAXXZ 000000018001ab70 f   GuMeshFactory.obj
 0001:00019c70       ?remove@MeshFactory@Gu@physx@@QEAA_NAEAVPxBase@3@@Z 000000018001ac70 f   GuMeshFactory.obj
 0001:00019cc0       ?removeBVH@MeshFactory@Gu@physx@@QEAA_NAEAVPxBVH@3@@Z 000000018001acc0 f   GuMeshFactory.obj
 0001:00019d50       ?removeConvexMesh@MeshFactory@Gu@physx@@QEAA_NAEAVPxConvexMesh@3@@Z 000000018001ad50 f   GuMeshFactory.obj
 0001:00019de0       ?removeFactoryListener@MeshFactory@Gu@physx@@QEAAXAEAVMeshFactoryListener@23@@Z 000000018001ade0 f   GuMeshFactory.obj
 0001:00019e70       ?removeHeightField@MeshFactory@Gu@physx@@QEAA_NAEAVPxHeightField@3@@Z 000000018001ae70 f   GuMeshFactory.obj
 0001:00019f00       ?removeSoftBodyMesh@MeshFactory@Gu@physx@@QEAA_NAEAVPxSoftBodyMesh@3@@Z 000000018001af00 f   GuMeshFactory.obj
 0001:00019f90       ?removeTetrahedronMesh@MeshFactory@Gu@physx@@QEAA_NAEAVPxTetrahedronMesh@3@@Z 000000018001af90 f   GuMeshFactory.obj
 0001:0001a020       ?removeTriangleMesh@MeshFactory@Gu@physx@@QEAA_NAEAVPxTriangleMesh@3@@Z 000000018001b020 f   GuMeshFactory.obj
 0001:0001a0b0       ?reserveInternal@?$PxHashBase@PEAVBVH@Gu@physx@@PEAV123@U?$PxHash@PEAVBVH@Gu@physx@@@3@UGetKey@?$PxHashSetBase@PEAVBVH@Gu@physx@@U?$PxHash@PEAVBVH@Gu@physx@@@3@VPxAllocator@3@$00@3@VPxAllocator@3@$00@physx@@AEAAXI@Z 000000018001b0b0 f i GuMeshFactory.obj
 0001:0001a0b0       ?reserveInternal@?$PxHashBase@PEAVConvexMesh@Gu@physx@@PEAV123@U?$PxHash@PEAVConvexMesh@Gu@physx@@@3@UGetKey@?$PxHashSetBase@PEAVConvexMesh@Gu@physx@@U?$PxHash@PEAVConvexMesh@Gu@physx@@@3@VPxAllocator@3@$00@3@VPxAllocator@3@$00@physx@@AEAAXI@Z 000000018001b0b0 f i GuMeshFactory.obj
 0001:0001a0b0       ?reserveInternal@?$PxHashBase@PEAVHeightField@Gu@physx@@PEAV123@U?$PxHash@PEAVHeightField@Gu@physx@@@3@UGetKey@?$PxHashSetBase@PEAVHeightField@Gu@physx@@U?$PxHash@PEAVHeightField@Gu@physx@@@3@VPxAllocator@3@$00@3@VPxAllocator@3@$00@physx@@AEAAXI@Z 000000018001b0b0 f i GuMeshFactory.obj
 0001:0001a0b0       ?reserveInternal@?$PxHashBase@PEAVSoftBodyMesh@Gu@physx@@PEAV123@U?$PxHash@PEAVSoftBodyMesh@Gu@physx@@@3@UGetKey@?$PxHashSetBase@PEAVSoftBodyMesh@Gu@physx@@U?$PxHash@PEAVSoftBodyMesh@Gu@physx@@@3@VPxAllocator@3@$00@3@VPxAllocator@3@$00@physx@@AEAAXI@Z 000000018001b0b0 f i GuMeshFactory.obj
 0001:0001a0b0       ?reserveInternal@?$PxHashBase@PEAVTetrahedronMesh@Gu@physx@@PEAV123@U?$PxHash@PEAVTetrahedronMesh@Gu@physx@@@3@UGetKey@?$PxHashSetBase@PEAVTetrahedronMesh@Gu@physx@@U?$PxHash@PEAVTetrahedronMesh@Gu@physx@@@3@VPxAllocator@3@$00@3@VPxAllocator@3@$00@physx@@AEAAXI@Z 000000018001b0b0 f i GuMeshFactory.obj
 0001:0001a0b0       ?reserveInternal@?$PxHashBase@PEAVTriangleMesh@Gu@physx@@PEAV123@U?$PxHash@PEAVTriangleMesh@Gu@physx@@@3@UGetKey@?$PxHashSetBase@PEAVTriangleMesh@Gu@physx@@U?$PxHash@PEAVTriangleMesh@Gu@physx@@@3@VPxAllocator@3@$00@3@VPxAllocator@3@$00@physx@@AEAAXI@Z 000000018001b0b0 f i GuMeshFactory.obj
 0001:0001a280       ?setBounds@AABBTreeBounds@Gu@physx@@QEAAXPEAVPxBounds3@3@@Z 000000018001b280 f i GuMeshFactory.obj
 0001:0001a290       ?setNbRunTimePrimitives@AABBTreeBuildNode@Gu@physx@@QEAAXI@Z 000000018001b290 f i GuMeshFactory.obj
 0001:0001a2a0       ?takeOwnership@AABBTreeBounds@Gu@physx@@QEAAXXZ 000000018001b2a0 f i GuMeshFactory.obj
 0001:0001a2b0       getInsertionCallback       000000018001b2b0 f   GuMeshFactory.obj
 0001:0001a2c0       ??4BigConvexData@physx@@QEAAAEAV01@AEBV01@@Z 000000018001b2c0 f i GuMetaData.obj
 0001:0001a2e0       ?GetAdjacentVerts@BigConvexData@physx@@QEBAPEBEXZ 000000018001b2e0 f i GuMetaData.obj
 0001:0001a2e0       ?getSoftBodyAuxData@SoftBodyMesh@Gu@physx@@UEAAPEAVPxSoftBodyAuxData@3@XZ 000000018001b2e0 f i GuTetrahedronMesh.obj
 0001:0001a2e0       ?getSoftBodyAuxData@SoftBodyMesh@Gu@physx@@UEBAPEBVPxSoftBodyAuxData@3@XZ 000000018001b2e0 f i GuTetrahedronMesh.obj
 0001:0001a2e0       ?getTransforms@PruningPool@Gu@physx@@QEAAPEAV?$PxTransformT@M@3@XZ 000000018001b2e0 f i GuIncrementalAABBPrunerCore.obj
 0001:0001a2e0       ?getTransforms@PruningPool@Gu@physx@@QEBAPEBV?$PxTransformT@M@3@XZ 000000018001b2e0 f i GuIncrementalAABBPrunerCore.obj
 0001:0001a2e0       ?getTriangles@TriangleMesh@Gu@physx@@UEBAPEBXXZ 000000018001b2e0 f i GuTriangleMesh.obj
 0001:0001a2f0       ?GetNbNeighbors@BigConvexData@physx@@QEBAGI@Z 000000018001b2f0 f i GuMetaData.obj
 0001:0001a2f0       ?GetValency@BigConvexData@physx@@QEBAGI@Z 000000018001b2f0 f i GuMetaData.obj
 0001:0001a300       ?GetNbSamples@BigConvexData@physx@@QEBAIXZ 000000018001b300 f i GuMetaData.obj
 0001:0001a310       ?GetNbVerts@BigConvexData@physx@@QEBAIXZ 000000018001b310 f i GuMetaData.obj
 0001:0001a310       ?getNbVertices@TetrahedronMesh@Gu@physx@@UEBAIXZ 000000018001b310 f i GuTetrahedronMesh.obj
 0001:0001a310       ?getNbVertices@TriangleMesh@Gu@physx@@UEBAIXZ 000000018001b310 f i GuTriangleMesh.obj
 0001:0001a310       ?length@pcharNode@@UEBAHXZ 000000018001b310 f i libvcruntime:undname.obj
 0001:0001a310       ?raw_length@pcharNode@@UEBAHXZ 000000018001b310 f i libvcruntime:undname.obj
 0001:0001a320       ?GetNeighbors@BigConvexData@physx@@QEBAPEBEI@Z 000000018001b320 f i GuMetaData.obj
 0001:0001a330       ?GetOffset@BigConvexData@physx@@QEBAGI@Z 000000018001b330 f i GuMetaData.obj
 0001:0001a340       ?GetSubdiv@BigConvexData@physx@@QEBAIXZ 000000018001b340 f i GuMetaData.obj
 0001:0001a350       ?getBinaryMetaData@BV4Tree@Gu@physx@@SAXAEAVPxOutputStream@3@@Z 000000018001b350 f   GuMetaData.obj
 0001:0001a8f0       ?getBinaryMetaData@BV4TriangleMesh@Gu@physx@@SAXAEAVPxOutputStream@3@@Z 000000018001b8f0 f   GuMetaData.obj
 0001:0001ac70       ?getBinaryMetaData@BigConvexData@physx@@SAXAEAVPxOutputStream@2@@Z 000000018001bc70 f   GuMetaData.obj
 0001:0001af30       ?getBinaryMetaData@ConvexMesh@Gu@physx@@SAXAEAVPxOutputStream@3@@Z 000000018001bf30 f   GuMetaData.obj
 0001:0001b5c0       ?getBinaryMetaData@HeightField@Gu@physx@@SAXAEAVPxOutputStream@3@@Z 000000018001c5c0 f   GuMetaData.obj
 0001:0001b9b0       ?getBinaryMetaData@RTree@Gu@physx@@SAXAEAVPxOutputStream@3@@Z 000000018001c9b0 f   GuMetaData.obj
 0001:0001bce0       ?getBinaryMetaData@RTreeTriangleMesh@Gu@physx@@SAXAEAVPxOutputStream@3@@Z 000000018001cce0 f   GuMetaData.obj
 0001:0001bdc0       ?getBinaryMetaData@TriangleMesh@Gu@physx@@SAXAEAVPxOutputStream@3@@Z 000000018001cdc0 f   GuMetaData.obj
 0001:0001d900       ?doSupport@?$SupportLocalImpl@VConvexHullNoScaleV@Gu@physx@@@Gu@physx@@UEBA?AT__m128@@AEBT4@@Z 000000018001e900 f i GuMTD.obj
 0001:0001d950       ?doSupport@?$SupportLocalImpl@VConvexHullNoScaleV@Gu@physx@@@Gu@physx@@UEBAXAEBT__m128@@AEAT4@1@Z 000000018001e950 f i GuMTD.obj
 0001:0001dad0       ?populateVerts@?$SupportLocalImpl@VConvexHullNoScaleV@Gu@physx@@@Gu@physx@@UEBAXPEBEIPEBV?$PxVec3T@M@3@PEAT__m128@@@Z 000000018001ead0 f i GuMTD.obj
 0001:0001db10       ?getInternalData@TriangleMesh@Gu@physx@@UEBA_NAEAUPxTriangleMeshInternalData@3@_N@Z 000000018001eb10 f   GuTriangleMesh.obj
 0001:0001db10       ?isDynamic@Pruner@Gu@physx@@UEBA_NXZ 000000018001eb10 f   GuIncrementalAABBPruner.obj
 0001:0001f950       ??$gjk@U?$LocalConvex@VCapsuleV@Gu@physx@@@Gu@physx@@U?$LocalConvex@VConvexHullV@Gu@physx@@@23@@Gu@physx@@YA?AW4GjkStatus@01@AEBU?$LocalConvex@VCapsuleV@Gu@physx@@@01@AEBU?$LocalConvex@VConvexHullV@Gu@physx@@@01@AEBT__m128@@2AEAT5@333@Z 0000000180020950 f i GuMTD.obj
 0001:000206b0       ??0SeparatingAxes@Gu@physx@@QEAA@$$QEAV012@@Z 00000001800216b0 f i GuMTD.obj
 0001:000206b0       ??0SeparatingAxes@Gu@physx@@QEAA@AEBV012@@Z 00000001800216b0 f i GuMTD.obj
 0001:000207c0       ??0SeparatingAxes@Gu@physx@@QEAA@XZ 00000001800217c0 f i GuMTD.obj
 0001:000207d0       ??4SeparatingAxes@Gu@physx@@QEAAAEAV012@$$QEAV012@@Z 00000001800217d0 f i GuMTD.obj
 0001:000207d0       ??4SeparatingAxes@Gu@physx@@QEAAAEAV012@AEBV012@@Z 00000001800217d0 f i GuMTD.obj
 0001:000208e0       ??_E?$LocalConvex@UCustomConvexV@@@Gu@physx@@UEAAPEAXI@Z 00000001800218e0 f i GuGjkQuery.obj
 0001:000208e0       ??_E?$LocalConvex@UPointConvexV@@@Gu@physx@@UEAAPEAXI@Z 00000001800218e0 f i GuGjkQuery.obj
 0001:000208e0       ??_E?$LocalConvex@VBoxV@Gu@physx@@@Gu@physx@@UEAAPEAXI@Z 00000001800218e0 f i GuSweepTests.obj
 0001:000208e0       ??_E?$LocalConvex@VCapsuleV@Gu@physx@@@Gu@physx@@UEAAPEAXI@Z 00000001800218e0 f i GuMTD.obj
 0001:000208e0       ??_E?$LocalConvex@VConvexHullNoScaleV@Gu@physx@@@Gu@physx@@UEAAPEAXI@Z 00000001800218e0 f i GuPCMContactBoxConvex.obj
 0001:000208e0       ??_E?$LocalConvex@VConvexHullV@Gu@physx@@@Gu@physx@@UEAAPEAXI@Z 00000001800218e0 f i GuMTD.obj
 0001:000208e0       ??_E?$LocalConvex@VTetrahedronV@Gu@physx@@@Gu@physx@@UEAAPEAXI@Z 00000001800218e0 f i GuCookingTetrahedronMesh.obj
 0001:000208e0       ??_E?$LocalConvex@VTriangleV@Gu@physx@@@Gu@physx@@UEAAPEAXI@Z 00000001800218e0 f i GuSweepTests.obj
 0001:000208e0       ??_EGjkConvex@Gu@physx@@UEAAPEAXI@Z 00000001800218e0 f i GuMTD.obj
 0001:000208e0       ??_G?$LocalConvex@UCustomConvexV@@@Gu@physx@@UEAAPEAXI@Z 00000001800218e0 f i GuGjkQuery.obj
 0001:000208e0       ??_G?$LocalConvex@UPointConvexV@@@Gu@physx@@UEAAPEAXI@Z 00000001800218e0 f i GuGjkQuery.obj
 0001:000208e0       ??_G?$LocalConvex@VBoxV@Gu@physx@@@Gu@physx@@UEAAPEAXI@Z 00000001800218e0 f i GuSweepTests.obj
 0001:000208e0       ??_G?$LocalConvex@VCapsuleV@Gu@physx@@@Gu@physx@@UEAAPEAXI@Z 00000001800218e0 f i GuMTD.obj
 0001:000208e0       ??_G?$LocalConvex@VConvexHullNoScaleV@Gu@physx@@@Gu@physx@@UEAAPEAXI@Z 00000001800218e0 f i GuPCMContactBoxConvex.obj
 0001:000208e0       ??_G?$LocalConvex@VConvexHullV@Gu@physx@@@Gu@physx@@UEAAPEAXI@Z 00000001800218e0 f i GuMTD.obj
 0001:000208e0       ??_G?$LocalConvex@VTetrahedronV@Gu@physx@@@Gu@physx@@UEAAPEAXI@Z 00000001800218e0 f i GuCookingTetrahedronMesh.obj
 0001:000208e0       ??_G?$LocalConvex@VTriangleV@Gu@physx@@@Gu@physx@@UEAAPEAXI@Z 00000001800218e0 f i GuSweepTests.obj
 0001:000208e0       ??_GGjkConvex@Gu@physx@@UEAAPEAXI@Z 00000001800218e0 f i GuMTD.obj
 0001:00024a70       ?getAxes@SeparatingAxes@Gu@physx@@QEBAPEBV?$PxVec3T@M@3@XZ 0000000180025a70 f i GuMTD.obj
 0001:00024a80       ?getCenter@?$LocalConvex@UCustomConvexV@@@Gu@physx@@UEBA?AT__m128@@XZ 0000000180025a80 f i GuGjkQuery.obj
 0001:00024a80       ?getCenter@?$LocalConvex@UPointConvexV@@@Gu@physx@@UEBA?AT__m128@@XZ 0000000180025a80 f i GuGjkQuery.obj
 0001:00024a80       ?getCenter@?$LocalConvex@VBoxV@Gu@physx@@@Gu@physx@@UEBA?AT__m128@@XZ 0000000180025a80 f i GuSweepTests.obj
 0001:00024a80       ?getCenter@?$LocalConvex@VCapsuleV@Gu@physx@@@Gu@physx@@UEBA?AT__m128@@XZ 0000000180025a80 f i GuMTD.obj
 0001:00024a80       ?getCenter@?$LocalConvex@VConvexHullNoScaleV@Gu@physx@@@Gu@physx@@UEBA?AT__m128@@XZ 0000000180025a80 f i GuPCMContactBoxConvex.obj
 0001:00024a80       ?getCenter@?$LocalConvex@VConvexHullV@Gu@physx@@@Gu@physx@@UEBA?AT__m128@@XZ 0000000180025a80 f i GuMTD.obj
 0001:00024a80       ?getCenter@?$LocalConvex@VTetrahedronV@Gu@physx@@@Gu@physx@@UEBA?AT__m128@@XZ 0000000180025a80 f i GuCookingTetrahedronMesh.obj
 0001:00024a80       ?getCenter@?$LocalConvex@VTriangleV@Gu@physx@@@Gu@physx@@UEBA?AT__m128@@XZ 0000000180025a80 f i GuSweepTests.obj
 0001:00024a90       ?getCount@BuildStats@Gu@physx@@QEBAIXZ 0000000180025a90 f i GuBV4Build.obj
 0001:00024a90       ?getNbActiveObjects@PruningPool@Gu@physx@@QEBAIXZ 0000000180025a90 f i GuIncrementalAABBPrunerCore.obj
 0001:00024a90       ?getNumAxes@SeparatingAxes@Gu@physx@@QEBAIXZ 0000000180025a90 f i GuMTD.obj
 0001:00024aa0       ?getSweepMargin@?$LocalConvex@VCapsuleV@Gu@physx@@@Gu@physx@@UEBA?AT__m128@@XZ 0000000180025aa0 f i GuMTD.obj
 0001:00024aa0       ?getSweepMargin@?$RelativeConvex@VCapsuleV@Gu@physx@@@Gu@physx@@UEBA?AT__m128@@XZ 0000000180025aa0 f i GuCCDSweepPrimitives.obj
 0001:00024ab0       ?getSweepMargin@?$LocalConvex@UCustomConvexV@@@Gu@physx@@UEBA?AT__m128@@XZ 0000000180025ab0 f i GuGjkQuery.obj
 0001:00024ab0       ?getSweepMargin@?$LocalConvex@UPointConvexV@@@Gu@physx@@UEBA?AT__m128@@XZ 0000000180025ab0 f i GuGjkQuery.obj
 0001:00024ab0       ?getSweepMargin@?$LocalConvex@VBoxV@Gu@physx@@@Gu@physx@@UEBA?AT__m128@@XZ 0000000180025ab0 f i GuSweepTests.obj
 0001:00024ab0       ?getSweepMargin@?$LocalConvex@VConvexHullNoScaleV@Gu@physx@@@Gu@physx@@UEBA?AT__m128@@XZ 0000000180025ab0 f i GuPCMContactBoxConvex.obj
 0001:00024ab0       ?getSweepMargin@?$LocalConvex@VConvexHullV@Gu@physx@@@Gu@physx@@UEBA?AT__m128@@XZ 0000000180025ab0 f i GuMTD.obj
 0001:00024ab0       ?getSweepMargin@?$RelativeConvex@UCustomConvexV@@@Gu@physx@@UEBA?AT__m128@@XZ 0000000180025ab0 f i GuGjkQuery.obj
 0001:00024ab0       ?getSweepMargin@?$RelativeConvex@VBoxV@Gu@physx@@@Gu@physx@@UEBA?AT__m128@@XZ 0000000180025ab0 f i GuOverlapTests.obj
 0001:00024ab0       ?getSweepMargin@?$RelativeConvex@VConvexHullNoScaleV@Gu@physx@@@Gu@physx@@UEBA?AT__m128@@XZ 0000000180025ab0 f i GuPCMContactConvexConvex.obj
 0001:00024ab0       ?getSweepMargin@?$RelativeConvex@VConvexHullV@Gu@physx@@@Gu@physx@@UEBA?AT__m128@@XZ 0000000180025ab0 f i GuOverlapTests.obj
 0001:00024ad0       ?getSweepMargin@GjkConvex@Gu@physx@@UEBA?AT__m128@@XZ 0000000180025ad0 f i GuMTD.obj
 0001:00024af0       ?pointConvexDistance@@YA_NAEAV?$PxVec3T@M@physx@@0AEAMAEBV12@PEBVConvexMesh@Gu@2@AEBVPxMeshScale@2@AEBUPxTransformPadded@2@@Z 0000000180025af0 f   GuMTD.obj
 0001:00025850       ?reset@SeparatingAxes@Gu@physx@@QEAAXXZ 0000000180026850 f i GuMTD.obj
 0001:00025860       ?support@?$LocalConvex@VCapsuleV@Gu@physx@@@Gu@physx@@UEBA?AT__m128@@AEBT4@@Z 0000000180026860 f i GuMTD.obj
 0001:000258c0       ?support@?$LocalConvex@VCapsuleV@Gu@physx@@@Gu@physx@@UEBA?AT__m128@@AEBT4@AEAH@Z 00000001800268c0 f i GuMTD.obj
 0001:00025930       ?support@?$LocalConvex@VConvexHullV@Gu@physx@@@Gu@physx@@UEBA?AT__m128@@AEBT4@@Z 0000000180026930 f i GuMTD.obj
 0001:00025a10       ?support@?$LocalConvex@VConvexHullV@Gu@physx@@@Gu@physx@@UEBA?AT__m128@@AEBT4@AEAH@Z 0000000180026a10 f i GuMTD.obj
 0001:00025ae0       ?support@GjkConvex@Gu@physx@@UEBA?AT__m128@@AEBT4@@Z 0000000180026ae0 f i GuMTD.obj
 0001:00025b00       ?support@GjkConvex@Gu@physx@@UEBA?AT__m128@@AEBT4@AEAH@Z 0000000180026b00 f i GuMTD.obj
 0001:00025b20       ?supportPoint@?$LocalConvex@VCapsuleV@Gu@physx@@@Gu@physx@@UEBA?AT__m128@@H@Z 0000000180026b20 f i GuMTD.obj
 0001:00025b50       ?supportPoint@?$LocalConvex@VConvexHullV@Gu@physx@@@Gu@physx@@UEBA?AT__m128@@H@Z 0000000180026b50 f i GuMTD.obj
 0001:00025ba0       ?supportPoint@GjkConvex@Gu@physx@@UEBA?AT__m128@@H@Z 0000000180026ba0 f i GuMTD.obj
 0001:00025bc0       ?supportPoint@?$RelativeConvex@VBoxV@Gu@physx@@@Gu@physx@@UEBA?AT__m128@@H@Z 0000000180026bc0 f i GuOverlapTests.obj
 0001:00025c30       ?support@?$RelativeConvex@VBoxV@Gu@physx@@@Gu@physx@@UEBA?AT__m128@@AEBT4@@Z 0000000180026c30 f i GuOverlapTests.obj
 0001:00025cb0       ?support@?$RelativeConvex@VBoxV@Gu@physx@@@Gu@physx@@UEBA?AT__m128@@AEBT4@AEAH@Z 0000000180026cb0 f i GuOverlapTests.obj
 0001:00025d40       ?getCenter@?$RelativeConvex@UCustomConvexV@@@Gu@physx@@UEBA?AT__m128@@XZ 0000000180026d40 f i GuGjkQuery.obj
 0001:00025d40       ?getCenter@?$RelativeConvex@VBoxV@Gu@physx@@@Gu@physx@@UEBA?AT__m128@@XZ 0000000180026d40 f i GuOverlapTests.obj
 0001:00025d40       ?getCenter@?$RelativeConvex@VCapsuleV@Gu@physx@@@Gu@physx@@UEBA?AT__m128@@XZ 0000000180026d40 f i GuCCDSweepPrimitives.obj
 0001:00025d40       ?getCenter@?$RelativeConvex@VConvexHullNoScaleV@Gu@physx@@@Gu@physx@@UEBA?AT__m128@@XZ 0000000180026d40 f i GuPCMContactConvexConvex.obj
 0001:00025d40       ?getCenter@?$RelativeConvex@VConvexHullV@Gu@physx@@@Gu@physx@@UEBA?AT__m128@@XZ 0000000180026d40 f i GuOverlapTests.obj
 0001:00025d40       ?getCenter@?$RelativeConvex@VTriangleV@Gu@physx@@@Gu@physx@@UEBA?AT__m128@@XZ 0000000180026d40 f i GuCCDSweepPrimitives.obj
 0001:00025d80       ??_E?$RelativeConvex@UCustomConvexV@@@Gu@physx@@UEAAPEAXI@Z 0000000180026d80 f i GuGjkQuery.obj
 0001:00025d80       ??_E?$RelativeConvex@VBoxV@Gu@physx@@@Gu@physx@@UEAAPEAXI@Z 0000000180026d80 f i GuOverlapTests.obj
 0001:00025d80       ??_E?$RelativeConvex@VCapsuleV@Gu@physx@@@Gu@physx@@UEAAPEAXI@Z 0000000180026d80 f i GuCCDSweepPrimitives.obj
 0001:00025d80       ??_E?$RelativeConvex@VConvexHullNoScaleV@Gu@physx@@@Gu@physx@@UEAAPEAXI@Z 0000000180026d80 f i GuPCMContactConvexConvex.obj
 0001:00025d80       ??_E?$RelativeConvex@VConvexHullV@Gu@physx@@@Gu@physx@@UEAAPEAXI@Z 0000000180026d80 f i GuOverlapTests.obj
 0001:00025d80       ??_E?$RelativeConvex@VTriangleV@Gu@physx@@@Gu@physx@@UEAAPEAXI@Z 0000000180026d80 f i GuCCDSweepPrimitives.obj
 0001:00025d80       ??_G?$RelativeConvex@UCustomConvexV@@@Gu@physx@@UEAAPEAXI@Z 0000000180026d80 f i GuGjkQuery.obj
 0001:00025d80       ??_G?$RelativeConvex@VBoxV@Gu@physx@@@Gu@physx@@UEAAPEAXI@Z 0000000180026d80 f i GuOverlapTests.obj
 0001:00025d80       ??_G?$RelativeConvex@VCapsuleV@Gu@physx@@@Gu@physx@@UEAAPEAXI@Z 0000000180026d80 f i GuCCDSweepPrimitives.obj
 0001:00025d80       ??_G?$RelativeConvex@VConvexHullNoScaleV@Gu@physx@@@Gu@physx@@UEAAPEAXI@Z 0000000180026d80 f i GuPCMContactConvexConvex.obj
 0001:00025d80       ??_G?$RelativeConvex@VConvexHullV@Gu@physx@@@Gu@physx@@UEAAPEAXI@Z 0000000180026d80 f i GuOverlapTests.obj
 0001:00025d80       ??_G?$RelativeConvex@VTriangleV@Gu@physx@@@Gu@physx@@UEAAPEAXI@Z 0000000180026d80 f i GuCCDSweepPrimitives.obj
 0001:00027f30       ?supportPoint@?$RelativeConvex@VConvexHullV@Gu@physx@@@Gu@physx@@UEBA?AT__m128@@H@Z 0000000180028f30 f i GuOverlapTests.obj
 0001:00027fb0       ?support@?$RelativeConvex@VConvexHullV@Gu@physx@@@Gu@physx@@UEBA?AT__m128@@AEBT4@@Z 0000000180028fb0 f i GuOverlapTests.obj
 0001:000280e0       ?support@?$RelativeConvex@VConvexHullV@Gu@physx@@@Gu@physx@@UEBA?AT__m128@@AEBT4@AEAH@Z 00000001800290e0 f i GuOverlapTests.obj
 0001:00028270       ??$gjk@U?$RelativeConvex@VBoxV@Gu@physx@@@Gu@physx@@U?$LocalConvex@VConvexHullV@Gu@physx@@@23@@Gu@physx@@YA?AW4GjkStatus@01@AEBU?$RelativeConvex@VBoxV@Gu@physx@@@01@AEBU?$LocalConvex@VConvexHullV@Gu@physx@@@01@AEBT__m128@@2AEAT5@333@Z 0000000180029270 f i GuOverlapTests.obj
 0001:00029020       ??$gjk@U?$RelativeConvex@VConvexHullV@Gu@physx@@@Gu@physx@@U?$LocalConvex@VConvexHullV@Gu@physx@@@23@@Gu@physx@@YA?AW4GjkStatus@01@AEBU?$RelativeConvex@VConvexHullV@Gu@physx@@@01@AEBU?$LocalConvex@VConvexHullV@Gu@physx@@@01@AEBT__m128@@2AEAT5@333@Z 000000018002a020 f i GuOverlapTests.obj
 0001:00029ea0       ?ComputeCubemapNearestOffset@physx@@YAIAEBV?$PxVec3T@M@1@I@Z 000000018002aea0 f i GuOverlapTests.obj
 0001:00029fa0       ?getOverlapFuncTable@Gu@physx@@YAPEAY0L@Q6A_NAEBVPxGeometry@2@AEBV?$PxTransformT@M@2@01PEAUTriggerCache@12@PEAUPxQueryThreadContext@2@@ZXZ 000000018002afa0 f   GuOverlapTests.obj
 0001:0002bb40       ?raycast_box@@YAIAEBVPxGeometry@physx@@AEBV?$PxTransformT@M@2@AEBV?$PxVec3T@M@2@2MV?$PxFlags@W4Enum@PxHitFlag@physx@@G@2@IPEIAUPxGeomRaycastHit@2@IPEAUPxQueryThreadContext@2@@Z 000000018002cb40 f   GuRaycastTests.obj
 0001:0002c170       ?raycast_sphere@@YAIAEBVPxGeometry@physx@@AEBV?$PxTransformT@M@2@AEBV?$PxVec3T@M@2@2MV?$PxFlags@W4Enum@PxHitFlag@physx@@G@2@IPEIAUPxGeomRaycastHit@2@IPEAUPxQueryThreadContext@2@@Z 000000018002d170 f   GuRaycastTests.obj
 0001:0002c300       ?raycast_capsule@@YAIAEBVPxGeometry@physx@@AEBV?$PxTransformT@M@2@AEBV?$PxVec3T@M@2@2MV?$PxFlags@W4Enum@PxHitFlag@physx@@G@2@IPEIAUPxGeomRaycastHit@2@IPEAUPxQueryThreadContext@2@@Z 000000018002d300 f   GuRaycastTests.obj
 0001:0002c860       ?raycast_plane@@YAIAEBVPxGeometry@physx@@AEBV?$PxTransformT@M@2@AEBV?$PxVec3T@M@2@2MV?$PxFlags@W4Enum@PxHitFlag@physx@@G@2@IPEIAUPxGeomRaycastHit@2@IPEAUPxQueryThreadContext@2@@Z 000000018002d860 f   GuRaycastTests.obj
 0001:0002c9d0       ?raycast_convexMesh@@YAIAEBVPxGeometry@physx@@AEBV?$PxTransformT@M@2@AEBV?$PxVec3T@M@2@2MV?$PxFlags@W4Enum@PxHitFlag@physx@@G@2@IPEIAUPxGeomRaycastHit@2@IPEAUPxQueryThreadContext@2@@Z 000000018002d9d0 f   GuRaycastTests.obj
 0001:0002d4d0       ?getMidphaseID@RTreeTriangleMesh@Gu@physx@@UEBA?AW4Enum@PxMeshMidPhase@3@XZ 000000018002e4d0 f   GuTriangleMeshRTree.obj
 0001:0002d4d0       ?getMidphaseID@RTreeTriangleMeshBuilder@physx@@UEBA?AW4Enum@PxMeshMidPhase@2@XZ 000000018002e4d0 f   GuCookingTriangleMesh.obj
 0001:0002d4d0       ?getTetrahedraRemap@TetrahedronMesh@Gu@physx@@UEBAPEBIXZ 000000018002e4d0 f   GuTetrahedronMesh.obj
 0001:0002d4d0       ?raycast_hairsystem@@YAIAEBVPxGeometry@physx@@AEBV?$PxTransformT@M@2@AEBV?$PxVec3T@M@2@2MV?$PxFlags@W4Enum@PxHitFlag@physx@@G@2@IPEIAUPxGeomRaycastHit@2@IPEAUPxQueryThreadContext@2@@Z 000000018002e4d0 f   GuRaycastTests.obj
 0001:0002d4d0       ?raycast_particlesystem@@YAIAEBVPxGeometry@physx@@AEBV?$PxTransformT@M@2@AEBV?$PxVec3T@M@2@2MV?$PxFlags@W4Enum@PxHitFlag@physx@@G@2@IPEIAUPxGeomRaycastHit@2@IPEAUPxQueryThreadContext@2@@Z 000000018002e4d0 f   GuRaycastTests.obj
 0001:0002d4d0       ?raycast_softbody@@YAIAEBVPxGeometry@physx@@AEBV?$PxTransformT@M@2@AEBV?$PxVec3T@M@2@2MV?$PxFlags@W4Enum@PxHitFlag@physx@@G@2@IPEIAUPxGeomRaycastHit@2@IPEAUPxQueryThreadContext@2@@Z 000000018002e4d0 f   GuRaycastTests.obj
 0001:0002d4e0       ?raycast_triangleMesh@@YAIAEBVPxGeometry@physx@@AEBV?$PxTransformT@M@2@AEBV?$PxVec3T@M@2@2MV?$PxFlags@W4Enum@PxHitFlag@physx@@G@2@IPEIAUPxGeomRaycastHit@2@IPEAUPxQueryThreadContext@2@@Z 000000018002e4e0 f   GuRaycastTests.obj
 0001:0002d570       ?raycast_heightField@@YAIAEBVPxGeometry@physx@@AEBV?$PxTransformT@M@2@AEBV?$PxVec3T@M@2@2MV?$PxFlags@W4Enum@PxHitFlag@physx@@G@2@IPEIAUPxGeomRaycastHit@2@IPEAUPxQueryThreadContext@2@@Z 000000018002e570 f   GuRaycastTests.obj
 0001:0002efc0       ??Dphysx@@YA?AV?$PxMat34T@M@0@AEBVPxMeshScale@0@AEBV?$PxTransformT@M@0@@Z 000000018002ffc0 f i GuRaycastTests.obj
 0001:0002faa0       ?getRaycastFuncTable@Gu@physx@@YAAEAY0L@Q6AIAEBVPxGeometry@2@AEBV?$PxTransformT@M@2@AEBV?$PxVec3T@M@2@2MV?$PxFlags@W4Enum@PxHitFlag@physx@@G@2@IPEIAUPxGeomRaycastHit@2@IPEAUPxQueryThreadContext@2@@ZXZ 0000000180030aa0 f   GuRaycastTests.obj
 0001:0002fab0       ??Dphysx@@YA?AV?$PxMat34T@M@0@AEBV?$PxTransformT@M@0@AEBVPxMeshScale@0@@Z 0000000180030ab0 f i GuSweepMTD.obj
 0001:0002fff0       ??_E?$MeshHitCallback@UPxGeomRaycastHit@physx@@@Gu@physx@@UEAAPEAXI@Z 0000000180030ff0 f i GuSweepMTD.obj
 0001:0002fff0       ??_G?$MeshHitCallback@UPxGeomRaycastHit@physx@@@Gu@physx@@UEAAPEAXI@Z 0000000180030ff0 f i GuSweepMTD.obj
 0001:00030020       ??_EMeshMTDGenerationCallback@@UEAAPEAXI@Z 0000000180031020 f i GuSweepMTD.obj
 0001:00030020       ??_GMeshMTDGenerationCallback@@UEAAPEAXI@Z 0000000180031020 f i GuSweepMTD.obj
 0001:00030050       ??_EMidPhaseQueryLocalReport@@UEAAPEAXI@Z 0000000180031050 f i GuSweepMTD.obj
 0001:00030050       ??_ERTreeCookerRemap@@UEAAPEAXI@Z 0000000180031050 f i GuCookingTriangleMesh.obj
 0001:00030050       ??_GMidPhaseQueryLocalReport@@UEAAPEAXI@Z 0000000180031050 f i GuSweepMTD.obj
 0001:00030050       ??_GRTreeCookerRemap@@UEAAPEAXI@Z 0000000180031050 f i GuCookingTriangleMesh.obj
 0001:00030080       ?allocate@?$PxArray@IV?$PxReflectionAllocator@I@physx@@@physx@@IEAAPEAII@Z 0000000180031080 f i GuSweepMTD.obj
 0001:00030110       ?computeBox_HeightFieldMTD@Gu@physx@@YA_NAEBVPxHeightFieldGeometry@2@AEBV?$PxTransformT@M@2@AEBVBox@12@1M_NAEAUPxGeomSweepHit@2@@Z 0000000180031110 f   GuSweepMTD.obj
 0001:00030ed0       ?computeBox_TriangleMeshMTD@Gu@physx@@YA_NAEBVPxTriangleMeshGeometry@2@AEBV?$PxTransformT@M@2@AEBVBox@12@1M_NAEAUPxGeomSweepHit@2@@Z 0000000180031ed0 f   GuSweepMTD.obj
 0001:00031f10       ?computeCapsule_CapsuleMTD@Gu@physx@@YA_NAEBVCapsule@12@0AEAUPxGeomSweepHit@2@@Z 0000000180032f10 f   GuSweepMTD.obj
 0001:00032150       ?computeCapsule_HeightFieldMTD@Gu@physx@@YA_NAEBVPxHeightFieldGeometry@2@AEBV?$PxTransformT@M@2@AEAVCapsuleV@12@M_NAEAUPxGeomSweepHit@2@@Z 0000000180033150 f   GuSweepMTD.obj
 0001:00032920       ?computeCapsule_TriangleMeshMTD@Gu@physx@@YA_NAEBVPxTriangleMeshGeometry@2@AEBV?$PxTransformT@M@2@AEAVCapsuleV@12@M_NAEAUPxGeomSweepHit@2@@Z 0000000180033920 f   GuSweepMTD.obj
 0001:000331d0       ?computeConvex_HeightFieldMTD@Gu@physx@@YA_NAEBVPxHeightFieldGeometry@2@AEBV?$PxTransformT@M@2@AEBVPxConvexMeshGeometry@2@1M_NAEAUPxGeomSweepHit@2@@Z 00000001800341d0 f   GuSweepMTD.obj
 0001:000344a0       ?computeConvex_TriangleMeshMTD@Gu@physx@@YA_NAEBVPxTriangleMeshGeometry@2@AEBV?$PxTransformT@M@2@AEBVPxConvexMeshGeometry@2@1M_NAEAUPxGeomSweepHit@2@@Z 00000001800354a0 f   GuSweepMTD.obj
 0001:00035a70       ?computePlane_BoxMTD@Gu@physx@@YA_NAEBVPxPlane@2@AEBVBox@12@AEAUPxGeomSweepHit@2@@Z 0000000180036a70 f   GuSweepMTD.obj
 0001:00035d10       ?computePlane_CapsuleMTD@Gu@physx@@YA_NAEBVPxPlane@2@AEBVCapsule@12@AEAUPxGeomSweepHit@2@@Z 0000000180036d10 f   GuSweepMTD.obj
 0001:00035e30       ?computePlane_ConvexMTD@Gu@physx@@YA_NAEBVPxPlane@2@AEBVPxConvexMeshGeometry@2@AEBV?$PxTransformT@M@2@AEAUPxGeomSweepHit@2@@Z 0000000180036e30 f   GuSweepMTD.obj
 0001:00036980       ?computeSphere_CapsuleMTD@Gu@physx@@YA_NAEBVSphere@12@AEBVCapsule@12@AEAUPxGeomSweepHit@2@@Z 0000000180037980 f   GuSweepMTD.obj
 0001:00036b30       ?computeSphere_SphereMTD@Gu@physx@@YA_NAEBVSphere@12@0AEAUPxGeomSweepHit@2@@Z 0000000180037b30 f   GuSweepMTD.obj
 0001:00036c20       ?getInverse@?$PxMat33T@M@physx@@QEBA?BV12@XZ 0000000180037c20 f i GuSweepMTD.obj
 0001:00036e70       ?growAndPushBack@?$PxArray@IV?$PxReflectionAllocator@I@physx@@@physx@@IEAAAEAIAEBI@Z 0000000180037e70 f i GuSweepMTD.obj
 0001:00036f30       ?init@FastVertex2ShapeScaling@Cm@physx@@QEAAXAEBV?$PxVec3T@M@3@AEBV?$PxQuatT@M@3@@Z 0000000180037f30 f i GuSweepMTD.obj
 0001:00037820       ?processHit@MeshMTDGenerationCallback@@UEAA_NAEBUPxGeomRaycastHit@physx@@AEBV?$PxVec3T@M@3@11AEAMPEBI@Z 0000000180038820 f i GuSweepMTD.obj
 0001:00037870       ?recreate@?$PxArray@IV?$PxReflectionAllocator@I@physx@@@physx@@IEAAXI@Z 0000000180038870 f i GuSweepMTD.obj
 0001:00037910       ?reportTouchedTris@MidPhaseQueryLocalReport@@UEAA_NIPEBI@Z 0000000180038910 f i GuSweepMTD.obj
 0001:00037980       ??$gjkPenetration@U?$LocalConvex@VCapsuleV@Gu@physx@@@Gu@physx@@U?$LocalConvex@VConvexHullV@Gu@physx@@@23@@Gu@physx@@YA?AW4GjkStatus@01@AEBU?$LocalConvex@VCapsuleV@Gu@physx@@@01@AEBU?$LocalConvex@VConvexHullV@Gu@physx@@@01@AEBT__m128@@2_NPEIAE4AEAEAEAUGjkOutput@01@@Z 0000000180038980 f i GuSweepSharedTests.obj
 0001:000379f0       ??$gjkPenetration@U?$LocalConvex@VCapsuleV@Gu@physx@@@Gu@physx@@U?$LocalConvex@VConvexHullV@Gu@physx@@@23@@Gu@physx@@YA?AW4GjkStatus@01@AEBU?$LocalConvex@VCapsuleV@Gu@physx@@@01@AEBU?$LocalConvex@VConvexHullV@Gu@physx@@@01@AEBT__m128@@2_NPEIAE4PEIAT5@5AEAEAEAUGjkOutput@01@@Z 00000001800389f0 f i GuSweepSharedTests.obj
 0001:00038f20       ??$gjkPenetration@U?$RelativeConvex@VBoxV@Gu@physx@@@Gu@physx@@U?$LocalConvex@VConvexHullV@Gu@physx@@@23@@Gu@physx@@YA?AW4GjkStatus@01@AEBU?$RelativeConvex@VBoxV@Gu@physx@@@01@AEBU?$LocalConvex@VConvexHullV@Gu@physx@@@01@AEBT__m128@@2_NPEIAE4AEAEAEAUGjkOutput@01@@Z 0000000180039f20 f i GuSweepSharedTests.obj
 0001:00038f90       ??$gjkPenetration@U?$RelativeConvex@VBoxV@Gu@physx@@@Gu@physx@@U?$LocalConvex@VConvexHullV@Gu@physx@@@23@@Gu@physx@@YA?AW4GjkStatus@01@AEBU?$RelativeConvex@VBoxV@Gu@physx@@@01@AEBU?$LocalConvex@VConvexHullV@Gu@physx@@@01@AEBT__m128@@2_NPEIAE4PEIAT5@5AEAEAEAUGjkOutput@01@@Z 0000000180039f90 f i GuSweepSharedTests.obj
 0001:0003a500       ??$gjkPenetration@U?$RelativeConvex@VConvexHullV@Gu@physx@@@Gu@physx@@U?$LocalConvex@VConvexHullV@Gu@physx@@@23@@Gu@physx@@YA?AW4GjkStatus@01@AEBU?$RelativeConvex@VConvexHullV@Gu@physx@@@01@AEBU?$LocalConvex@VConvexHullV@Gu@physx@@@01@AEBT__m128@@2_NPEIAE4AEAEAEAUGjkOutput@01@@Z 000000018003b500 f i GuSweepSharedTests.obj
 0001:0003a570       ??$gjkPenetration@U?$RelativeConvex@VConvexHullV@Gu@physx@@@Gu@physx@@U?$LocalConvex@VConvexHullV@Gu@physx@@@23@@Gu@physx@@YA?AW4GjkStatus@01@AEBU?$RelativeConvex@VConvexHullV@Gu@physx@@@01@AEBU?$LocalConvex@VConvexHullV@Gu@physx@@@01@AEBT__m128@@2_NPEIAE4PEIAT5@5AEAEAEAUGjkOutput@01@@Z 000000018003b570 f i GuSweepSharedTests.obj
 0001:0003bb90       ??$gjkRaycast@U?$LocalConvex@VCapsuleV@Gu@physx@@@Gu@physx@@U?$LocalConvex@VConvexHullV@Gu@physx@@@23@@Gu@physx@@YA_NAEBU?$LocalConvex@VCapsuleV@Gu@physx@@@01@AEBU?$LocalConvex@VConvexHullV@Gu@physx@@@01@AEBT__m128@@222AEAT4@33M@Z 000000018003cb90 f i GuSweepSharedTests.obj
 0001:0003c8e0       ??$gjkRaycast@U?$RelativeConvex@VBoxV@Gu@physx@@@Gu@physx@@U?$LocalConvex@VConvexHullV@Gu@physx@@@23@@Gu@physx@@YA_NAEBU?$RelativeConvex@VBoxV@Gu@physx@@@01@AEBU?$LocalConvex@VConvexHullV@Gu@physx@@@01@AEBT__m128@@222AEAT4@33M@Z 000000018003d8e0 f i GuSweepSharedTests.obj
 0001:0003d6d0       ??$gjkRaycast@U?$RelativeConvex@VConvexHullV@Gu@physx@@@Gu@physx@@U?$LocalConvex@VConvexHullV@Gu@physx@@@23@@Gu@physx@@YA_NAEBU?$RelativeConvex@VConvexHullV@Gu@physx@@@01@AEBU?$LocalConvex@VConvexHullV@Gu@physx@@@01@AEBT__m128@@222AEAT4@33M@Z 000000018003e6d0 f i GuSweepSharedTests.obj
 0001:0003e4b0       ??$gjkRaycastPenetration@U?$RelativeConvex@VConvexHullV@Gu@physx@@@Gu@physx@@U?$LocalConvex@VConvexHullV@Gu@physx@@@23@@Gu@physx@@YA_NAEBU?$RelativeConvex@VConvexHullV@Gu@physx@@@01@AEBU?$LocalConvex@VConvexHullV@Gu@physx@@@01@AEBT__m128@@222AEAT4@33M_N@Z 000000018003f4b0 f i GuSweepSharedTests.obj
 0001:0003f080       ?sweepBox_ConvexGeom@@YA_NAEBVPxGeometry@physx@@AEBV?$PxTransformT@M@2@AEBVPxBoxGeometry@2@1AEBVBox@Gu@2@AEBV?$PxVec3T@M@2@MAEAUPxGeomSweepHit@2@V?$PxFlags@W4Enum@PxHitFlag@physx@@G@2@MPEAUPxQueryThreadContext@2@@Z 0000000180040080 f   GuSweepSharedTests.obj
 0001:0003fea0       ?sweepBox_PlaneGeom@@YA_NAEBVPxGeometry@physx@@AEBV?$PxTransformT@M@2@AEBVPxBoxGeometry@2@1AEBVBox@Gu@2@AEBV?$PxVec3T@M@2@MAEAUPxGeomSweepHit@2@V?$PxFlags@W4Enum@PxHitFlag@physx@@G@2@MPEAUPxQueryThreadContext@2@@Z 0000000180040ea0 f   GuSweepSharedTests.obj
 0001:00040270       ?sweepCapsuleTriangles@Gu@physx@@YA_NIPEBVPxTriangle@2@_NAEBVPxCapsuleGeometry@2@AEBV?$PxTransformT@M@2@AEBV?$PxVec3T@M@2@MAEAUPxGeomSweepHit@2@PEBIMV?$PxFlags@W4Enum@PxHitFlag@physx@@G@2@@Z 0000000180041270 f   GuSweepSharedTests.obj
 0001:00040460       ?sweepCapsule_CapsuleGeom@@YA_NAEBVPxGeometry@physx@@AEBV?$PxTransformT@M@2@AEBVPxCapsuleGeometry@2@1AEBVCapsule@Gu@2@AEBV?$PxVec3T@M@2@MAEAUPxGeomSweepHit@2@V?$PxFlags@W4Enum@PxHitFlag@physx@@G@2@MPEAUPxQueryThreadContext@2@@Z 0000000180041460 f   GuSweepSharedTests.obj
 0001:00040640       ?sweepCapsule_ConvexGeom@@YA_NAEBVPxGeometry@physx@@AEBV?$PxTransformT@M@2@AEBVPxCapsuleGeometry@2@1AEBVCapsule@Gu@2@AEBV?$PxVec3T@M@2@MAEAUPxGeomSweepHit@2@V?$PxFlags@W4Enum@PxHitFlag@physx@@G@2@MPEAUPxQueryThreadContext@2@@Z 0000000180041640 f   GuSweepSharedTests.obj
 0001:00041370       ?sweepCapsule_PlaneGeom@@YA_NAEBVPxGeometry@physx@@AEBV?$PxTransformT@M@2@AEBVPxCapsuleGeometry@2@1AEBVCapsule@Gu@2@AEBV?$PxVec3T@M@2@MAEAUPxGeomSweepHit@2@V?$PxFlags@W4Enum@PxHitFlag@physx@@G@2@MPEAUPxQueryThreadContext@2@@Z 0000000180042370 f   GuSweepSharedTests.obj
 0001:00041650       ?sweepCapsule_SphereGeom@@YA_NAEBVPxGeometry@physx@@AEBV?$PxTransformT@M@2@AEBVPxCapsuleGeometry@2@1AEBVCapsule@Gu@2@AEBV?$PxVec3T@M@2@MAEAUPxGeomSweepHit@2@V?$PxFlags@W4Enum@PxHitFlag@physx@@G@2@MPEAUPxQueryThreadContext@2@@Z 0000000180042650 f   GuSweepSharedTests.obj
 0001:000417f0       ?sweepConvex_BoxGeom@@YA_NAEBVPxGeometry@physx@@AEBV?$PxTransformT@M@2@AEBVPxConvexMeshGeometry@2@1AEBV?$PxVec3T@M@2@MAEAUPxGeomSweepHit@2@V?$PxFlags@W4Enum@PxHitFlag@physx@@G@2@MPEAUPxQueryThreadContext@2@@Z 00000001800427f0 f   GuSweepSharedTests.obj
 0001:00041a10       ?sweepConvex_CapsuleGeom@@YA_NAEBVPxGeometry@physx@@AEBV?$PxTransformT@M@2@AEBVPxConvexMeshGeometry@2@1AEBV?$PxVec3T@M@2@MAEAUPxGeomSweepHit@2@V?$PxFlags@W4Enum@PxHitFlag@physx@@G@2@MPEAUPxQueryThreadContext@2@@Z 0000000180042a10 f   GuSweepSharedTests.obj
 0001:00041c40       ?sweepConvex_ConvexGeom@@YA_NAEBVPxGeometry@physx@@AEBV?$PxTransformT@M@2@AEBVPxConvexMeshGeometry@2@1AEBV?$PxVec3T@M@2@MAEAUPxGeomSweepHit@2@V?$PxFlags@W4Enum@PxHitFlag@physx@@G@2@MPEAUPxQueryThreadContext@2@@Z 0000000180042c40 f   GuSweepSharedTests.obj
 0001:00042c10       ?sweepConvex_PlaneGeom@@YA_NAEBVPxGeometry@physx@@AEBV?$PxTransformT@M@2@AEBVPxConvexMeshGeometry@2@1AEBV?$PxVec3T@M@2@MAEAUPxGeomSweepHit@2@V?$PxFlags@W4Enum@PxHitFlag@physx@@G@2@MPEAUPxQueryThreadContext@2@@Z 0000000180043c10 f   GuSweepSharedTests.obj
 0001:00043050       ?sweepConvex_SphereGeom@@YA_NAEBVPxGeometry@physx@@AEBV?$PxTransformT@M@2@AEBVPxConvexMeshGeometry@2@1AEBV?$PxVec3T@M@2@MAEAUPxGeomSweepHit@2@V?$PxFlags@W4Enum@PxHitFlag@physx@@G@2@MPEAUPxQueryThreadContext@2@@Z 0000000180044050 f   GuSweepSharedTests.obj
 0001:00043c50       ?sweepCapsule_BoxGeom@@YA_NAEBVPxGeometry@physx@@AEBV?$PxTransformT@M@2@AEBVPxCapsuleGeometry@2@1AEBVCapsule@Gu@2@AEBV?$PxVec3T@M@2@MAEAUPxGeomSweepHit@2@V?$PxFlags@W4Enum@PxHitFlag@physx@@G@2@MPEAUPxQueryThreadContext@2@@Z 0000000180044c50 f   GuSweepTests.obj
 0001:00044500       ?sweepBox_SphereGeom@@YA_NAEBVPxGeometry@physx@@AEBV?$PxTransformT@M@2@AEBVPxBoxGeometry@2@1AEBVBox@Gu@2@AEBV?$PxVec3T@M@2@MAEAUPxGeomSweepHit@2@V?$PxFlags@W4Enum@PxHitFlag@physx@@G@2@MPEAUPxQueryThreadContext@2@@Z 0000000180045500 f   GuSweepTests.obj
 0001:00044be0       ?sweepBox_CapsuleGeom@@YA_NAEBVPxGeometry@physx@@AEBV?$PxTransformT@M@2@AEBVPxBoxGeometry@2@1AEBVBox@Gu@2@AEBV?$PxVec3T@M@2@MAEAUPxGeomSweepHit@2@V?$PxFlags@W4Enum@PxHitFlag@physx@@G@2@MPEAUPxQueryThreadContext@2@@Z 0000000180045be0 f   GuSweepTests.obj
 0001:000454b0       ?sweepBox_BoxGeom@@YA_NAEBVPxGeometry@physx@@AEBV?$PxTransformT@M@2@AEBVPxBoxGeometry@2@1AEBVBox@Gu@2@AEBV?$PxVec3T@M@2@MAEAUPxGeomSweepHit@2@V?$PxFlags@W4Enum@PxHitFlag@physx@@G@2@MPEAUPxQueryThreadContext@2@@Z 00000001800464b0 f   GuSweepTests.obj
 0001:00045eb0       ??$gjkPenetration@U?$LocalConvex@VCapsuleV@Gu@physx@@@Gu@physx@@U?$LocalConvex@VBoxV@Gu@physx@@@23@@Gu@physx@@YA?AW4GjkStatus@01@AEBU?$LocalConvex@VCapsuleV@Gu@physx@@@01@AEBU?$LocalConvex@VBoxV@Gu@physx@@@01@AEBT__m128@@2_NPEIAE4AEAEAEAUGjkOutput@01@@Z 0000000180046eb0 f i GuSweepTests.obj
 0001:00045f20       ??$gjkPenetration@U?$LocalConvex@VCapsuleV@Gu@physx@@@Gu@physx@@U?$LocalConvex@VBoxV@Gu@physx@@@23@@Gu@physx@@YA?AW4GjkStatus@01@AEBU?$LocalConvex@VCapsuleV@Gu@physx@@@01@AEBU?$LocalConvex@VBoxV@Gu@physx@@@01@AEBT__m128@@2_NPEIAE4PEIAT5@5AEAEAEAUGjkOutput@01@@Z 0000000180046f20 f i GuSweepTests.obj
 0001:000473a0       ??$gjkPenetration@U?$RelativeConvex@VBoxV@Gu@physx@@@Gu@physx@@U?$LocalConvex@VBoxV@Gu@physx@@@23@@Gu@physx@@YA?AW4GjkStatus@01@AEBU?$RelativeConvex@VBoxV@Gu@physx@@@01@AEBU?$LocalConvex@VBoxV@Gu@physx@@@01@AEBT__m128@@2_NPEIAE4AEAEAEAUGjkOutput@01@@Z 00000001800483a0 f i GuSweepTests.obj
 0001:00047410       ??$gjkPenetration@U?$RelativeConvex@VBoxV@Gu@physx@@@Gu@physx@@U?$LocalConvex@VBoxV@Gu@physx@@@23@@Gu@physx@@YA?AW4GjkStatus@01@AEBU?$RelativeConvex@VBoxV@Gu@physx@@@01@AEBU?$LocalConvex@VBoxV@Gu@physx@@@01@AEBT__m128@@2_NPEIAE4PEIAT5@5AEAEAEAUGjkOutput@01@@Z 0000000180048410 f i GuSweepTests.obj
 0001:000488c0       ??$gjkRaycast@U?$LocalConvex@VCapsuleV@Gu@physx@@@Gu@physx@@U?$LocalConvex@VBoxV@Gu@physx@@@23@@Gu@physx@@YA_NAEBU?$LocalConvex@VCapsuleV@Gu@physx@@@01@AEBU?$LocalConvex@VBoxV@Gu@physx@@@01@AEBT__m128@@222AEAT4@33M@Z 00000001800498c0 f i GuSweepTests.obj
 0001:00049490       ??$gjkRaycast@U?$LocalConvex@VTriangleV@Gu@physx@@@Gu@physx@@U?$LocalConvex@VBoxV@Gu@physx@@@23@@Gu@physx@@YA_NAEBU?$LocalConvex@VTriangleV@Gu@physx@@@01@AEBU?$LocalConvex@VBoxV@Gu@physx@@@01@AEBT__m128@@222AEAT4@33M@Z 000000018004a490 f i GuSweepTests.obj
 0001:0004a0e0       ??$gjkRaycast@U?$RelativeConvex@VBoxV@Gu@physx@@@Gu@physx@@U?$LocalConvex@VBoxV@Gu@physx@@@23@@Gu@physx@@YA_NAEBU?$RelativeConvex@VBoxV@Gu@physx@@@01@AEBU?$LocalConvex@VBoxV@Gu@physx@@@01@AEBT__m128@@222AEAT4@33M@Z 000000018004b0e0 f i GuSweepTests.obj
 0001:0004ad10       ?getSweepFuncTable@Gu@physx@@YAAEBUGeomSweepFuncs@12@XZ 000000018004bd10 f   GuSweepTests.obj
 0001:0004ad20       ?getSweepMargin@?$LocalConvex@VTetrahedronV@Gu@physx@@@Gu@physx@@UEBA?AT__m128@@XZ 000000018004bd20 f i GuCookingTetrahedronMesh.obj
 0001:0004ad20       ?getSweepMargin@?$LocalConvex@VTriangleV@Gu@physx@@@Gu@physx@@UEBA?AT__m128@@XZ 000000018004bd20 f i GuSweepTests.obj
 0001:0004ad20       ?getSweepMargin@?$RelativeConvex@VTriangleV@Gu@physx@@@Gu@physx@@UEBA?AT__m128@@XZ 000000018004bd20 f i GuCCDSweepPrimitives.obj
 0001:0004ad30       ?support@?$LocalConvex@VBoxV@Gu@physx@@@Gu@physx@@UEBA?AT__m128@@AEBT4@@Z 000000018004bd30 f i GuSweepTests.obj
 0001:0004ad60       ?support@?$LocalConvex@VBoxV@Gu@physx@@@Gu@physx@@UEBA?AT__m128@@AEBT4@AEAH@Z 000000018004bd60 f i GuSweepTests.obj
 0001:0004ada0       ?support@?$LocalConvex@VTriangleV@Gu@physx@@@Gu@physx@@UEBA?AT__m128@@AEBT4@@Z 000000018004bda0 f i GuSweepTests.obj
 0001:0004ae30       ?support@?$LocalConvex@VTriangleV@Gu@physx@@@Gu@physx@@UEBA?AT__m128@@AEBT4@AEAH@Z 000000018004be30 f i GuSweepTests.obj
 0001:0004af10       ?supportPoint@?$LocalConvex@VBoxV@Gu@physx@@@Gu@physx@@UEBA?AT__m128@@H@Z 000000018004bf10 f i GuSweepTests.obj
 0001:0004af50       ?supportPoint@?$LocalConvex@VTetrahedronV@Gu@physx@@@Gu@physx@@UEBA?AT__m128@@H@Z 000000018004bf50 f i GuCookingTetrahedronMesh.obj
 0001:0004af50       ?supportPoint@?$LocalConvex@VTriangleV@Gu@physx@@@Gu@physx@@UEBA?AT__m128@@H@Z 000000018004bf50 f i GuSweepTests.obj
 0001:0004af70       ?sweepBoxTriangles@Gu@physx@@YA_NIPEBVPxTriangle@2@_NAEBVPxBoxGeometry@2@AEBV?$PxTransformT@M@2@AEBV?$PxVec3T@M@2@MAEAUPxGeomSweepHit@2@PEBIMV?$PxFlags@W4Enum@PxHitFlag@physx@@G@2@@Z 000000018004bf70 f   GuSweepTests.obj
 0001:0004b9e0       ??$PxSmallSort@H$$CBU?$Comparer@V?$PxVec3T@M@physx@@@MeshAnalyzer@Gu@physx@@@physx@@YAXPEAHHHAEBU?$Comparer@V?$PxVec3T@M@physx@@@MeshAnalyzer@Gu@0@@Z 000000018004c9e0 f i GuSDF.obj
 0001:0004bc00       ??$PxSort@HU?$Comparer@V?$PxVec3T@M@physx@@@MeshAnalyzer@Gu@physx@@V?$PxReflectionAllocator@H@4@@physx@@YAXPEAHIAEBU?$Comparer@V?$PxVec3T@M@physx@@@MeshAnalyzer@Gu@0@AEBV?$PxReflectionAllocator@H@0@I@Z 000000018004cc00 f i GuSDF.obj
 0001:0004c080       ??$PxSort@HU?$PxLess@H@physx@@V?$PxReflectionAllocator@H@2@@physx@@YAXPEAHIAEBU?$PxLess@H@0@AEBV?$PxReflectionAllocator@H@0@I@Z 000000018004d080 f i GuSDF.obj
 0001:0004c4d0       ??$mapDuplicatePoints@V?$PxVec3T@M@physx@@M@MeshAnalyzer@Gu@physx@@SAXPEBV?$PxVec3T@M@2@IAEAV?$PxArray@HV?$PxReflectionAllocator@H@physx@@@2@M@Z 000000018004d4d0 f i GuSDF.obj
 0001:0004c850       ??$splitRanges@V?$PxVec3T@M@physx@@M@MeshAnalyzer@Gu@physx@@CAXAEAV?$PxArray@URange@MeshAnalyzer@Gu@physx@@V?$PxReflectionAllocator@URange@MeshAnalyzer@Gu@physx@@@4@@2@AEBV?$PxArray@HV?$PxReflectionAllocator@H@physx@@@2@PEBV?$PxVec3T@M@2@HM@Z 000000018004d850 f i GuSDF.obj
 0001:0004cac0       ??$traverseBVH@VClosestDistanceToTrimeshTraversalController@Gu@physx@@@Gu@physx@@YAXPEBUBVHNode@01@AEAVClosestDistanceToTrimeshTraversalController@01@H@Z 000000018004dac0 f i GuSDF.obj
 0001:0004ceb0       ??$traverseBVH@VLineSegmentTrimeshIntersectionTraversalController@Gu@physx@@@Gu@physx@@YAXPEBUBVHNode@01@AEAVLineSegmentTrimeshIntersectionTraversalController@01@H@Z 000000018004deb0 f i GuSDF.obj
 0001:0004d3b0       ??1SDF@Gu@physx@@QEAA@XZ   000000018004e3b0 f   GuSDF.obj
 0001:0004d440       ??_E?$PxThreadT@V?$PxReflectionAllocator@VPxThreadImpl@physx@@@physx@@@physx@@UEAAPEAXI@Z 000000018004e440 f i GuSDF.obj
 0001:0004d440       ??_G?$PxThreadT@V?$PxReflectionAllocator@VPxThreadImpl@physx@@@physx@@@physx@@UEAAPEAXI@Z 000000018004e440 f i GuSDF.obj
 0001:0004d4f0       ??_EPxRunnable@physx@@UEAAPEAXI@Z 000000018004e4f0 f i GuSDF.obj
 0001:0004d4f0       ??_GPxRunnable@physx@@UEAAPEAXI@Z 000000018004e4f0 f i GuSDF.obj
 0001:0004d520       ?PxCreatePointOntoTriangleMeshProjector@Gu@physx@@YAPEAVPxPointOntoTriangleMeshProjector@12@PEBV?$PxVec3T@M@2@PEBII@Z 000000018004e520 f   GuSDF.obj
 0001:0004d620       ?SDFUsingWindingNumbers@Gu@physx@@YAXAEAV?$PxArray@UBVHNode@Gu@physx@@V?$PxReflectionAllocator@UBVHNode@Gu@physx@@@3@@2@AEAV?$PxHashMap@IU?$ClusterApproximationT@MV?$PxVec3T@M@physx@@@Gu@physx@@U?$PxHash@I@3@VPxAllocator@3@@2@PEBV?$PxVec3T@M@2@PEBIIIIIPEAMAEAUGridQueryPointSampler@12@PEAV52@I_N7@Z 000000018004e620 f   GuSDF.obj
 0001:0004db40       ?SDFUsingWindingNumbers@Gu@physx@@YAXPEBV?$PxVec3T@M@2@PEBIIIIIPEAMV32@3PEAV32@_NIPEAVPxSDFBuilder@2@@Z 000000018004eb40 f   GuSDF.obj
 0001:0004e010       ?SDFUsingWindingNumbersSparse@Gu@physx@@YAXPEBV?$PxVec3T@M@2@PEBIIIIIAEBV32@2MIAEAV?$PxArray@MV?$PxReflectionAllocator@M@physx@@@2@AEAV?$PxArray@IV?$PxReflectionAllocator@I@physx@@@2@33AEAM5IPEAVPxSDFBuilder@2@@Z 000000018004f010 f   GuSDF.obj
 0001:0004eaa0       ?allocate@?$PxArray@HV?$PxInlineAllocator@$0EAA@V?$PxReflectionAllocator@H@physx@@@physx@@@physx@@IEAAPEAHI@Z 000000018004faa0 f i GuSDF.obj
 0001:0004eb60       ?allocate@?$PxArray@MV?$PxReflectionAllocator@M@physx@@@physx@@IEAAPEAMI@Z 000000018004fb60 f i GuSDF.obj
 0001:0004ebf0       ?allocateSdfs@SDF@Gu@physx@@QEAAPEAMAEBV?$PxVec3T@M@3@AEBMIIIIIIIMMI@Z 000000018004fbf0 f   GuSDF.obj
 0001:0004ee00       ?analyzeAndFixMesh@Gu@physx@@YAXPEBV?$PxVec3T@M@2@PEBIIAEAV?$PxArray@IV?$PxReflectionAllocator@I@physx@@@2@@Z 000000018004fe00 f   GuSDF.obj
 0001:0004f650       ?buildTree@Gu@physx@@YAXPEBIIPEBV?$PxVec3T@M@2@AEAV?$PxArray@UBVHNode@Gu@physx@@V?$PxReflectionAllocator@UBVHNode@Gu@physx@@@3@@2@M@Z 0000000180050650 f   GuSDF.obj
 0001:0004f880       ?computeSDFThreadJob@Gu@physx@@YAPEAXPEAX@Z 0000000180050880 f   GuSDF.obj
 0001:00050330       ?convertSparseSDFTo3DTextureLayout@Gu@physx@@YAXIIIIPEAIPEBMIAEAV?$PxArray@MV?$PxReflectionAllocator@M@physx@@@2@AEAI33@Z 0000000180051330 f   GuSDF.obj
 0001:000506e0       ?create@?$PxHashBase@V?$PxPair@$$CBUSortedTriangle@Gu@physx@@H@physx@@USortedTriangle@Gu@2@UTriangleHash@42@UGetKey@?$PxHashMapBase@USortedTriangle@Gu@physx@@HUTriangleHash@23@VPxAllocator@3@@2@VPxAllocator@2@$00@physx@@QEAAPEAV?$PxPair@$$CBUSortedTriangle@Gu@physx@@H@2@AEBUSortedTriangle@Gu@2@AEA_N@Z 00000001800516e0 f i GuSDF.obj
 0001:00050810       ?create@?$PxHashBase@V?$PxPair@$$CB_KH@physx@@_KU?$PxHash@_K@2@UGetKey@?$PxHashMapBase@_KHU?$PxHash@_K@physx@@VPxAllocator@2@@2@VPxAllocator@2@$00@physx@@QEAAPEAV?$PxPair@$$CB_KH@2@AEB_KAEA_N@Z 0000000180051810 f i GuMeshAnalysis.obj
 0001:00050810       ?create@?$PxHashBase@V?$PxPair@$$CB_KI@physx@@_KU?$PxHash@_K@2@UGetKey@?$PxHashMapBase@_KIU?$PxHash@_K@physx@@VPxAllocator@2@@2@VPxAllocator@2@$00@physx@@QEAAPEAV?$PxPair@$$CB_KI@2@AEB_KAEA_N@Z 0000000180051810 f i GuSDF.obj
 0001:000509a0       ?createTriangles@Gu@physx@@YAXHHHMQEAMAEBV?$PxHashMap@_KIU?$PxHash@_K@physx@@VPxAllocator@2@@2@AEBV?$PxArray@V?$PxVec3T@M@physx@@V?$PxReflectionAllocator@V?$PxVec3T@M@physx@@@2@@2@AEAV?$PxArray@IV?$PxReflectionAllocator@I@physx@@@2@@Z 00000001800519a0 f   GuSDF.obj
 0001:00051250       ?decodeDense@SDF@Gu@physx@@QEBAMHHH@Z 0000000180052250 f   GuSDF.obj
 0001:000512a0       ?decodeSparse@SDF@Gu@physx@@QEBAMHHH@Z 00000001800522a0 f   GuSDF.obj
 0001:00051540       ?extractIsosurfaceFromSDF@Gu@physx@@YAXAEBVSDF@12@AEAV?$PxArray@V?$PxVec3T@M@physx@@V?$PxReflectionAllocator@V?$PxVec3T@M@physx@@@2@@2@AEAV?$PxArray@IV?$PxReflectionAllocator@I@physx@@@2@@Z 0000000180052540 f   GuSDF.obj
 0001:000522a0       ?fixSdfForNonClosedGeometry@Gu@physx@@YAXIIIPEAMAEBV?$PxVec3T@M@2@@Z 00000001800532a0 f   GuSDF.obj
 0001:00053380       ?generatePointInCell@Gu@physx@@YA_NAEBVSDF@12@HHHAEAV?$PxVec3T@M@2@QEAY111M@Z 0000000180054380 f   GuSDF.obj
 0001:000537d0       ?growAndPushBack@?$PxArray@HV?$PxInlineAllocator@$0EAA@V?$PxReflectionAllocator@H@physx@@@physx@@@physx@@IEAAAEAHAEBH@Z 00000001800547d0 f i GuSDF.obj
 0001:000538c0       ?growAndPushBack@?$PxArray@MV?$PxReflectionAllocator@M@physx@@@physx@@IEAAAEAMAEBM@Z 00000001800548c0 f i GuSDF.obj
 0001:000539a0       ?growAndPushBack@?$PxArray@PEAV?$PxThreadT@V?$PxReflectionAllocator@VPxThreadImpl@physx@@@physx@@@physx@@V?$PxReflectionAllocator@PEAV?$PxThreadT@V?$PxReflectionAllocator@VPxThreadImpl@physx@@@physx@@@physx@@@2@@physx@@IEAAAEAPEAV?$PxThreadT@V?$PxReflectionAllocator@VPxThreadImpl@physx@@@physx@@@2@AEBQEAV32@@Z 00000001800549a0 f i GuSDF.obj
 0001:00053ac0       ?growAndPushBack@?$PxArray@UMutation@Gu@physx@@V?$PxReflectionAllocator@UMutation@Gu@physx@@@3@@physx@@IEAAAEAUMutation@Gu@2@AEBU342@@Z 0000000180054ac0 f i GuSDF.obj
 0001:00053be0       ?growAndPushBack@?$PxArray@URange@Gu@physx@@V?$PxReflectionAllocator@URange@Gu@physx@@@3@@physx@@IEAAAEAURange@Gu@2@AEBU342@@Z 0000000180054be0 f i GuSDF.obj
 0001:00053d10       ?growAndPushBack@?$PxArray@URange@MeshAnalyzer@Gu@physx@@V?$PxReflectionAllocator@URange@MeshAnalyzer@Gu@physx@@@4@@physx@@IEAAAEAURange@MeshAnalyzer@Gu@2@AEBU3452@@Z 0000000180054d10 f i GuSDF.obj
 0001:00053e30       ?growAndPushBack@?$PxArray@USDFCalculationData@Gu@physx@@V?$PxReflectionAllocator@USDFCalculationData@Gu@physx@@@3@@physx@@IEAAAEAUSDFCalculationData@Gu@2@AEBU342@@Z 0000000180054e30 f i GuSDF.obj
 0001:00053fb0       ?growAndPushBack@?$PxArray@V?$PxVec3T@M@physx@@V?$PxReflectionAllocator@V?$PxVec3T@M@physx@@@2@@physx@@IEAAAEAV?$PxVec3T@M@2@AEBV32@@Z 0000000180054fb0 f i GuSDF.obj
 0001:00054190       ?projectPoint@PointOntoTriangleMeshProjector@Gu@physx@@UEAA?AV?$PxVec3T@M@3@AEBV43@@Z 0000000180055190 f i GuSDF.obj
 0001:00054200       ?projectPoint@PointOntoTriangleMeshProjector@Gu@physx@@UEAA?AV?$PxVec3T@M@3@AEBV43@AEAI@Z 0000000180055200 f i GuSDF.obj
 0001:00054280       ?recreate@?$PxArray@HV?$PxReflectionAllocator@H@physx@@@physx@@IEAAXI@Z 0000000180055280 f i GuSDF.obj
 0001:00054370       ?recreate@?$PxArray@MV?$PxReflectionAllocator@M@physx@@@physx@@IEAAXI@Z 0000000180055370 f i GuSDF.obj
 0001:00054450       ?recreate@?$PxArray@UBVHNode@Gu@physx@@V?$PxReflectionAllocator@UBVHNode@Gu@physx@@@3@@physx@@IEAAXI@Z 0000000180055450 f i GuSDF.obj
 0001:00054690       ?release@PointOntoTriangleMeshProjector@Gu@physx@@UEAAXXZ 0000000180055690 f i GuSDF.obj
 0001:000546e0       ?reserveInternal@?$PxHashBase@V?$PxPair@$$CBIU?$ClusterApproximationT@MV?$PxVec3T@M@physx@@@Gu@physx@@@physx@@IU?$PxHash@I@2@UGetKey@?$PxHashMapBase@IU?$ClusterApproximationT@MV?$PxVec3T@M@physx@@@Gu@physx@@U?$PxHash@I@3@VPxAllocator@3@@2@VPxAllocator@2@$00@physx@@AEAAXI@Z 00000001800556e0 f i GuSDF.obj
 0001:000548e0       ?reserveInternal@?$PxHashBase@V?$PxPair@$$CBUSortedTriangle@Gu@physx@@H@physx@@USortedTriangle@Gu@2@UTriangleHash@42@UGetKey@?$PxHashMapBase@USortedTriangle@Gu@physx@@HUTriangleHash@23@VPxAllocator@3@@2@VPxAllocator@2@$00@physx@@AEAAXI@Z 00000001800558e0 f i GuSDF.obj
 0001:00054a80       ?reserveInternal@?$PxHashBase@V?$PxPair@$$CB_KH@physx@@_KU?$PxHash@_K@2@UGetKey@?$PxHashMapBase@_KHU?$PxHash@_K@physx@@VPxAllocator@2@@2@VPxAllocator@2@$00@physx@@AEAAXI@Z 0000000180055a80 f i GuSDF.obj
 0001:00054a80       ?reserveInternal@?$PxHashBase@V?$PxPair@$$CB_KI@physx@@_KU?$PxHash@_K@2@UGetKey@?$PxHashMapBase@_KIU?$PxHash@_K@physx@@VPxAllocator@2@@2@VPxAllocator@2@$00@physx@@AEAAXI@Z 0000000180055a80 f i GuSDF.obj
 0001:00054c60       ?resize@?$PxArray@IV?$PxReflectionAllocator@I@physx@@@physx@@QEAAXIAEBI@Z 0000000180055c60 f i GuSDF.obj
 0001:00054d20       ?resize@?$PxArray@MV?$PxReflectionAllocator@M@physx@@@physx@@QEAAXIAEBM@Z 0000000180055d20 f i GuSDF.obj
 0001:00054e20       ?resize@?$PxArray@UBVHNode@Gu@physx@@V?$PxReflectionAllocator@UBVHNode@Gu@physx@@@3@@physx@@QEAAXIAEBUBVHNode@Gu@2@@Z 0000000180055e20 f i GuSDF.obj
 0001:00054fa0       ?sampleSDFDirect@DenseSDF@Gu@physx@@QEAAMAEBV?$PxVec3T@M@3@@Z 0000000180055fa0 f i GuSDF.obj
 0001:00055140       ?signedVolume@Gu@physx@@YAMPEBV?$PxVec3T@M@2@PEBII1I@Z 0000000180056140 f   GuSDF.obj
 0001:00055680       ?windingNumbers@Gu@physx@@YAXPEBV?$PxVec3T@M@2@PEBIIIIIPEAMV32@3PEAV32@@Z 0000000180056680 f   GuSDF.obj
 0001:00055ad0       ?windingNumbersInsideCheck@Gu@physx@@YAXPEBV?$PxVec3T@M@2@PEBIIIIIPEA_NV32@3PEAV32@@Z 0000000180056ad0 f   GuSDF.obj
 0001:00056490       ??0MeshData@physx@@QEAA@AEBVPxTriangleMeshDesc@1@@Z 0000000180057490 f i GuCookingSDF.obj
 0001:00056570       ?GetBounds@MeshData@physx@@QEBAXAEAV?$PxVec3T@M@2@0@Z 0000000180057570 f i GuCookingSDF.obj
 0001:00056810       ?buildSDF@physx@@YA_NAEAVPxTriangleMeshDesc@1@AEAV?$PxArray@MV?$PxReflectionAllocator@M@physx@@@1@AEAV?$PxArray@EV?$PxReflectionAllocator@E@physx@@@1@AEAV?$PxArray@IV?$PxReflectionAllocator@I@physx@@@1@@Z 0000000180057810 f   GuCookingSDF.obj
 0001:00056850       ?convert16To32Bits@physx@@YAXVPxSimpleTriangleMesh@1@AEAV?$PxArray@IV?$PxReflectionAllocator@I@physx@@@1@@Z 0000000180057850 f   GuCookingSDF.obj
 0001:00057870       ?quantizeSparseSDF@physx@@YAXW4Enum@PxSdfBitsPerSubgridPixel@1@AEBV?$PxArray@MV?$PxReflectionAllocator@M@physx@@@1@AEAV?$PxArray@EV?$PxReflectionAllocator@E@physx@@@1@MM@Z 0000000180058870 f   GuCookingSDF.obj
 0001:00057950       ?recreate@?$PxArray@EV?$PxReflectionAllocator@E@physx@@@physx@@IEAAXI@Z 0000000180058950 f i GuCookingSDF.obj
 0001:00057a40       ?recreate@?$PxArray@V?$PxVec3T@M@physx@@V?$PxReflectionAllocator@V?$PxVec3T@M@physx@@@2@@physx@@IEAAXI@Z 0000000180058a40 f i GuCookingSDF.obj
 0001:00057be0       ?resize@?$PxArray@EV?$PxReflectionAllocator@E@physx@@@physx@@QEAAXIAEBE@Z 0000000180058be0 f i GuCookingSDF.obj
 0001:00057ca0       ?resize@?$PxArray@V?$PxVec3T@M@physx@@V?$PxReflectionAllocator@V?$PxVec3T@M@physx@@@2@@physx@@QEAAXIAEBV?$PxVec3T@M@2@@Z 0000000180058ca0 f i GuCookingSDF.obj
 0001:00057d90       ??$gjk@U?$RelativeConvex@UCustomConvexV@@@Gu@physx@@U?$LocalConvex@UCustomConvexV@@@23@@Gu@physx@@YA?AW4GjkStatus@01@AEBU?$RelativeConvex@UCustomConvexV@@@01@AEBU?$LocalConvex@UCustomConvexV@@@01@AEBT__m128@@2AEAT5@333@Z 0000000180058d90 f i GuGjkQuery.obj
 0001:00058b20       ??$gjkPenetration@U?$RelativeConvex@UCustomConvexV@@@Gu@physx@@U?$LocalConvex@UCustomConvexV@@@23@@Gu@physx@@YA?AW4GjkStatus@01@AEBU?$RelativeConvex@UCustomConvexV@@@01@AEBU?$LocalConvex@UCustomConvexV@@@01@AEBT__m128@@2_NPEIAE4PEIAT5@5AEAEAEAUGjkOutput@01@@Z 0000000180059b20 f i GuGjkQuery.obj
 0001:0005a090       ??$gjkPenetration@U?$RelativeConvex@UCustomConvexV@@@Gu@physx@@U?$LocalConvex@UCustomConvexV@@@23@@Gu@physx@@YA?AW4GjkStatus@01@AEBU?$RelativeConvex@UCustomConvexV@@@01@AEBU?$LocalConvex@UCustomConvexV@@@01@AEBT__m128@@2_NPEIAT5@4AEAEAEAUGjkOutput@01@@Z 000000018005b090 f i GuGjkQuery.obj
 0001:0005a0f0       ??$gjkRaycast@U?$RelativeConvex@UCustomConvexV@@@Gu@physx@@U?$LocalConvex@UCustomConvexV@@@23@@Gu@physx@@YA_NAEBU?$RelativeConvex@UCustomConvexV@@@01@AEBU?$LocalConvex@UCustomConvexV@@@01@AEBT__m128@@222AEAT4@33M@Z 000000018005b0f0 f i GuGjkQuery.obj
 0001:0005ae50       ??$gjkRaycast@U?$RelativeConvex@UCustomConvexV@@@Gu@physx@@U?$LocalConvex@UPointConvexV@@@23@@Gu@physx@@YA_NAEBU?$RelativeConvex@UCustomConvexV@@@01@AEBU?$LocalConvex@UPointConvexV@@@01@AEBT__m128@@222AEAT4@33M@Z 000000018005be50 f i GuGjkQuery.obj
 0001:0005ba90       ?overlap@PxGjkQuery@physx@@SA_NAEBUSupport@12@0AEBV?$PxTransformT@M@2@1@Z 000000018005ca90 f   GuGjkQuery.obj
 0001:0005be20       ?proximityInfo@PxGjkQuery@physx@@SA_NAEBUSupport@12@0AEBV?$PxTransformT@M@2@1MMAEAV?$PxVec3T@M@2@22AEAM@Z 000000018005ce20 f   GuGjkQuery.obj
 0001:0005cbe0       ?raycast@PxGjkQuery@physx@@SA_NAEBUSupport@12@AEBV?$PxTransformT@M@2@AEBV?$PxVec3T@M@2@2MAEAMAEAV52@4@Z 000000018005dbe0 f   GuGjkQuery.obj
 0001:0005d0d0       ?support@?$LocalConvex@UCustomConvexV@@@Gu@physx@@UEBA?AT__m128@@AEBT4@@Z 000000018005e0d0 f i GuGjkQuery.obj
 0001:0005d150       ?support@?$LocalConvex@UCustomConvexV@@@Gu@physx@@UEBA?AT__m128@@AEBT4@AEAH@Z 000000018005e150 f i GuGjkQuery.obj
 0001:0005d1d0       ?support@?$LocalConvex@UPointConvexV@@@Gu@physx@@UEBA?AT__m128@@AEBT4@@Z 000000018005e1d0 f i GuGjkQuery.obj
 0001:0005d1d0       ?supportPoint@?$LocalConvex@UPointConvexV@@@Gu@physx@@UEBA?AT__m128@@H@Z 000000018005e1d0 f i GuGjkQuery.obj
 0001:0005d1e0       ?support@?$LocalConvex@UPointConvexV@@@Gu@physx@@UEBA?AT__m128@@AEBT4@AEAH@Z 000000018005e1e0 f i GuGjkQuery.obj
 0001:0005d200       ?support@?$RelativeConvex@UCustomConvexV@@@Gu@physx@@UEBA?AT__m128@@AEBT4@@Z 000000018005e200 f i GuGjkQuery.obj
 0001:0005d2d0       ?support@?$RelativeConvex@UCustomConvexV@@@Gu@physx@@UEBA?AT__m128@@AEBT4@AEAH@Z 000000018005e2d0 f i GuGjkQuery.obj
 0001:0005d3b0       ?supportPoint@?$LocalConvex@UCustomConvexV@@@Gu@physx@@UEBA?AT__m128@@H@Z 000000018005e3b0 f i GuGjkQuery.obj
 0001:0005d420       ?supportPoint@?$RelativeConvex@UCustomConvexV@@@Gu@physx@@UEBA?AT__m128@@H@Z 000000018005e420 f i GuGjkQuery.obj
 0001:0005d4c0       ?sweep@PxGjkQuery@physx@@SA_NAEBUSupport@12@0AEBV?$PxTransformT@M@2@1AEBV?$PxVec3T@M@2@MAEAMAEAV52@4@Z 000000018005e4c0 f   GuGjkQuery.obj
 0001:0005dc80       ??$approximateCluster@MV?$PxVec3T@M@physx@@@Gu@physx@@YAXAEBV?$PxArray@HV?$PxReflectionAllocator@H@physx@@@1@IIPEBIPEBV?$PxVec3T@M@1@AEBV?$PxArray@MV?$PxReflectionAllocator@M@physx@@@1@AEBV?$PxArray@V?$PxVec3T@M@physx@@V?$PxReflectionAllocator@V?$PxVec3T@M@physx@@@2@@1@4AEAU?$ClusterApproximationT@MV?$PxVec3T@M@physx@@@01@@Z 000000018005ec80 f i GuWindingNumber.obj
 0001:0005e2c0       ??$copy@V?$PxReflectionAllocator@M@physx@@@?$PxArray@MV?$PxReflectionAllocator@M@physx@@@physx@@IEAAXAEBV01@@Z 000000018005f2c0 f i GuWindingNumber.obj
 0001:0005e320       ??$precomputeClusterInformation@MV?$PxVec3T@M@physx@@@Gu@physx@@YAXHPEBUBVHNode@01@PEBIIPEBV?$PxVec3T@M@1@AEAV?$PxHashMap@IU?$ClusterApproximationT@MV?$PxVec3T@M@physx@@@Gu@physx@@U?$PxHash@I@3@VPxAllocator@3@@1@V?$PxArray@MV?$PxReflectionAllocator@M@physx@@@1@AEBV?$PxArray@V?$PxVec3T@M@physx@@V?$PxReflectionAllocator@V?$PxVec3T@M@physx@@@2@@1@5@Z 000000018005f320 f i GuWindingNumber.obj
 0001:0005e6f0       ??$precomputeClusterInformation@MV?$PxVec3T@M@physx@@@Gu@physx@@YAXPEBUBVHNode@01@PEBIIPEBV?$PxVec3T@M@1@AEAV?$PxHashMap@IU?$ClusterApproximationT@MV?$PxVec3T@M@physx@@@Gu@physx@@U?$PxHash@I@3@VPxAllocator@3@@1@H@Z 000000018005f6f0 f i GuWindingNumber.obj
 0001:0005eb00       ??$traverseBVH@V?$WindingNumberTraversalController@MV?$PxVec3T@M@physx@@@Gu@physx@@@Gu@physx@@YAXPEBUBVHNode@01@AEAV?$WindingNumberTraversalController@MV?$PxVec3T@M@physx@@@01@H@Z 000000018005fb00 f i GuWindingNumber.obj
 0001:0005f050       ?allocate@?$PxArray@HV?$PxReflectionAllocator@H@physx@@@physx@@IEAAPEAHI@Z 0000000180060050 f i GuWindingNumber.obj
 0001:0005f0e0       ?computeWindingNumber@Gu@physx@@YAMAEBV?$PxVec3T@M@2@PEBIIPEBV32@@Z 00000001800600e0 f   GuWindingNumber.obj
 0001:0005f410       ?computeWindingNumber@Gu@physx@@YAMPEBUBVHNode@12@AEBV?$PxVec3T@M@2@AEBV?$PxHashMap@IU?$ClusterApproximationT@MV?$PxVec3T@M@physx@@@Gu@physx@@U?$PxHash@I@3@VPxAllocator@3@@2@PEBIPEBV42@@Z 0000000180060410 f   GuWindingNumber.obj
 0001:0005f480       ?computeWindingNumber@Gu@physx@@YAMPEBUBVHNode@12@AEBV?$PxVec3T@M@2@MAEBV?$PxHashMap@IU?$ClusterApproximationT@MV?$PxVec3T@M@physx@@@Gu@physx@@U?$PxHash@I@3@VPxAllocator@3@@2@PEBIPEBV42@@Z 0000000180060480 f   GuWindingNumber.obj
 0001:0005f4f0       ?copy@?$PxArray@MV?$PxReflectionAllocator@M@physx@@@physx@@KAXPEAM0PEBM@Z 00000001800604f0 f i GuWindingNumber.obj
 0001:0005f550       ?create@?$PxHashBase@V?$PxPair@$$CBIU?$ClusterApproximationT@MV?$PxVec3T@M@physx@@@Gu@physx@@@physx@@IU?$PxHash@I@2@UGetKey@?$PxHashMapBase@IU?$ClusterApproximationT@MV?$PxVec3T@M@physx@@@Gu@physx@@U?$PxHash@I@3@VPxAllocator@3@@2@VPxAllocator@2@$00@physx@@QEAAPEAV?$PxPair@$$CBIU?$ClusterApproximationT@MV?$PxVec3T@M@physx@@@Gu@physx@@@2@AEBIAEA_N@Z 0000000180060550 f i GuWindingNumber.obj
 0001:0005f6a0       ?growAndPushBack@?$PxArray@HV?$PxReflectionAllocator@H@physx@@@physx@@IEAAAEAHAEBH@Z 00000001800606a0 f i GuWindingNumber.obj
 0001:0005f760       ?growAndPushBack@?$PxArray@USection@Gu@physx@@V?$PxReflectionAllocator@USection@Gu@physx@@@3@@physx@@IEAAAEAUSection@Gu@2@AEBU342@@Z 0000000180060760 f i GuWindingNumber.obj
 0001:0005f880       ?precomputeClusterInformation@Gu@physx@@YAXPEBUBVHNode@12@PEBIIPEBV?$PxVec3T@M@2@AEAV?$PxHashMap@IU?$ClusterApproximationT@MV?$PxVec3T@M@physx@@@Gu@physx@@U?$PxHash@I@3@VPxAllocator@3@@2@H@Z 0000000180060880 f   GuWindingNumber.obj
 0001:0005f920       ?SweepAnyShapeHeightfield@Gu@physx@@YAMAEBUCCDShape@12@0AEBUPxTransformPadded@2@111MAEAV?$PxVec3T@M@2@2MAEAIM@Z 0000000180060920 f   GuCCDSweepConvexMesh.obj
 0001:00060e90       ?SweepAnyShapeMesh@Gu@physx@@YAMAEBUCCDShape@12@0AEBUPxTransformPadded@2@111MAEAV?$PxVec3T@M@2@2MAEAIM@Z 0000000180061e90 f   GuCCDSweepConvexMesh.obj
 0001:00062450       ?SweepEstimateAnyShapeHeightfield@Gu@physx@@YAMAEBUCCDShape@12@0MM@Z 0000000180063450 f   GuCCDSweepConvexMesh.obj
 0001:000630b0       ?SweepEstimateAnyShapeMesh@Gu@physx@@YAMAEBUCCDShape@12@0MM@Z 00000001800640b0 f   GuCCDSweepConvexMesh.obj
 0001:00063350       ?allocate@?$PxArray@IV?$PxInlineAllocator@$0BAA@V?$PxReflectionAllocator@I@physx@@@physx@@@physx@@IEAAPEAII@Z 0000000180064350 f i GuCCDSweepConvexMesh.obj
 0001:00063e30       ?growAndPushBack@?$PxArray@IV?$PxInlineAllocator@$0BAA@V?$PxReflectionAllocator@I@physx@@@physx@@@physx@@IEAAAEAIAEBI@Z 0000000180064e30 f i GuCCDSweepConvexMesh.obj
 0001:00064470       ?recreate@?$PxArray@IV?$PxInlineAllocator@$0BAA@V?$PxReflectionAllocator@I@physx@@@physx@@@physx@@IEAAXI@Z 0000000180065470 f i GuCCDSweepConvexMesh.obj
 0001:000645b0       ?resize@?$PxArray@IV?$PxInlineAllocator@$0BAA@V?$PxReflectionAllocator@I@physx@@@physx@@@physx@@QEAAXIAEBI@Z 00000001800655b0 f i GuCCDSweepConvexMesh.obj
 0001:00064680       ?transformBoxOrthonormal@physx@@YA?AVBox@Gu@1@AEBV231@AEBV?$PxTransformT@M@1@@Z 0000000180065680 f i GuCCDSweepConvexMesh.obj
 0001:00064b10       ?UnimplementedSweep@Gu@physx@@YAMAEBUCCDShape@12@0AEBUPxTransformPadded@2@111MAEAV?$PxVec3T@M@2@2MAEAIM@Z 0000000180065b10 f   GuCCDSweepPrimitives.obj
 0001:00068840       ?UnimplementedTriangleSweep@Gu@physx@@YAMAEBVPxGeometry@2@0AEBUPxTransformPadded@2@111MAEAV?$PxVec3T@M@2@2AEBVFastVertex2ShapeScaling@Cm@2@AEAVTriangleV@12@M@Z 0000000180069840 f   GuCCDSweepPrimitives.obj
 0001:00068850       ??$SweepGeomTriangles@VCapsuleV@Gu@physx@@@Gu@physx@@YAMAEBVPxGeometry@1@0AEBUPxTransformPadded@1@111MAEAV?$PxVec3T@M@1@2AEBVFastVertex2ShapeScaling@Cm@1@AEAVTriangleV@01@M@Z 0000000180069850 f i GuCCDSweepPrimitives.obj
 0001:00068f80       ??$SweepGeomTriangles@VBoxV@Gu@physx@@@Gu@physx@@YAMAEBVPxGeometry@1@0AEBUPxTransformPadded@1@111MAEAV?$PxVec3T@M@1@2AEBVFastVertex2ShapeScaling@Cm@1@AEAVTriangleV@01@M@Z 0000000180069f80 f i GuCCDSweepPrimitives.obj
 0001:000696d0       ??$SweepGeomTriangles@VConvexHullV@Gu@physx@@@Gu@physx@@YAMAEBVPxGeometry@1@0AEBUPxTransformPadded@1@111MAEAV?$PxVec3T@M@1@2AEBVFastVertex2ShapeScaling@Cm@1@AEAVTriangleV@01@M@Z 000000018006a6d0 f i GuCCDSweepPrimitives.obj
 0001:0006a1b0       ?supportPoint@?$RelativeConvex@VCapsuleV@Gu@physx@@@Gu@physx@@UEBA?AT__m128@@H@Z 000000018006b1b0 f i GuCCDSweepPrimitives.obj
 0001:0006a210       ?support@?$RelativeConvex@VCapsuleV@Gu@physx@@@Gu@physx@@UEBA?AT__m128@@AEBT4@@Z 000000018006b210 f i GuCCDSweepPrimitives.obj
 0001:0006a2c0       ?support@?$RelativeConvex@VCapsuleV@Gu@physx@@@Gu@physx@@UEBA?AT__m128@@AEBT4@AEAH@Z 000000018006b2c0 f i GuCCDSweepPrimitives.obj
 0001:0006a380       ?supportPoint@?$RelativeConvex@VTriangleV@Gu@physx@@@Gu@physx@@UEBA?AT__m128@@H@Z 000000018006b380 f i GuCCDSweepPrimitives.obj
 0001:0006a3d0       ?support@?$RelativeConvex@VTriangleV@Gu@physx@@@Gu@physx@@UEBA?AT__m128@@AEBT4@@Z 000000018006b3d0 f i GuCCDSweepPrimitives.obj
 0001:0006a4d0       ?support@?$RelativeConvex@VTriangleV@Gu@physx@@@Gu@physx@@UEBA?AT__m128@@AEBT4@AEAH@Z 000000018006b4d0 f i GuCCDSweepPrimitives.obj
 0001:0006a610       ??$gjkPenetration@U?$RelativeConvex@VCapsuleV@Gu@physx@@@Gu@physx@@U?$LocalConvex@VBoxV@Gu@physx@@@23@@Gu@physx@@YA?AW4GjkStatus@01@AEBU?$RelativeConvex@VCapsuleV@Gu@physx@@@01@AEBU?$LocalConvex@VBoxV@Gu@physx@@@01@AEBT__m128@@2_NPEIAE4AEAEAEAUGjkOutput@01@@Z 000000018006b610 f i GuCCDSweepPrimitives.obj
 0001:0006a680       ??$gjkPenetration@U?$RelativeConvex@VCapsuleV@Gu@physx@@@Gu@physx@@U?$LocalConvex@VBoxV@Gu@physx@@@23@@Gu@physx@@YA?AW4GjkStatus@01@AEBU?$RelativeConvex@VCapsuleV@Gu@physx@@@01@AEBU?$LocalConvex@VBoxV@Gu@physx@@@01@AEBT__m128@@2_NPEIAE4PEIAT5@5AEAEAEAUGjkOutput@01@@Z 000000018006b680 f i GuCCDSweepPrimitives.obj
 0001:0006bb80       ??$gjkPenetration@U?$RelativeConvex@VCapsuleV@Gu@physx@@@Gu@physx@@U?$LocalConvex@VCapsuleV@Gu@physx@@@23@@Gu@physx@@YA?AW4GjkStatus@01@AEBU?$RelativeConvex@VCapsuleV@Gu@physx@@@01@AEBU?$LocalConvex@VCapsuleV@Gu@physx@@@01@AEBT__m128@@2_NPEIAE4AEAEAEAUGjkOutput@01@@Z 000000018006cb80 f i GuCCDSweepPrimitives.obj
 0001:0006bbf0       ??$gjkPenetration@U?$RelativeConvex@VCapsuleV@Gu@physx@@@Gu@physx@@U?$LocalConvex@VCapsuleV@Gu@physx@@@23@@Gu@physx@@YA?AW4GjkStatus@01@AEBU?$RelativeConvex@VCapsuleV@Gu@physx@@@01@AEBU?$LocalConvex@VCapsuleV@Gu@physx@@@01@AEBT__m128@@2_NPEIAE4PEIAT5@5AEAEAEAUGjkOutput@01@@Z 000000018006cbf0 f i GuCCDSweepPrimitives.obj
 0001:0006d0e0       ??$gjkPenetration@U?$RelativeConvex@VCapsuleV@Gu@physx@@@Gu@physx@@U?$LocalConvex@VConvexHullV@Gu@physx@@@23@@Gu@physx@@YA?AW4GjkStatus@01@AEBU?$RelativeConvex@VCapsuleV@Gu@physx@@@01@AEBU?$LocalConvex@VConvexHullV@Gu@physx@@@01@AEBT__m128@@2_NPEIAE4AEAEAEAUGjkOutput@01@@Z 000000018006e0e0 f i GuCCDSweepPrimitives.obj
 0001:0006d150       ??$gjkPenetration@U?$RelativeConvex@VCapsuleV@Gu@physx@@@Gu@physx@@U?$LocalConvex@VConvexHullV@Gu@physx@@@23@@Gu@physx@@YA?AW4GjkStatus@01@AEBU?$RelativeConvex@VCapsuleV@Gu@physx@@@01@AEBU?$LocalConvex@VConvexHullV@Gu@physx@@@01@AEBT__m128@@2_NPEIAE4PEIAT5@5AEAEAEAUGjkOutput@01@@Z 000000018006e150 f i GuCCDSweepPrimitives.obj
 0001:0006e6f0       ??$gjkPenetration@U?$RelativeConvex@VTriangleV@Gu@physx@@@Gu@physx@@U?$LocalConvex@VBoxV@Gu@physx@@@23@@Gu@physx@@YA?AW4GjkStatus@01@AEBU?$RelativeConvex@VTriangleV@Gu@physx@@@01@AEBU?$LocalConvex@VBoxV@Gu@physx@@@01@AEBT__m128@@2_NPEIAE4AEAEAEAUGjkOutput@01@@Z 000000018006f6f0 f i GuCCDSweepPrimitives.obj
 0001:0006e760       ??$gjkPenetration@U?$RelativeConvex@VTriangleV@Gu@physx@@@Gu@physx@@U?$LocalConvex@VBoxV@Gu@physx@@@23@@Gu@physx@@YA?AW4GjkStatus@01@AEBU?$RelativeConvex@VTriangleV@Gu@physx@@@01@AEBU?$LocalConvex@VBoxV@Gu@physx@@@01@AEBT__m128@@2_NPEIAE4PEIAT5@5AEAEAEAUGjkOutput@01@@Z 000000018006f760 f i GuCCDSweepPrimitives.obj
 0001:0006fc80       ??$gjkPenetration@U?$RelativeConvex@VTriangleV@Gu@physx@@@Gu@physx@@U?$LocalConvex@VCapsuleV@Gu@physx@@@23@@Gu@physx@@YA?AW4GjkStatus@01@AEBU?$RelativeConvex@VTriangleV@Gu@physx@@@01@AEBU?$LocalConvex@VCapsuleV@Gu@physx@@@01@AEBT__m128@@2_NPEIAE4AEAEAEAUGjkOutput@01@@Z 0000000180070c80 f i GuCCDSweepPrimitives.obj
 0001:0006fcf0       ??$gjkPenetration@U?$RelativeConvex@VTriangleV@Gu@physx@@@Gu@physx@@U?$LocalConvex@VCapsuleV@Gu@physx@@@23@@Gu@physx@@YA?AW4GjkStatus@01@AEBU?$RelativeConvex@VTriangleV@Gu@physx@@@01@AEBU?$LocalConvex@VCapsuleV@Gu@physx@@@01@AEBT__m128@@2_NPEIAE4PEIAT5@5AEAEAEAUGjkOutput@01@@Z 0000000180070cf0 f i GuCCDSweepPrimitives.obj
 0001:00071200       ??$gjkPenetration@U?$RelativeConvex@VTriangleV@Gu@physx@@@Gu@physx@@U?$LocalConvex@VConvexHullV@Gu@physx@@@23@@Gu@physx@@YA?AW4GjkStatus@01@AEBU?$RelativeConvex@VTriangleV@Gu@physx@@@01@AEBU?$LocalConvex@VConvexHullV@Gu@physx@@@01@AEBT__m128@@2_NPEIAE4AEAEAEAUGjkOutput@01@@Z 0000000180072200 f i GuCCDSweepPrimitives.obj
 0001:00071270       ??$gjkPenetration@U?$RelativeConvex@VTriangleV@Gu@physx@@@Gu@physx@@U?$LocalConvex@VConvexHullV@Gu@physx@@@23@@Gu@physx@@YA?AW4GjkStatus@01@AEBU?$RelativeConvex@VTriangleV@Gu@physx@@@01@AEBU?$LocalConvex@VConvexHullV@Gu@physx@@@01@AEBT__m128@@2_NPEIAE4PEIAT5@5AEAEAEAUGjkOutput@01@@Z 0000000180072270 f i GuCCDSweepPrimitives.obj
 0001:00072820       ??$gjkRaycast@U?$RelativeConvex@VCapsuleV@Gu@physx@@@Gu@physx@@U?$LocalConvex@VBoxV@Gu@physx@@@23@@Gu@physx@@YA_NAEBU?$RelativeConvex@VCapsuleV@Gu@physx@@@01@AEBU?$LocalConvex@VBoxV@Gu@physx@@@01@AEBT__m128@@222AEAT4@33M@Z 0000000180073820 f i GuCCDSweepPrimitives.obj
 0001:00073490       ??$gjkRaycast@U?$RelativeConvex@VCapsuleV@Gu@physx@@@Gu@physx@@U?$LocalConvex@VCapsuleV@Gu@physx@@@23@@Gu@physx@@YA_NAEBU?$RelativeConvex@VCapsuleV@Gu@physx@@@01@AEBU?$LocalConvex@VCapsuleV@Gu@physx@@@01@AEBT__m128@@222AEAT4@33M@Z 0000000180074490 f i GuCCDSweepPrimitives.obj
 0001:00074180       ??$gjkRaycast@U?$RelativeConvex@VCapsuleV@Gu@physx@@@Gu@physx@@U?$LocalConvex@VConvexHullV@Gu@physx@@@23@@Gu@physx@@YA_NAEBU?$RelativeConvex@VCapsuleV@Gu@physx@@@01@AEBU?$LocalConvex@VConvexHullV@Gu@physx@@@01@AEBT__m128@@222AEAT4@33M@Z 0000000180075180 f i GuCCDSweepPrimitives.obj
 0001:00074f80       ??$gjkRaycast@U?$RelativeConvex@VTriangleV@Gu@physx@@@Gu@physx@@U?$LocalConvex@VBoxV@Gu@physx@@@23@@Gu@physx@@YA_NAEBU?$RelativeConvex@VTriangleV@Gu@physx@@@01@AEBU?$LocalConvex@VBoxV@Gu@physx@@@01@AEBT__m128@@222AEAT4@33M@Z 0000000180075f80 f i GuCCDSweepPrimitives.obj
 0001:00075c90       ??$gjkRaycast@U?$RelativeConvex@VTriangleV@Gu@physx@@@Gu@physx@@U?$LocalConvex@VCapsuleV@Gu@physx@@@23@@Gu@physx@@YA_NAEBU?$RelativeConvex@VTriangleV@Gu@physx@@@01@AEBU?$LocalConvex@VCapsuleV@Gu@physx@@@01@AEBT__m128@@222AEAT4@33M@Z 0000000180076c90 f i GuCCDSweepPrimitives.obj
 0001:00076a10       ??$gjkRaycast@U?$RelativeConvex@VTriangleV@Gu@physx@@@Gu@physx@@U?$LocalConvex@VConvexHullV@Gu@physx@@@23@@Gu@physx@@YA_NAEBU?$RelativeConvex@VTriangleV@Gu@physx@@@01@AEBU?$LocalConvex@VConvexHullV@Gu@physx@@@01@AEBT__m128@@222AEAT4@33M@Z 0000000180077a10 f i GuCCDSweepPrimitives.obj
 0001:000778d0       ?SweepShapeShape@Gu@physx@@YAMAEBUCCDShape@12@0AEBUPxTransformPadded@2@111MAEAV?$PxVec3T@M@2@2MAEAIM@Z 00000001800788d0 f   GuCCDSweepPrimitives.obj
 0001:000778f0       ?SweepShapeTriangle@Gu@physx@@YAMAEBVPxGeometry@2@0AEBUPxTransformPadded@2@111MAEAV?$PxVec3T@M@2@2AEBVFastVertex2ShapeScaling@Cm@2@AEAVTriangleV@12@M@Z 00000001800788f0 f   GuCCDSweepPrimitives.obj
 0001:00077910       ?barycentricCoordinates@Gu@physx@@YAXAEBT__m128@@000AEAT3@1@Z 0000000180078910 f   GuBarycentricCoordinates.obj
 0001:00077a50       ?barycentricCoordinates@Gu@physx@@YAXAEBT__m128@@00AEAT3@@Z 0000000180078a50 f   GuBarycentricCoordinates.obj
 0001:00077ac0       ??$?_UV?$PxReflectionAllocator@VAdjTriangle@Gu@physx@@@physx@@@PxUserAllocated@physx@@SAPEAX_KV?$PxReflectionAllocator@VAdjTriangle@Gu@physx@@@1@PEBDH@Z 0000000180078ac0 f i GuAdjacencies.obj
 0001:00077ba0       ??0AdjacenciesBuilder@Gu@physx@@QEAA@XZ 0000000180078ba0 f   GuAdjacencies.obj
 0001:00077bb0       ??1AdjacenciesBuilder@Gu@physx@@QEAA@XZ 0000000180078bb0 f   GuAdjacencies.obj
 0001:00077d00       ?ComputeNbBoundaryEdges@Adjacencies@Gu@physx@@QEBAIXZ 0000000180078d00 f   GuAdjacencies.obj
 0001:00077f90       ?Init@AdjacenciesBuilder@Gu@physx@@QEAA_NAEBUADJACENCIESCREATE@23@@Z 0000000180078f90 f   GuAdjacencies.obj
 0001:000784f0       ??0EdgeList@Gu@physx@@QEAA@XZ 00000001800794f0 f   GuEdgeList.obj
 0001:00078510       ??1EdgeList@Gu@physx@@QEAA@XZ 0000000180079510 f   GuEdgeList.obj
 0001:000785c0       ?computeActiveEdges@EdgeList@Gu@physx@@AEAA_NIPEBIPEBGPEBV?$PxVec3T@M@3@M@Z 00000001800795c0 f   GuEdgeList.obj
 0001:00079940       ?createEdgesToFaces@EdgeList@Gu@physx@@AEAA_NIPEBIPEBG@Z 000000018007a940 f   GuEdgeList.obj
 0001:00079ba0       ?createFacesToEdges@EdgeList@Gu@physx@@AEAA_NIPEBIPEBG@Z 000000018007aba0 f   GuEdgeList.obj
 0001:00079f70       ?init@EdgeList@Gu@physx@@QEAA_NAEBUEDGELISTCREATE@23@@Z 000000018007af70 f   GuEdgeList.obj
 0001:0007a0a0       ?addAxis@SeparatingAxes@Gu@physx@@QEAA_NAEBV?$PxVec3T@M@3@@Z 000000018007b0a0 f   GuSeparatingAxes.obj
 0001:0007a160       ??$kmeans_cluster@V?$PxVec3T@M@physx@@M@@YAIPEBV?$PxVec3T@M@physx@@IIPEAV01@PEAIMM@Z 000000018007b160 f i GuQuantizer.obj
 0001:0007ab20       ??_EQuantizer@Gu@physx@@MEAAPEAXI@Z 000000018007bb20 f i GuQuantizer.obj
 0001:0007ab20       ??_GQuantizer@Gu@physx@@MEAAPEAXI@Z 000000018007bb20 f i GuQuantizer.obj
 0001:0007ab50       ??_EQuantizerImpl@@EEAAPEAXI@Z 000000018007bb50 f i GuQuantizer.obj
 0001:0007ab50       ??_GQuantizerImpl@@EEAAPEAXI@Z 000000018007bb50 f i GuQuantizer.obj
 0001:0007ac20       ?createQuantizer@Gu@physx@@YAPEAVQuantizer@12@XZ 000000018007bc20 f   GuQuantizer.obj
 0001:0007acd0       ?getDenormalizeCenter@QuantizerImpl@@UEBAAEBV?$PxVec3T@M@physx@@XZ 000000018007bcd0 f i GuQuantizer.obj
 0001:0007ace0       ?getCurrentAABBTreeBounds@PruningPool@Gu@physx@@QEBAAEBVAABBTreeBounds@23@XZ 000000018007bce0 f i GuIncrementalAABBPrunerCore.obj
 0001:0007ace0       ?getDenormalizeScale@QuantizerImpl@@UEBAAEBV?$PxVec3T@M@physx@@XZ 000000018007bce0 f i GuQuantizer.obj
 0001:0007acf0       ?kmeansQuantize3D@QuantizerImpl@@UEAAPEBV?$PxVec3T@M@physx@@IPEBV23@I_NIAEAI@Z 000000018007bcf0 f i GuQuantizer.obj
 0001:0007af60       ?normalizeInput@QuantizerImpl@@AEAAXIPEBV?$PxVec3T@M@physx@@I@Z 000000018007bf60 f i GuQuantizer.obj
 0001:0007b3b0       ?release@QuantizerImpl@@UEAAXXZ 000000018007c3b0 f i GuQuantizer.obj
 0001:0007b3d0       ??0MeshCleaner@Gu@physx@@QEAA@IPEBV?$PxVec3T@M@2@IPEBIMM@Z 000000018007c3d0 f   GuMeshCleaner.obj
 0001:0007bda0       ??1MeshCleaner@Gu@physx@@QEAA@XZ 000000018007cda0 f   GuMeshCleaner.obj
 0001:0007be30       ??0ReducedVertexCloud@Gu@physx@@QEAA@PEBV?$PxVec3T@M@2@I@Z 000000018007ce30 f   GuVertexReducer.obj
 0001:0007be50       ??1ReducedVertexCloud@Gu@physx@@QEAA@XZ 000000018007ce50 f   GuVertexReducer.obj
 0001:0007be60       ?clean@ReducedVertexCloud@Gu@physx@@QEAAAEAV123@XZ 000000018007ce60 f   GuVertexReducer.obj
 0001:0007bed0       ?reduce@ReducedVertexCloud@Gu@physx@@QEAA_NPEAUREDUCEDCLOUD@23@@Z 000000018007ced0 f   GuVertexReducer.obj
 0001:0007c170       ??$copy@V?$PxReflectionAllocator@I@physx@@@?$PxArray@IV?$PxReflectionAllocator@I@physx@@@physx@@IEAAXAEBV01@@Z 000000018007d170 f i GuMeshAnalysis.obj
 0001:0007c1e0       ?buildConsistentTriangleOrientationMap@MeshAnalyzer@Gu@physx@@SA_NPEBU?$IndexedTriangleT@H@23@IAEAV?$PxArray@_NV?$PxReflectionAllocator@_N@physx@@@3@AEAV?$PxHashMap@_KHU?$PxHash@_K@physx@@VPxAllocator@2@@3@AEAV?$PxArray@V?$PxArray@IV?$PxReflectionAllocator@I@physx@@@physx@@V?$PxReflectionAllocator@V?$PxArray@IV?$PxReflectionAllocator@I@physx@@@physx@@@2@@3@@Z 000000018007d1e0 f   GuMeshAnalysis.obj
 0001:0007c720       ?buildTriangleAdjacency@MeshAnalyzer@Gu@physx@@SA_NPEBU?$IndexedTriangleT@H@23@IAEAV?$PxArray@HV?$PxReflectionAllocator@H@physx@@@3@AEAV?$PxHashMap@_KHU?$PxHash@_K@physx@@VPxAllocator@2@@3@@Z 000000018007d720 f   GuMeshAnalysis.obj
 0001:0007ca20       ?checkConsistentTriangleOrientation@MeshAnalyzer@Gu@physx@@SA_NPEBU?$IndexedTriangleT@H@23@I@Z 000000018007da20 f   GuMeshAnalysis.obj
 0001:0007cb70       ?checkMeshWatertightness@MeshAnalyzer@Gu@physx@@SA_NPEBU?$IndexedTriangleT@H@23@I_N@Z 000000018007db70 f   GuMeshAnalysis.obj
 0001:0007cd40       ?destroy@?$PxArray@V?$PxArray@IV?$PxReflectionAllocator@I@physx@@@physx@@V?$PxReflectionAllocator@V?$PxArray@IV?$PxReflectionAllocator@I@physx@@@physx@@@2@@physx@@KAXPEAV?$PxArray@IV?$PxReflectionAllocator@I@physx@@@2@0@Z 000000018007dd40 f i GuMeshAnalysis.obj
 0001:0007cdb0       ?erase@?$PxHashBase@V?$PxPair@$$CB_KH@physx@@_KU?$PxHash@_K@2@UGetKey@?$PxHashMapBase@_KHU?$PxHash@_K@physx@@VPxAllocator@2@@2@VPxAllocator@2@$00@physx@@QEAA_NAEB_K@Z 000000018007ddb0 f i GuMeshAnalysis.obj
 0001:0007cf60       ?growAndPushBack@?$PxArray@V?$PxArray@IV?$PxReflectionAllocator@I@physx@@@physx@@V?$PxReflectionAllocator@V?$PxArray@IV?$PxReflectionAllocator@I@physx@@@physx@@@2@@physx@@IEAAAEAV?$PxArray@IV?$PxReflectionAllocator@I@physx@@@2@AEBV32@@Z 000000018007df60 f i GuMeshAnalysis.obj
 0001:0007d0b0       ?makeTriOrientationConsistent@MeshAnalyzer@Gu@physx@@SA_NPEAU?$IndexedTriangleT@H@23@I_N@Z 000000018007e0b0 f   GuMeshAnalysis.obj
 0001:0007d220       ?recreate@?$PxArray@_NV?$PxReflectionAllocator@_N@physx@@@physx@@IEAAXI@Z 000000018007e220 f i GuMeshAnalysis.obj
 0001:0007d310       ?resize@?$PxArray@HV?$PxReflectionAllocator@H@physx@@@physx@@QEAAXIAEBH@Z 000000018007e310 f i GuMeshAnalysis.obj
 0001:0007d3d0       ?resize@?$PxArray@_NV?$PxReflectionAllocator@_N@physx@@@physx@@QEAAXIAEB_N@Z 000000018007e3d0 f i GuMeshAnalysis.obj
 0001:0007d490       ?contactBoxBox@Gu@physx@@YA_NAEBVPxGeometry@2@0AEBUPxTransformPadded@2@1AEBUNarrowPhaseParams@12@AEAUCache@12@AEAVPxContactBuffer@2@PEAVPxRenderOutput@2@@Z 000000018007e490 f   GuContactBoxBox.obj
 0001:00081620       ?contactCapsuleBox@Gu@physx@@YA_NAEBVPxGeometry@2@0AEBUPxTransformPadded@2@1AEBUNarrowPhaseParams@12@AEAUCache@12@AEAVPxContactBuffer@2@PEAVPxRenderOutput@2@@Z 0000000180082620 f   GuContactCapsuleBox.obj
 0001:00081e30       ?contactCapsuleCapsule@Gu@physx@@YA_NAEBVPxGeometry@2@0AEBUPxTransformPadded@2@1AEBUNarrowPhaseParams@12@AEAUCache@12@AEAVPxContactBuffer@2@PEAVPxRenderOutput@2@@Z 0000000180082e30 f   GuContactCapsuleCapsule.obj
 0001:00084820       ?contactCapsuleConvex@Gu@physx@@YA_NAEBVPxGeometry@2@0AEBUPxTransformPadded@2@1AEBUNarrowPhaseParams@12@AEAUCache@12@AEAVPxContactBuffer@2@PEAVPxRenderOutput@2@@Z 0000000180085820 f   GuContactCapsuleConvex.obj
 0001:00086d60       ?contactCapsuleHeightfield@Gu@physx@@YA_NAEBVPxGeometry@2@0AEBUPxTransformPadded@2@1AEBUNarrowPhaseParams@12@AEAUCache@12@AEAVPxContactBuffer@2@PEAVPxRenderOutput@2@@Z 0000000180087d60 f   GuContactCapsuleMesh.obj
 0001:00087570       ?contactCapsuleMesh@Gu@physx@@YA_NAEBVPxGeometry@2@0AEBUPxTransformPadded@2@1AEBUNarrowPhaseParams@12@AEAUCache@12@AEAVPxContactBuffer@2@PEAVPxRenderOutput@2@@Z 0000000180088570 f   GuContactCapsuleMesh.obj
 0001:00088950       ?transformQueryBounds@FastVertex2ShapeScaling@Cm@physx@@QEBAXAEAV?$PxVec3T@M@3@0AEAV?$PxMat33T@M@3@@Z 0000000180089950 f i GuContactCapsuleMesh.obj
 0001:0008cbf0       ?contactBoxConvex@Gu@physx@@YA_NAEBVPxGeometry@2@0AEBUPxTransformPadded@2@1AEBUNarrowPhaseParams@12@AEAUCache@12@AEAVPxContactBuffer@2@PEAVPxRenderOutput@2@@Z 000000018008dbf0 f   GuContactConvexConvex.obj
 0001:0008cdc0       ?contactConvexConvex@Gu@physx@@YA_NAEBVPxGeometry@2@0AEBUPxTransformPadded@2@1AEBUNarrowPhaseParams@12@AEAUCache@12@AEAVPxContactBuffer@2@PEAVPxRenderOutput@2@@Z 000000018008ddc0 f   GuContactConvexConvex.obj
 0001:0008d240       ?transformPlaneToShapeSpace@FastVertex2ShapeScaling@Cm@physx@@QEBAXAEBV?$PxVec3T@M@3@MAEAV43@AEAM@Z 000000018008e240 f i GuContactConvexConvex.obj
 0001:0008d6f0       ??_EConvexMeshContactGenerationCallback@@UEAAPEAXI@Z 000000018008e6f0 f i GuContactConvexMesh.obj
 0001:0008d6f0       ??_GConvexMeshContactGenerationCallback@@UEAAPEAXI@Z 000000018008e6f0 f i GuContactConvexMesh.obj
 0001:0008d750       ?addData@?$CacheMap@UCachedEdge@Gu@physx@@$0IA@@Gu@physx@@QEAA_NAEBUCachedEdge@23@@Z 000000018008e750 f i GuContactConvexMesh.obj
 0001:0008d830       ?addData@?$CacheMap@UCachedVertex@Gu@physx@@$0IA@@Gu@physx@@QEAA_NAEBUCachedVertex@23@@Z 000000018008e830 f i GuContactConvexMesh.obj
 0001:0008d8c0       ?allocate@?$PxArray@IV?$PxInlineAllocator@$0BBAA@V?$PxReflectionAllocator@I@physx@@@physx@@@physx@@IEAAPEAII@Z 000000018008e8c0 f i GuContactConvexMesh.obj
 0001:0008dcc0       ?contactBoxHeightfield@Gu@physx@@YA_NAEBVPxGeometry@2@0AEBUPxTransformPadded@2@1AEBUNarrowPhaseParams@12@AEAUCache@12@AEAVPxContactBuffer@2@PEAVPxRenderOutput@2@@Z 000000018008ecc0 f   GuContactConvexMesh.obj
 0001:0008de40       ?contactBoxMesh@Gu@physx@@YA_NAEBVPxGeometry@2@0AEBUPxTransformPadded@2@1AEBUNarrowPhaseParams@12@AEAUCache@12@AEAVPxContactBuffer@2@PEAVPxRenderOutput@2@@Z 000000018008ee40 f   GuContactConvexMesh.obj
 0001:0008e010       ?contactConvexHeightfield@Gu@physx@@YA_NAEBVPxGeometry@2@0AEBUPxTransformPadded@2@1AEBUNarrowPhaseParams@12@AEAUCache@12@AEAVPxContactBuffer@2@PEAVPxRenderOutput@2@@Z 000000018008f010 f   GuContactConvexMesh.obj
 0001:0008e160       ?contactConvexMesh@Gu@physx@@YA_NAEBVPxGeometry@2@0AEBUPxTransformPadded@2@1AEBUNarrowPhaseParams@12@AEAUCache@12@AEAVPxContactBuffer@2@PEAVPxRenderOutput@2@@Z 000000018008f160 f   GuContactConvexMesh.obj
 0001:00091870       ?processHit@ConvexMeshContactGenerationCallback@@UEAA_NAEBUPxGeomRaycastHit@physx@@AEBV?$PxVec3T@M@3@11AEAMPEBI@Z 0000000180092870 f i GuContactConvexMesh.obj
 0001:00092230       ?recreate@?$PxArray@IV?$PxInlineAllocator@$0BBAA@V?$PxReflectionAllocator@I@physx@@@physx@@@physx@@IEAAXI@Z 0000000180093230 f i GuContactConvexMesh.obj
 0001:00093910       ?contactPlaneBox@Gu@physx@@YA_NAEBVPxGeometry@2@0AEBUPxTransformPadded@2@1AEBUNarrowPhaseParams@12@AEAUCache@12@AEAVPxContactBuffer@2@PEAVPxRenderOutput@2@@Z 0000000180094910 f   GuContactPlaneBox.obj
 0001:000945d0       ?contactPlaneCapsule@Gu@physx@@YA_NAEBVPxGeometry@2@0AEBUPxTransformPadded@2@1AEBUNarrowPhaseParams@12@AEAUCache@12@AEAVPxContactBuffer@2@PEAVPxRenderOutput@2@@Z 00000001800955d0 f   GuContactPlaneCapsule.obj
 0001:00094ca0       ?contactPlaneConvex@Gu@physx@@YA_NAEBVPxGeometry@2@0AEBUPxTransformPadded@2@1AEBUNarrowPhaseParams@12@AEAUCache@12@AEAVPxContactBuffer@2@PEAVPxRenderOutput@2@@Z 0000000180095ca0 f   GuContactPlaneConvex.obj
 0001:000969e0       ?contactPolygonPolygonExt@Gu@physx@@YA_NIPEBV?$PxVec3T@M@2@PEBEAEBV?$PxMat34T@M@2@AEBVPxPlane@2@AEBV?$PxMat33T@M@2@I01234AEBV32@22IIAEAVPxContactBuffer@2@_N5M@Z 00000001800979e0 f   GuContactPolygonPolygon.obj
 0001:00098150       ?findRotationMatrixFromZ@Gu@physx@@YA?AV?$PxMat33T@M@2@AEBV?$PxVec3T@M@2@@Z 0000000180099150 f   GuContactPolygonPolygon.obj
 0001:00098b70       ?contactSphereBox@Gu@physx@@YA_NAEBVPxGeometry@2@0AEBUPxTransformPadded@2@1AEBUNarrowPhaseParams@12@AEAUCache@12@AEAVPxContactBuffer@2@PEAVPxRenderOutput@2@@Z 0000000180099b70 f   GuContactSphereBox.obj
 0001:00099140       ?contactSphereCapsule@Gu@physx@@YA_NAEBVPxGeometry@2@0AEBUPxTransformPadded@2@1AEBUNarrowPhaseParams@12@AEAUCache@12@AEAVPxContactBuffer@2@PEAVPxRenderOutput@2@@Z 000000018009a140 f   GuContactSphereCapsule.obj
 0001:00099f20       ?contactSphereHeightfield@Gu@physx@@YA_NAEBVPxGeometry@2@0AEBUPxTransformPadded@2@1AEBUNarrowPhaseParams@12@AEAUCache@12@AEAVPxContactBuffer@2@PEAVPxRenderOutput@2@@Z 000000018009af20 f   GuContactSphereMesh.obj
 0001:0009a920       ?contactSphereMesh@Gu@physx@@YA_NAEBVPxGeometry@2@0AEBUPxTransformPadded@2@1AEBUNarrowPhaseParams@12@AEAUCache@12@AEAVPxContactBuffer@2@PEAVPxRenderOutput@2@@Z 000000018009b920 f   GuContactSphereMesh.obj
 0001:0009cca0       ?contactSpherePlane@Gu@physx@@YA_NAEBVPxGeometry@2@0AEBUPxTransformPadded@2@1AEBUNarrowPhaseParams@12@AEAUCache@12@AEAVPxContactBuffer@2@PEAVPxRenderOutput@2@@Z 000000018009dca0 f   GuContactSpherePlane.obj
 0001:0009ceb0       ?contactSphereSphere@Gu@physx@@YA_NAEBVPxGeometry@2@0AEBUPxTransformPadded@2@1AEBUNarrowPhaseParams@12@AEAUCache@12@AEAVPxContactBuffer@2@PEAVPxRenderOutput@2@@Z 000000018009deb0 f   GuContactSphereSphere.obj
 0001:0009d030       ?contactCustomGeometryGeometry@Gu@physx@@YA_NAEBVPxGeometry@2@0AEBUPxTransformPadded@2@1AEBUNarrowPhaseParams@12@AEAUCache@12@AEAVPxContactBuffer@2@PEAVPxRenderOutput@2@@Z 000000018009e030 f   GuContactCustomGeometry.obj
 0001:0009d090       ?contactGeometryCustomGeometry@Gu@physx@@YA_NAEBVPxGeometry@2@0AEBUPxTransformPadded@2@1AEBUNarrowPhaseParams@12@AEAUCache@12@AEAVPxContactBuffer@2@PEAVPxRenderOutput@2@@Z 000000018009e090 f   GuContactCustomGeometry.obj
 0001:0009d150       ?selectNormal@Gu@physx@@YA_NEMM@Z 000000018009e150 f   GuFeatureCode.obj
 0001:0009d1d0       ??0BigConvexData@physx@@QEAA@XZ 000000018009e1d0 f   GuBigConvexData.obj
 0001:0009d1f0       ??1BigConvexData@physx@@QEAA@XZ 000000018009e1f0 f   GuBigConvexData.obj
 0001:0009d2b0       ?ComputeNearestOffset@BigConvexData@physx@@QEBAIAEBV?$PxVec3T@M@2@@Z 000000018009e2b0 f   GuBigConvexData.obj
 0001:0009d3b0       ?ComputeOffset@BigConvexData@physx@@QEBAIAEBV?$PxVec3T@M@2@@Z 000000018009e3b0 f   GuBigConvexData.obj
 0001:0009d4b0       ?CreateOffsets@BigConvexData@physx@@IEAAXXZ 000000018009e4b0 f   GuBigConvexData.obj
 0001:0009d500       ?Load@BigConvexData@physx@@QEAA_NAEAVPxInputStream@2@@Z 000000018009e500 f   GuBigConvexData.obj
 0001:0009d610       ?VLoad@BigConvexData@physx@@IEAA_NAEAVPxInputStream@2@@Z 000000018009e610 f   GuBigConvexData.obj
 0001:0009d7b0       ?exportExtraData@BigConvexData@physx@@QEAAXAEAVPxSerializationContext@2@@Z 000000018009e7b0 f   GuBigConvexData.obj
 0001:0009d830       ?importExtraData@BigConvexData@physx@@QEAAXAEAVPxDeserializationContext@2@@Z 000000018009e830 f   GuBigConvexData.obj
 0001:0009d8a0       ?findUniqueConvexEdges@Gu@physx@@YAIIPEIAUConvexEdge@12@IPEIBUHullPolygonData@12@PEIBE@Z 000000018009e8a0 f   GuConvexHelper.obj
 0001:0009d9e0       ?getConvexData@Gu@physx@@YA_NAEBVPxConvexMeshGeometry@2@AEAVFastVertex2ShapeScaling@Cm@2@AEAVPxBounds3@2@AEAUPolygonalData@12@@Z 000000018009e9e0 f   GuConvexHelper.obj
 0001:0009dc60       ?getScaledConvex@Gu@physx@@YAXAEAPEAV?$PxVec3T@M@2@AEAPEAEPEAV32@PEAE_NPEBV32@PEBEIAEBVFastVertex2ShapeScaling@Cm@2@@Z 000000018009ec60 f   GuConvexHelper.obj
 0001:0009dd90       ??0ConvexMesh@Gu@physx@@QEAA@PEAVMeshFactory@12@@Z 000000018009ed90 f   GuConvexMesh.obj
 0001:0009de20       ??0ConvexMesh@Gu@physx@@QEAA@PEAVMeshFactory@12@AEAUConvexHullInitData@12@@Z 000000018009ee20 f   GuConvexMesh.obj
 0001:0009df40       ??_EConvexMesh@Gu@physx@@UEAAPEAXI@Z 000000018009ef40 f i GuConvexMesh.obj
 0001:0009df40       ??_GConvexMesh@Gu@physx@@UEAAPEAXI@Z 000000018009ef40 f i GuConvexMesh.obj
 0001:0009e050       ??_EPxBVH@physx@@MEAAPEAXI@Z 000000018009f050 f i GuBVH.obj
 0001:0009e050       ??_EPxBase@physx@@MEAAPEAXI@Z 000000018009f050 f i GuConvexMesh.obj
 0001:0009e050       ??_GPxBVH@physx@@MEAAPEAXI@Z 000000018009f050 f i GuBVH.obj
 0001:0009e050       ??_GPxBase@physx@@MEAAPEAXI@Z 000000018009f050 f i GuConvexMesh.obj
 0001:0009e080       ?acquireReference@ConvexMesh@Gu@physx@@UEAAXXZ 000000018009f080 f   GuConvexMesh.obj
 0001:0009e080       ?acquireReference@HeightField@Gu@physx@@UEAAXXZ 000000018009f080 f   GuHeightField.obj
 0001:0009e080       ?acquireReference@SoftBodyAuxData@Gu@physx@@UEAAXXZ 000000018009f080 f   GuTetrahedronMesh.obj
 0001:0009e080       ?acquireReference@SoftBodyMesh@Gu@physx@@UEAAXXZ 000000018009f080 f   GuTetrahedronMesh.obj
 0001:0009e080       ?acquireReference@TetrahedronMesh@Gu@physx@@UEAAXXZ 000000018009f080 f   GuTetrahedronMesh.obj
 0001:0009e080       ?acquireReference@TriangleMesh@Gu@physx@@UEAAXXZ 000000018009f080 f   GuTriangleMesh.obj
 0001:0009e540       ?createObject@ConvexMesh@Gu@physx@@SAPEAV123@AEAPEAEAEAVPxDeserializationContext@3@@Z 000000018009f540 f   GuConvexMesh.obj
 0001:0009e620       ?exportExtraData@ConvexMesh@Gu@physx@@UEAAXAEAVPxSerializationContext@3@@Z 000000018009f620 f   GuConvexMesh.obj
 0001:0009e6f0       ?getConcreteTypeName@PxConvexMesh@physx@@UEBAPEBDXZ 000000018009f6f0 f i GuConvexMesh.obj
 0001:0009e700       ?getIndexBuffer@ConvexMesh@Gu@physx@@UEBAPEBEXZ 000000018009f700 f i GuConvexMesh.obj
 0001:0009e740       ?getLocalBounds@ConvexMesh@Gu@physx@@UEBA?AVPxBounds3@3@XZ 000000018009f740 f   GuConvexMesh.obj
 0001:0009e7d0       ?getMassInformation@ConvexMesh@Gu@physx@@UEBAXAEAMAEAV?$PxMat33T@M@3@AEAV?$PxVec3T@M@3@@Z 000000018009f7d0 f   GuConvexMesh.obj
 0001:0009e840       ?getNbPolygons@ConvexMesh@Gu@physx@@UEBAIXZ 000000018009f840 f i GuConvexMesh.obj
 0001:0009e850       ?getNbVertices@ConvexMesh@Gu@physx@@UEBAIXZ 000000018009f850 f i GuConvexMesh.obj
 0001:0009e860       ?getPolygonData@ConvexMesh@Gu@physx@@UEBA_NIAEAUPxHullPolygon@3@@Z 000000018009f860 f   GuConvexMesh.obj
 0001:0009e8b0       ?getReferenceCount@ConvexMesh@Gu@physx@@UEBAIXZ 000000018009f8b0 f   GuConvexMesh.obj
 0001:0009e8b0       ?getReferenceCount@HeightField@Gu@physx@@UEBAIXZ 000000018009f8b0 f   GuHeightField.obj
 0001:0009e8b0       ?getReferenceCount@SoftBodyAuxData@Gu@physx@@UEBAIXZ 000000018009f8b0 f   GuTetrahedronMesh.obj
 0001:0009e8b0       ?getReferenceCount@SoftBodyMesh@Gu@physx@@UEBAIXZ 000000018009f8b0 f   GuTetrahedronMesh.obj
 0001:0009e8b0       ?getReferenceCount@TetrahedronMesh@Gu@physx@@UEBAIXZ 000000018009f8b0 f   GuTetrahedronMesh.obj
 0001:0009e8b0       ?getReferenceCount@TriangleMesh@Gu@physx@@UEBAIXZ 000000018009f8b0 f   GuTriangleMesh.obj
 0001:0009e8b0       ?length@DNameStatusNode@@UEBAHXZ 000000018009f8b0 f   libvcruntime:undname.obj
 0001:0009e8b0       ?raw_length@DNameStatusNode@@UEBAHXZ 000000018009f8b0 f   libvcruntime:undname.obj
 0001:0009e8c0       ?getSDF@ConvexMesh@Gu@physx@@UEBAPEBMXZ 000000018009f8c0 f   GuConvexMesh.obj
 0001:0009e8d0       ?getVertices@ConvexMesh@Gu@physx@@UEBAPEBV?$PxVec3T@M@3@XZ 000000018009f8d0 f i GuConvexMesh.obj
 0001:0009e8f0       ?isGpuCompatible@ConvexMesh@Gu@physx@@UEBA_NXZ 000000018009f8f0 f   GuConvexMesh.obj
 0001:0009e930       ?isKindOf@PxBase@physx@@MEBA_NPEBD@Z 000000018009f930 f i GuConvexMesh.obj
 0001:0009e950       ?isKindOf@PxConvexMesh@physx@@MEBA_NPEBD@Z 000000018009f950 f i GuConvexMesh.obj
 0001:0009e9e0       ?isReleasable@PxBase@physx@@UEBA_NXZ 000000018009f9e0 f i GuConvexMesh.obj
 0001:0009e9f0       ?load@ConvexMesh@Gu@physx@@QEAA_NAEAVPxInputStream@3@@Z 000000018009f9f0 f   GuConvexMesh.obj
 0001:0009ef40       ?onRefCountZero@ConvexMesh@Gu@physx@@UEAAXXZ 000000018009ff40 f   GuConvexMesh.obj
 0001:0009f070       ?release@ConvexMesh@Gu@physx@@UEAAXXZ 00000001800a0070 f   GuConvexMesh.obj
 0001:0009f070       ?release@HeightField@Gu@physx@@UEAAXXZ 00000001800a0070 f   GuHeightField.obj
 0001:0009f070       ?release@SoftBodyAuxData@Gu@physx@@UEAAXXZ 00000001800a0070 f   GuTetrahedronMesh.obj
 0001:0009f070       ?release@SoftBodyMesh@Gu@physx@@UEAAXXZ 00000001800a0070 f   GuTetrahedronMesh.obj
 0001:0009f070       ?release@TetrahedronMesh@Gu@physx@@UEAAXXZ 00000001800a0070 f   GuTetrahedronMesh.obj
 0001:0009f070       ?release@TriangleMesh@Gu@physx@@UEAAXXZ 00000001800a0070 f   GuTriangleMesh.obj
 0001:0009f0a0       ??Dphysx@@YA?AV?$PxMat34T@M@0@AEBVPxMeshScale@0@AEBV10@@Z 00000001800a00a0 f i GuConvexUtilsInternal.obj
 0001:0009f610       ?computeHullOBB@Gu@physx@@YAXAEAVBox@12@AEBVPxBounds3@2@MAEBV?$PxMat34T@M@2@2AEBVFastVertex2ShapeScaling@Cm@2@_N@Z 00000001800a0610 f   GuConvexUtilsInternal.obj
 0001:0009fac0       ?computeOBBAroundConvex@Gu@physx@@YAXAEAVBox@12@AEBVPxConvexMeshGeometry@2@PEBVPxConvexMesh@2@AEBV?$PxTransformT@M@2@@Z 00000001800a0ac0 f   GuConvexUtilsInternal.obj
 0001:000a0310       ?computeVertexSpaceOBB@Gu@physx@@YAXAEAVBox@12@AEBV312@AEBV?$PxTransformT@M@2@AEBVPxMeshScale@2@@Z 00000001800a1310 f   GuConvexUtilsInternal.obj
 0001:000a0640       ?transform@physx@@YA?AVBox@Gu@1@AEBV?$PxMat34T@M@1@AEBV231@@Z 00000001800a1640 f i GuConvexUtilsInternal.obj
 0001:000a0890       ?localSearch@physx@@YAXAEAIAEBV?$PxVec3T@M@1@PEBV21@PEBUBigConvexRawData@Gu@1@@Z 00000001800a1890 f   GuHillClimbing.obj
 0001:000a09d0       ??0PCMPolygonalBox@Gu@physx@@QEAA@AEBV?$PxVec3T@M@2@@Z 00000001800a19d0 f   GuPCMShapeConvex.obj
 0001:000a09d0       ??0PolygonalBox@Gu@physx@@QEAA@AEBV?$PxVec3T@M@2@@Z 00000001800a19d0 f   GuShapeConvex.obj
 0001:000a1e90       ?getPolygonalData@PolygonalBox@Gu@physx@@QEBAXPEIAUPolygonalData@23@@Z 00000001800a2e90 f   GuShapeConvex.obj
 0001:000a1f00       ?getPolygonalData_Convex@Gu@physx@@YAXPEIAUPolygonalData@12@PEIBUConvexHullData@12@AEBVFastVertex2ShapeScaling@Cm@2@@Z 00000001800a2f00 f   GuShapeConvex.obj
 0001:000a2060       ?distancePointBoxSquared@Gu@physx@@YAMAEBV?$PxVec3T@M@2@00AEBV?$PxMat33T@M@2@PEAV32@@Z 00000001800a3060 f   GuDistancePointBox.obj
 0001:000a21b0       ?closestPtPointTriangle@Gu@physx@@YA?AV?$PxVec3T@M@2@AEBV32@000AEAM1@Z 00000001800a31b0 f   GuDistancePointTriangle.obj
 0001:000a26d0       ?distancePointTriangleSquared2UnitBox@Gu@physx@@YA?AT__m128@@AEBT3@000AEAT3@11@Z 00000001800a36d0 f   GuDistancePointTriangle.obj
 0001:000a27f0       ?distancePointTriangleSquared@Gu@physx@@YA?AT__m128@@AEBT3@000AEAT3@11@Z 00000001800a37f0 f   GuDistancePointTriangle.obj
 0001:000a3540       ?distanceSegmentBoxSquared@Gu@physx@@YAMAEBV?$PxVec3T@M@2@000AEBV?$PxMat33T@M@2@PEAMPEAV32@@Z 00000001800a4540 f   GuDistanceSegmentBox.obj
 0001:000a3dc0       ?distanceSegmentSegmentSquared4@Gu@physx@@YA?AT__m128@@AEBT3@000000000AEAT3@1@Z 00000001800a4dc0 f   GuDistanceSegmentSegment.obj
 0001:000a40d0       ?distanceSegmentSegmentSquared@Gu@physx@@YA?AT__m128@@AEBT3@000AEAT3@1@Z 00000001800a50d0 f   GuDistanceSegmentSegment.obj
 0001:000a4290       ?distanceSegmentSegmentSquared@Gu@physx@@YAMAEBV?$PxVec3T@M@2@000PEAM1@Z 00000001800a5290 f   GuDistanceSegmentSegment.obj
 0001:000a4520       ?distanceSegmentSegmentSquared@Gu@physx@@YAMAEBV?$PxVec3T@M@2@0M00MPEAM1@Z 00000001800a5520 f   GuDistanceSegmentSegment.obj
 0001:000a4c60       ?distanceSegmentTriangleSquared@Gu@physx@@YA?AT__m128@@AEBT3@0000AEAT3@1@Z 00000001800a5c60 f   GuDistanceSegmentTriangle.obj
 0001:000a53a0       ?distanceSegmentTriangleSquared@Gu@physx@@YAMAEBV?$PxVec3T@M@2@0000PEAM11@Z 00000001800a63a0 f   GuDistanceSegmentTriangle.obj
 0001:000a6a10       ?distanceTriangleTriangleSquared@Gu@physx@@YAMAEAV?$PxVec3T@M@2@0QEBVPxVec3Padded@2@1@Z 00000001800a7a10 f   GuDistanceTriangleTriangle.obj
 0001:000a7540       ?PointOutsideOfPlane4@Gu@physx@@YA?AV?$PxVec4T@M@2@AEBV?$PxVec3T@M@2@0000@Z 00000001800a8540 f   GuDistancePointTetrahedron.obj
 0001:000a79b0       ?closestPtPointTetrahedron@Gu@physx@@YA?AV?$PxVec3T@M@2@AEBV32@0000AEBV?$PxVec4T@M@2@@Z 00000001800a89b0 f   GuDistancePointTetrahedron.obj
 0001:000a8aa0       ?PenetrationDepth@EPA@Gu@physx@@QEAA?AW4GjkStatus@23@AEBUGjkConvex@23@0PEIBT__m128@@1E_NT6@AEAUGjkOutput@23@@Z 00000001800a9aa0 f   GuEPA.obj
 0001:000a9560       ?addFacet@EPA@Gu@physx@@QEAAPEAVFacet@23@IIIAEBT__m128@@@Z 00000001800aa560 f   GuEPA.obj
 0001:000a9990       ?epaPenetration@Gu@physx@@YA?AW4GjkStatus@12@AEBUGjkConvex@12@0PEIBE1E_NT__m128@@AEAUGjkOutput@12@@Z 00000001800aa990 f   GuEPA.obj
 0001:000a9b00       ?epaPenetration@Gu@physx@@YA?AW4GjkStatus@12@AEBUGjkConvex@12@0PEIBT__m128@@1E_NT5@AEAUGjkOutput@12@@Z 00000001800aab00 f   GuEPA.obj
 0001:000a9bb0       ?silhouette@Facet@Gu@physx@@QEAAXAEBT__m128@@PEIBT4@1AEAVEdgeBuffer@23@AEAV?$InlineDeferredIDPool@$0EA@@Cm@3@@Z 00000001800aabb0 f   GuEPA.obj
 0001:000a9d80       ?closestPtPointTetrahedron@Gu@physx@@YA?AT__m128@@PEIAT3@00AEAI@Z 00000001800aad80 f   GuGJKSimplex.obj
 0001:000aa4f0       ?closestPtPointTetrahedron@Gu@physx@@YA?AT__m128@@PEIAT3@00PEIAH1AEAI@Z 00000001800ab4f0 f   GuGJKSimplex.obj
 0001:000abf70       ??$gjk@UGjkConvex@Gu@physx@@U123@@Gu@physx@@YA?AW4GjkStatus@01@AEBUGjkConvex@01@0AEBT__m128@@1AEAT4@222@Z 00000001800acf70 f i GuGJKTest.obj
 0001:000acb90       ??$gjkPenetration@UGjkConvex@Gu@physx@@U123@@Gu@physx@@YA?AW4GjkStatus@01@AEBUGjkConvex@01@0AEBT__m128@@1_NPEIAE3AEAEAEAUGjkOutput@01@@Z 00000001800adb90 f i GuGJKTest.obj
 0001:000acc00       ??$gjkPenetration@UGjkConvex@Gu@physx@@U123@@Gu@physx@@YA?AW4GjkStatus@01@AEBUGjkConvex@01@0AEBT__m128@@1_NPEIAE3PEIAT4@4AEAEAEAUGjkOutput@01@@Z 00000001800adc00 f i GuGJKTest.obj
 0001:000ae050       ?testEpaPenetration@Gu@physx@@YA?AW4GjkStatus@12@AEBUGjkConvex@12@0PEBE1EAEAUGjkOutput@12@@Z 00000001800af050 f   GuGJKTest.obj
 0001:000ae0a0       ?testGjk@Gu@physx@@YA?AW4GjkStatus@12@AEBUGjkConvex@12@0AEBT__m128@@1AEAT5@222@Z 00000001800af0a0 f   GuGJKTest.obj
 0001:000ae0b0       ?testGjkPenetration@Gu@physx@@YA?AW4GjkStatus@12@AEBUGjkConvex@12@0AEBT__m128@@1PEAE2AEAEAEAUGjkOutput@12@@Z 00000001800af0b0 f   GuGJKTest.obj
 0001:000ae100       ??0HeightField@Gu@physx@@QEAA@PEAVMeshFactory@12@@Z 00000001800af100 f   GuHeightField.obj
 0001:000ae150       ??0HeightField@Gu@physx@@QEAA@PEAVMeshFactory@12@AEAUHeightFieldData@12@@Z 00000001800af150 f   GuHeightField.obj
 0001:000ae200       ??1HeightField@Gu@physx@@UEAA@XZ 00000001800af200 f   GuHeightField.obj
 0001:000ae280       ??_EHeightField@Gu@physx@@UEAAPEAXI@Z 00000001800af280 f i GuHeightField.obj
 0001:000ae280       ??_GHeightField@Gu@physx@@UEAAPEAXI@Z 00000001800af280 f i GuHeightField.obj
 0001:000ae330       ?computeCellCoordinates@HeightField@Gu@physx@@QEBAIMMAEAM0@Z 00000001800af330 f   GuHeightField.obj
 0001:000ae450       ?createObject@HeightField@Gu@physx@@SAPEAV123@AEAPEAEAEAVPxDeserializationContext@3@@Z 00000001800af450 f   GuHeightField.obj
 0001:000ae4a0       ?exportExtraData@HeightField@Gu@physx@@UEAAXAEAVPxSerializationContext@3@@Z 00000001800af4a0 f   GuHeightField.obj
 0001:000ae4f0       ?getConcreteTypeName@PxHeightField@physx@@UEBAPEBDXZ 00000001800af4f0 f i GuHeightField.obj
 0001:000ae500       ?getConvexEdgeThreshold@HeightField@Gu@physx@@UEBAMXZ 00000001800af500 f i GuHeightField.obj
 0001:000ae510       ?getFlags@HeightField@Gu@physx@@UEBA?AV?$PxFlags@W4Enum@PxHeightFieldFlag@physx@@G@3@XZ 00000001800af510 f i GuHeightField.obj
 0001:000ae520       ?getFormat@HeightField@Gu@physx@@UEBA?AW4Enum@PxHeightFieldFormat@3@XZ 00000001800af520 f i GuHeightField.obj
 0001:000ae530       ?getHeight@HeightField@Gu@physx@@UEBAMMM@Z 00000001800af530 f i GuHeightField.obj
 0001:000ae650       ?getNbColumns@HeightField@Gu@physx@@UEBAIXZ 00000001800af650 f i GuHeightField.obj
 0001:000ae660       ?getNbBounds@BVH@Gu@physx@@UEBAIXZ 00000001800af660 f i GuBVH.obj
 0001:000ae660       ?getNbPrimitives@SourceMesh@Gu@physx@@UEBAIXZ 00000001800af660 f i GuBV4.obj
 0001:000ae660       ?getNbPrimitives@TetrahedronSourceMesh@Gu@physx@@UEBAIXZ 00000001800af660 f i GuBV4.obj
 0001:000ae660       ?getNbRows@HeightField@Gu@physx@@UEBAIXZ 00000001800af660 f i GuHeightField.obj
 0001:000ae670       ?getSample@HeightField@Gu@physx@@UEBAAEBUPxHeightFieldSample@3@II@Z 00000001800af670 f i GuHeightField.obj
 0001:000ae680       ?getSampleStride@HeightField@Gu@physx@@UEBAIXZ 00000001800af680 f i GuHeightField.obj
 0001:000ae690       ?getTimestamp@HeightField@Gu@physx@@UEBAIXZ 00000001800af690 f i GuHeightField.obj
 0001:000ae6a0       ?getTriangleMaterialIndex@HeightField@Gu@physx@@UEBAGI@Z 00000001800af6a0 f i GuHeightField.obj
 0001:000ae6d0       ?getTriangleNormal@HeightField@Gu@physx@@UEBA?AV?$PxVec3T@M@3@I@Z 00000001800af6d0 f i GuHeightField.obj
 0001:000ae6f0       ?getTriangleNormalInternal@HeightField@Gu@physx@@QEBA?AV?$PxVec3T@M@3@I@Z 00000001800af6f0 f i GuHeightField.obj
 0001:000aea20       ?isCollisionVertexPreca@HeightField@Gu@physx@@QEBA_NIIIG@Z 00000001800afa20 f   GuHeightField.obj
 0001:000aeac0       ?isConvexVertex@HeightField@Gu@physx@@QEBA_NIII@Z 00000001800afac0 f i GuHeightField.obj
 0001:000aeb90       ?isKindOf@PxHeightField@physx@@MEBA_NPEBD@Z 00000001800afb90 f i GuHeightField.obj
 0001:000aec20       ?isSolidVertex@HeightField@Gu@physx@@QEBA_NIIIGAEA_N@Z 00000001800afc20 f   GuHeightField.obj
 0001:000aeec0       ?load@HeightField@Gu@physx@@QEAA_NAEAVPxInputStream@3@@Z 00000001800afec0 f   GuHeightField.obj
 0001:000af220       ?loadFromDesc@HeightField@Gu@physx@@QEAA_NAEBVPxHeightFieldDesc@3@@Z 00000001800b0220 f   GuHeightField.obj
 0001:000af420       ?modifySamples@HeightField@Gu@physx@@UEAA_NHHAEBVPxHeightFieldDesc@3@_N@Z 00000001800b0420 f   GuHeightField.obj
 0001:000af790       ?onRefCountZero@HeightField@Gu@physx@@UEAAXXZ 00000001800b0790 f   GuHeightField.obj
 0001:000af860       ?parseTrianglesForCollisionVertices@HeightField@Gu@physx@@QEAAXG@Z 00000001800b0860 f   GuHeightField.obj
 0001:000afd70       ?releaseMemory@HeightField@Gu@physx@@QEAAXXZ 00000001800b0d70 f   GuHeightField.obj
 0001:000afdc0       ?resizeAndClear@?$PxBitMapBase@VPxAllocator@physx@@@physx@@QEAAXI@Z 00000001800b0dc0 f i GuHeightField.obj
 0001:000afe70       ?save@HeightField@Gu@physx@@QEAA_NAEAVPxOutputStream@3@_N@Z 00000001800b0e70 f   GuHeightField.obj
 0001:000b00b0       ?saveCells@HeightField@Gu@physx@@UEBAIPEAXI@Z 00000001800b10b0 f   GuHeightField.obj
 0001:000b00f0       ?computeLocalBounds@HeightFieldUtil@Gu@physx@@QEBAXAEAVPxBounds3@3@@Z 00000001800b10f0 f   GuHeightFieldUtil.obj
 0001:000b05b0       ?getTriangle@HeightFieldUtil@Gu@physx@@QEBAIAEBV?$PxTransformT@M@3@AEAVPxTriangle@3@PEAI2I_N3@Z 00000001800b15b0 f   GuHeightFieldUtil.obj
 0001:000b10b0       ?getTriangleAdjacencyIndices@HeightField@Gu@physx@@QEBAXIIIIAEAI00@Z 00000001800b20b0 f i GuHeightFieldUtil.obj
 0001:000b1260       ?getTriangleVertexIndices@HeightField@Gu@physx@@QEBAXIAEAI00@Z 00000001800b2260 f i GuHeightFieldUtil.obj
 0001:000b1320       ?overlapAABBTriangles@HeightFieldUtil@Gu@physx@@QEBAXAEBVPxBounds3@3@AEAVOverlapReport@23@I@Z 00000001800b2320 f   GuHeightFieldUtil.obj
 0001:000b1780       ??$gjk@U?$RelativeConvex@VTriangleV@Gu@physx@@@Gu@physx@@U?$LocalConvex@VConvexHullV@Gu@physx@@@23@@Gu@physx@@YA?AW4GjkStatus@01@AEBU?$RelativeConvex@VTriangleV@Gu@physx@@@01@AEBU?$LocalConvex@VConvexHullV@Gu@physx@@@01@AEBT__m128@@2AEAT5@333@Z 00000001800b2780 f i GuOverlapTestsHF.obj
 0001:000b26c0       ?GeomOverlapCallback_BoxHeightfield@@YA_NAEBVPxGeometry@physx@@AEBV?$PxTransformT@M@2@01PEAUTriggerCache@Gu@2@PEAUPxQueryThreadContext@2@@Z 00000001800b36c0 f   GuOverlapTestsHF.obj
 0001:000b2c20       ?GeomOverlapCallback_CapsuleHeightfield@@YA_NAEBVPxGeometry@physx@@AEBV?$PxTransformT@M@2@01PEAUTriggerCache@Gu@2@PEAUPxQueryThreadContext@2@@Z 00000001800b3c20 f   GuOverlapTestsHF.obj
 0001:000b3220       ?GeomOverlapCallback_ConvexHeightfield@@YA_NAEBVPxGeometry@physx@@AEBV?$PxTransformT@M@2@01PEAUTriggerCache@Gu@2@PEAUPxQueryThreadContext@2@@Z 00000001800b4220 f   GuOverlapTestsHF.obj
 0001:000b3c60       ?GeomOverlapCallback_SphereHeightfield@@YA_NAEBVPxGeometry@physx@@AEBV?$PxTransformT@M@2@01PEAUTriggerCache@Gu@2@PEAUPxQueryThreadContext@2@@Z 00000001800b4c60 f   GuOverlapTestsHF.obj
 0001:000b4820       ??$gjkRaycast@U?$LocalConvex@VTriangleV@Gu@physx@@@Gu@physx@@U?$LocalConvex@VConvexHullV@Gu@physx@@@23@@Gu@physx@@YA_NAEBU?$LocalConvex@VTriangleV@Gu@physx@@@01@AEBU?$LocalConvex@VConvexHullV@Gu@physx@@@01@AEBT__m128@@222AEAT4@33M@Z 00000001800b5820 f i GuSweepsHF.obj
 0001:000b5620       ??$traceSegment@VBoxTraceSegmentReport@@$0A@$00@HeightFieldTraceUtil@Gu@physx@@QEBAXAEBV?$PxVec3T@M@2@0MPEAVBoxTraceSegmentReport@@AEBVPxBounds3@2@_NPEBV32@@Z 00000001800b6620 f i GuSweepsHF.obj
 0001:000b5620       ??$traceSegment@VCapsuleTraceSegmentReport@@$0A@$00@HeightFieldTraceUtil@Gu@physx@@QEBAXAEBV?$PxVec3T@M@2@0MPEAVCapsuleTraceSegmentReport@@AEBVPxBounds3@2@_NPEBV32@@Z 00000001800b6620 f i GuSweepsHF.obj
 0001:000b5620       ??$traceSegment@VConvexTraceSegmentReport@@$0A@$00@HeightFieldTraceUtil@Gu@physx@@QEBAXAEBV?$PxVec3T@M@2@0MPEAVConvexTraceSegmentReport@@AEBVPxBounds3@2@_NPEBV32@@Z 00000001800b6620 f i GuSweepsHF.obj
 0001:000b5df0       ??0ConvexTraceSegmentReport@@QEAA@AEBVHeightFieldUtil@Gu@physx@@AEBUConvexHullData@23@AEBVPxMeshScale@3@AEBV?$PxTransformT@M@3@3AEBV?$PxVec3T@M@3@MV?$PxFlags@W4Enum@PxHitFlag@physx@@G@3@M@Z 00000001800b6df0 f i GuSweepsHF.obj
 0001:000b6770       ??_EBoxTraceSegmentReport@@UEAAPEAXI@Z 00000001800b7770 f i GuSweepsHF.obj
 0001:000b6770       ??_GBoxTraceSegmentReport@@UEAAPEAXI@Z 00000001800b7770 f i GuSweepsHF.obj
 0001:000b67a0       ??_ECapsuleTraceSegmentReport@@UEAAPEAXI@Z 00000001800b77a0 f i GuSweepsHF.obj
 0001:000b67a0       ??_GCapsuleTraceSegmentReport@@UEAAPEAXI@Z 00000001800b77a0 f i GuSweepsHF.obj
 0001:000b67d0       ??_EConvexTraceSegmentReport@@UEAAPEAXI@Z 00000001800b77d0 f i GuSweepsHF.obj
 0001:000b67d0       ??_GConvexTraceSegmentReport@@UEAAPEAXI@Z 00000001800b77d0 f i GuSweepsHF.obj
 0001:000b6800       ??_EHeightFieldTraceSegmentReport@@UEAAPEAXI@Z 00000001800b7800 f i GuSweepsHF.obj
 0001:000b6800       ??_GHeightFieldTraceSegmentReport@@UEAAPEAXI@Z 00000001800b7800 f i GuSweepsHF.obj
 0001:000b6830       ?finalizeHit@ConvexTraceSegmentReport@@QEAA_NAEAUPxGeomSweepHit@physx@@AEBVPxHeightFieldGeometry@3@AEBV?$PxTransformT@M@3@AEBVPxConvexMeshGeometry@3@2AEBV?$PxVec3T@M@3@M@Z 00000001800b7830 f i GuSweepsHF.obj
 0001:000b6a50       ?onEvent@BoxTraceSegmentReport@@UEAA_NIPEBI@Z 00000001800b7a50 f i GuSweepsHF.obj
 0001:000b6ea0       ?onEvent@CapsuleTraceSegmentReport@@UEAA_NIPEBI@Z 00000001800b7ea0 f i GuSweepsHF.obj
 0001:000b70c0       ?onEvent@ConvexTraceSegmentReport@@UEAA_NIPEBI@Z 00000001800b80c0 f i GuSweepsHF.obj
 0001:000b7680       ?prepare@?$OverlapTraceSegment@VBoxTraceSegmentReport@@@HeightFieldTraceUtil@Gu@physx@@QEAAXAEBV?$PxVec3T@M@4@00AEAM1@Z 00000001800b8680 f i GuSweepsHF.obj
 0001:000b7680       ?prepare@?$OverlapTraceSegment@VCapsuleTraceSegmentReport@@@HeightFieldTraceUtil@Gu@physx@@QEAAXAEBV?$PxVec3T@M@4@00AEAM1@Z 00000001800b8680 f i GuSweepsHF.obj
 0001:000b7680       ?prepare@?$OverlapTraceSegment@VConvexTraceSegmentReport@@@HeightFieldTraceUtil@Gu@physx@@QEAAXAEBV?$PxVec3T@M@4@00AEAM1@Z 00000001800b8680 f i GuSweepsHF.obj
 0001:000b7940       ?sweepBox_HeightFieldGeom@@YA_NAEBVPxGeometry@physx@@AEBV?$PxTransformT@M@2@AEBVPxBoxGeometry@2@1AEBVBox@Gu@2@AEBV?$PxVec3T@M@2@MAEAUPxGeomSweepHit@2@V?$PxFlags@W4Enum@PxHitFlag@physx@@G@2@MPEAUPxQueryThreadContext@2@@Z 00000001800b8940 f   GuSweepsHF.obj
 0001:000b8780       ?sweepCapsule_HeightFieldGeom@@YA_NAEBVPxGeometry@physx@@AEBV?$PxTransformT@M@2@AEBVPxCapsuleGeometry@2@1AEBVCapsule@Gu@2@AEBV?$PxVec3T@M@2@MAEAUPxGeomSweepHit@2@V?$PxFlags@W4Enum@PxHitFlag@physx@@G@2@MPEAUPxQueryThreadContext@2@@Z 00000001800b9780 f   GuSweepsHF.obj
 0001:000b90d0       ?sweepConvex_HeightFieldGeom@@YA_NAEBVPxGeometry@physx@@AEBV?$PxTransformT@M@2@AEBVPxConvexMeshGeometry@2@1AEBV?$PxVec3T@M@2@MAEAUPxGeomSweepHit@2@V?$PxFlags@W4Enum@PxHitFlag@physx@@G@2@MPEAUPxQueryThreadContext@2@@Z 00000001800ba0d0 f   GuSweepsHF.obj
 0001:000b9a90       ?testVertexIndex@?$OverlapTraceSegment@VBoxTraceSegmentReport@@@HeightFieldTraceUtil@Gu@physx@@QEAA_NI@Z 00000001800baa90 f i GuSweepsHF.obj
 0001:000b9a90       ?testVertexIndex@?$OverlapTraceSegment@VCapsuleTraceSegmentReport@@@HeightFieldTraceUtil@Gu@physx@@QEAA_NI@Z 00000001800baa90 f i GuSweepsHF.obj
 0001:000b9a90       ?testVertexIndex@?$OverlapTraceSegment@VConvexTraceSegmentReport@@@HeightFieldTraceUtil@Gu@physx@@QEAA_NI@Z 00000001800baa90 f i GuSweepsHF.obj
 0001:000b9bf0       ?transformFast@PxBounds3@physx@@SA?AV12@AEBV?$PxTransformT@M@2@AEBV12@@Z 00000001800babf0 f i GuSweepsHF.obj
 0001:000b9fd0       ?visitCells@?$OverlapTraceSegment@VBoxTraceSegmentReport@@@HeightFieldTraceUtil@Gu@physx@@QEAA_NAEBUOverlapRectangle@1234@@Z 00000001800bafd0 f i GuSweepsHF.obj
 0001:000b9fd0       ?visitCells@?$OverlapTraceSegment@VCapsuleTraceSegmentReport@@@HeightFieldTraceUtil@Gu@physx@@QEAA_NAEBUOverlapRectangle@1234@@Z 00000001800bafd0 f i GuSweepsHF.obj
 0001:000b9fd0       ?visitCells@?$OverlapTraceSegment@VConvexTraceSegmentReport@@@HeightFieldTraceUtil@Gu@physx@@QEAA_NAEBUOverlapRectangle@1234@@Z 00000001800bafd0 f i GuSweepsHF.obj
 0001:000ba1c0       ?intersectOBBOBB@Gu@physx@@YA_NAEBV?$PxVec3T@M@2@0AEBV?$PxMat33T@M@2@001_N@Z 00000001800bb1c0 f   GuIntersectionBoxBox.obj
 0001:000ba810       ?intersectCapsuleTriangle@Gu@physx@@YA_NAEBV?$PxVec3T@M@2@000AEBVCapsule@12@AEBUCapsuleTriangleOverlapData@12@@Z 00000001800bb810 f   GuIntersectionCapsuleTriangle.obj
 0001:000bb400       ?intersectEdgeEdge@Gu@physx@@YA_NAEBV?$PxVec3T@M@2@0000AEAMAEAV32@@Z 00000001800bc400 f   GuIntersectionEdgeEdge.obj
 0001:000bb730       ?intersectRayAABB2@Gu@physx@@YA_NAEBT__m128@@0000AEAT3@1@Z 00000001800bc730 f   GuIntersectionRayBox.obj
 0001:000bb7f0       ?intersectRayAABB2@Gu@physx@@YA_NAEBV?$PxVec3T@M@2@000MAEAM1@Z 00000001800bc7f0 f   GuIntersectionRayBox.obj
 0001:000bb9a0       ?intersectRayAABB@Gu@physx@@YAHAEBV?$PxVec3T@M@2@000AEAM1@Z 00000001800bc9a0 f   GuIntersectionRayBox.obj
 0001:000bbab0       ?rayAABBIntersect2@Gu@physx@@YAIAEBV?$PxVec3T@M@2@000AEAV32@AEAM@Z 00000001800bcab0 f   GuIntersectionRayBox.obj
 0001:000bbcb0       ?intersectRayCapsuleInternal@Gu@physx@@YAIAEBV?$PxVec3T@M@2@000MQEAM@Z 00000001800bccb0 f   GuIntersectionRayCapsule.obj
 0001:000bc170       ?intersectRaySphere@Gu@physx@@YA_NAEBV?$PxVec3T@M@2@0M0MAEAMPEAV32@@Z 00000001800bd170 f   GuIntersectionRaySphere.obj
 0001:000bc260       ?intersectRaySphereBasic@Gu@physx@@YA_NAEBV?$PxVec3T@M@2@0M0MAEAMPEAV32@@Z 00000001800bd260 f   GuIntersectionRaySphere.obj
 0001:000bc3c0       ?intersectSphereBox@Gu@physx@@YA_NAEBVSphere@12@AEBVBox@12@@Z 00000001800bd3c0 f   GuIntersectionSphereBox.obj
 0001:000bc5f0       ?intersectTetrahedronBox@Gu@physx@@YA_NAEBV?$PxVec3T@M@2@000AEBVPxBounds3@2@@Z 00000001800bd5f0 f   GuIntersectionTetrahedronBox.obj
 0001:000bc9c0       ?intersectTriangleBox@Gu@physx@@YAHAEBVBoxPadded@12@AEBV?$PxVec3T@M@2@11@Z 00000001800bd9c0 f   GuIntersectionTriangleBox.obj
 0001:000bcf90       ?intersectTriangleBoxBV4@@YAHAEBV?$PxVec3T@M@physx@@00AEBV?$PxMat33T@M@2@00@Z 00000001800bdf90 f   GuIntersectionTriangleBox.obj
 0001:000bd3d0       ?intersectTriangleBox_ReferenceCode@Gu@physx@@YAHAEBV?$PxVec3T@M@2@0000@Z 00000001800be3d0 f   GuIntersectionTriangleBox.obj
 0001:000bdba0       ?intersectTriangleBox_Unsafe@Gu@physx@@YAHAEBV?$PxVec3T@M@2@0000@Z 00000001800beba0 f   GuIntersectionTriangleBox.obj
 0001:000bdf60       ?trianglesIntersect@Gu@physx@@YA_NAEBV?$PxVec3T@M@2@00000_N@Z 00000001800bef60 f   GuIntersectionTriangleTriangle.obj
 0001:000bf380       ??0BV4Tree@Gu@physx@@QEAA@W4PxEMPTY@2@@Z 00000001800c0380 f   GuBV4.obj
 0001:000bf390       ??0BV4Tree@Gu@physx@@QEAA@XZ 00000001800c0390 f   GuBV4.obj
 0001:000bf3c0       ??0SourceMesh@Gu@physx@@QEAA@XZ 00000001800c03c0 f   GuBV4.obj
 0001:000bf3f0       ??0TetrahedronSourceMesh@Gu@physx@@QEAA@XZ 00000001800c03f0 f   GuBV4.obj
 0001:000bf420       ??1BV4Tree@Gu@physx@@QEAA@XZ 00000001800c0420 f   GuBV4.obj
 0001:000bf480       ??1SourceMesh@Gu@physx@@UEAA@XZ 00000001800c0480 f   GuBV4.obj
 0001:000bf480       ??1TetrahedronSourceMesh@Gu@physx@@UEAA@XZ 00000001800c0480 f   GuBV4.obj
 0001:000bf4d0       ??4BV4Tree@Gu@physx@@QEAAXAEAV012@@Z 00000001800c04d0 f   GuBV4.obj
 0001:000bf560       ??4SourceMesh@Gu@physx@@QEAAXAEAV012@@Z 00000001800c0560 f   GuBV4.obj
 0001:000bf5b0       ??_ESourceMesh@Gu@physx@@UEAAPEAXI@Z 00000001800c05b0 f i GuBV4.obj
 0001:000bf5b0       ??_ETetrahedronSourceMesh@Gu@physx@@UEAAPEAXI@Z 00000001800c05b0 f i GuBV4.obj
 0001:000bf5b0       ??_GSourceMesh@Gu@physx@@UEAAPEAXI@Z 00000001800c05b0 f i GuBV4.obj
 0001:000bf5b0       ??_GTetrahedronSourceMesh@Gu@physx@@UEAAPEAXI@Z 00000001800c05b0 f i GuBV4.obj
 0001:000bf650       ??_ESourceMeshBase@Gu@physx@@UEAAPEAXI@Z 00000001800c0650 f i GuBV4.obj
 0001:000bf650       ??_GSourceMeshBase@Gu@physx@@UEAAPEAXI@Z 00000001800c0650 f i GuBV4.obj
 0001:000bf6f0       ?exportExtraData@BV4Tree@Gu@physx@@QEAAXAEAVPxSerializationContext@3@@Z 00000001800c06f0 f   GuBV4.obj
 0001:000bf750       ?getPrimitiveBox@SourceMesh@Gu@physx@@UEAAXIAEAT__m128@@0@Z 00000001800c0750 f   GuBV4.obj
 0001:000bf7f0       ?getPrimitiveBox@TetrahedronSourceMesh@Gu@physx@@UEAAXIAEAT__m128@@0@Z 00000001800c07f0 f   GuBV4.obj
 0001:000bf8b0       ?importExtraData@BV4Tree@Gu@physx@@QEAAXAEAVPxDeserializationContext@3@@Z 00000001800c08b0 f   GuBV4.obj
 0001:000bf900       ?init@BV32Tree@Gu@physx@@QEAA_NPEAVSourceMeshBase@23@AEBVPxBounds3@3@@Z 00000001800c0900 f   GuBV32.obj
 0001:000bf900       ?init@BV4Tree@Gu@physx@@QEAA_NPEAVSourceMeshBase@23@AEBVPxBounds3@3@@Z 00000001800c0900 f   GuBV4.obj
 0001:000bf9a0       ?load@BV4Tree@Gu@physx@@QEAA_NAEAVPxInputStream@3@_N@Z 00000001800c09a0 f   GuBV4.obj
 0001:000bfbe0       ?refit@BV4Tree@Gu@physx@@QEAA_NAEAVPxBounds3@3@M@Z 00000001800c0be0 f   GuBV4.obj
 0001:000c0260       ?refit@SourceMesh@Gu@physx@@UEAAXIAEAVPxBounds3@3@@Z 00000001800c1260 f   GuBV4.obj
 0001:000c0400       ?refit@TetrahedronSourceMesh@Gu@physx@@UEAAXIAEAVPxBounds3@3@@Z 00000001800c1400 f   GuBV4.obj
 0001:000c0620       ?remapTopology@SourceMesh@Gu@physx@@UEAAXPEBI@Z 00000001800c1620 f   GuBV4.obj
 0001:000c08b0       ?remapTopology@TetrahedronSourceMesh@Gu@physx@@UEAAXPEBI@Z 00000001800c18b0 f   GuBV4.obj
 0001:000c0b30       ??0BV4_AABBTree@Gu@physx@@QEAA@XZ 00000001800c1b30 f   GuBV4Build.obj
 0001:000c0b40       ??0BVData@@QEAA@XZ         00000001800c1b40 f   GuBV4Build.obj
 0001:000c0b70       ??0BuildStats@Gu@physx@@QEAA@XZ 00000001800c1b70 f i GuBV4Build.obj
 0001:000c0b80       ??1BV4_AABBTree@Gu@physx@@QEAA@XZ 00000001800c1b80 f   GuBV4Build.obj
 0001:000c0b90       ??4BuildStats@Gu@physx@@QEAAAEAU012@$$QEAU012@@Z 00000001800c1b90 f i GuBV4Build.obj
 0001:000c0ba0       ??4BuildStats@Gu@physx@@QEAAAEAU012@AEBU012@@Z 00000001800c1ba0 f i GuBV4Build.obj
 0001:000c0bb0       ?BuildBV4Ex@Gu@physx@@YA_NAEAVBV4Tree@12@AEAVSourceMeshBase@12@MI_NW4BV4_BuildStrategy@12@@Z 00000001800c1bb0 f   GuBV4Build.obj
 0001:000c1a80       ?allocateNode@BV4BuildParams@@QEAAPEAUBV4Node@@XZ 00000001800c2a80 f   GuBV4Build.obj
 0001:000c1ef0       ?buildFromMesh@BV4_AABBTree@Gu@physx@@QEAA_NAEAVSourceMeshBase@23@IW4BV4_BuildStrategy@23@@Z 00000001800c2ef0 f   GuBV4Build.obj
 0001:000c2e20       ?increaseCount@BuildStats@Gu@physx@@QEAAXI@Z 00000001800c3e20 f i GuBV4Build.obj
 0001:000c3870       ?release@BV4_AABBTree@Gu@physx@@QEAAXXZ 00000001800c4870 f   GuBV4Build.obj
 0001:000c3920       ?releaseNodes@BV4BuildParams@@QEAAXXZ 00000001800c4920 f   GuBV4Build.obj
 0001:000c3990       ?reset@BuildStats@Gu@physx@@QEAAXXZ 00000001800c4990 f i GuBV4Build.obj
 0001:000c39a0       ?setCount@BuildStats@Gu@physx@@QEAAXI@Z 00000001800c49a0 f i GuBV4Build.obj
 0001:000c4000       ?walk@BV4_AABBTree@Gu@physx@@QEBAIP6A_NPEBVAABBTreeNode@23@IPEAX@Z1@Z 00000001800c5000 f   GuBV4Build.obj
 0001:000c40c0       ?walkDistance@BV4_AABBTree@Gu@physx@@QEBAIP6A_NPEBVAABBTreeNode@23@IPEAX@ZP6A_N01@Z1@Z 00000001800c50c0 f   GuBV4Build.obj
 0001:000c80f0       ?GenericSweep_AABB_CB@@YAXAEBVBox@Gu@physx@@AEBV?$PxVec3T@M@3@MAEBVBV4Tree@23@P6A_NPEAX111IAEAM@Z3I@Z 00000001800c90f0 f   GuBV4_AABBSweep.obj
 0001:000c8250       ?Sweep_AABB_BV4@@YAHAEBVBox@Gu@physx@@AEBV?$PxVec3T@M@3@MAEBVBV4Tree@23@PEIAVSweepHit@23@I@Z 00000001800c9250 f   GuBV4_AABBSweep.obj
 0001:000d0fd0       ?BV4_OverlapBoxAll@@YAIAEBVBox@Gu@physx@@AEBVBV4Tree@23@PEIBV?$PxMat44T@M@3@PEAIIAEA_N@Z 00000001800d1fd0 f   GuBV4_BoxOverlap.obj
 0001:000d17e0       ?BV4_OverlapBoxAny@@YAHAEBVBox@Gu@physx@@AEBVBV4Tree@23@PEIBV?$PxMat44T@M@3@@Z 00000001800d27e0 f   GuBV4_BoxOverlap.obj
 0001:000d1fe0       ?BV4_OverlapBoxCB@@YAXAEBVBox@Gu@physx@@AEBVBV4Tree@23@P6A_NPEAXAEBV?$PxVec3T@M@3@333IPEBI@Z2@Z 00000001800d2fe0 f   GuBV4_BoxOverlap.obj
 0001:000d2690       ?BV4_OverlapBoxCB@@YAXAEBVBox@Gu@physx@@AEBVBV4Tree@23@P6A_NPEAXAEBV?$PxVec3T@M@3@33IPEBI@Z2@Z 00000001800d3690 f   GuBV4_BoxOverlap.obj
 0001:000d2b40       ?BV4_OverlapCapsuleAll@@YAIAEBVCapsule@Gu@physx@@AEBVBV4Tree@23@PEIBV?$PxMat44T@M@3@PEAIIAEA_N@Z 00000001800d3b40 f   GuBV4_BoxOverlap.obj
 0001:000d3260       ?BV4_OverlapCapsuleAny@@YAHAEBVCapsule@Gu@physx@@AEBVBV4Tree@23@PEIBV?$PxMat44T@M@3@@Z 00000001800d4260 f   GuBV4_BoxOverlap.obj
 0001:000d6110       ?BV4_CapsuleSweepSingle@@YAHAEBVCapsule@Gu@physx@@AEBV?$PxVec3T@M@3@MAEBVBV4Tree@23@PEIAVSweepHit@23@I@Z 00000001800d7110 f   GuBV4_CapsuleSweep.obj
 0001:000da1b0       ?BV4_CapsuleSweepSingleAA@@YAHAEBVCapsule@Gu@physx@@AEBV?$PxVec3T@M@3@MAEBVBV4Tree@23@PEIAVSweepHit@23@I@Z 00000001800db1b0 f   GuBV4_CapsuleSweepAA.obj
 0001:000ea570       ?BV4_OverlapMeshVsMesh@@YA_NAEAV?$PxReportCallback@UPxGeomIndexPair@physx@@@physx@@AEBVBV4Tree@Gu@2@1PEBV?$PxMat44T@M@2@2AEBV?$PxTransformT@M@2@3AEBVPxMeshScale@2@4V?$PxFlags@W4Enum@PxMeshMeshQueryFlag@physx@@I@2@M@Z 00000001800eb570 f   GuBV4_MeshMeshOverlap.obj
 0001:000ea7b0       ?BV4_OverlapMeshVsMesh@@YA_NAEAV?$PxReportCallback@UPxGeomIndexPair@physx@@@physx@@AEBVBV4Tree@Gu@2@1PEBV?$PxMat44T@M@2@2V?$PxFlags@W4Enum@PxMeshMeshQueryFlag@physx@@I@2@M@Z 00000001800eb7b0 f   GuBV4_MeshMeshOverlap.obj
 0001:000f3f60       ??D?$PxMat33T@M@physx@@QEBA?BV?$PxVec3T@M@1@AEBV21@@Z 00000001800f4f60 f i GuBV4_OBBSweep.obj
 0001:000f3ff0       ?BV4_BoxSweepSingle@@YAHAEBVBox@Gu@physx@@AEBV?$PxVec3T@M@3@MAEBVBV4Tree@23@PEIBV?$PxMat44T@M@3@PEIAVSweepHit@23@I@Z 00000001800f4ff0 f   GuBV4_OBBSweep.obj
 0001:000f4720       ?BV4_GenericSweepCB@@YAXAEBVBox@Gu@physx@@AEBV?$PxVec3T@M@3@MAEBVBV4Tree@23@P6A_NPEAX111IAEAM@Z3_N@Z 00000001800f5720 f   GuBV4_OBBSweep.obj
 0001:000f4950       ?Sweep_OBB_BV4@@YAHAEBVBox@Gu@physx@@AEBV?$PxVec3T@M@3@MAEBVBV4Tree@23@PEIAVSweepHit@23@I@Z 00000001800f5950 f   GuBV4_OBBSweep.obj
 0001:000f74b0       ?BV4_RaycastCB@@YAXAEBV?$PxVec3T@M@physx@@0AEBVBV4Tree@Gu@2@PEIBV?$PxMat44T@M@2@MMIP6A?AW4HitCode@42@PEAX000IMMM@Z3@Z 00000001800f84b0 f   GuBV4_Raycast.obj
 0001:000f78f0       ?BV4_RaycastSingle@@YAHAEBV?$PxVec3T@M@physx@@0AEBVBV4Tree@Gu@2@PEIBV?$PxMat44T@M@2@PEIAUPxGeomRaycastHit@2@MMIV?$PxFlags@W4Enum@PxHitFlag@physx@@G@2@@Z 00000001800f88f0 f   GuBV4_Raycast.obj
 0001:000f9e20       ?BV4_OverlapSphereAll@@YAIAEBVSphere@Gu@physx@@AEBVBV4Tree@23@PEIBV?$PxMat44T@M@3@PEAIIAEA_N@Z 00000001800fae20 f   GuBV4_SphereOverlap.obj
 0001:000fa140       ?BV4_OverlapSphereAny@@YAHAEBVSphere@Gu@physx@@AEBVBV4Tree@23@PEIBV?$PxMat44T@M@3@@Z 00000001800fb140 f   GuBV4_SphereOverlap.obj
 0001:000fa420       ?BV4_PointDistance@@YAXAEBV?$PxVec3T@M@physx@@AEBVBV4Tree@Gu@2@MAEAIAEAMAEAV12@@Z 00000001800fb420 f   GuBV4_SphereOverlap.obj
 0001:00100dd0       ?BV4_GenericSweepCB_Old@@YAXAEBV?$PxVec3T@M@physx@@00MAEBVBV4Tree@Gu@2@PEIBV?$PxMat44T@M@2@P6A_NPEAX000IAEAM@Z3@Z 0000000180101dd0 f   GuBV4_SphereSweep.obj
 0001:001011d0       ?BV4_SphereSweepSingle@@YAHAEBVSphere@Gu@physx@@AEBV?$PxVec3T@M@3@MAEBVBV4Tree@23@PEIBV?$PxMat44T@M@3@PEIAVSweepHit@23@I@Z 00000001801021d0 f   GuBV4_SphereSweep.obj
 0001:001024d0       ?computeSweepData@physx@@YAMAEBVPxTriangleMeshGeometry@1@AEAV?$PxVec3T@M@1@11M@Z 00000001801034d0 f i GuMidphaseBV4.obj
 0001:001038f0       ?intersectBoxVsMesh_BV4@Gu@physx@@YA_NAEBVBox@12@AEBVTriangleMesh@12@AEBV?$PxTransformT@M@2@AEBVPxMeshScale@2@PEAULimitedResults@12@@Z 00000001801048f0 f   GuMidphaseBV4.obj
 0001:001043f0       ?intersectCapsuleVsMesh_BV4@Gu@physx@@YA_NAEBVCapsule@12@AEBVTriangleMesh@12@AEBV?$PxTransformT@M@2@AEBVPxMeshScale@2@PEAULimitedResults@12@@Z 00000001801053f0 f   GuMidphaseBV4.obj
 0001:00104c30       ?intersectMeshVsMesh_BV4@Gu@physx@@YA_NAEAV?$PxReportCallback@UPxGeomIndexPair@physx@@@2@AEBVTriangleMesh@12@AEBV?$PxTransformT@M@2@AEBVPxMeshScale@2@123V?$PxFlags@W4Enum@PxMeshMeshQueryFlag@physx@@I@2@M@Z 0000000180105c30 f   GuMidphaseBV4.obj
 0001:00105530       ?intersectOBB_BV4@Gu@physx@@YAXPEBVTetrahedronMesh@12@AEBVBox@12@AEAU?$TetMeshHitCallback@UPxGeomRaycastHit@physx@@@12@@Z 0000000180106530 f   GuMidphaseBV4.obj
 0001:00105550       ?intersectOBB_BV4@Gu@physx@@YAXPEBVTriangleMesh@12@AEBVBox@12@AEAU?$MeshHitCallback@UPxGeomRaycastHit@physx@@@12@_N3@Z 0000000180106550 f   GuMidphaseBV4.obj
 0001:00105570       ?intersectSphereVsMesh_BV4@Gu@physx@@YA_NAEBVSphere@12@AEBVTriangleMesh@12@AEBV?$PxTransformT@M@2@AEBVPxMeshScale@2@PEAULimitedResults@12@@Z 0000000180106570 f   GuMidphaseBV4.obj
 0001:00105ca0       ?pointMeshDistance_BV4@Gu@physx@@YAXPEBVTriangleMesh@12@AEBVPxTriangleMeshGeometry@2@AEBV?$PxTransformT@M@2@AEBV?$PxVec3T@M@2@MAEAIAEAMAEAV62@@Z 0000000180106ca0 f   GuMidphaseBV4.obj
 0001:00106350       ?raycast_triangleMesh_BV4@Gu@physx@@YAIPEBVTriangleMesh@12@AEBVPxTriangleMeshGeometry@2@AEBV?$PxTransformT@M@2@AEBV?$PxVec3T@M@2@3MV?$PxFlags@W4Enum@PxHitFlag@physx@@G@2@IPEIAUPxGeomRaycastHit@2@I@Z 0000000180107350 f   GuMidphaseBV4.obj
 0001:00107160       ?sweepBox_MeshGeom_BV4@Gu@physx@@YA_NPEBVTriangleMesh@12@AEBVPxTriangleMeshGeometry@2@AEBV?$PxTransformT@M@2@AEBVBox@12@AEBV?$PxVec3T@M@2@MAEAUPxGeomSweepHit@2@V?$PxFlags@W4Enum@PxHitFlag@physx@@G@2@M@Z 0000000180108160 f   GuMidphaseBV4.obj
 0001:001087c0       ?sweepCapsule_MeshGeom_BV4@Gu@physx@@YA_NPEBVTriangleMesh@12@AEBVPxTriangleMeshGeometry@2@AEBV?$PxTransformT@M@2@AEBVCapsule@12@AEBV?$PxVec3T@M@2@MAEAUPxGeomSweepHit@2@V?$PxFlags@W4Enum@PxHitFlag@physx@@G@2@M@Z 00000001801097c0 f   GuMidphaseBV4.obj
 0001:001092d0       ?sweepConvex_MeshGeom_BV4@Gu@physx@@YAXPEBVTriangleMesh@12@AEBVBox@12@AEBV?$PxVec3T@M@2@MAEAUSweepConvexMeshHitCallback@12@_N@Z 000000018010a2d0 f   GuMidphaseBV4.obj
 0001:00109310       ?transform@PxMeshScale@physx@@QEBA?AV?$PxVec3T@M@2@AEBV32@@Z 000000018010a310 f i GuMidphaseBV4.obj
 0001:00109550       ?findOverlapHeightField@PxMeshQuery@physx@@SAIAEBVPxGeometry@2@AEBV?$PxTransformT@M@2@AEBVPxHeightFieldGeometry@2@1PEAIIIAEA_NV?$PxFlags@W4Enum@PxGeometryQueryFlag@physx@@I@2@@Z 000000018010a550 f   GuMeshQuery.obj
 0001:00109cc0       ?findOverlapTriangleMesh@PxMeshQuery@physx@@SAIAEBVPxGeometry@2@AEBV?$PxTransformT@M@2@AEBVPxTriangleMeshGeometry@2@1PEAIIIAEA_NV?$PxFlags@W4Enum@PxGeometryQueryFlag@physx@@I@2@@Z 000000018010acc0 f   GuMeshQuery.obj
 0001:00109fe0       ?findOverlapTriangleMesh@PxMeshQuery@physx@@SA_NAEAV?$PxReportCallback@UPxGeomIndexPair@physx@@@2@AEBVPxTriangleMeshGeometry@2@AEBV?$PxTransformT@M@2@12V?$PxFlags@W4Enum@PxGeometryQueryFlag@physx@@I@2@V?$PxFlags@W4Enum@PxMeshMeshQueryFlag@physx@@I@2@M@Z 000000018010afe0 f   GuMeshQuery.obj
 0001:0010a110       ?getTriangle@PxMeshQuery@physx@@SAXAEBVPxHeightFieldGeometry@2@AEBV?$PxTransformT@M@2@IAEAVPxTriangle@2@PEAI3@Z 000000018010b110 f   GuMeshQuery.obj
 0001:0010a190       ?getTriangle@PxMeshQuery@physx@@SAXAEBVPxTriangleMeshGeometry@2@AEBV?$PxTransformT@M@2@IAEAVPxTriangle@2@PEAI3@Z 000000018010b190 f   GuMeshQuery.obj
 0001:0010a690       ?sweep@PxMeshQuery@physx@@SA_NAEBV?$PxVec3T@M@2@MAEBVPxGeometry@2@AEBV?$PxTransformT@M@2@IPEBVPxTriangle@2@AEAUPxGeomSweepHit@2@V?$PxFlags@W4Enum@PxHitFlag@physx@@G@2@PEBIM_NV?$PxFlags@W4Enum@PxGeometryQueryFlag@physx@@I@2@@Z 000000018010b690 f   GuMeshQuery.obj
 0001:0010a920       ??$collide@$00$00@MeshRayCollider@@SAXAEBV?$PxVec3T@M@physx@@0M_NPEBVRTreeTriangleMesh@Gu@2@AEAU?$MeshHitCallback@UPxGeomRaycastHit@physx@@@42@PEBV12@@Z 000000018010b920 f i GuMidphaseRTree.obj
 0001:0010ac90       ??$collide@$00$0A@@MeshRayCollider@@SAXAEBV?$PxVec3T@M@physx@@0M_NPEBVRTreeTriangleMesh@Gu@2@AEAU?$MeshHitCallback@UPxGeomRaycastHit@physx@@@42@PEBV12@@Z 000000018010bc90 f i GuMidphaseRTree.obj
 0001:0010aed0       ??$collide@$0A@$00@MeshRayCollider@@SAXAEBV?$PxVec3T@M@physx@@0M_NPEBVRTreeTriangleMesh@Gu@2@AEAU?$MeshHitCallback@UPxGeomRaycastHit@physx@@@42@PEBV12@@Z 000000018010bed0 f i GuMidphaseRTree.obj
 0001:0010d230       ??0?$RayRTreeCallback@$00$0A@@@QEAA@MAEAU?$MeshHitCallback@UPxGeomRaycastHit@physx@@@Gu@physx@@HPEBXPEBV?$PxVec3T@M@3@AEBV43@3M_N2@Z 000000018010e230 f i GuMidphaseRTree.obj
 0001:0010d350       ??1?$RayRTreeCallback@$00$00@@UEAA@XZ 000000018010e350 f i GuMidphaseRTree.obj
 0001:0010d3e0       ??1?$RayRTreeCallback@$00$0A@@@UEAA@XZ 000000018010e3e0 f i GuMidphaseRTree.obj
 0001:0010d3e0       ??1?$RayRTreeCallback@$0A@$0A@@@UEAA@XZ 000000018010e3e0 f i GuMidphaseRTree.obj
 0001:0010d470       ??1?$RayRTreeCallback@$0A@$00@@UEAA@XZ 000000018010e470 f i GuMidphaseRTree.obj
 0001:0010d4f8       ??_E?$RayRTreeCallback@$00$00@@W7EAAPEAXI@Z 000000018010e4f8 f i GuMidphaseRTree.obj
 0001:0010d504       ??_E?$RayRTreeCallback@$00$0A@@@W7EAAPEAXI@Z 000000018010e504 f i GuMidphaseRTree.obj
 0001:0010d504       ??_E?$RayRTreeCallback@$0A@$0A@@@W7EAAPEAXI@Z 000000018010e504 f i GuMidphaseRTree.obj
 0001:0010d510       ??_E?$RayRTreeCallback@$0A@$00@@W7EAAPEAXI@Z 000000018010e510 f i GuMidphaseRTree.obj
 0001:0010d580       ??_E?$RayRTreeCallback@$00$00@@UEAAPEAXI@Z 000000018010e580 f i GuMidphaseRTree.obj
 0001:0010d580       ??_G?$RayRTreeCallback@$00$00@@UEAAPEAXI@Z 000000018010e580 f i GuMidphaseRTree.obj
 0001:0010d5c0       ??_E?$RayRTreeCallback@$00$0A@@@UEAAPEAXI@Z 000000018010e5c0 f i GuMidphaseRTree.obj
 0001:0010d5c0       ??_E?$RayRTreeCallback@$0A@$0A@@@UEAAPEAXI@Z 000000018010e5c0 f i GuMidphaseRTree.obj
 0001:0010d5c0       ??_G?$RayRTreeCallback@$00$0A@@@UEAAPEAXI@Z 000000018010e5c0 f i GuMidphaseRTree.obj
 0001:0010d5c0       ??_G?$RayRTreeCallback@$0A@$0A@@@UEAAPEAXI@Z 000000018010e5c0 f i GuMidphaseRTree.obj
 0001:0010d600       ??_E?$RayRTreeCallback@$0A@$00@@UEAAPEAXI@Z 000000018010e600 f i GuMidphaseRTree.obj
 0001:0010d600       ??_G?$RayRTreeCallback@$0A@$00@@UEAAPEAXI@Z 000000018010e600 f i GuMidphaseRTree.obj
 0001:0010d640       ??_ECallback@RTree@Gu@physx@@UEAAPEAXI@Z 000000018010e640 f i GuMidphaseRTree.obj
 0001:0010d640       ??_GCallback@RTree@Gu@physx@@UEAAPEAXI@Z 000000018010e640 f i GuMidphaseRTree.obj
 0001:0010d670       ??_ERayMeshColliderCallback@@UEAAPEAXI@Z 000000018010e670 f i GuMidphaseRTree.obj
 0001:0010d670       ??_ESweepCapsuleMeshHitCallback@Gu@physx@@UEAAPEAXI@Z 000000018010e670 f i GuSweepsMesh.obj
 0001:0010d670       ??_GRayMeshColliderCallback@@UEAAPEAXI@Z 000000018010e670 f i GuMidphaseRTree.obj
 0001:0010d670       ??_GSweepCapsuleMeshHitCallback@Gu@physx@@UEAAPEAXI@Z 000000018010e670 f i GuSweepsMesh.obj
 0001:0010d6a0       ?collideOBB@MeshRayCollider@@SAXAEBVBox@Gu@physx@@_NPEBVRTreeTriangleMesh@34@AEAU?$MeshHitCallback@UPxGeomRaycastHit@physx@@@34@1@Z 000000018010e6a0 f   GuMidphaseRTree.obj
 0001:0010db70       ?intersectBoxVsMesh_RTREE@Gu@physx@@YA_NAEBVBox@12@AEBVTriangleMesh@12@AEBV?$PxTransformT@M@2@AEBVPxMeshScale@2@PEAULimitedResults@12@@Z 000000018010eb70 f   GuMidphaseRTree.obj
 0001:0010dbe0       ?intersectCapsuleVsMesh_RTREE@Gu@physx@@YA_NAEBVCapsule@12@AEBVTriangleMesh@12@AEBV?$PxTransformT@M@2@AEBVPxMeshScale@2@PEAULimitedResults@12@@Z 000000018010ebe0 f   GuMidphaseRTree.obj
 0001:0010dc60       ?intersectOBB_RTREE@Gu@physx@@YAXPEBVTriangleMesh@12@AEBVBox@12@AEAU?$MeshHitCallback@UPxGeomRaycastHit@physx@@@12@_N3@Z 000000018010ec60 f   GuMidphaseRTree.obj
 0001:0010dc90       ?intersectSphereVsMesh_RTREE@Gu@physx@@YA_NAEBVSphere@12@AEBVTriangleMesh@12@AEBV?$PxTransformT@M@2@AEBVPxMeshScale@2@PEAULimitedResults@12@@Z 000000018010ec90 f   GuMidphaseRTree.obj
 0001:0010dcc0       ?pointMeshDistance_RTREE@Gu@physx@@YAXPEBVTriangleMesh@12@AEBVPxTriangleMeshGeometry@2@AEBV?$PxTransformT@M@2@AEBV?$PxVec3T@M@2@MAEAIAEAMAEAV62@@Z 000000018010ecc0 f   GuMidphaseRTree.obj
 0001:0010eab0       ?processHit@RayMeshColliderCallback@@UEAA_NAEBUPxGeomRaycastHit@physx@@AEBV?$PxVec3T@M@3@11AEAMPEBI@Z 000000018010fab0 f i GuMidphaseRTree.obj
 0001:0010f250       ?processResults@?$RayRTreeCallback@$00$00@@UEAA_NIPEAI@Z 0000000180110250 f i GuMidphaseRTree.obj
 0001:0010f5d0       ?processResults@?$RayRTreeCallback@$00$00@@UEAA_NIPEAIAEAM@Z 00000001801105d0 f i GuMidphaseRTree.obj
 0001:0010f970       ?processResults@?$RayRTreeCallback@$00$0A@@@UEAA_NIPEAI@Z 0000000180110970 f i GuMidphaseRTree.obj
 0001:0010f970       ?processResults@?$RayRTreeCallback@$0A@$0A@@@UEAA_NIPEAI@Z 0000000180110970 f i GuMidphaseRTree.obj
 0001:0010fbd0       ?processResults@?$RayRTreeCallback@$00$0A@@@UEAA_NIPEAIAEAM@Z 0000000180110bd0 f i GuMidphaseRTree.obj
 0001:0010fbd0       ?processResults@?$RayRTreeCallback@$0A@$0A@@@UEAA_NIPEAIAEAM@Z 0000000180110bd0 f i GuMidphaseRTree.obj
 0001:0010fe60       ?processResults@?$RayRTreeCallback@$0A@$00@@UEAA_NIPEAI@Z 0000000180110e60 f i GuMidphaseRTree.obj
 0001:001104a0       ?processResults@?$RayRTreeCallback@$0A@$00@@UEAA_NIPEAIAEAM@Z 00000001801114a0 f i GuMidphaseRTree.obj
 0001:00110af0       ?raycast_triangleMesh_RTREE@Gu@physx@@YAIPEBVTriangleMesh@12@AEBVPxTriangleMeshGeometry@2@AEBV?$PxTransformT@M@2@AEBV?$PxVec3T@M@2@3MV?$PxFlags@W4Enum@PxHitFlag@physx@@G@2@IPEIAUPxGeomRaycastHit@2@I@Z 0000000180111af0 f   GuMidphaseRTree.obj
 0001:00111270       ?sweepBox_MeshGeom_RTREE@Gu@physx@@YA_NPEBVTriangleMesh@12@AEBVPxTriangleMeshGeometry@2@AEBV?$PxTransformT@M@2@AEBVBox@12@AEBV?$PxVec3T@M@2@MAEAUPxGeomSweepHit@2@V?$PxFlags@W4Enum@PxHitFlag@physx@@G@2@M@Z 0000000180112270 f   GuMidphaseRTree.obj
 0001:00112700       ?sweepCapsule_MeshGeom_RTREE@Gu@physx@@YA_NPEBVTriangleMesh@12@AEBVPxTriangleMeshGeometry@2@AEBV?$PxTransformT@M@2@AEBVCapsule@12@AEBV?$PxVec3T@M@2@MAEAUPxGeomSweepHit@2@V?$PxFlags@W4Enum@PxHitFlag@physx@@G@2@M@Z 0000000180113700 f   GuMidphaseRTree.obj
 0001:00112eb0       ?sweepConvex_MeshGeom_RTREE@Gu@physx@@YAXPEBVTriangleMesh@12@AEBVBox@12@AEBV?$PxVec3T@M@2@MAEAUSweepConvexMeshHitCallback@12@_N@Z 0000000180113eb0 f   GuMidphaseRTree.obj
 0001:00113860       ??_E?$PxReportCallback@UPxGeomIndexPair@physx@@@physx@@UEAAPEAXI@Z 0000000180114860 f i GuOverlapTestsMesh.obj
 0001:00113860       ??_G?$PxReportCallback@UPxGeomIndexPair@physx@@@physx@@UEAAPEAXI@Z 0000000180114860 f i GuOverlapTestsMesh.obj
 0001:001138f0       ?GeomOverlapCallback_BoxMesh@@YA_NAEBVPxGeometry@physx@@AEBV?$PxTransformT@M@2@01PEAUTriggerCache@Gu@2@PEAUPxQueryThreadContext@2@@Z 00000001801148f0 f   GuOverlapTestsMesh.obj
 0001:00113a00       ?GeomOverlapCallback_CapsuleMesh@@YA_NAEBVPxGeometry@physx@@AEBV?$PxTransformT@M@2@01PEAUTriggerCache@Gu@2@PEAUPxQueryThreadContext@2@@Z 0000000180114a00 f   GuOverlapTestsMesh.obj
 0001:00113b10       ?GeomOverlapCallback_ConvexMesh@@YA_NAEBVPxGeometry@physx@@AEBV?$PxTransformT@M@2@01PEAUTriggerCache@Gu@2@PEAUPxQueryThreadContext@2@@Z 0000000180114b10 f   GuOverlapTestsMesh.obj
 0001:00114010       ?GeomOverlapCallback_MeshMesh@@YA_NAEBVPxGeometry@physx@@AEBV?$PxTransformT@M@2@01PEAUTriggerCache@Gu@2@PEAUPxQueryThreadContext@2@@Z 0000000180115010 f   GuOverlapTestsMesh.obj
 0001:001140e0       ?GeomOverlapCallback_SphereMesh@@YA_NAEBVPxGeometry@physx@@AEBV?$PxTransformT@M@2@01PEAUTriggerCache@Gu@2@PEAUPxQueryThreadContext@2@@Z 00000001801150e0 f   GuOverlapTestsMesh.obj
 0001:001144d0       ??0RTree@Gu@physx@@QEAA@W4PxEMPTY@2@@Z 00000001801154d0 f   GuRTree.obj
 0001:001144e0       ?exportExtraData@RTree@Gu@physx@@QEAAXAEAVPxSerializationContext@3@@Z 00000001801154e0 f   GuRTree.obj
 0001:00114520       ?importExtraData@RTree@Gu@physx@@QEAAXAEAVPxDeserializationContext@3@@Z 0000000180115520 f   GuRTree.obj
 0001:00114550       ?load@RTree@Gu@physx@@QEAA_NAEAVPxInputStream@3@I_N@Z 0000000180115550 f   GuRTree.obj
 0001:00114850       ?refitAllStaticTree@RTree@Gu@physx@@QEAAXAEAUCallbackRefit@123@PEAVPxBounds3@3@@Z 0000000180115850 f   GuRTree.obj
 0001:00114da0       ?validate@RTree@Gu@physx@@QEAAXPEAUCallbackRefit@123@@Z 0000000180115da0 f   GuRTree.obj
 0001:00114fe0       ?validateRecursive@RTree@Gu@physx@@IEAAXIURTreeNodeQ@23@PEAURTreePage@23@PEAUCallbackRefit@123@@Z 0000000180115fe0 f   GuRTree.obj
 0001:001151a0       ??$traverseRay@$00@RTree@Gu@physx@@QEBAXAEBV?$PxVec3T@M@2@0IPEAIPEAUCallbackRaycast@012@PEBV32@M@Z 00000001801161a0 f i GuRTreeQueries.obj
 0001:00115540       ??$traverseRay@$0A@@RTree@Gu@physx@@QEBAXAEBV?$PxVec3T@M@2@0IPEAIPEAUCallbackRaycast@012@PEBV32@M@Z 0000000180116540 f i GuRTreeQueries.obj
 0001:00115880       ?traverseAABB@RTree@Gu@physx@@QEBAXAEBV?$PxVec3T@M@3@0IPEAIPEAUCallback@123@@Z 0000000180116880 f   GuRTreeQueries.obj
 0001:00115a40       ?traverseOBB@RTree@Gu@physx@@QEBAXAEBVBox@23@IPEAIPEAUCallback@123@@Z 0000000180116a40 f   GuRTreeQueries.obj
 0001:00116310       ??0SweepBoxMeshHitCallback@Gu@physx@@QEAA@W4Enum@CallbackMode@12@AEBVPxMat34Padded@2@M_NAEBVBox@12@AEBV?$PxVec3T@M@2@44AEBV?$PxFlags@W4Enum@PxHitFlag@physx@@G@2@M2M@Z 0000000180117310 f   GuSweepsMesh.obj
 0001:00116420       ??0SweepCapsuleMeshHitCallback@Gu@physx@@QEAA@AEAUPxGeomSweepHit@2@AEBV?$PxMat34T@M@2@M_NAEBVCapsule@12@AEBV?$PxVec3T@M@2@AEBV?$PxFlags@W4Enum@PxHitFlag@physx@@G@2@2M@Z 0000000180117420 f   GuSweepsMesh.obj
 0001:001164f0       ??0SweepConvexMeshHitCallback@Gu@physx@@QEAA@AEBUConvexHullData@12@AEBVPxMeshScale@2@AEBVFastVertex2ShapeScaling@Cm@2@AEBV?$PxTransformT@M@2@3AEBV?$PxVec3T@M@2@MV?$PxFlags@W4Enum@PxHitFlag@physx@@G@2@_NM6M@Z 00000001801174f0 f   GuSweepsMesh.obj
 0001:00116e50       ??_ESweepBoxMeshHitCallback@Gu@physx@@UEAAPEAXI@Z 0000000180117e50 f i GuSweepsMesh.obj
 0001:00116e50       ??_GSweepBoxMeshHitCallback@Gu@physx@@UEAAPEAXI@Z 0000000180117e50 f i GuSweepsMesh.obj
 0001:00116e80       ??_ESweepConvexMeshHitCallback@Gu@physx@@UEAAPEAXI@Z 0000000180117e80 f i GuSweepsMesh.obj
 0001:00116e80       ??_GSweepConvexMeshHitCallback@Gu@physx@@UEAAPEAXI@Z 0000000180117e80 f i GuSweepsMesh.obj
 0001:00116eb0       ??_ESweepShapeMeshHitCallback@Gu@physx@@UEAAPEAXI@Z 0000000180117eb0 f i GuSweepsMesh.obj
 0001:00116eb0       ??_GSweepShapeMeshHitCallback@Gu@physx@@UEAAPEAXI@Z 0000000180117eb0 f i GuSweepsMesh.obj
 0001:00116ee0       ?finalizeHit@SweepBoxMeshHitCallback@Gu@physx@@QEBA_NAEAUPxGeomSweepHit@3@AEBVPxTriangleMeshGeometry@3@AEBV?$PxTransformT@M@3@2AEBV?$PxVec3T@M@3@_N4@Z 0000000180117ee0 f   GuSweepsMesh.obj
 0001:001175a0       ?finalizeHit@SweepCapsuleMeshHitCallback@Gu@physx@@QEBA_NAEAUPxGeomSweepHit@3@AEBVCapsule@23@AEBVPxTriangleMeshGeometry@3@AEBV?$PxTransformT@M@3@_N@Z 00000001801185a0 f   GuSweepsMesh.obj
 0001:00117750       ?finalizeHit@SweepConvexMeshHitCallback@Gu@physx@@QEAA_NAEAUPxGeomSweepHit@3@AEBVPxTriangleMeshGeometry@3@AEBV?$PxTransformT@M@3@AEBVPxConvexMeshGeometry@3@2AEBV?$PxVec3T@M@3@M_N555@Z 0000000180118750 f   GuSweepsMesh.obj
 0001:00117c20       ?processHit@SweepBoxMeshHitCallback@Gu@physx@@UEAA_NAEBUPxGeomRaycastHit@3@AEBV?$PxVec3T@M@3@11AEAMPEBI@Z 0000000180118c20 f   GuSweepsMesh.obj
 0001:00118400       ?processHit@SweepCapsuleMeshHitCallback@Gu@physx@@UEAA_NAEBUPxGeomRaycastHit@3@AEBV?$PxVec3T@M@3@11AEAMPEBI@Z 0000000180119400 f   GuSweepsMesh.obj
 0001:00118960       ?processHit@SweepConvexMeshHitCallback@Gu@physx@@UEAA_NAEBUPxGeomRaycastHit@3@AEBV?$PxVec3T@M@3@11AEAMPEBI@Z 0000000180119960 f   GuSweepsMesh.obj
 0001:001190b0       ?sweepBox_MeshGeom@@YA_NAEBVPxGeometry@physx@@AEBV?$PxTransformT@M@2@AEBVPxBoxGeometry@2@1AEBVBox@Gu@2@AEBV?$PxVec3T@M@2@MAEAUPxGeomSweepHit@2@V?$PxFlags@W4Enum@PxHitFlag@physx@@G@2@MPEAUPxQueryThreadContext@2@@Z 000000018011a0b0 f   GuSweepsMesh.obj
 0001:00119140       ?sweepCapsule_MeshGeom@@YA_NAEBVPxGeometry@physx@@AEBV?$PxTransformT@M@2@AEBVPxCapsuleGeometry@2@1AEBVCapsule@Gu@2@AEBV?$PxVec3T@M@2@MAEAUPxGeomSweepHit@2@V?$PxFlags@W4Enum@PxHitFlag@physx@@G@2@MPEAUPxQueryThreadContext@2@@Z 000000018011a140 f   GuSweepsMesh.obj
 0001:001191d0       ?sweepConvex_MeshGeom@@YA_NAEBVPxGeometry@physx@@AEBV?$PxTransformT@M@2@AEBVPxConvexMeshGeometry@2@1AEBV?$PxVec3T@M@2@MAEAUPxGeomSweepHit@2@V?$PxFlags@W4Enum@PxHitFlag@physx@@G@2@MPEAUPxQueryThreadContext@2@@Z 000000018011a1d0 f   GuSweepsMesh.obj
 0001:00119d10       ??0TriangleMesh@Gu@physx@@QEAA@AEBUPxTriangleMeshInternalData@2@@Z 000000018011ad10 f   GuTriangleMesh.obj
 0001:00119df0       ??0TriangleMesh@Gu@physx@@QEAA@PEAVMeshFactory@12@AEAVTriangleMeshData@12@@Z 000000018011adf0 f   GuTriangleMesh.obj
 0001:0011a170       ??1TriangleMesh@Gu@physx@@UEAA@XZ 000000018011b170 f   GuTriangleMesh.obj
 0001:0011a3e0       ??_ETriangleMesh@Gu@physx@@UEAAPEAXI@Z 000000018011b3e0 f i GuTriangleMesh.obj
 0001:0011a3e0       ??_GTriangleMesh@Gu@physx@@UEAAPEAXI@Z 000000018011b3e0 f i GuTriangleMesh.obj
 0001:0011a450       ?exportExtraData@TriangleMesh@Gu@physx@@UEAAXAEAVPxSerializationContext@3@@Z 000000018011b450 f   GuTriangleMesh.obj
 0001:0011a620       ?getLocalBounds@TriangleMesh@Gu@physx@@UEBA?AVPxBounds3@3@XZ 000000018011b620 f i GuTriangleMesh.obj
 0001:0011a6b0       ?getMassInformation@TriangleMesh@Gu@physx@@UEBAXAEAMAEAV?$PxMat33T@M@3@AEAV?$PxVec3T@M@3@@Z 000000018011b6b0 f i GuTriangleMesh.obj
 0001:0011a730       ?getNbTriangles@TriangleMesh@Gu@physx@@UEBAIXZ 000000018011b730 f i GuTriangleMesh.obj
 0001:0011a740       ?getPreferSDFProjection@TriangleMesh@Gu@physx@@UEBA_NXZ 000000018011b740 f i GuTriangleMesh.obj
 0001:0011a750       ?getSDF@TriangleMesh@Gu@physx@@UEBAPEBMXZ 000000018011b750 f i GuTriangleMesh.obj
 0001:0011a760       ?getSDFDimensions@TriangleMesh@Gu@physx@@UEBAXAEAI00@Z 000000018011b760 f i GuTriangleMesh.obj
 0001:0011a790       ?getTriangleMaterialIndex@TriangleMesh@Gu@physx@@UEBAGI@Z 000000018011b790 f i GuTriangleMesh.obj
 0001:0011a7b0       ?getTriangleMeshFlags@TriangleMesh@Gu@physx@@UEBA?AV?$PxFlags@W4Enum@PxTriangleMeshFlag@physx@@E@3@XZ 000000018011b7b0 f i GuTriangleMesh.obj
 0001:0011a7c0       ?getTrianglesRemap@TriangleMesh@Gu@physx@@UEBAPEBIXZ 000000018011b7c0 f i GuTriangleMesh.obj
 0001:0011a7d0       ?getVerticesForModification@TriangleMesh@Gu@physx@@UEAAPEAV?$PxVec3T@M@3@XZ 000000018011b7d0 f   GuTriangleMesh.obj
 0001:0011a810       ?importExtraData@TriangleMesh@Gu@physx@@QEAAXAEAVPxDeserializationContext@3@@Z 000000018011b810 f   GuTriangleMesh.obj
 0001:0011a9a0       ?isKindOf@PxTriangleMesh@physx@@MEBA_NPEBD@Z 000000018011b9a0 f i GuTriangleMesh.obj
 0001:0011aa30       ?onRefCountZero@TriangleMesh@Gu@physx@@UEAAXXZ 000000018011ba30 f   GuTriangleMesh.obj
 0001:0011ab00       ?refitBVH@TriangleMesh@Gu@physx@@UEAA?AVPxBounds3@3@XZ 000000018011bb00 f   GuTriangleMesh.obj
 0001:0011abd0       ?requestEdgeList@TriangleMesh@Gu@physx@@QEBAPEBVEdgeList@23@XZ 000000018011bbd0 f   GuTriangleMesh.obj
 0001:0011acb0       ?setAllEdgesActive@TriangleMesh@Gu@physx@@QEAAXXZ 000000018011bcb0 f   GuTriangleMesh.obj
 0001:0011ada0       ?setPreferSDFProjection@TriangleMesh@Gu@physx@@UEAAX_N@Z 000000018011bda0 f i GuTriangleMesh.obj
 0001:0011add0       ??0BV4TriangleMesh@Gu@physx@@QEAA@AEBUPxTriangleMeshInternalData@2@@Z 000000018011bdd0 f   GuTriangleMeshBV4.obj
 0001:0011af30       ??0BV4TriangleMesh@Gu@physx@@QEAA@PEAVMeshFactory@12@AEAVTriangleMeshData@12@@Z 000000018011bf30 f   GuTriangleMeshBV4.obj
 0001:0011afc0       ??_EBV4TriangleMesh@Gu@physx@@UEAAPEAXI@Z 000000018011bfc0 f i GuTriangleMeshBV4.obj
 0001:0011afc0       ??_GBV4TriangleMesh@Gu@physx@@UEAAPEAXI@Z 000000018011bfc0 f i GuTriangleMeshBV4.obj
 0001:0011b050       ?createObject@BV4TriangleMesh@Gu@physx@@SAPEAVTriangleMesh@23@AEAPEAEAEAVPxDeserializationContext@3@@Z 000000018011c050 f   GuTriangleMeshBV4.obj
 0001:0011b130       ?exportExtraData@BV4TriangleMesh@Gu@physx@@UEAAXAEAVPxSerializationContext@3@@Z 000000018011c130 f   GuTriangleMeshBV4.obj
 0001:0011b170       ?getConcreteTypeName@BV4TriangleMesh@Gu@physx@@UEBAPEBDXZ 000000018011c170 f i GuTriangleMeshBV4.obj
 0001:0011b180       ?getInternalData@BV4TriangleMesh@Gu@physx@@UEBA_NAEAUPxTriangleMeshInternalData@3@_N@Z 000000018011c180 f   GuTriangleMeshBV4.obj
 0001:0011b270       ?getMidphaseID@BV4TriangleMesh@Gu@physx@@UEBA?AW4Enum@PxMeshMidPhase@3@XZ 000000018011c270 f i GuTriangleMeshBV4.obj
 0001:0011b270       ?getMidphaseID@BV4TriangleMeshBuilder@physx@@UEBA?AW4Enum@PxMeshMidPhase@2@XZ 000000018011c270 f i GuCookingTriangleMesh.obj
 0001:0011b270       ?length@charNode@@UEBAHXZ  000000018011c270 f i libvcruntime:undname.obj
 0001:0011b270       ?raw_length@charNode@@UEBAHXZ 000000018011c270 f i libvcruntime:undname.obj
 0001:0011b270       DllMain                    000000018011c270 f i LIBCMT:dll_dllmain_stub.obj
 0001:0011b270       _get_startup_argv_mode     000000018011c270 f i LIBCMT:argv_mode.obj
 0001:0011b280       ?getVerticesForModification@BV4TriangleMesh@Gu@physx@@UEAAPEAV?$PxVec3T@M@3@XZ 000000018011c280 f   GuTriangleMeshBV4.obj
 0001:0011b280       ?getVerticesForModification@RTreeTriangleMesh@Gu@physx@@UEAAPEAV?$PxVec3T@M@3@XZ 000000018011c280 f   GuTriangleMeshRTree.obj
 0001:0011b290       ?refitBVH@BV4TriangleMesh@Gu@physx@@UEAA?AVPxBounds3@3@XZ 000000018011c290 f   GuTriangleMeshBV4.obj
 0001:0011b400       PxGetTriangleMeshInternalData 000000018011c400 f   GuTriangleMeshBV4.obj
 0001:0011b420       ??0RTreeTriangleMesh@Gu@physx@@QEAA@PEAVMeshFactory@12@AEAVTriangleMeshData@12@@Z 000000018011c420 f   GuTriangleMeshRTree.obj
 0001:0011b590       ??_E?$RefitCallback@G@physx@@UEAAPEAXI@Z 000000018011c590 f i GuTriangleMeshRTree.obj
 0001:0011b590       ??_E?$RefitCallback@I@physx@@UEAAPEAXI@Z 000000018011c590 f i GuTriangleMeshRTree.obj
 0001:0011b590       ??_G?$RefitCallback@G@physx@@UEAAPEAXI@Z 000000018011c590 f i GuTriangleMeshRTree.obj
 0001:0011b590       ??_G?$RefitCallback@I@physx@@UEAAPEAXI@Z 000000018011c590 f i GuTriangleMeshRTree.obj
 0001:0011b5c0       ??_ERTreeTriangleMesh@Gu@physx@@UEAAPEAXI@Z 000000018011c5c0 f i GuTriangleMeshRTree.obj
 0001:0011b5c0       ??_GRTreeTriangleMesh@Gu@physx@@UEAAPEAXI@Z 000000018011c5c0 f i GuTriangleMeshRTree.obj
 0001:0011b670       ?createObject@RTreeTriangleMesh@Gu@physx@@SAPEAVTriangleMesh@23@AEAPEAEAEAVPxDeserializationContext@3@@Z 000000018011c670 f   GuTriangleMeshRTree.obj
 0001:0011b700       ?exportExtraData@RTreeTriangleMesh@Gu@physx@@UEAAXAEAVPxSerializationContext@3@@Z 000000018011c700 f   GuTriangleMeshRTree.obj
 0001:0011b740       ?getConcreteTypeName@RTreeTriangleMesh@Gu@physx@@UEBAPEBDXZ 000000018011c740 f i GuTriangleMeshRTree.obj
 0001:0011b750       ?recomputeBounds@?$RefitCallback@G@physx@@UEAAXIAEAT__m128@@0@Z 000000018011c750 f i GuTriangleMeshRTree.obj
 0001:0011ba80       ?recomputeBounds@?$RefitCallback@I@physx@@UEAAXIAEAT__m128@@0@Z 000000018011ca80 f i GuTriangleMeshRTree.obj
 0001:0011bda0       ?refitBVH@RTreeTriangleMesh@Gu@physx@@UEAA?AVPxBounds3@3@XZ 000000018011cda0 f   GuTriangleMeshRTree.obj
 0001:0011bec0       ??0BV32Tree@Gu@physx@@QEAA@XZ 000000018011cec0 f   GuBV32.obj
 0001:0011bef0       ??1BV32Tree@Gu@physx@@QEAA@XZ 000000018011cef0 f   GuBV32.obj
 0001:0011bf00       ?createSOAformatNode@BV32Tree@Gu@physx@@QEAAXAEAUBV32DataPacked@23@AEBUBV32Data@23@IAEAI2@Z 000000018011cf00 f   GuBV32.obj
 0001:0011c360       ?load@BV32Tree@Gu@physx@@QEAA_NAEAVPxInputStream@3@_N@Z 000000018011d360 f   GuBV32.obj
 0001:0011c6a0       ?release@BV32Tree@Gu@physx@@QEAAXXZ 000000018011d6a0 f   GuBV32.obj
 0001:0011c760       ??0BV32Node@@QEAA@XZ       000000018011d760 f i GuBV32Build.obj
 0001:0011cbe0       ?BuildBV32Ex@Gu@physx@@YA_NAEAVBV32Tree@12@AEAVSourceMeshBase@12@MI@Z 000000018011dbe0 f   GuBV32Build.obj
 0001:0011dbd0       ??0BVTetrahedronMesh@Gu@physx@@QEAA@AEAVTetrahedronMeshData@12@AEAVSoftBodyCollisionData@12@PEAVMeshFactory@12@@Z 000000018011ebd0 f   GuTetrahedronMesh.obj
 0001:0011de30       ??0SoftBodyMesh@Gu@physx@@QEAA@PEAVMeshFactory@12@AEAVSoftBodyMeshData@12@@Z 000000018011ee30 f   GuTetrahedronMesh.obj
 0001:0011e1d0       ??0TetrahedronMesh@Gu@physx@@QEAA@PEAVMeshFactory@12@AEAVTetrahedronMeshData@12@@Z 000000018011f1d0 f   GuTetrahedronMesh.obj
 0001:0011e2c0       ??1SoftBodyAuxData@Gu@physx@@UEAA@XZ 000000018011f2c0 f   GuTetrahedronMesh.obj
 0001:0011e540       ??1TetrahedronMesh@Gu@physx@@UEAA@XZ 000000018011f540 f   GuTetrahedronMesh.obj
 0001:0011e5e0       ??_EBVTetrahedronMesh@Gu@physx@@UEAAPEAXI@Z 000000018011f5e0 f i GuTetrahedronMesh.obj
 0001:0011e5e0       ??_GBVTetrahedronMesh@Gu@physx@@UEAAPEAXI@Z 000000018011f5e0 f i GuTetrahedronMesh.obj
 0001:0011e760       ??_ESoftBodyAuxData@Gu@physx@@UEAAPEAXI@Z 000000018011f760 f i GuTetrahedronMesh.obj
 0001:0011e760       ??_GSoftBodyAuxData@Gu@physx@@UEAAPEAXI@Z 000000018011f760 f i GuTetrahedronMesh.obj
 0001:0011e7d0       ??_ESoftBodyMesh@Gu@physx@@UEAAPEAXI@Z 000000018011f7d0 f i GuTetrahedronMesh.obj
 0001:0011e7d0       ??_GSoftBodyMesh@Gu@physx@@UEAAPEAXI@Z 000000018011f7d0 f i GuTetrahedronMesh.obj
 0001:0011e8a0       ??_ETetrahedronMesh@Gu@physx@@UEAAPEAXI@Z 000000018011f8a0 f i GuTetrahedronMesh.obj
 0001:0011e8a0       ??_GTetrahedronMesh@Gu@physx@@UEAAPEAXI@Z 000000018011f8a0 f i GuTetrahedronMesh.obj
 0001:0011e910       ?exportExtraData@SoftBodyMesh@Gu@physx@@UEAAXAEAVPxSerializationContext@3@@Z 000000018011f910 f   GuTetrahedronMesh.obj
 0001:0011ea00       ?getConcreteTypeName@SoftBodyAuxData@Gu@physx@@UEBAPEBDXZ 000000018011fa00 f i GuTetrahedronMesh.obj
 0001:0011ea10       ?getConcreteTypeName@SoftBodyMesh@Gu@physx@@UEBAPEBDXZ 000000018011fa10 f i GuTetrahedronMesh.obj
 0001:0011ea20       ?getConcreteTypeName@TetrahedronMesh@Gu@physx@@UEBAPEBDXZ 000000018011fa20 f i GuTetrahedronMesh.obj
 0001:0011ea30       ?getLocalBounds@TetrahedronMesh@Gu@physx@@UEBA?AVPxBounds3@3@XZ 000000018011fa30 f i GuTetrahedronMesh.obj
 0001:0011eac0       ?getNbTetrahedrons@TetrahedronMesh@Gu@physx@@UEBAIXZ 000000018011fac0 f i GuTetrahedronMesh.obj
 0001:0011ead0       ?getBounds@BVH@Gu@physx@@UEBAPEBVPxBounds3@3@XZ 000000018011fad0 f i GuBVH.obj
 0001:0011ead0       ?getTetrahedraRemap@BVTetrahedronMesh@Gu@physx@@UEBAPEBIXZ 000000018011fad0 f i GuTetrahedronMesh.obj
 0001:0011eae0       ?getTetrahedronMeshFlags@TetrahedronMesh@Gu@physx@@UEBA?AV?$PxFlags@W4Enum@PxTetrahedronMeshFlag@physx@@E@3@XZ 000000018011fae0 f i GuTetrahedronMesh.obj
 0001:0011eaf0       ?getTetrahedrons@TetrahedronMesh@Gu@physx@@UEBAPEBXXZ 000000018011faf0 f i GuTetrahedronMesh.obj
 0001:0011eb00       ?isKindOf@PxSoftBodyAuxData@physx@@MEBA_NPEBD@Z 000000018011fb00 f i GuTetrahedronMesh.obj
 0001:0011eb90       ?isKindOf@PxSoftBodyMesh@physx@@MEBA_NPEBD@Z 000000018011fb90 f i GuTetrahedronMesh.obj
 0001:0011ec20       ?isKindOf@PxTetrahedronMesh@physx@@MEBA_NPEBD@Z 000000018011fc20 f i GuTetrahedronMesh.obj
 0001:0011ecb0       ?onRefCountZero@SoftBodyAuxData@Gu@physx@@UEAAXXZ 000000018011fcb0 f i GuTetrahedronMesh.obj
 0001:0011ecb0       ?release@SimulationTetrahedronMeshData@Gu@physx@@UEAAXXZ 000000018011fcb0 f i GuCookingTetrahedronMesh.obj
 0001:0011ecd0       ?onRefCountZero@SoftBodyMesh@Gu@physx@@UEAAXXZ 000000018011fcd0 f   GuTetrahedronMesh.obj
 0001:0011ed70       ?onRefCountZero@TetrahedronMesh@Gu@physx@@UEAAXXZ 000000018011fd70 f   GuTetrahedronMesh.obj
 0001:0011ee10       ?addAxisToSimMeshBarycentric@Gu@physx@@YA?AV?$PxVec4T@M@2@AEBVPxTetrahedronMesh@2@IAEBV32@AEBV?$PxVec3T@M@2@@Z 000000018011fe10 f   GuTetrahedronMeshUtils.obj
 0001:0011f0d0       ?closestPtPointTetrahedron@Gu@physx@@YA?AV?$PxVec3T@M@2@AEBV32@0000@Z 00000001801200d0 f i GuTetrahedronMeshUtils.obj
 0001:00120210       ?computeBarycentric@physx@@YAXAEBV?$PxVec3T@M@1@0000AEAV?$PxVec4T@M@1@@Z 0000000180121210 f i GuTetrahedronMeshUtils.obj
 0001:001204c0       ?convertSoftbodyCollisionToSimMeshTets@Gu@physx@@YAXAEBVPxTetrahedronMesh@2@AEBVSoftBodyAuxData@12@AEBVBVTetrahedronMesh@12@IAEBV?$PxVec4T@M@2@AEAIAEAV62@@Z 00000001801214c0 f   GuTetrahedronMeshUtils.obj
 0001:001230a0       ?pcmContactBoxBox@Gu@physx@@YA_NAEBVPxGeometry@2@0AEBUPxTransformPadded@2@1AEBUNarrowPhaseParams@12@AEAUCache@12@AEAVPxContactBuffer@2@PEAVPxRenderOutput@2@@Z 00000001801240a0 f   GuPCMContactBoxBox.obj
 0001:00123f40       ??$gjkPenetration@U?$RelativeConvex@VBoxV@Gu@physx@@@Gu@physx@@U?$LocalConvex@VConvexHullNoScaleV@Gu@physx@@@23@@Gu@physx@@YA?AW4GjkStatus@01@AEBU?$RelativeConvex@VBoxV@Gu@physx@@@01@AEBU?$LocalConvex@VConvexHullNoScaleV@Gu@physx@@@01@AEBT__m128@@2_NPEIAE4AEAEAEAUGjkOutput@01@@Z 0000000180124f40 f i GuPCMContactBoxConvex.obj
 0001:00123fb0       ??$gjkPenetration@U?$RelativeConvex@VBoxV@Gu@physx@@@Gu@physx@@U?$LocalConvex@VConvexHullNoScaleV@Gu@physx@@@23@@Gu@physx@@YA?AW4GjkStatus@01@AEBU?$RelativeConvex@VBoxV@Gu@physx@@@01@AEBU?$LocalConvex@VConvexHullNoScaleV@Gu@physx@@@01@AEBT__m128@@2_NPEIAE4PEIAT5@5AEAEAEAUGjkOutput@01@@Z 0000000180124fb0 f i GuPCMContactBoxConvex.obj
 0001:00125b90       ?pcmContactBoxConvex@Gu@physx@@YA_NAEBVPxGeometry@2@0AEBUPxTransformPadded@2@1AEBUNarrowPhaseParams@12@AEAUCache@12@AEAVPxContactBuffer@2@PEAVPxRenderOutput@2@@Z 0000000180126b90 f   GuPCMContactBoxConvex.obj
 0001:00126990       ?support@?$LocalConvex@VConvexHullNoScaleV@Gu@physx@@@Gu@physx@@UEBA?AT__m128@@AEBT4@@Z 0000000180127990 f i GuPCMContactBoxConvex.obj
 0001:001269e0       ?support@?$LocalConvex@VConvexHullNoScaleV@Gu@physx@@@Gu@physx@@UEBA?AT__m128@@AEBT4@AEAH@Z 00000001801279e0 f i GuPCMContactBoxConvex.obj
 0001:00126a40       ?supportPoint@?$LocalConvex@VConvexHullNoScaleV@Gu@physx@@@Gu@physx@@UEBA?AT__m128@@H@Z 0000000180127a40 f i GuPCMContactBoxConvex.obj
 0001:00126a70       ?pcmContactCapsuleBox@Gu@physx@@YA_NAEBVPxGeometry@2@0AEBUPxTransformPadded@2@1AEBUNarrowPhaseParams@12@AEAUCache@12@AEAVPxContactBuffer@2@PEAVPxRenderOutput@2@@Z 0000000180127a70 f   GuPCMContactCapsuleBox.obj
 0001:001279d0       ?pcmContactCapsuleCapsule@Gu@physx@@YA_NAEBVPxGeometry@2@0AEBUPxTransformPadded@2@1AEBUNarrowPhaseParams@12@AEAUCache@12@AEAVPxContactBuffer@2@PEAVPxRenderOutput@2@@Z 00000001801289d0 f   GuPCMContactCapsuleCapsule.obj
 0001:00128170       ??$gjkPenetration@U?$LocalConvex@VCapsuleV@Gu@physx@@@Gu@physx@@U?$LocalConvex@VConvexHullNoScaleV@Gu@physx@@@23@@Gu@physx@@YA?AW4GjkStatus@01@AEBU?$LocalConvex@VCapsuleV@Gu@physx@@@01@AEBU?$LocalConvex@VConvexHullNoScaleV@Gu@physx@@@01@AEBT__m128@@2_NPEIAE4AEAEAEAUGjkOutput@01@@Z 0000000180129170 f i GuPCMContactCapsuleConvex.obj
 0001:001281e0       ??$gjkPenetration@U?$LocalConvex@VCapsuleV@Gu@physx@@@Gu@physx@@U?$LocalConvex@VConvexHullNoScaleV@Gu@physx@@@23@@Gu@physx@@YA?AW4GjkStatus@01@AEBU?$LocalConvex@VCapsuleV@Gu@physx@@@01@AEBU?$LocalConvex@VConvexHullNoScaleV@Gu@physx@@@01@AEBT__m128@@2_NPEIAE4PEIAT5@5AEAEAEAUGjkOutput@01@@Z 00000001801291e0 f i GuPCMContactCapsuleConvex.obj
 0001:001298a0       ?pcmContactCapsuleConvex@Gu@physx@@YA_NAEBVPxGeometry@2@0AEBUPxTransformPadded@2@1AEBUNarrowPhaseParams@12@AEAUCache@12@AEAVPxContactBuffer@2@PEAVPxRenderOutput@2@@Z 000000018012a8a0 f   GuPCMContactCapsuleConvex.obj
 0001:0012aa90       ??_EPCMCapsuleVsHeightfieldContactGenerationCallback@@UEAAPEAXI@Z 000000018012ba90 f i GuPCMContactCapsuleHeightField.obj
 0001:0012aa90       ??_GPCMCapsuleVsHeightfieldContactGenerationCallback@@UEAAPEAXI@Z 000000018012ba90 f i GuPCMContactCapsuleHeightField.obj
 0001:0012aac0       ?pcmContactCapsuleHeightField@Gu@physx@@YA_NAEBVPxGeometry@2@0AEBUPxTransformPadded@2@1AEBUNarrowPhaseParams@12@AEAUCache@12@AEAVPxContactBuffer@2@PEAVPxRenderOutput@2@@Z 000000018012bac0 f   GuPCMContactCapsuleHeightField.obj
 0001:0012b9d0       ?reportTouchedTris@?$PCMHeightfieldContactGenerationCallback@UPCMCapsuleVsHeightfieldContactGenerationCallback@@@Gu@physx@@UEAA_NIPEBI@Z 000000018012c9d0 f i GuPCMContactCapsuleHeightField.obj
 0001:0012c040       ?generateContacts@PCMCapsuleVsMeshContactGeneration@Gu@physx@@SAXAEBT__m128@@0000I000PEAVMeshPersistentContact@23@AEAI@Z 000000018012d040 f   GuPCMContactCapsuleMesh.obj
 0001:0012c460       ?generateEE@PCMCapsuleVsMeshContactGeneration@Gu@physx@@QEAAXAEBT__m128@@000I00PEAVMeshPersistentContact@23@AEAI@Z 000000018012d460 f   GuPCMContactCapsuleMesh.obj
 0001:0012c6d0       ?generateEEMTD@PCMCapsuleVsMeshContactGeneration@Gu@physx@@SAXAEBT__m128@@000I00PEAVMeshPersistentContact@23@AEAI@Z 000000018012d6d0 f   GuPCMContactCapsuleMesh.obj
 0001:0012c900       ?pcmContactCapsuleMesh@Gu@physx@@YA_NAEBVPxGeometry@2@0AEBUPxTransformPadded@2@1AEBUNarrowPhaseParams@12@AEAUCache@12@AEAVPxContactBuffer@2@PEAVPxRenderOutput@2@@Z 000000018012d900 f   GuPCMContactCapsuleMesh.obj
 0001:0012e170       ?pcmDistanceSegmentTriangleSquaredExported@@YA?AT__m128@@AEBT1@0000AEAT1@11@Z 000000018012f170 f   GuPCMContactCapsuleMesh.obj
 0001:0012e5d0       ?processTriangle@PCMCapsuleVsMeshContactGeneration@Gu@physx@@QEAA_NPEBV?$PxVec3T@M@3@IEPEBI@Z 000000018012f5d0 f   GuPCMContactCapsuleMesh.obj
 0001:0012f1d0       ?processTriangle@PCMCapsuleVsMeshContactGeneration@Gu@physx@@SA_NAEBVTriangleV@23@IAEBVCapsuleV@23@AEBT__m128@@EPEAVMeshPersistentContact@23@AEAI@Z 00000001801301d0 f   GuPCMContactCapsuleMesh.obj
 0001:0012f500       ?addContactsToPatch@PCMConvexVsMeshContactGeneration@Gu@physx@@QEAAXAEBT__m128@@I@Z 0000000180130500 f   GuPCMContactConvexCommon.obj
 0001:0012fe40       ?doSupport@?$SupportLocalImpl@VTriangleV@Gu@physx@@@Gu@physx@@UEBA?AT__m128@@AEBT4@@Z 0000000180130e40 f i GuPCMContactConvexCommon.obj
 0001:0012fed0       ?doSupport@?$SupportLocalImpl@VTriangleV@Gu@physx@@@Gu@physx@@UEBAXAEBT__m128@@AEAT4@1@Z 0000000180130ed0 f i GuPCMContactConvexCommon.obj
 0001:0012ff40       ?generateLastContacts@PCMConvexVsMeshContactGeneration@Gu@physx@@QEAAXXZ 0000000180130f40 f   GuPCMContactConvexCommon.obj
 0001:001304a0       ?populateVerts@?$SupportLocalImpl@VTriangleV@Gu@physx@@@Gu@physx@@UEBAXPEBEIPEBV?$PxVec3T@M@3@PEAT__m128@@@Z 00000001801314a0 f i GuPCMContactConvexCommon.obj
 0001:001305e0       ?processTriangle@PCMConvexVsMeshContactGeneration@Gu@physx@@QEAA_NPEBV?$PxVec3T@M@3@IEPEBI@Z 00000001801315e0 f   GuPCMContactConvexCommon.obj
 0001:00130b30       ?processTriangle@PCMConvexVsMeshContactGeneration@Gu@physx@@SA_NAEBUPolygonalData@23@PEBVSupportLocal@23@PEBV?$PxVec3T@M@3@IEAEBT__m128@@_NAEBVPxTransformV@aos@3@AEBVPxMatTransformV@93@PEAVMeshPersistentContact@23@AEAI@Z 0000000180131b30 f   GuPCMContactConvexCommon.obj
 0001:00130db0       ??$gjkPenetration@U?$RelativeConvex@VConvexHullNoScaleV@Gu@physx@@@Gu@physx@@U?$LocalConvex@VConvexHullNoScaleV@Gu@physx@@@23@@Gu@physx@@YA?AW4GjkStatus@01@AEBU?$RelativeConvex@VConvexHullNoScaleV@Gu@physx@@@01@AEBU?$LocalConvex@VConvexHullNoScaleV@Gu@physx@@@01@AEBT__m128@@2_NPEIAE4AEAEAEAUGjkOutput@01@@Z 0000000180131db0 f i GuPCMContactConvexConvex.obj
 0001:00130e20       ??$gjkPenetration@U?$RelativeConvex@VConvexHullNoScaleV@Gu@physx@@@Gu@physx@@U?$LocalConvex@VConvexHullNoScaleV@Gu@physx@@@23@@Gu@physx@@YA?AW4GjkStatus@01@AEBU?$RelativeConvex@VConvexHullNoScaleV@Gu@physx@@@01@AEBU?$LocalConvex@VConvexHullNoScaleV@Gu@physx@@@01@AEBT__m128@@2_NPEIAE4PEIAT5@5AEAEAEAUGjkOutput@01@@Z 0000000180131e20 f i GuPCMContactConvexConvex.obj
 0001:00132330       ??$gjkPenetration@U?$RelativeConvex@VConvexHullNoScaleV@Gu@physx@@@Gu@physx@@U?$LocalConvex@VConvexHullV@Gu@physx@@@23@@Gu@physx@@YA?AW4GjkStatus@01@AEBU?$RelativeConvex@VConvexHullNoScaleV@Gu@physx@@@01@AEBU?$LocalConvex@VConvexHullV@Gu@physx@@@01@AEBT__m128@@2_NPEIAE4AEAEAEAUGjkOutput@01@@Z 0000000180133330 f i GuPCMContactConvexConvex.obj
 0001:001323a0       ??$gjkPenetration@U?$RelativeConvex@VConvexHullNoScaleV@Gu@physx@@@Gu@physx@@U?$LocalConvex@VConvexHullV@Gu@physx@@@23@@Gu@physx@@YA?AW4GjkStatus@01@AEBU?$RelativeConvex@VConvexHullNoScaleV@Gu@physx@@@01@AEBU?$LocalConvex@VConvexHullV@Gu@physx@@@01@AEBT__m128@@2_NPEIAE4PEIAT5@5AEAEAEAUGjkOutput@01@@Z 00000001801333a0 f i GuPCMContactConvexConvex.obj
 0001:00133940       ??$gjkPenetration@U?$RelativeConvex@VConvexHullV@Gu@physx@@@Gu@physx@@U?$LocalConvex@VConvexHullNoScaleV@Gu@physx@@@23@@Gu@physx@@YA?AW4GjkStatus@01@AEBU?$RelativeConvex@VConvexHullV@Gu@physx@@@01@AEBU?$LocalConvex@VConvexHullNoScaleV@Gu@physx@@@01@AEBT__m128@@2_NPEIAE4AEAEAEAUGjkOutput@01@@Z 0000000180134940 f i GuPCMContactConvexConvex.obj
 0001:001339b0       ??$gjkPenetration@U?$RelativeConvex@VConvexHullV@Gu@physx@@@Gu@physx@@U?$LocalConvex@VConvexHullNoScaleV@Gu@physx@@@23@@Gu@physx@@YA?AW4GjkStatus@01@AEBU?$RelativeConvex@VConvexHullV@Gu@physx@@@01@AEBU?$LocalConvex@VConvexHullNoScaleV@Gu@physx@@@01@AEBT__m128@@2_NPEIAE4PEIAT5@5AEAEAEAUGjkOutput@01@@Z 00000001801349b0 f i GuPCMContactConvexConvex.obj
 0001:001359a0       ?pcmContactConvexConvex@Gu@physx@@YA_NAEBVPxGeometry@2@0AEBUPxTransformPadded@2@1AEBUNarrowPhaseParams@12@AEAUCache@12@AEAVPxContactBuffer@2@PEAVPxRenderOutput@2@@Z 00000001801369a0 f   GuPCMContactConvexConvex.obj
 0001:00136ab0       ?support@?$RelativeConvex@VConvexHullNoScaleV@Gu@physx@@@Gu@physx@@UEBA?AT__m128@@AEBT4@@Z 0000000180137ab0 f i GuPCMContactConvexConvex.obj
 0001:00136b60       ?support@?$RelativeConvex@VConvexHullNoScaleV@Gu@physx@@@Gu@physx@@UEBA?AT__m128@@AEBT4@AEAH@Z 0000000180137b60 f i GuPCMContactConvexConvex.obj
 0001:00136c20       ?supportPoint@?$RelativeConvex@VConvexHullNoScaleV@Gu@physx@@@Gu@physx@@UEBA?AT__m128@@H@Z 0000000180137c20 f i GuPCMContactConvexConvex.obj
 0001:00136cb0       ?PCMContactConvexHeightfield@Gu@physx@@YA_NAEBUPolygonalData@12@PEBVSupportLocal@12@AEBT__m128@@AEBVPxBounds3@2@AEBVPxHeightFieldGeometry@2@AEBV?$PxTransformT@M@2@5MAEAVPxContactBuffer@2@AEBVFastVertex2ShapeScaling@Cm@2@_NAEAVMultiplePersistentContactManifold@12@PEAVPxRenderOutput@2@@Z 0000000180137cb0 f   GuPCMContactConvexHeightField.obj
 0001:00137b30       ?pcmContactBoxHeightField@Gu@physx@@YA_NAEBVPxGeometry@2@0AEBUPxTransformPadded@2@1AEBUNarrowPhaseParams@12@AEAUCache@12@AEAVPxContactBuffer@2@PEAVPxRenderOutput@2@@Z 0000000180138b30 f   GuPCMContactConvexHeightField.obj
 0001:00137dd0       ?pcmContactConvexHeightField@Gu@physx@@YA_NAEBVPxGeometry@2@0AEBUPxTransformPadded@2@1AEBUNarrowPhaseParams@12@AEAUCache@12@AEAVPxContactBuffer@2@PEAVPxRenderOutput@2@@Z 0000000180138dd0 f   GuPCMContactConvexHeightField.obj
 0001:00138b20       ?PCMContactConvexMesh@Gu@physx@@YA_NAEBUPolygonalData@12@PEBVSupportLocal@12@AEBT__m128@@AEBVPxBounds3@2@AEBVPxTriangleMeshGeometry@2@AEBV?$PxTransformT@M@2@5MAEAVPxContactBuffer@2@AEBVFastVertex2ShapeScaling@Cm@2@7_N8AEAVMultiplePersistentContactManifold@12@PEAVPxRenderOutput@2@@Z 0000000180139b20 f   GuPCMContactConvexMesh.obj
 0001:00139620       ?pcmContactBoxMesh@Gu@physx@@YA_NAEBVPxGeometry@2@0AEBUPxTransformPadded@2@1AEBUNarrowPhaseParams@12@AEAUCache@12@AEAVPxContactBuffer@2@PEAVPxRenderOutput@2@@Z 000000018013a620 f   GuPCMContactConvexMesh.obj
 0001:00139960       ?pcmContactConvexMesh@Gu@physx@@YA_NAEBVPxGeometry@2@0AEBUPxTransformPadded@2@1AEBUNarrowPhaseParams@12@AEAUCache@12@AEAVPxContactBuffer@2@PEAVPxRenderOutput@2@@Z 000000018013a960 f   GuPCMContactConvexMesh.obj
 0001:0013a570       ?addGJKEPAContacts@Gu@physx@@YA_NPEBUGjkConvex@12@0AEBVPxMatTransformV@aos@2@W4GjkStatus@12@PEAVPersistentContact@12@T__m128@@4AEAUGjkOutput@12@AEAVPersistentContactManifold@12@@Z 000000018013b570 f   GuPCMContactGenBoxConvex.obj
 0001:0013aa20       ?computeMTD@Gu@physx@@YA_NAEBUPolygonalData@12@0PEBVSupportLocal@12@1AEAT__m128@@2@Z 000000018013ba20 f   GuPCMContactGenBoxConvex.obj
 0001:0013b050       ?generateFullContactManifold@Gu@physx@@YA_NAEBUPolygonalData@12@0PEBVSupportLocal@12@1PEAVPersistentContact@12@AEAIAEBT__m128@@444MM_NPEAVPxRenderOutput@2@M@Z 000000018013c050 f   GuPCMContactGenBoxConvex.obj
 0001:0013cfc0       ?computeMTD@Gu@physx@@YA_NAEBVCapsuleV@12@AEBUPolygonalData@12@PEBVSupportLocal@12@AEAT__m128@@3@Z 000000018013dfc0 f   GuPCMContactGenSphereCapsule.obj
 0001:0013d0b0       ?generateCapsuleBoxFullContactManifold@Gu@physx@@YA_NAEBVCapsuleV@12@AEBUPolygonalData@12@PEBVSupportLocal@12@AEBVPxMatTransformV@aos@2@PEAVPersistentContact@12@AEAIAEBT__m128@@AEAT9@6M_NMPEAVPxRenderOutput@2@@Z 000000018013e0b0 f   GuPCMContactGenSphereCapsule.obj
 0001:0013d250       ?generateFullContactManifold@Gu@physx@@YA_NAEBVCapsuleV@12@AEBUPolygonalData@12@PEBVSupportLocal@12@AEBVPxMatTransformV@aos@2@PEAVPersistentContact@12@AEAIAEBT__m128@@AEAT9@6M_NM@Z 000000018013e250 f   GuPCMContactGenSphereCapsule.obj
 0001:0013d440       ?generateSphereFullContactManifold@Gu@physx@@YA_NAEBVCapsuleV@12@AEBUPolygonalData@12@PEBVSupportLocal@12@PEAVPersistentContact@12@AEAIAEBT__m128@@AEAT7@_N@Z 000000018013e440 f   GuPCMContactGenSphereCapsule.obj
 0001:0013e940       ?pcmContactPlaneBox@Gu@physx@@YA_NAEBVPxGeometry@2@0AEBUPxTransformPadded@2@1AEBUNarrowPhaseParams@12@AEAUCache@12@AEAVPxContactBuffer@2@PEAVPxRenderOutput@2@@Z 000000018013f940 f   GuPCMContactPlaneBox.obj
 0001:0013f500       ?pcmContactPlaneCapsule@Gu@physx@@YA_NAEBVPxGeometry@2@0AEBUPxTransformPadded@2@1AEBUNarrowPhaseParams@12@AEAUCache@12@AEAVPxContactBuffer@2@PEAVPxRenderOutput@2@@Z 0000000180140500 f   GuPCMContactPlaneCapsule.obj
 0001:0013fc80       ?pcmContactPlaneConvex@Gu@physx@@YA_NAEBVPxGeometry@2@0AEBUPxTransformPadded@2@1AEBUNarrowPhaseParams@12@AEAUCache@12@AEAVPxContactBuffer@2@PEAVPxRenderOutput@2@@Z 0000000180140c80 f   GuPCMContactPlaneConvex.obj
 0001:00140900       ?pcmContactSphereBox@Gu@physx@@YA_NAEBVPxGeometry@2@0AEBUPxTransformPadded@2@1AEBUNarrowPhaseParams@12@AEAUCache@12@AEAVPxContactBuffer@2@PEAVPxRenderOutput@2@@Z 0000000180141900 f   GuPCMContactSphereBox.obj
 0001:00140d60       ?pcmContactSphereCapsule@Gu@physx@@YA_NAEBVPxGeometry@2@0AEBUPxTransformPadded@2@1AEBUNarrowPhaseParams@12@AEAUCache@12@AEAVPxContactBuffer@2@PEAVPxRenderOutput@2@@Z 0000000180141d60 f   GuPCMContactSphereCapsule.obj
 0001:001411d0       ?pcmContactSphereConvex@Gu@physx@@YA_NAEBVPxGeometry@2@0AEBUPxTransformPadded@2@1AEBUNarrowPhaseParams@12@AEAUCache@12@AEAVPxContactBuffer@2@PEAVPxRenderOutput@2@@Z 00000001801421d0 f   GuPCMContactSphereConvex.obj
 0001:00141ea0       ??1?$PxArray@USortedTriangle@Gu@physx@@V?$PxInlineAllocator@$0IAA@V?$PxReflectionAllocator@USortedTriangle@Gu@physx@@@physx@@@3@@physx@@QEAA@XZ 0000000180142ea0 f i GuPCMContactSphereHeightField.obj
 0001:00141f60       ?pcmContactSphereHeightField@Gu@physx@@YA_NAEBVPxGeometry@2@0AEBUPxTransformPadded@2@1AEBUNarrowPhaseParams@12@AEAUCache@12@AEAVPxContactBuffer@2@PEAVPxRenderOutput@2@@Z 0000000180142f60 f   GuPCMContactSphereHeightField.obj
 0001:00142fd0       ??$PxSort@USortedTriangle@Gu@physx@@U?$PxLess@USortedTriangle@Gu@physx@@@3@V?$PxReflectionAllocator@USortedTriangle@Gu@physx@@@3@@physx@@YAXPEAUSortedTriangle@Gu@0@IAEBU?$PxLess@USortedTriangle@Gu@physx@@@0@AEBV?$PxReflectionAllocator@USortedTriangle@Gu@physx@@@0@I@Z 0000000180143fd0 f i GuPCMContactSphereMesh.obj
 0001:001434f0       ??$processTriangleCache@$0BA@VPCMSphereVsMeshContactGeneration@Gu@physx@@@PCMMeshContactGeneration@Gu@physx@@QEAA_NAEAU?$TriangleCache@$0BA@@12@@Z 00000001801444f0 f i GuPCMContactSphereMesh.obj
 0001:001439c0       ?addToPatch@PCMSphereVsMeshContactGeneration@Gu@physx@@QEAAXAEBT__m128@@0T4@I@Z 00000001801449c0 f   GuPCMContactSphereMesh.obj
 0001:00144080       ?allocate@?$PxArray@IV?$PxInlineAllocator@$0PAA@V?$PxReflectionAllocator@I@physx@@@physx@@@physx@@IEAAPEAII@Z 0000000180145080 f i GuPCMContactSphereMesh.obj
 0001:00144140       ?allocate@?$PxArray@USortedTriangle@Gu@physx@@V?$PxInlineAllocator@$0IAA@V?$PxReflectionAllocator@USortedTriangle@Gu@physx@@@physx@@@3@@physx@@IEAAPEAUSortedTriangle@Gu@2@I@Z 0000000180145140 f i GuPCMContactSphereMesh.obj
 0001:00144200       ?generateLastContacts@PCMSphereVsMeshContactGeneration@Gu@physx@@QEAAXXZ 0000000180145200 f   GuPCMContactSphereMesh.obj
 0001:00144830       ?growAndPushBack@?$PxArray@USortedTriangle@Gu@physx@@V?$PxInlineAllocator@$0IAA@V?$PxReflectionAllocator@USortedTriangle@Gu@physx@@@physx@@@3@@physx@@IEAAAEAUSortedTriangle@Gu@2@AEBU342@@Z 0000000180145830 f i GuPCMContactSphereMesh.obj
 0001:00144940       ?pcmContactSphereMesh@Gu@physx@@YA_NAEBVPxGeometry@2@0AEBUPxTransformPadded@2@1AEBUNarrowPhaseParams@12@AEAUCache@12@AEAVPxContactBuffer@2@PEAVPxRenderOutput@2@@Z 0000000180145940 f   GuPCMContactSphereMesh.obj
 0001:00145eb0       ?processTriangle@PCMSphereVsMeshContactGeneration@Gu@physx@@QEAA_NPEBV?$PxVec3T@M@3@IEPEBI@Z 0000000180146eb0 f   GuPCMContactSphereMesh.obj
 0001:001462a0       ?recreate@?$PxArray@IV?$PxInlineAllocator@$0PAA@V?$PxReflectionAllocator@I@physx@@@physx@@@physx@@IEAAXI@Z 00000001801472a0 f i GuPCMContactSphereMesh.obj
 0001:00146360       ?pcmContactSpherePlane@Gu@physx@@YA_NAEBVPxGeometry@2@0AEBUPxTransformPadded@2@1AEBUNarrowPhaseParams@12@AEAUCache@12@AEAVPxContactBuffer@2@PEAVPxRenderOutput@2@@Z 0000000180147360 f   GuPCMContactSpherePlane.obj
 0001:001464e0       ?pcmContactSphereSphere@Gu@physx@@YA_NAEBVPxGeometry@2@0AEBUPxTransformPadded@2@1AEBUNarrowPhaseParams@12@AEAUCache@12@AEAVPxContactBuffer@2@PEAVPxRenderOutput@2@@Z 00000001801474e0 f   GuPCMContactSphereSphere.obj
 0001:00146db0       ?pcmContactGeometryCustomGeometry@Gu@physx@@YA_NAEBVPxGeometry@2@0AEBUPxTransformPadded@2@1AEBUNarrowPhaseParams@12@AEAUCache@12@AEAVPxContactBuffer@2@PEAVPxRenderOutput@2@@Z 0000000180147db0 f   GuPCMContactCustomGeometry.obj
 0001:00146e60       ?getPCMConvexData@Gu@physx@@YAXAEBVConvexHullV@12@_NAEAUPolygonalData@12@@Z 0000000180147e60 f   GuPCMShapeConvex.obj
 0001:00146ea0       ?getPCMConvexData@Gu@physx@@YA_NAEBVPxConvexMeshGeometry@2@AEAVFastVertex2ShapeScaling@Cm@2@AEAVPxBounds3@2@AEAUPolygonalData@12@@Z 0000000180147ea0 f   GuPCMShapeConvex.obj
 0001:001473f0       ?getPolygonalData@PCMPolygonalBox@Gu@physx@@QEBAXPEIAUPolygonalData@23@@Z 00000001801483f0 f   GuPCMShapeConvex.obj
 0001:00147470       ?generatePolyDataContactManifold@PCMConvexVsMeshContactGeneration@Gu@physx@@QEAA_NAEBVTriangleV@23@IIEPEAVMeshPersistentContact@23@AEAIAEBT__m128@@AEAT6@@Z 0000000180148470 f   GuPCMTriangleContactGen.obj
 0001:00147590       ?generateTriangleFullContactManifold@PCMConvexVsMeshContactGeneration@Gu@physx@@QEAA_NAEBVTriangleV@23@IPEBIEAEBUPolygonalData@23@PEBV?$SupportLocalImpl@VTriangleV@Gu@physx@@@23@PEBVSupportLocal@23@PEAVMeshPersistentContact@23@AEAIAEBT__m128@@AEAT9@@Z 0000000180148590 f   GuPCMTriangleContactGen.obj
 0001:00147ac0       ?generateTriangleFullContactManifold@PCMConvexVsMeshContactGeneration@Gu@physx@@SA_NAEBVTriangleV@23@IEAEBUPolygonalData@23@PEBV?$SupportLocalImpl@VTriangleV@Gu@physx@@@23@PEBVSupportLocal@23@PEAVMeshPersistentContact@23@AEAIAEBT__m128@@AEAT9@PEAVPxRenderOutput@3@@Z 0000000180148ac0 f   GuPCMTriangleContactGen.obj
 0001:00149b40       ?addBatchManifoldContacts2@PersistentContactManifold@Gu@physx@@QEAAXPEBVPersistentContact@23@I@Z 000000018014ab40 f   GuPersistentContactManifold.obj
 0001:00149bb0       ?addBatchManifoldContacts@PersistentContactManifold@Gu@physx@@QEAAXPEBVPersistentContact@23@IM@Z 000000018014abb0 f   GuPersistentContactManifold.obj
 0001:00149c30       ?addBatchManifoldContactsCluster@PersistentContactManifold@Gu@physx@@QEAAXPEBVPersistentContact@23@I@Z 000000018014ac30 f   GuPersistentContactManifold.obj
 0001:00149eb0       ?addManifoldContactPoints@MultiplePersistentContactManifold@Gu@physx@@QEAAXPEAVMeshPersistentContact@23@IPEAPEAUPCMContactPatch@23@IAEBT__m128@@2E@Z 000000018014aeb0 f   GuPersistentContactManifold.obj
 0001:0014a2a0       ?addManifoldContactsToContactBuffer@MultiplePersistentContactManifold@Gu@physx@@QEAA_NAEAVPxContactBuffer@3@AEBVPxTransformV@aos@3@1AEBT__m128@@@Z 000000018014b2a0 f   GuPersistentContactManifold.obj
 0001:0014a560       ?addManifoldContactsToContactBuffer@MultiplePersistentContactManifold@Gu@physx@@QEAA_NAEAVPxContactBuffer@3@AEBVPxTransformV@aos@3@@Z 000000018014b560 f   GuPersistentContactManifold.obj
 0001:0014a7f0       ?addManifoldContactsToContactBuffer@PersistentContactManifold@Gu@physx@@QEAAXAEAVPxContactBuffer@3@AEBT__m128@@1AEBVPxTransformV@aos@3@11@Z 000000018014b7f0 f   GuPersistentContactManifold.obj
 0001:0014a980       ?addManifoldContactsToContactBuffer@PersistentContactManifold@Gu@physx@@QEAAXAEAVPxContactBuffer@3@AEBT__m128@@AEBVPxMatTransformV@aos@3@@Z 000000018014b980 f   GuPersistentContactManifold.obj
 0001:0014aa30       ?addManifoldContactsToContactBuffer@PersistentContactManifold@Gu@physx@@QEAAXAEAVPxContactBuffer@3@AEBT__m128@@AEBVPxTransformV@aos@3@1@Z 000000018014ba30 f   GuPersistentContactManifold.obj
 0001:0014ab90       ?addManifoldPoint2@PersistentContactManifold@Gu@physx@@QEAAIAEBT__m128@@000@Z 000000018014bb90 f   GuPersistentContactManifold.obj
 0001:0014acc0       ?addManifoldPoint@Gu@physx@@YAXPEAVPersistentContact@12@AEAVPersistentContactManifold@12@AEAUGjkOutput@12@AEBVPxMatTransformV@aos@2@T__m128@@@Z 000000018014bcc0 f   GuPersistentContactManifold.obj
 0001:0014ae70       ?addManifoldPoint@PersistentContactManifold@Gu@physx@@QEAAIAEBT__m128@@000@Z 000000018014be70 f   GuPersistentContactManifold.obj
 0001:0014b2b0       ?drawLine@MultiplePersistentContactManifold@Gu@physx@@SAXAEAVPxRenderOutput@3@AEBT__m128@@1I@Z 000000018014c2b0 f   GuPersistentContactManifold.obj
 0001:0014b360       ?drawLine@MultiplePersistentContactManifold@Gu@physx@@SAXAEAVPxRenderOutput@3@V?$PxVec3T@M@3@1I@Z 000000018014c360 f   GuPersistentContactManifold.obj
 0001:0014b3d0       ?drawManifold@MultiplePersistentContactManifold@Gu@physx@@QEBAXAEAVPxRenderOutput@3@AEBVPxTransformV@aos@3@1@Z 000000018014c3d0 f   GuPersistentContactManifold.obj
 0001:0014ba60       ?drawPoint@MultiplePersistentContactManifold@Gu@physx@@SAXAEAVPxRenderOutput@3@AEBT__m128@@MI@Z 000000018014ca60 f   GuPersistentContactManifold.obj
 0001:0014bc70       ?drawPolygon@MultiplePersistentContactManifold@Gu@physx@@SAXAEAVPxRenderOutput@3@AEBVPxTransformV@aos@3@PEAT__m128@@II@Z 000000018014cc70 f   GuPersistentContactManifold.obj
 0001:0014bef0       ?findRotationMatrixFromZAxis@Gu@physx@@YA?AUMat33V@aos@2@AEBT__m128@@@Z 000000018014cef0 f   GuPersistentContactManifold.obj
 0001:0014c170       ?fromBuffer@MultiplePersistentContactManifold@Gu@physx@@QEAAXPEIAE@Z 000000018014d170 f   GuPersistentContactManifold.obj
 0001:0014c2d0       ?reduceBatchContacts2@PersistentContactManifold@Gu@physx@@QEAAXPEBVPersistentContact@23@I@Z 000000018014d2d0 f   GuPersistentContactManifold.obj
 0001:0014c4d0       ?reduceBatchContacts@PersistentContactManifold@Gu@physx@@QEAAXPEBVPersistentContact@23@IM@Z 000000018014d4d0 f   GuPersistentContactManifold.obj
 0001:0014c990       ?reduceBatchContactsCapsule@SinglePersistentContactManifold@Gu@physx@@QEAA?AT__m128@@PEBVMeshPersistentContact@23@IAEAUPCMContactPatch@23@@Z 000000018014d990 f   GuPersistentContactManifold.obj
 0001:0014cc20       ?reduceBatchContactsCluster@PersistentContactManifold@Gu@physx@@QEAAXPEBVPersistentContact@23@I@Z 000000018014dc20 f   GuPersistentContactManifold.obj
 0001:0014d0b0       ?reduceBatchContactsConvex@SinglePersistentContactManifold@Gu@physx@@QEAA?AT__m128@@PEBVMeshPersistentContact@23@IAEAUPCMContactPatch@23@@Z 000000018014e0b0 f   GuPersistentContactManifold.obj
 0001:0014d6a0       ?reduceContacts@SinglePersistentContactManifold@Gu@physx@@SAIPEAVMeshPersistentContact@23@I@Z 000000018014e6a0 f   GuPersistentContactManifold.obj
 0001:0014dc20       ?reduceContactsForPCM@PersistentContactManifold@Gu@physx@@QEAAIAEBT__m128@@00@Z 000000018014ec20 f   GuPersistentContactManifold.obj
 0001:0014e1c0       ?refreshContactPoints@SinglePersistentContactManifold@Gu@physx@@QEAA?AT__m128@@AEBVPxMatTransformV@aos@3@AEBT4@1@Z 000000018014f1c0 f   GuPersistentContactManifold.obj
 0001:0014e310       ?replaceManifoldPoint@PersistentContactManifold@Gu@physx@@QEAA_NAEBT__m128@@000@Z 000000018014f310 f   GuPersistentContactManifold.obj
 0001:0014e3d0       ?toBuffer@MultiplePersistentContactManifold@Gu@physx@@QEBAXPEIAE@Z 000000018014f3d0 f   GuPersistentContactManifold.obj
 0001:0014e4b0       ?contains@Gu@physx@@YA_NPEAT__m128@@IAEBT3@11@Z 000000018014f4b0 f   GuPCMContactGenUtil.obj
 0001:0014e670       ?getPolygonIndex@Gu@physx@@YAHAEBUPolygonalData@12@PEBVSupportLocal@12@AEBT__m128@@AEAH@Z 000000018014f670 f   GuPCMContactGenUtil.obj
 0001:0014e910       ?getWitnessPolygonIndex@Gu@physx@@YAIAEBUPolygonalData@12@PEBVSupportLocal@12@AEBT__m128@@2M@Z 000000018014f910 f   GuPCMContactGenUtil.obj
 0001:0014ee60       ?sweepBoxBox@Gu@physx@@YA_NAEBVBox@12@0AEBV?$PxVec3T@M@2@MV?$PxFlags@W4Enum@PxHitFlag@physx@@G@2@AEAUPxGeomSweepHit@2@@Z 000000018014fe60 f   GuSweepBoxBox.obj
 0001:001504a0       ?sweepBoxSphere@Gu@physx@@YA_NAEBVBox@12@MAEBV?$PxVec3T@M@2@1MAEAMAEAV42@V?$PxFlags@W4Enum@PxHitFlag@physx@@G@2@@Z 00000001801514a0 f   GuSweepBoxSphere.obj
 0001:00151150       ?sweepBoxTriangle@Gu@physx@@YA_NAEBVPxTriangle@2@AEBVPxBounds3@2@AEBV?$PxVec3T@M@2@2AEAV52@3AEAM_N@Z 0000000180152150 f   GuSweepBoxTriangle_FeatureBased.obj
 0001:00152870       ?triBoxSweepTestBoxSpace@Gu@physx@@YAHAEBVPxTriangle@2@AEBV?$PxVec3T@M@2@11MAEAM_N@Z 0000000180153870 f   GuSweepBoxTriangle_SAT.obj
 0001:00154190       ?sweepCapsuleBox@Gu@physx@@YA_NAEBVCapsule@12@AEBV?$PxTransformT@M@2@AEBV?$PxVec3T@M@2@2MAEAV52@AEAM3V?$PxFlags@W4Enum@PxHitFlag@physx@@G@2@@Z 0000000180155190 f   GuSweepCapsuleBox.obj
 0001:001544e0       ?distancePointSegmentSquared@Gu@physx@@YAMAEBVSegment@12@AEBV?$PxVec3T@M@2@PEAM@Z 00000001801554e0 f i GuSweepCapsuleCapsule.obj
 0001:001545f0       ?edgeEdgeDist@@YAXAEAV?$PxVec3T@M@physx@@0AEBV12@111@Z 00000001801555f0 f   GuSweepCapsuleCapsule.obj
 0001:00154860       ?sweepCapsuleCapsule@Gu@physx@@YA_NAEBVCapsule@12@0AEBV?$PxVec3T@M@2@MAEAMAEAV42@3IAEAG@Z 0000000180155860 f   GuSweepCapsuleCapsule.obj
 0001:00155670       ?sweepCapsuleTriangles_Precise@Gu@physx@@YA_NIPEIBVPxTriangle@2@AEBVCapsule@12@AEBV?$PxVec3T@M@2@MPEIBIAEAUPxGeomSweepHit@2@AEAV52@V?$PxFlags@W4Enum@PxHitFlag@physx@@G@2@_NPEBVBoxPadded@12@@Z 0000000180156670 f   GuSweepCapsuleTriangle.obj
 0001:001577d0       ?sweepSphereCapsule@Gu@physx@@YA_NAEBVSphere@12@AEBVCapsule@12@AEBV?$PxVec3T@M@2@MAEAMAEAV52@4V?$PxFlags@W4Enum@PxHitFlag@physx@@G@2@@Z 00000001801587d0 f   GuSweepSphereCapsule.obj
 0001:00157e70       ?sweepSphereSphere@Gu@physx@@YA_NAEBV?$PxVec3T@M@2@M0M0AEAMAEAV32@@Z 0000000180158e70 f   GuSweepSphereSphere.obj
 0001:001580e0       ?sweepSphereTriangles@Gu@physx@@YA_NIPEIBVPxTriangle@2@AEBV?$PxVec3T@M@2@M1MPEIBIAEAUPxGeomSweepHit@2@AEAV42@_N555@Z 00000001801590e0 f   GuSweepSphereTriangle.obj
 0001:001589b0       ?sweepSphereVSQuad@Gu@physx@@YA_NPEIBV?$PxVec3T@M@2@AEBV32@1M1AEAM@Z 00000001801599b0 f   GuSweepSphereTriangle.obj
 0001:00159990       ?sweepSphereVSTri@Gu@physx@@YA_NPEIBV?$PxVec3T@M@2@AEBV32@1M1AEAMAEA_N_N@Z 000000018015a990 f   GuSweepSphereTriangle.obj
 0001:0015a6a0       ??$gjk@U?$LocalConvex@VTriangleV@Gu@physx@@@Gu@physx@@U?$LocalConvex@VBoxV@Gu@physx@@@23@@Gu@physx@@YA?AW4GjkStatus@01@AEBU?$LocalConvex@VTriangleV@Gu@physx@@@01@AEBU?$LocalConvex@VBoxV@Gu@physx@@@01@AEBT__m128@@2AEAT5@333@Z 000000018015b6a0 f i GuSweepTriangleUtils.obj
 0001:0015b380       ?computeBoxTriImpactData@Gu@physx@@YAXAEAV?$PxVec3T@M@2@0AEBV32@1AEBVPxTriangle@2@M@Z 000000018015c380 f   GuSweepTriangleUtils.obj
 0001:0015b600       ?computeEdgeEdgeNormal@Gu@physx@@YAXAEAV?$PxVec3T@M@2@AEBV32@1111M@Z 000000018015c600 f   GuSweepTriangleUtils.obj
 0001:0015b8b0       ?computeSphereTriImpactData@Gu@physx@@YAXAEAV?$PxVec3T@M@2@0AEBV32@1MAEBVPxTriangle@2@@Z 000000018015c8b0 f   GuSweepTriangleUtils.obj
 0001:0015bd90       ??0ShapeData@Gu@physx@@QEAA@AEBVPxGeometry@2@AEBV?$PxTransformT@M@2@M@Z 000000018015cd90 f   GuBounds.obj
 0001:0015c300       ?computeBounds@Gu@physx@@YAXAEAVPxBounds3@2@AEBVPxGeometry@2@AEBV?$PxTransformT@M@2@MM@Z 000000018015d300 f   GuBounds.obj
 0001:0015ce90       ?computeBoundsAroundVertices@Gu@physx@@YAXAEAVPxBounds3@2@IPEIBV?$PxVec3T@M@2@@Z 000000018015de90 f   GuBounds.obj
 0001:0015cf20       ?computeGlobalBox@Gu@physx@@YAXAEAVPxBounds3@2@IPEIBV32@PEIBI@Z 000000018015df20 f   GuBounds.obj
 0001:0015cf90       ?computeLocalBoundsAndGeomEpsilon@Gu@physx@@YAXPEBV?$PxVec3T@M@2@IAEAVPxBounds3@2@AEAM@Z 000000018015df90 f   GuBounds.obj
 0001:0015e0c0       ?computeTightBounds@Gu@physx@@YAXAEAVPxBounds3@2@IPEIBV?$PxVec3T@M@2@AEBV?$PxTransformT@M@2@AEBVPxMeshScale@2@MM@Z 000000018015f0c0 f   GuBounds.obj
 0001:0015e480       ??0AABBTree@Gu@physx@@QEAA@XZ 000000018015f480 f   GuAABBTree.obj
 0001:0015e4b0       ??0BVHPartialRefitData@Gu@physx@@QEAA@XZ 000000018015f4b0 f   GuAABBTree.obj
 0001:0015e4e0       ??0NodeAllocator@Gu@physx@@QEAA@XZ 000000018015f4e0 f   GuAABBTree.obj
 0001:0015e500       ??1AABBTree@Gu@physx@@QEAA@XZ 000000018015f500 f   GuAABBTree.obj
 0001:0015e520       ??1BVHPartialRefitData@Gu@physx@@QEAA@XZ 000000018015f520 f   GuAABBTree.obj
 0001:0015e5c0       ??1NodeAllocator@Gu@physx@@QEAA@XZ 000000018015f5c0 f   GuAABBTree.obj
 0001:0015e610       ?_buildHierarchy@AABBTreeBuildNode@Gu@physx@@QEAAXAEBVAABBTreeBuildParams@23@AEAUBuildStats@23@AEAVNodeAllocator@23@QEAI@Z 000000018015f610 f   GuAABBTree.obj
 0001:0015e6a0       ?_buildHierarchySAH@AABBTreeBuildNode@Gu@physx@@QEAAXAEBVAABBTreeBuildParams@23@AEAUSAH_Buffers@23@AEAUBuildStats@23@AEAVNodeAllocator@23@QEAI@Z 000000018015f6a0 f   GuAABBTree.obj
 0001:0015e750       ?addRuntimeChilds@AABBTree@Gu@physx@@AEAAXAEAIAEBVAABBTreeMergeData@23@@Z 000000018015f750 f   GuAABBTree.obj
 0001:0015e850       ?build@AABBTree@Gu@physx@@QEAA_NAEBVAABBTreeBuildParams@23@AEAVNodeAllocator@23@@Z 000000018015f850 f   GuAABBTree.obj
 0001:0015ea70       ?buildAABBTree@Gu@physx@@YAPEAIAEBVAABBTreeBuildParams@12@AEAVNodeAllocator@12@AEAUBuildStats@12@@Z 000000018015fa70 f   GuAABBTree.obj
 0001:0015eb10       ?buildAABBTree@Gu@physx@@YAXIAEBVAABBTreeBounds@12@AEAV?$PxArray@UBVHNode@Gu@physx@@V?$PxReflectionAllocator@UBVHNode@Gu@physx@@@3@@2@@Z 000000018015fb10 f   GuAABBTree.obj
 0001:0015eee0       ?buildEnd@AABBTree@Gu@physx@@AEAAXAEBVAABBTreeBuildParams@23@AEAVNodeAllocator@23@AEBUBuildStats@23@@Z 000000018015fee0 f   GuAABBTree.obj
 0001:0015f100       ?createUpdateMap@BVHPartialRefitData@Gu@physx@@QEAAXI@Z 0000000180160100 f   GuAABBTree.obj
 0001:0015f220       ?flattenTree@Gu@physx@@YAXAEBVNodeAllocator@12@PEAUBVHNode@12@PEBI@Z 0000000180160220 f   GuAABBTree.obj
 0001:0015f410       ?fullRefit@BVHCoreData@Gu@physx@@QEAAXPEBVPxBounds3@3@@Z 0000000180160410 f   GuAABBTree.obj
 0001:0015f5d0       ?getBiNode@NodeAllocator@Gu@physx@@QEAAPEAVAABBTreeBuildNode@23@XZ 00000001801605d0 f   GuAABBTree.obj
 0001:0015f700       ?getParentIndices@BVHPartialRefitData@Gu@physx@@IEAAPEAIXZ 0000000180160700 f   GuAABBTree.obj
 0001:0015f790       ?growAndPushBack@?$PxArray@PEAVAABBTreeBuildNode@Gu@physx@@V?$PxReflectionAllocator@PEAVAABBTreeBuildNode@Gu@physx@@@3@@physx@@IEAAAEAPEAVAABBTreeBuildNode@Gu@2@AEBQEAV342@@Z 0000000180160790 f i GuAABBTree.obj
 0001:0015f8b0       ?growAndPushBack@?$PxArray@USlab@NodeAllocator@Gu@physx@@V?$PxReflectionAllocator@USlab@NodeAllocator@Gu@physx@@@4@@physx@@IEAAAEAUSlab@NodeAllocator@Gu@2@AEBU3452@@Z 00000001801608b0 f i GuAABBTree.obj
 0001:0015f970       ?init@AABBTreeBounds@Gu@physx@@QEAAXIPEBVPxBounds3@3@@Z 0000000180160970 f   GuAABBTree.obj
 0001:0015fa30       ?init@NodeAllocator@Gu@physx@@QEAAXII@Z 0000000180160a30 f   GuAABBTree.obj
 0001:0015fd70       ?initTree@AABBTree@Gu@physx@@QEAAXAEBVAABBTreeMergeData@23@@Z 0000000180160d70 f   GuAABBTree.obj
 0001:0015fea0       ?markNodeForRefit@BVHPartialRefitData@Gu@physx@@QEAAXI@Z 0000000180160ea0 f   GuAABBTree.obj
 0001:0015ffb0       ?mergeRuntimeLeaf@AABBTree@Gu@physx@@AEAAXAEAUBVHNode@23@AEBVAABBTreeMergeData@23@I@Z 0000000180160fb0 f   GuAABBTree.obj
 0001:00160200       ?mergeRuntimeNode@AABBTree@Gu@physx@@AEAAXAEAUBVHNode@23@AEBVAABBTreeMergeData@23@I@Z 0000000180161200 f   GuAABBTree.obj
 0001:00160520       ?mergeTree@AABBTree@Gu@physx@@QEAAXAEBVAABBTreeMergeData@23@@Z 0000000180161520 f   GuAABBTree.obj
 0001:001607b0       ?progressiveBuild@AABBTree@Gu@physx@@QEAAIAEBVAABBTreeBuildParams@23@AEAVNodeAllocator@23@AEAUBuildStats@23@II@Z 00000001801617b0 f   GuAABBTree.obj
 0001:00160a60       ?refitMarkedNodes@BVHPartialRefitData@Gu@physx@@QEAAXPEBVPxBounds3@3@@Z 0000000180161a60 f   GuAABBTree.obj
 0001:00160bd0       ?release@AABBTree@Gu@physx@@QEAAX_N@Z 0000000180161bd0 f   GuAABBTree.obj
 0001:00160cc0       ?release@AABBTreeBounds@Gu@physx@@QEAAXXZ 0000000180161cc0 f   GuAABBTree.obj
 0001:00160d10       ?release@NodeAllocator@Gu@physx@@QEAAXXZ 0000000180161d10 f   GuAABBTree.obj
 0001:00160dc0       ?releasePartialRefitData@BVHPartialRefitData@Gu@physx@@QEAAX_N@Z 0000000180161dc0 f   GuAABBTree.obj
 0001:00160e50       ?reshuffle@Gu@physx@@YAIIQEIAIPEIBV?$PxVec3T@M@2@MI@Z 0000000180161e50 f   GuAABBTree.obj
 0001:00160f90       ?resize@?$PxArray@USlab@NodeAllocator@Gu@physx@@V?$PxReflectionAllocator@USlab@NodeAllocator@Gu@physx@@@4@@physx@@QEAAXIAEBUSlab@NodeAllocator@Gu@2@@Z 0000000180161f90 f i GuAABBTree.obj
 0001:00161010       ?resize@AABBTreeBounds@Gu@physx@@QEAAXII@Z 0000000180162010 f   GuAABBTree.obj
 0001:001610b0       ?shiftIndices@AABBTree@Gu@physx@@QEAAXI@Z 00000001801620b0 f   GuAABBTree.obj
 0001:001610d0       ?shiftOrigin@AABBTree@Gu@physx@@QEAAXAEBV?$PxVec3T@M@3@@Z 00000001801620d0 f   GuAABBTree.obj
 0001:00161360       ?subdivide@AABBTreeBuildNode@Gu@physx@@QEAAXAEBVAABBTreeBuildParams@23@AEAUBuildStats@23@AEAVNodeAllocator@23@QEAI@Z 0000000180162360 f   GuAABBTree.obj
 0001:00161550       ?subdivideSAH@AABBTreeBuildNode@Gu@physx@@QEAAXAEBVAABBTreeBuildParams@23@AEAUSAH_Buffers@23@AEAUBuildStats@23@AEAVNodeAllocator@23@QEAI@Z 0000000180162550 f   GuAABBTree.obj
 0001:00161640       ?traverseRuntimeNode@AABBTree@Gu@physx@@AEAAXAEAUBVHNode@23@AEBVAABBTreeMergeData@23@I@Z 0000000180162640 f   GuAABBTree.obj
 0001:00161780       ?initMap@AABBTreeUpdateMap@Gu@physx@@QEAAXIAEBVAABBTree@23@@Z 0000000180162780 f   GuAABBTreeUpdateMap.obj
 0001:00161910       ?invalidate@AABBTreeUpdateMap@Gu@physx@@QEAAXIIAEAVAABBTree@23@@Z 0000000180162910 f   GuAABBTreeUpdateMap.obj
 0001:00161bb0       ?visualizeTree@@YAXAEAVPxRenderOutput@physx@@IPEBVAABBTree@Gu@2@@Z 0000000180162bb0 f   GuSqInternal.obj
 0001:00161c20       ?visualizeTree@@YAXAEAVPxRenderOutput@physx@@IPEBVBVH@Gu@2@@Z 0000000180162c20 f   GuSqInternal.obj
 0001:00161c90       ?visualizeTree@@YAXAEAVPxRenderOutput@physx@@IPEBVIncrementalAABBTree@Gu@2@PEAVDebugVizCallback@2@@Z 0000000180162c90 f   GuSqInternal.obj
 0001:00161d10       ??$PxSort@PEAXU?$PxLess@PEAX@physx@@V?$PxReflectionAllocator@UAABBTreeIndices@Gu@physx@@@2@@physx@@YAXPEAPEAXIAEBU?$PxLess@PEAX@0@AEBV?$PxReflectionAllocator@UAABBTreeIndices@Gu@physx@@@0@I@Z 0000000180162d10 f i GuIncrementalAABBTree.obj
 0001:00162170       ??$PxSort@PEAXU?$PxLess@PEAX@physx@@V?$PxReflectionAllocator@UIncrementalAABBTreeNodePair@Gu@physx@@@2@@physx@@YAXPEAPEAXIAEBU?$PxLess@PEAX@0@AEBV?$PxReflectionAllocator@UIncrementalAABBTreeNodePair@Gu@physx@@@0@I@Z 0000000180163170 f i GuIncrementalAABBTree.obj
 0001:001625d0       ??0IncrementalAABBTree@Gu@physx@@QEAA@XZ 00000001801635d0 f   GuIncrementalAABBTree.obj
 0001:00162650       ??1?$PxPoolBase@UAABBTreeIndices@Gu@physx@@V?$PxReflectionAllocator@UAABBTreeIndices@Gu@physx@@@3@@physx@@QEAA@XZ 0000000180163650 f i GuIncrementalAABBTree.obj
 0001:001627b0       ??1?$PxPoolBase@UIncrementalAABBTreeNodePair@Gu@physx@@V?$PxReflectionAllocator@UIncrementalAABBTreeNodePair@Gu@physx@@@3@@physx@@QEAA@XZ 00000001801637b0 f i GuIncrementalAABBTree.obj
 0001:00162910       ??1IncrementalAABBTree@Gu@physx@@QEAA@XZ 0000000180163910 f   GuIncrementalAABBTree.obj
 0001:00162950       ?allocate@?$PxArray@PEAXV?$PxReflectionAllocator@UAABBTreeIndices@Gu@physx@@@physx@@@physx@@IEAAPEAPEAXI@Z 0000000180163950 f i GuIncrementalAABBTree.obj
 0001:001629e0       ?allocate@?$PxArray@PEAXV?$PxReflectionAllocator@UIncrementalAABBTreeNodePair@Gu@physx@@@physx@@@physx@@IEAAPEAPEAXI@Z 00000001801639e0 f i GuIncrementalAABBTree.obj
 0001:00162a70       ?allocate@?$PxPoolBase@UAABBTreeIndices@Gu@physx@@V?$PxReflectionAllocator@UAABBTreeIndices@Gu@physx@@@3@@physx@@QEAAPEAUAABBTreeIndices@Gu@2@XZ 0000000180163a70 f i GuIncrementalAABBTree.obj
 0001:00162b60       ?allocate@?$PxPoolBase@UIncrementalAABBTreeNodePair@Gu@physx@@V?$PxReflectionAllocator@UIncrementalAABBTreeNodePair@Gu@physx@@@3@@physx@@QEAAPEAUIncrementalAABBTreeNodePair@Gu@2@XZ 0000000180163b60 f i GuIncrementalAABBTree.obj
 0001:00162c50       ?build@IncrementalAABBTree@Gu@physx@@QEAA_NAEBVAABBTreeBuildParams@23@AEAV?$PxArray@PEAVIncrementalAABBTreeNode@Gu@physx@@V?$PxReflectionAllocator@PEAVIncrementalAABBTreeNode@Gu@physx@@@3@@3@@Z 0000000180163c50 f   GuIncrementalAABBTree.obj
 0001:00162e30       ?clone@IncrementalAABBTree@Gu@physx@@AEAAXAEAV?$PxArray@PEAVIncrementalAABBTreeNode@Gu@physx@@V?$PxReflectionAllocator@PEAVIncrementalAABBTreeNode@Gu@physx@@@3@@3@PEBIPEAPEAVIncrementalAABBTreeNode@23@@Z 0000000180163e30 f   GuIncrementalAABBTree.obj
 0001:00163320       ?copy@IncrementalAABBTree@Gu@physx@@QEAAXAEBVBVH@23@AEAV?$PxArray@PEAVIncrementalAABBTreeNode@Gu@physx@@V?$PxReflectionAllocator@PEAVIncrementalAABBTreeNode@Gu@physx@@@3@@3@@Z 0000000180164320 f   GuIncrementalAABBTree.obj
 0001:001633d0       ?copyNode@IncrementalAABBTree@Gu@physx@@AEAAXAEAVIncrementalAABBTreeNode@23@AEBUBVHNode@23@PEBU523@PEAV423@PEBIAEAV?$PxArray@PEAVIncrementalAABBTreeNode@Gu@physx@@V?$PxReflectionAllocator@PEAVIncrementalAABBTreeNode@Gu@physx@@@3@@3@@Z 00000001801643d0 f   GuIncrementalAABBTree.obj
 0001:00163590       ?fixupTreeIndices@IncrementalAABBTree@Gu@physx@@QEAAXPEAVIncrementalAABBTreeNode@23@II@Z 0000000180164590 f   GuIncrementalAABBTree.obj
 0001:001635c0       ?getTreeLeafDepth@IncrementalAABBTree@Gu@physx@@QEAAIPEAVIncrementalAABBTreeNode@23@@Z 00000001801645c0 f   GuIncrementalAABBTree.obj
 0001:001635e0       ?growAndPushBack@?$PxArray@PEAVIncrementalAABBTreeNode@Gu@physx@@V?$PxReflectionAllocator@PEAVIncrementalAABBTreeNode@Gu@physx@@@3@@physx@@IEAAAEAPEAVIncrementalAABBTreeNode@Gu@2@AEBQEAV342@@Z 00000001801645e0 f i GuIncrementalAABBTree.obj
 0001:00163700       ?growAndPushBack@?$PxArray@PEAXV?$PxReflectionAllocator@UAABBTreeIndices@Gu@physx@@@physx@@@physx@@IEAAAEAPEAXAEBQEAX@Z 0000000180164700 f i GuIncrementalAABBTree.obj
 0001:001637c0       ?growAndPushBack@?$PxArray@PEAXV?$PxReflectionAllocator@UIncrementalAABBTreeNodePair@Gu@physx@@@physx@@@physx@@IEAAAEAPEAXAEBQEAX@Z 00000001801647c0 f i GuIncrementalAABBTree.obj
 0001:00163880       ?hierarchyCheck@IncrementalAABBTree@Gu@physx@@QEAAXIPEBVPxBounds3@3@@Z 0000000180164880 f   GuIncrementalAABBTree.obj
 0001:001639d0       ?hierarchyCheck@IncrementalAABBTree@Gu@physx@@QEAAXPEBVPxBounds3@3@@Z 00000001801649d0 f   GuIncrementalAABBTree.obj
 0001:00163b40       ?insert@IncrementalAABBTree@Gu@physx@@QEAAPEAVIncrementalAABBTreeNode@23@IPEBVPxBounds3@3@AEAV?$PxArray@PEAVIncrementalAABBTreeNode@Gu@physx@@V?$PxReflectionAllocator@PEAVIncrementalAABBTreeNode@Gu@physx@@@3@@3@@Z 0000000180164b40 f   GuIncrementalAABBTree.obj
 0001:00164220       ?recreate@?$PxArray@PEAXV?$PxReflectionAllocator@UAABBTreeIndices@Gu@physx@@@physx@@@physx@@IEAAXI@Z 0000000180165220 f i GuIncrementalAABBTree.obj
 0001:001642c0       ?recreate@?$PxArray@PEAXV?$PxReflectionAllocator@UIncrementalAABBTreeNodePair@Gu@physx@@@physx@@@physx@@IEAAXI@Z 00000001801652c0 f i GuIncrementalAABBTree.obj
 0001:00164360       ?release@IncrementalAABBTree@Gu@physx@@QEAAXXZ 0000000180165360 f   GuIncrementalAABBTree.obj
 0001:00164390       ?releaseNode@IncrementalAABBTree@Gu@physx@@AEAAXPEAVIncrementalAABBTreeNode@23@@Z 0000000180165390 f   GuIncrementalAABBTree.obj
 0001:00164420       ?remove@IncrementalAABBTree@Gu@physx@@QEAAPEAVIncrementalAABBTreeNode@23@PEAV423@IPEBVPxBounds3@3@@Z 0000000180165420 f   GuIncrementalAABBTree.obj
 0001:00164740       ?rotateTree@IncrementalAABBTree@Gu@physx@@AEAAXPEAVIncrementalAABBTreeNode@23@AEAV?$PxArray@PEAVIncrementalAABBTreeNode@Gu@physx@@V?$PxReflectionAllocator@PEAVIncrementalAABBTreeNode@Gu@physx@@@3@@3@IPEBVPxBounds3@3@_N@Z 0000000180165740 f   GuIncrementalAABBTree.obj
 0001:001650a0       ?shiftOrigin@IncrementalAABBTree@Gu@physx@@QEAAXAEBV?$PxVec3T@M@3@@Z 00000001801660a0 f   GuIncrementalAABBTree.obj
 0001:00165100       ?splitLeafNode@IncrementalAABBTree@Gu@physx@@AEAAPEAVIncrementalAABBTreeNode@23@PEAV423@IAEBT__m128@@1PEBVPxBounds3@3@@Z 0000000180166100 f   GuIncrementalAABBTree.obj
 0001:001653f0       ?update@IncrementalAABBTree@Gu@physx@@QEAAPEAVIncrementalAABBTreeNode@23@PEAV423@IPEBVPxBounds3@3@AEAV?$PxArray@PEAVIncrementalAABBTreeNode@Gu@physx@@V?$PxReflectionAllocator@PEAVIncrementalAABBTreeNode@Gu@physx@@@3@@3@@Z 00000001801663f0 f   GuIncrementalAABBTree.obj
 0001:001654b0       ?updateFast@IncrementalAABBTree@Gu@physx@@QEAAPEAVIncrementalAABBTreeNode@23@PEAV423@IPEBVPxBounds3@3@AEAV?$PxArray@PEAVIncrementalAABBTreeNode@Gu@physx@@V?$PxReflectionAllocator@PEAVIncrementalAABBTreeNode@Gu@physx@@@3@@3@@Z 00000001801664b0 f   GuIncrementalAABBTree.obj
 0001:001656d0       ??0SAH_Buffers@Gu@physx@@QEAA@I@Z 00000001801666d0 f   GuSAH.obj
 0001:001657d0       ??1SAH_Buffers@Gu@physx@@QEAA@XZ 00000001801667d0 f   GuSAH.obj
 0001:00165890       ?split@SAH_Buffers@Gu@physx@@QEAA_NAEAIIPEIBIPEIBVPxBounds3@3@PEIBV?$PxVec3T@M@3@@Z 0000000180166890 f   GuSAH.obj
 0001:00165f80       ??0BVH@Gu@physx@@QEAA@AEBUPxBVHInternalData@2@@Z 0000000180166f80 f   GuBVH.obj
 0001:00166040       ??0BVH@Gu@physx@@QEAA@PEAVMeshFactory@12@@Z 0000000180167040 f   GuBVH.obj
 0001:001660b0       ??0BVH@Gu@physx@@QEAA@PEAVMeshFactory@12@AEAVBVHData@12@@Z 00000001801670b0 f   GuBVH.obj
 0001:00166160       ??1BVHData@Gu@physx@@QEAA@XZ 0000000180167160 f i GuBVH.obj
 0001:00169924       ??_EBVH@Gu@physx@@WBA@EAAPEAXI@Z 000000018016a924 f i GuBVH.obj
 0001:00169930       ??_EBVH@Gu@physx@@UEAAPEAXI@Z 000000018016a930 f i GuBVH.obj
 0001:00169930       ??_GBVH@Gu@physx@@UEAAPEAXI@Z 000000018016a930 f i GuBVH.obj
 0001:001699c0       ??_ERefCountable@Cm@physx@@UEAAPEAXI@Z 000000018016a9c0 f i GuBVH.obj
 0001:001699c0       ??_GRefCountable@Cm@physx@@UEAAPEAXI@Z 000000018016a9c0 f i GuBVH.obj
 0001:00169bf0       ?allocate@?$PxArray@PEBUBVHNode@Gu@physx@@V?$PxInlineAllocator@$0IAA@V?$PxReflectionAllocator@PEBUBVHNode@Gu@physx@@@physx@@@3@@physx@@IEAAPEAPEBUBVHNode@Gu@2@I@Z 000000018016abf0 f i GuBVH.obj
 0001:00169cb0       ?build@BVHData@Gu@physx@@QEAA_NIPEBXIMIW4BVHBuildStrategy@23@@Z 000000018016acb0 f   GuBVH.obj
 0001:0016a0b0       ?cull@BVH@Gu@physx@@UEBA_NIPEBVPxPlane@3@AEAUOverlapCallback@PxBVH@3@V?$PxFlags@W4Enum@PxGeometryQueryFlag@physx@@I@3@@Z 000000018016b0b0 f   GuBVH.obj
 0001:0016a9f0       ?getConcreteTypeName@PxBVH@physx@@UEBAPEBDXZ 000000018016b9f0 f i GuBVH.obj
 0001:0016aa00       ?init@BVH@Gu@physx@@QEAA_NIPEAVAABBTreeBounds@23@PEBXIW4BVHBuildStrategy@23@IM@Z 000000018016ba00 f   GuBVH.obj
 0001:0016ae10       ?isKindOf@PxBVH@physx@@MEBA_NPEBD@Z 000000018016be10 f i GuBVH.obj
 0001:0016ae80       ?load@BVH@Gu@physx@@QEAA_NAEAVPxInputStream@3@@Z 000000018016be80 f   GuBVH.obj
 0001:0016b010       ?onRefCountZero@BVH@Gu@physx@@UEAAXXZ 000000018016c010 f   GuBVH.obj
 0001:0016b0f0       ?onRefCountZero@RefCountable@Cm@physx@@UEAAXXZ 000000018016c0f0 f i GuBVH.obj
 0001:0016b110       ?overlap@BVH@Gu@physx@@QEBA_NAEBVShapeData@23@AEAUOverlapCallback@PxBVH@3@V?$PxFlags@W4Enum@PxGeometryQueryFlag@physx@@I@3@@Z 000000018016c110 f   GuBVH.obj
 0001:0016b940       ?overlap@BVH@Gu@physx@@UEBA_NAEBVPxGeometry@3@AEBV?$PxTransformT@M@3@AEAUOverlapCallback@PxBVH@3@V?$PxFlags@W4Enum@PxGeometryQueryFlag@physx@@I@3@@Z 000000018016c940 f   GuBVH.obj
 0001:0016b9a0       ?partialRefit@BVH@Gu@physx@@UEAAXXZ 000000018016c9a0 f   GuBVH.obj
 0001:0016b9b0       ?raycast@BVH@Gu@physx@@UEBA_NAEBV?$PxVec3T@M@3@0MAEAURaycastCallback@PxBVH@3@V?$PxFlags@W4Enum@PxGeometryQueryFlag@physx@@I@3@@Z 000000018016c9b0 f   GuBVH.obj
 0001:0016bae0       ?recreate@?$PxArray@PEBUBVHNode@Gu@physx@@V?$PxInlineAllocator@$0IAA@V?$PxReflectionAllocator@PEBUBVHNode@Gu@physx@@@physx@@@3@@physx@@IEAAXI@Z 000000018016cae0 f i GuBVH.obj
 0001:0016bba0       ?refit@BVH@Gu@physx@@UEAAXXZ 000000018016cba0 f   GuBVH.obj
 0001:0016bbb0       ?release@BVH@Gu@physx@@UEAAXXZ 000000018016cbb0 f   GuBVH.obj
 0001:0016bbe0       ?resizeUninitialized@?$PxArray@PEBUBVHNode@Gu@physx@@V?$PxInlineAllocator@$0IAA@V?$PxReflectionAllocator@PEBUBVHNode@Gu@physx@@@physx@@@3@@physx@@QEAAXI@Z 000000018016cbe0 f i GuBVH.obj
 0001:0016bc30       ?save@BVHData@Gu@physx@@QEBA_NAEAVPxOutputStream@3@_N@Z 000000018016cc30 f   GuBVH.obj
 0001:0016bda0       ?sweep@BVH@Gu@physx@@QEBA_NAEBVShapeData@23@AEBV?$PxVec3T@M@3@MAEAURaycastCallback@PxBVH@3@V?$PxFlags@W4Enum@PxGeometryQueryFlag@physx@@I@3@@Z 000000018016cda0 f   GuBVH.obj
 0001:0016bf90       ?sweep@BVH@Gu@physx@@UEBA_NAEBVPxGeometry@3@AEBV?$PxTransformT@M@3@AEBV?$PxVec3T@M@3@MAEAURaycastCallback@PxBVH@3@V?$PxFlags@W4Enum@PxGeometryQueryFlag@physx@@I@3@@Z 000000018016cf90 f   GuBVH.obj
 0001:0016c010       ?traverse@BVH@Gu@physx@@UEBA_NAEAUTraversalCallback@PxBVH@3@@Z 000000018016d010 f   GuBVH.obj
 0001:0016c180       ?updateBounds@BVH@Gu@physx@@UEAA_NIAEBVPxBounds3@3@@Z 000000018016d180 f   GuBVH.obj
 0001:0016c230       ?updateBoundsInternal@BVH@Gu@physx@@QEAA_NIAEBVPxBounds3@3@@Z 000000018016d230 f   GuBVH.obj
 0001:0016c2e0       PxFindOverlap              000000018016d2e0 f   GuBVH.obj
 0001:0016c3d0       PxGetBVHInternalData       000000018016d3d0 f   GuBVH.obj
 0001:0016c410       ??0IncrementalAABBPrunerCore@Gu@physx@@QEAA@PEBVPruningPool@12@@Z 000000018016d410 f   GuIncrementalAABBPrunerCore.obj
 0001:0016c520       ??1IncrementalAABBPrunerCore@Gu@physx@@QEAA@XZ 000000018016d520 f   GuIncrementalAABBPrunerCore.obj
 0001:0016c690       ??R?$AABBTreeOverlap@$00U?$OBBAABBTests@$00@Gu@physx@@VIncrementalAABBTree@23@VIncrementalAABBTreeNode@23@UOverlapCallbackAdapter@23@@Gu@physx@@QEAA_NAEBVAABBTreeBounds@12@AEBVIncrementalAABBTree@12@AEBU?$OBBAABBTests@$00@12@AEAUOverlapCallbackAdapter@12@@Z 000000018016d690 f i GuIncrementalAABBPrunerCore.obj
 0001:0016cc30       ??R?$AABBTreeOverlap@$00UAABBAABBTest@Gu@physx@@VIncrementalAABBTree@23@VIncrementalAABBTreeNode@23@UOverlapCallbackAdapter@23@@Gu@physx@@QEAA_NAEBVAABBTreeBounds@12@AEBVIncrementalAABBTree@12@AEBUAABBAABBTest@12@AEAUOverlapCallbackAdapter@12@@Z 000000018016dc30 f i GuIncrementalAABBPrunerCore.obj
 0001:0016ce90       ??R?$AABBTreeOverlap@$00UCapsuleAABBTest@Gu@physx@@VIncrementalAABBTree@23@VIncrementalAABBTreeNode@23@UOverlapCallbackAdapter@23@@Gu@physx@@QEAA_NAEBVAABBTreeBounds@12@AEBVIncrementalAABBTree@12@AEBUCapsuleAABBTest@12@AEAUOverlapCallbackAdapter@12@@Z 000000018016de90 f i GuIncrementalAABBPrunerCore.obj
 0001:0016d1d0       ??R?$AABBTreeRaycast@$00$00VIncrementalAABBTree@Gu@physx@@VIncrementalAABBTreeNode@23@URaycastCallbackAdapter@23@@Gu@physx@@QEAA_NAEBVAABBTreeBounds@12@AEBVIncrementalAABBTree@12@AEBV?$PxVec3T@M@2@2AEAM2AEAURaycastCallbackAdapter@12@@Z 000000018016e1d0 f i GuIncrementalAABBPrunerCore.obj
 0001:0016d890       ??R?$AABBTreeRaycast@$0A@$00VIncrementalAABBTree@Gu@physx@@VIncrementalAABBTreeNode@23@URaycastCallbackAdapter@23@@Gu@physx@@QEAA_NAEBVAABBTreeBounds@12@AEBVIncrementalAABBTree@12@AEBV?$PxVec3T@M@2@2AEAM2AEAURaycastCallbackAdapter@12@@Z 000000018016e890 f i GuIncrementalAABBPrunerCore.obj
 0001:0016dec0       ?addObject@IncrementalAABBPrunerCore@Gu@physx@@QEAA_NII@Z 000000018016eec0 f   GuIncrementalAABBPrunerCore.obj
 0001:0016dfb0       ?allocate@?$PxArray@PEBVIncrementalAABBTreeNode@Gu@physx@@V?$PxInlineAllocator@$0IAA@V?$PxReflectionAllocator@PEBVIncrementalAABBTreeNode@Gu@physx@@@physx@@@3@@physx@@IEAAPEAPEBVIncrementalAABBTreeNode@Gu@2@I@Z 000000018016efb0 f i GuIncrementalAABBPrunerCore.obj
 0001:0016e070       ?clear@?$PxHashMapBase@IPEAVIncrementalAABBTreeNode@Gu@physx@@U?$PxHash@I@3@VPxAllocator@3@@physx@@QEAAXXZ 000000018016f070 f i GuIncrementalAABBPrunerCore.obj
 0001:0016e070       ?clear@?$PxHashMapBase@UPrunerPayload@Gu@physx@@UExtendedBucketPrunerData@23@UExtendedBucketPrunerHash@23@VPxAllocator@3@@physx@@QEAAXXZ 000000018016f070 f i GuExtendedBucketPruner.obj
 0001:0016e100       ?create@?$PxHashBase@V?$PxPair@$$CBIPEAVIncrementalAABBTreeNode@Gu@physx@@@physx@@IU?$PxHash@I@2@UGetKey@?$PxHashMapBase@IPEAVIncrementalAABBTreeNode@Gu@physx@@U?$PxHash@I@3@VPxAllocator@3@@2@VPxAllocator@2@$00@physx@@QEAAPEAV?$PxPair@$$CBIPEAVIncrementalAABBTreeNode@Gu@physx@@@2@AEBIAEA_N@Z 000000018016f100 f i GuIncrementalAABBPrunerCore.obj
 0001:0016e250       ?erase@?$PxHashBase@V?$PxPair@$$CBIPEAVIncrementalAABBTreeNode@Gu@physx@@@physx@@IU?$PxHash@I@2@UGetKey@?$PxHashMapBase@IPEAVIncrementalAABBTreeNode@Gu@physx@@U?$PxHash@I@3@VPxAllocator@3@@2@VPxAllocator@2@$00@physx@@QEAA_NAEBIAEAV?$PxPair@$$CBIPEAVIncrementalAABBTreeNode@Gu@physx@@@2@@Z 000000018016f250 f i GuIncrementalAABBPrunerCore.obj
 0001:0016e3c0       ?getCurrentWorldBoxes@PruningPool@Gu@physx@@QEAAPEAVPxBounds3@3@XZ 000000018016f3c0 f i GuIncrementalAABBPrunerCore.obj
 0001:0016e3c0       ?getCurrentWorldBoxes@PruningPool@Gu@physx@@QEBAPEBVPxBounds3@3@XZ 000000018016f3c0 f i GuIncrementalAABBPrunerCore.obj
 0001:0016e3c0       ?getMesh@CollisionTetrahedronMeshData@Gu@physx@@UEAAPEAVPxTetrahedronMeshData@3@XZ 000000018016f3c0 f i GuCookingTetrahedronMesh.obj
 0001:0016e3c0       ?getMesh@CollisionTetrahedronMeshData@Gu@physx@@UEBAPEBVPxTetrahedronMeshData@3@XZ 000000018016f3c0 f i GuCookingTetrahedronMesh.obj
 0001:0016e3c0       ?getMesh@SimulationTetrahedronMeshData@Gu@physx@@UEAAPEAVPxTetrahedronMeshData@3@XZ 000000018016f3c0 f i GuCookingTetrahedronMesh.obj
 0001:0016e3d0       ?getGlobalBounds@IncrementalAABBPrunerCore@Gu@physx@@QEBAXAEAVPxBounds3@3@@Z 000000018016f3d0 f   GuIncrementalAABBPrunerCore.obj
 0001:0016e500       ?getIndex@PruningPool@Gu@physx@@QEBAII@Z 000000018016f500 f i GuIncrementalAABBPrunerCore.obj
 0001:0016e510       ?getPayloadData@PruningPool@Gu@physx@@QEBAAEBUPrunerPayload@23@IPEAUPrunerPayloadData@23@@Z 000000018016f510 f i GuIncrementalAABBPrunerCore.obj
 0001:0016e560       ?overlap@IncrementalAABBPrunerCore@Gu@physx@@QEBA_NAEBVShapeData@23@AEAUPrunerOverlapCallback@23@@Z 000000018016f560 f   GuIncrementalAABBPrunerCore.obj
 0001:0016f0d0       ?raycast@IncrementalAABBPrunerCore@Gu@physx@@QEBA_NAEBV?$PxVec3T@M@3@0AEAMAEAUPrunerRaycastCallback@23@@Z 00000001801700d0 f   GuIncrementalAABBPrunerCore.obj
 0001:0016f1e0       ?recreate@?$PxArray@PEAVIncrementalAABBTreeNode@Gu@physx@@V?$PxReflectionAllocator@PEAVIncrementalAABBTreeNode@Gu@physx@@@3@@physx@@IEAAXI@Z 00000001801701e0 f i GuIncrementalAABBPrunerCore.obj
 0001:0016f2d0       ?recreate@?$PxArray@PEBVIncrementalAABBTreeNode@Gu@physx@@V?$PxInlineAllocator@$0IAA@V?$PxReflectionAllocator@PEBVIncrementalAABBTreeNode@Gu@physx@@@physx@@@3@@physx@@IEAAXI@Z 00000001801702d0 f i GuIncrementalAABBPrunerCore.obj
 0001:0016f390       ?release@IncrementalAABBPrunerCore@Gu@physx@@QEAAXXZ 0000000180170390 f   GuIncrementalAABBPrunerCore.obj
 0001:0016f490       ?removeMarkedObjects@IncrementalAABBPrunerCore@Gu@physx@@QEAAII@Z 0000000180170490 f   GuIncrementalAABBPrunerCore.obj
 0001:0016f4f0       ?removeObject@IncrementalAABBPrunerCore@Gu@physx@@QEAA_NIIAEAI@Z 00000001801704f0 f   GuIncrementalAABBPrunerCore.obj
 0001:0016f700       ?reserveInternal@?$PxHashBase@V?$PxPair@$$CBIPEAVIncrementalAABBTreeNode@Gu@physx@@@physx@@IU?$PxHash@I@2@UGetKey@?$PxHashMapBase@IPEAVIncrementalAABBTreeNode@Gu@physx@@U?$PxHash@I@3@VPxAllocator@3@@2@VPxAllocator@2@$00@physx@@AEAAXI@Z 0000000180170700 f i GuIncrementalAABBPrunerCore.obj
 0001:0016f8c0       ?resizeUninitialized@?$PxArray@PEBVIncrementalAABBTreeNode@Gu@physx@@V?$PxInlineAllocator@$0IAA@V?$PxReflectionAllocator@PEBVIncrementalAABBTreeNode@Gu@physx@@@physx@@@3@@physx@@QEAAXI@Z 00000001801708c0 f i GuIncrementalAABBPrunerCore.obj
 0001:0016f910       ?setTransform@PruningPool@Gu@physx@@QEAA_NIAEBV?$PxTransformT@M@3@@Z 0000000180170910 f i GuIncrementalAABBPrunerCore.obj
 0001:0016f970       ?shiftOrigin@IncrementalAABBPrunerCore@Gu@physx@@QEAAXAEBV?$PxVec3T@M@3@@Z 0000000180170970 f   GuIncrementalAABBPrunerCore.obj
 0001:0016f9b0       ?swapIndex@IncrementalAABBPrunerCore@Gu@physx@@QEAAXII@Z 00000001801709b0 f   GuIncrementalAABBPrunerCore.obj
 0001:0016fa90       ?sweep@IncrementalAABBPrunerCore@Gu@physx@@QEBA_NAEBVShapeData@23@AEBV?$PxVec3T@M@3@AEAMAEAUPrunerRaycastCallback@23@@Z 0000000180170a90 f   GuIncrementalAABBPrunerCore.obj
 0001:0016fcb0       ?updateMapping@IncrementalAABBPrunerCore@Gu@physx@@AEAAXAEAV?$PxHashMap@IPEAVIncrementalAABBTreeNode@Gu@physx@@U?$PxHash@I@3@VPxAllocator@3@@3@IPEAVIncrementalAABBTreeNode@23@@Z 0000000180170cb0 f   GuIncrementalAABBPrunerCore.obj
 0001:0016fe00       ?updateObject@IncrementalAABBPrunerCore@Gu@physx@@QEAA_NI@Z 0000000180170e00 f   GuIncrementalAABBPrunerCore.obj
 0001:0016ffa0       ?visualize@IncrementalAABBPrunerCore@Gu@physx@@QEBAXAEAVPxRenderOutput@3@I@Z 0000000180170fa0 f   GuIncrementalAABBPrunerCore.obj
 0001:00170000       ??0IncrementalAABBPruner@Gu@physx@@QEAA@I_K@Z 0000000180171000 f   GuIncrementalAABBPruner.obj
 0001:001700b0       ??R?$AABBTreeOverlap@$00USphereAABBTest@Gu@physx@@VIncrementalAABBTree@23@VIncrementalAABBTreeNode@23@UOverlapCallbackAdapter@23@@Gu@physx@@QEAA_NAEBVAABBTreeBounds@12@AEBVIncrementalAABBTree@12@AEBUSphereAABBTest@12@AEAUOverlapCallbackAdapter@12@@Z 00000001801710b0 f i GuIncrementalAABBPruner.obj
 0001:00170380       ??_EBasePruner@Gu@physx@@UEAAPEAXI@Z 0000000180171380 f i GuIncrementalAABBPruner.obj
 0001:00170380       ??_GBasePruner@Gu@physx@@UEAAPEAXI@Z 0000000180171380 f i GuIncrementalAABBPruner.obj
 0001:001703d0       ??_EIncrementalAABBPruner@Gu@physx@@UEAAPEAXI@Z 00000001801713d0 f i GuIncrementalAABBPruner.obj
 0001:001703d0       ??_GIncrementalAABBPruner@Gu@physx@@UEAAPEAXI@Z 00000001801713d0 f i GuIncrementalAABBPruner.obj
 0001:001704e0       ?addObjects@IncrementalAABBPruner@Gu@physx@@UEAA_NPEAIPEBVPxBounds3@3@PEBUPrunerPayload@23@PEBV?$PxTransformT@M@3@I_N@Z 00000001801714e0 f   GuIncrementalAABBPruner.obj
 0001:00170650       ?commit@IncrementalAABBPruner@Gu@physx@@UEAAXXZ 0000000180171650 f   GuIncrementalAABBPruner.obj
 0001:00170820       ?getGlobalBounds@IncrementalAABBPruner@Gu@physx@@UEBAXAEAVPxBounds3@3@@Z 0000000180171820 f   GuIncrementalAABBPruner.obj
 0001:00170890       ?getPayloadData@IncrementalAABBPruner@Gu@physx@@UEBAAEBUPrunerPayload@23@IPEAUPrunerPayloadData@23@@Z 0000000180171890 f i GuIncrementalAABBPruner.obj
 0001:001708e0       ?overlap@IncrementalAABBPruner@Gu@physx@@UEBA_NAEBVShapeData@23@AEAUPrunerOverlapCallback@23@@Z 00000001801718e0 f   GuIncrementalAABBPruner.obj
 0001:00170ff0       ?preallocate@IncrementalAABBPruner@Gu@physx@@UEAAXI@Z 0000000180171ff0 f i GuIncrementalAABBPruner.obj
 0001:00171000       ?purge@IncrementalAABBPruner@Gu@physx@@UEAAXXZ 0000000180172000 f   GuIncrementalAABBPruner.obj
 0001:00171050       ?raycast@IncrementalAABBPruner@Gu@physx@@UEBA_NAEBV?$PxVec3T@M@3@0AEAMAEAUPrunerRaycastCallback@23@@Z 0000000180172050 f   GuIncrementalAABBPruner.obj
 0001:001710d0       ?removeObjects@IncrementalAABBPruner@Gu@physx@@UEAAXPEBIIPEAUPrunerPayloadRemovalCallback@23@@Z 00000001801720d0 f   GuIncrementalAABBPruner.obj
 0001:001712c0       ?resize@?$PxArray@PEAVIncrementalAABBTreeNode@Gu@physx@@V?$PxReflectionAllocator@PEAVIncrementalAABBTreeNode@Gu@physx@@@3@@physx@@QEAAXIAEBQEAVIncrementalAABBTreeNode@Gu@2@@Z 00000001801722c0 f i GuIncrementalAABBPruner.obj
 0001:00171380       ?resizeUninitialized@?$PxArray@PEAVIncrementalAABBTreeNode@Gu@physx@@V?$PxReflectionAllocator@PEAVIncrementalAABBTreeNode@Gu@physx@@@3@@physx@@QEAAXI@Z 0000000180172380 f i GuIncrementalAABBPruner.obj
 0001:001713c0       ?setTransform@IncrementalAABBPruner@Gu@physx@@UEAA_NIAEBV?$PxTransformT@M@3@@Z 00000001801723c0 f i GuIncrementalAABBPruner.obj
 0001:00171420       ?shiftOrigin@IncrementalAABBPruner@Gu@physx@@UEAAXAEBV?$PxVec3T@M@3@@Z 0000000180172420 f   GuIncrementalAABBPruner.obj
 0001:00171460       ?sweep@IncrementalAABBPruner@Gu@physx@@UEBA_NAEBVShapeData@23@AEBV?$PxVec3T@M@3@AEAMAEAUPrunerRaycastCallback@23@@Z 0000000180172460 f   GuIncrementalAABBPruner.obj
 0001:00171580       ?updateMapping@IncrementalAABBPruner@Gu@physx@@AEAAXIPEAVIncrementalAABBTreeNode@23@@Z 0000000180172580 f   GuIncrementalAABBPruner.obj
 0001:00171670       ?updateObjects@IncrementalAABBPruner@Gu@physx@@UEAAXPEBIIM0PEBVPxBounds3@3@PEBUPxTransformPadded@3@@Z 0000000180172670 f   GuIncrementalAABBPruner.obj
 0001:00171820       ?visualize@IncrementalAABBPruner@Gu@physx@@UEBAXAEAVPxRenderOutput@3@II@Z 0000000180172820 f   GuIncrementalAABBPruner.obj
 0001:00171a10       ??0PruningPool@Gu@physx@@QEAA@_KW4TransformCacheMode@12@@Z 0000000180172a10 f   GuPruningPool.obj
 0001:00171a40       ??1PruningPool@Gu@physx@@QEAA@XZ 0000000180172a40 f   GuPruningPool.obj
 0001:00171b10       ?addObjects@PruningPool@Gu@physx@@QEAAIPEAIPEBVPxBounds3@3@PEBUPrunerPayload@23@PEBV?$PxTransformT@M@3@I@Z 0000000180172b10 f   GuPruningPool.obj
 0001:00171d80       ?preallocate@PruningPool@Gu@physx@@QEAAXI@Z 0000000180172d80 f   GuPruningPool.obj
 0001:00171d90       ?removeObject@PruningPool@Gu@physx@@QEAAIIPEAUPrunerPayloadRemovalCallback@23@@Z 0000000180172d90 f   GuPruningPool.obj
 0001:00171f60       ?resize@PruningPool@Gu@physx@@QEAA_NI@Z 0000000180172f60 f   GuPruningPool.obj
 0001:00172300       ?shiftOrigin@PruningPool@Gu@physx@@QEAAXAEBV?$PxVec3T@M@3@@Z 0000000180173300 f   GuPruningPool.obj
 0001:00172750       ?updateAndInflateBounds@PruningPool@Gu@physx@@QEAAXPEBI0PEBVPxBounds3@3@PEBUPxTransformPadded@3@IM@Z 0000000180173750 f   GuPruningPool.obj
 0001:00174270       ??0BucketPruner@Gu@physx@@QEAA@_K@Z 0000000180175270 f   GuBucketPruner.obj
 0001:001742c0       ??0BucketPrunerCore@Gu@physx@@QEAA@_N@Z 00000001801752c0 f   GuBucketPruner.obj
 0001:00174640       ??1BucketPrunerCore@Gu@physx@@QEAA@XZ 0000000180175640 f   GuBucketPruner.obj
 0001:00174660       ??R?$BucketPrunerOverlapTraversal@UBucketPrunerAABBAABBTest@@$00@@QEBA_NAEBVBucketPrunerCore@Gu@physx@@AEBUBucketPrunerAABBAABBTest@@AEAUPrunerOverlapCallback@23@AEBVPxBounds3@3@@Z 0000000180175660 f i GuBucketPruner.obj
 0001:00174c20       ??R?$BucketPrunerOverlapTraversal@UOBBAABBTest_SIMD@@$0A@@@QEBA_NAEBVBucketPrunerCore@Gu@physx@@AEBUOBBAABBTest_SIMD@@AEAUPrunerOverlapCallback@23@AEBVPxBounds3@3@@Z 0000000180175c20 f i GuBucketPruner.obj
 0001:001754a0       ??R?$BucketPrunerOverlapTraversal@USphereAABBTest_SIMD@@$00@@QEBA_NAEBVBucketPrunerCore@Gu@physx@@AEBUSphereAABBTest_SIMD@@AEAUPrunerOverlapCallback@23@AEBVPxBounds3@3@@Z 00000001801764a0 f i GuBucketPruner.obj
 0001:00175a80       ??_FBucketPrunerCore@Gu@physx@@QEAAXXZ 0000000180176a80 f i GuBucketPruner.obj
 0001:00175a90       ??_EBucketPruner@Gu@physx@@UEAAPEAXI@Z 0000000180176a90 f i GuBucketPruner.obj
 0001:00175a90       ??_GBucketPruner@Gu@physx@@UEAAPEAXI@Z 0000000180176a90 f i GuBucketPruner.obj
 0001:00175b30       ?addObject@BucketPrunerCore@Gu@physx@@QEAA_NAEBUPrunerPayload@23@AEBVPxBounds3@3@AEBV?$PxTransformT@M@3@I@Z 0000000180176b30 f   GuBucketPruner.obj
 0001:00175e40       ?addObjects@BucketPruner@Gu@physx@@UEAA_NPEAIPEBVPxBounds3@3@PEBUPrunerPayload@23@PEBV?$PxTransformT@M@3@I_N@Z 0000000180176e40 f   GuBucketPruner.obj
 0001:00175ed0       ?addPair@BucketPrunerMap@Gu@physx@@QEAAPEAUBucketPrunerPair@23@AEBUPrunerPayload@23@II@Z 0000000180176ed0 f   GuBucketPruner.obj
 0001:001760d0       ?allocateSortedMemory@BucketPrunerCore@Gu@physx@@AEAAXI@Z 00000001801770d0 f   GuBucketPruner.obj
 0001:00176290       ?classifyBoxes@BucketPrunerCore@Gu@physx@@AEAAXXZ 0000000180177290 f   GuBucketPruner.obj
 0001:00176a80       ?classifyBoxes@BucketPrunerNode@Gu@physx@@QEAAXMMIPEIAUBucketBox@23@PEIBUPrunerPayload@23@PEIBV?$PxTransformT@M@3@0PEIAU523@PEIAV63@_NI@Z 0000000180177a80 f   GuBucketPruner.obj
 0001:00177300       ?build@CompanionPrunerBucket@@UEAAXXZ 0000000180178300 f   GuSecondaryPruner.obj
 0001:00177300       ?commit@BucketPruner@Gu@physx@@UEAAXXZ 0000000180178300 f   GuBucketPruner.obj
 0001:00177310       ?findPair@BucketPrunerMap@Gu@physx@@QEBAPEBUBucketPrunerPair@23@AEBUPrunerPayload@23@@Z 0000000180178310 f   GuBucketPruner.obj
 0001:001776f0       ?getGlobalBounds@BucketPruner@Gu@physx@@UEBAXAEAVPxBounds3@3@@Z 00000001801786f0 f   GuBucketPruner.obj
 0001:00177760       ?getGlobalBounds@BucketPrunerCore@Gu@physx@@QEBAXAEAVPxBounds3@3@@Z 0000000180178760 f   GuBucketPruner.obj
 0001:001777d0       ?getPayloadData@BucketPruner@Gu@physx@@UEBAAEBUPrunerPayload@23@IPEAUPrunerPayloadData@23@@Z 00000001801787d0 f i GuBucketPruner.obj
 0001:00177830       ?overlap@BucketPruner@Gu@physx@@UEBA_NAEBVShapeData@23@AEAUPrunerOverlapCallback@23@@Z 0000000180178830 f   GuBucketPruner.obj
 0001:00177850       ?overlap@BucketPrunerCore@Gu@physx@@QEBA_NAEBVShapeData@23@AEAUPrunerOverlapCallback@23@@Z 0000000180178850 f   GuBucketPruner.obj
 0001:00177b30       ?preallocate@BucketPruner@Gu@physx@@UEAAXI@Z 0000000180178b30 f i GuBucketPruner.obj
 0001:00177d10       ?purge@BucketPrunerMap@Gu@physx@@QEAAXXZ 0000000180178d10 f   GuBucketPruner.obj
 0001:00177da0       ?raycast@BucketPruner@Gu@physx@@UEBA_NAEBV?$PxVec3T@M@3@0AEAMAEAUPrunerRaycastCallback@23@@Z 0000000180178da0 f   GuBucketPruner.obj
 0001:00177df0       ?raycast@BucketPrunerCore@Gu@physx@@QEBA_NAEBV?$PxVec3T@M@3@0AEAMAEAUPrunerRaycastCallback@23@@Z 0000000180178df0 f   GuBucketPruner.obj
 0001:00177e30       ?reallocPairs@BucketPrunerMap@Gu@physx@@QEAAXXZ 0000000180178e30 f   GuBucketPruner.obj
 0001:00178070       ?release@BucketPrunerCore@Gu@physx@@QEAAXXZ 0000000180179070 f   GuBucketPruner.obj
 0001:001781b0       ?removeMarkedObjects@BucketPrunerCore@Gu@physx@@QEAAII@Z 00000001801791b0 f   GuBucketPruner.obj
 0001:00178580       ?removeObject@BucketPrunerCore@Gu@physx@@QEAA_NAEBUPrunerPayload@23@AEAI@Z 0000000180179580 f   GuBucketPruner.obj
 0001:00178840       ?removeObjects@BucketPruner@Gu@physx@@UEAAXPEBIIPEAUPrunerPayloadRemovalCallback@23@@Z 0000000180179840 f   GuBucketPruner.obj
 0001:001788f0       ?removePair@BucketPrunerMap@Gu@physx@@QEAA_NAEBUPrunerPayload@23@AEAI1@Z 00000001801798f0 f   GuBucketPruner.obj
 0001:00178a70       ?removePairInternal@BucketPrunerMap@Gu@physx@@QEAAXAEBUPrunerPayload@23@II@Z 0000000180179a70 f   GuBucketPruner.obj
 0001:00178c00       ?resizeCore@BucketPrunerCore@Gu@physx@@AEAAXXZ 0000000180179c00 f   GuBucketPruner.obj
 0001:00178e50       ?setTransform@BucketPruner@Gu@physx@@UEAA_NIAEBV?$PxTransformT@M@3@@Z 0000000180179e50 f i GuBucketPruner.obj
 0001:00178eb0       ?shiftOrigin@BucketPruner@Gu@physx@@UEAAXAEBV?$PxVec3T@M@3@@Z 0000000180179eb0 f   GuBucketPruner.obj
 0001:00178eb0       ?shiftOrigin@CompanionPrunerBucket@@UEAAXAEBV?$PxVec3T@M@physx@@@Z 0000000180179eb0 f   GuSecondaryPruner.obj
 0001:00178ec0       ?shiftOrigin@BucketPrunerCore@Gu@physx@@QEAAXAEBV?$PxVec3T@M@3@@Z 0000000180179ec0 f   GuBucketPruner.obj
 0001:00179cf0       ?sweep@BucketPruner@Gu@physx@@UEBA_NAEBVShapeData@23@AEBV?$PxVec3T@M@3@AEAMAEAUPrunerRaycastCallback@23@@Z 000000018017acf0 f   GuBucketPruner.obj
 0001:00179d10       ?sweep@BucketPrunerCore@Gu@physx@@QEBA_NAEBVShapeData@23@AEBV?$PxVec3T@M@3@AEAMAEAUPrunerRaycastCallback@23@@Z 000000018017ad10 f   GuBucketPruner.obj
 0001:00179de0       ?updateObject@BucketPrunerCore@Gu@physx@@QEAA_NAEBVPxBounds3@3@AEBUPrunerPayload@23@AEBV?$PxTransformT@M@3@@Z 000000018017ade0 f   GuBucketPruner.obj
 0001:00179e40       ?updateObjects@BucketPruner@Gu@physx@@UEAAXPEBIIM0PEBVPxBounds3@3@PEBUPxTransformPadded@3@@Z 000000018017ae40 f   GuBucketPruner.obj
 0001:00179f50       ?visualize@BucketPruner@Gu@physx@@UEBAXAEAVPxRenderOutput@3@II@Z 000000018017af50 f   GuBucketPruner.obj
 0001:00179f50       ?visualize@CompanionPrunerBucket@@UEBAXAEAVPxRenderOutput@physx@@I@Z 000000018017af50 f   GuSecondaryPruner.obj
 0001:00179f60       ?visualize@BucketPrunerCore@Gu@physx@@QEBAXAEAVPxRenderOutput@3@I@Z 000000018017af60 f   GuBucketPruner.obj
 0001:0017a3e0       ?addObject@MaverickNode@Gu@physx@@QEAA_NAEBUPrunerPayload@23@IAEBVPxBounds3@3@AEBV?$PxTransformT@M@3@I@Z 000000018017b3e0 f   GuMaverickNode.obj
 0001:0017a4c0       ?removeMarkedObjects@MaverickNode@Gu@physx@@QEAAII@Z 000000018017b4c0 f   GuMaverickNode.obj
 0001:0017a650       ?removeObject@MaverickNode@Gu@physx@@QEAA_NIAEAI@Z 000000018017b650 f   GuMaverickNode.obj
 0001:0017a7e0       ?shiftOrigin@MaverickNode@Gu@physx@@QEAAXAEBV?$PxVec3T@M@3@@Z 000000018017b7e0 f   GuMaverickNode.obj
 0001:0017a8d0       ?updateObject@MaverickNode@Gu@physx@@QEAA_NIAEBVPxBounds3@3@AEBV?$PxTransformT@M@3@@Z 000000018017b8d0 f   GuMaverickNode.obj
 0001:0017a9b0       ??0ExtendedBucketPruner@Gu@physx@@QEAA@_KW4CompanionPrunerType@12@PEBVPruningPool@12@@Z 000000018017b9b0 f   GuExtendedBucketPruner.obj
 0001:0017abe0       ??1ExtendedBucketPruner@Gu@physx@@QEAA@XZ 000000018017bbe0 f   GuExtendedBucketPruner.obj
 0001:0017ad50       ??R?$AABBTreeOverlap@$00U?$OBBAABBTests@$00@Gu@physx@@VAABBTree@23@UBVHNode@23@U?$MainTreeOverlapPrunerCallback@U?$OBBAABBTests@$00@Gu@physx@@@@@Gu@physx@@QEAA_NAEBVAABBTreeBounds@12@AEBVAABBTree@12@AEBU?$OBBAABBTests@$00@12@AEAU?$MainTreeOverlapPrunerCallback@U?$OBBAABBTests@$00@Gu@physx@@@@@Z 000000018017bd50 f i GuExtendedBucketPruner.obj
 0001:0017b330       ??R?$AABBTreeOverlap@$00U?$OBBAABBTests@$00@Gu@physx@@VAABBTree@23@UBVHNode@23@UOverlapCallbackAdapter@23@@Gu@physx@@QEAA_NAEBVAABBTreeBounds@12@AEBVAABBTree@12@AEBU?$OBBAABBTests@$00@12@AEAUOverlapCallbackAdapter@12@@Z 000000018017c330 f i GuExtendedBucketPruner.obj
 0001:0017b8e0       ??R?$AABBTreeOverlap@$00UAABBAABBTest@Gu@physx@@VAABBTree@23@UBVHNode@23@U?$MainTreeOverlapPrunerCallback@UAABBAABBTest@Gu@physx@@@@@Gu@physx@@QEAA_NAEBVAABBTreeBounds@12@AEBVAABBTree@12@AEBUAABBAABBTest@12@AEAU?$MainTreeOverlapPrunerCallback@UAABBAABBTest@Gu@physx@@@@@Z 000000018017c8e0 f i GuExtendedBucketPruner.obj
 0001:0017bb80       ??R?$AABBTreeOverlap@$00UAABBAABBTest@Gu@physx@@VAABBTree@23@UBVHNode@23@UOverlapCallbackAdapter@23@@Gu@physx@@QEAA_NAEBVAABBTreeBounds@12@AEBVAABBTree@12@AEBUAABBAABBTest@12@AEAUOverlapCallbackAdapter@12@@Z 000000018017cb80 f i GuExtendedBucketPruner.obj
 0001:0017be10       ??R?$AABBTreeOverlap@$00UCapsuleAABBTest@Gu@physx@@VAABBTree@23@UBVHNode@23@U?$MainTreeOverlapPrunerCallback@UCapsuleAABBTest@Gu@physx@@@@@Gu@physx@@QEAA_NAEBVAABBTreeBounds@12@AEBVAABBTree@12@AEBUCapsuleAABBTest@12@AEAU?$MainTreeOverlapPrunerCallback@UCapsuleAABBTest@Gu@physx@@@@@Z 000000018017ce10 f i GuExtendedBucketPruner.obj
 0001:0017c1b0       ??R?$AABBTreeOverlap@$00UCapsuleAABBTest@Gu@physx@@VAABBTree@23@UBVHNode@23@UOverlapCallbackAdapter@23@@Gu@physx@@QEAA_NAEBVAABBTreeBounds@12@AEBVAABBTree@12@AEBUCapsuleAABBTest@12@AEAUOverlapCallbackAdapter@12@@Z 000000018017d1b0 f i GuExtendedBucketPruner.obj
 0001:0017c540       ??R?$AABBTreeOverlap@$00USphereAABBTest@Gu@physx@@VAABBTree@23@UBVHNode@23@U?$MainTreeOverlapPrunerCallback@USphereAABBTest@Gu@physx@@@@@Gu@physx@@QEAA_NAEBVAABBTreeBounds@12@AEBVAABBTree@12@AEBUSphereAABBTest@12@AEAU?$MainTreeOverlapPrunerCallback@USphereAABBTest@Gu@physx@@@@@Z 000000018017d540 f i GuExtendedBucketPruner.obj
 0001:0017c850       ??R?$AABBTreeOverlap@$00USphereAABBTest@Gu@physx@@VAABBTree@23@UBVHNode@23@UOverlapCallbackAdapter@23@@Gu@physx@@QEAA_NAEBVAABBTreeBounds@12@AEBVAABBTree@12@AEBUSphereAABBTest@12@AEAUOverlapCallbackAdapter@12@@Z 000000018017d850 f i GuExtendedBucketPruner.obj
 0001:0017cb40       ??R?$AABBTreeRaycast@$00$00VAABBTree@Gu@physx@@UBVHNode@23@U?$MainTreeRaycastPrunerCallback@$00@@@Gu@physx@@QEAA_NAEBVAABBTreeBounds@12@AEBVAABBTree@12@AEBV?$PxVec3T@M@2@2AEAM2AEAU?$MainTreeRaycastPrunerCallback@$00@@@Z 000000018017db40 f i GuExtendedBucketPruner.obj
 0001:0017d260       ??R?$AABBTreeRaycast@$00$00VAABBTree@Gu@physx@@UBVHNode@23@URaycastCallbackAdapter@23@@Gu@physx@@QEAA_NAEBVAABBTreeBounds@12@AEBVAABBTree@12@AEBV?$PxVec3T@M@2@2AEAM2AEAURaycastCallbackAdapter@12@@Z 000000018017e260 f i GuExtendedBucketPruner.obj
 0001:0017d940       ??R?$AABBTreeRaycast@$0A@$00VAABBTree@Gu@physx@@UBVHNode@23@U?$MainTreeRaycastPrunerCallback@$0A@@@@Gu@physx@@QEAA_NAEBVAABBTreeBounds@12@AEBVAABBTree@12@AEBV?$PxVec3T@M@2@2AEAM2AEAU?$MainTreeRaycastPrunerCallback@$0A@@@@Z 000000018017e940 f i GuExtendedBucketPruner.obj
 0001:0017dff0       ??R?$AABBTreeRaycast@$0A@$00VAABBTree@Gu@physx@@UBVHNode@23@URaycastCallbackAdapter@23@@Gu@physx@@QEAA_NAEBVAABBTreeBounds@12@AEBVAABBTree@12@AEBV?$PxVec3T@M@2@2AEAM2AEAURaycastCallbackAdapter@12@@Z 000000018017eff0 f i GuExtendedBucketPruner.obj
 0001:0017e660       ?addTree@ExtendedBucketPruner@Gu@physx@@QEAAXAEBVAABBTreeMergeData@23@I@Z 000000018017f660 f   GuExtendedBucketPruner.obj
 0001:0017e940       ?buildMainAABBTree@ExtendedBucketPruner@Gu@physx@@AEAAXXZ 000000018017f940 f   GuExtendedBucketPruner.obj
 0001:0017e9f0       ?create@?$PxHashBase@V?$PxPair@$$CBUPrunerPayload@Gu@physx@@UExtendedBucketPrunerData@23@@physx@@UPrunerPayload@Gu@2@UExtendedBucketPrunerHash@42@UGetKey@?$PxHashMapBase@UPrunerPayload@Gu@physx@@UExtendedBucketPrunerData@23@UExtendedBucketPrunerHash@23@VPxAllocator@3@@2@VPxAllocator@2@$00@physx@@QEAAPEAV?$PxPair@$$CBUPrunerPayload@Gu@physx@@UExtendedBucketPrunerData@23@@2@AEBUPrunerPayload@Gu@2@AEA_N@Z 000000018017f9f0 f i GuExtendedBucketPruner.obj
 0001:0017ebc0       ?eraseInternal@?$PxHashBase@V?$PxPair@$$CBUPrunerPayload@Gu@physx@@UExtendedBucketPrunerData@23@@physx@@UPrunerPayload@Gu@2@UExtendedBucketPrunerHash@42@UGetKey@?$PxHashMapBase@UPrunerPayload@Gu@physx@@UExtendedBucketPrunerData@23@UExtendedBucketPrunerHash@23@VPxAllocator@3@@2@VPxAllocator@2@$00@physx@@AEAA_NPEAI@Z 000000018017fbc0 f i GuExtendedBucketPruner.obj
 0001:0017ece0       ?find@?$PxHashMapBase@UPrunerPayload@Gu@physx@@UExtendedBucketPrunerData@23@UExtendedBucketPrunerHash@23@VPxAllocator@3@@physx@@QEBAPEBV?$PxPair@$$CBUPrunerPayload@Gu@physx@@UExtendedBucketPrunerData@23@@2@AEBUPrunerPayload@Gu@2@@Z 000000018017fce0 f i GuExtendedBucketPruner.obj
 0001:0017edd0       ?getGlobalBounds@ExtendedBucketPruner@Gu@physx@@QEBAXAEAVPxBounds3@3@@Z 000000018017fdd0 f   GuExtendedBucketPruner.obj
 0001:0017eea0       ?invalidateObject@ExtendedBucketPruner@Gu@physx@@AEAAXAEBUExtendedBucketPrunerData@23@IAEBUPrunerPayload@23@I@Z 000000018017fea0 f   GuExtendedBucketPruner.obj
 0001:0017efe0       ?overlap@ExtendedBucketPruner@Gu@physx@@QEBA_NAEBVShapeData@23@AEAUPrunerOverlapCallback@23@@Z 000000018017ffe0 f   GuExtendedBucketPruner.obj
 0001:0017f7b0       ?raycast@ExtendedBucketPruner@Gu@physx@@QEBA_NAEBV?$PxVec3T@M@3@0AEAMAEAUPrunerRaycastCallback@23@@Z 00000001801807b0 f   GuExtendedBucketPruner.obj
 0001:0017f890       ?refitMarkedNodes@ExtendedBucketPruner@Gu@physx@@QEAAXPEBVPxBounds3@3@@Z 0000000180180890 f   GuExtendedBucketPruner.obj
 0001:0017fe10       ?release@ExtendedBucketPruner@Gu@physx@@QEAAXXZ 0000000180180e10 f   GuExtendedBucketPruner.obj
 0001:0017fee0       ?removeMarkedObjects@ExtendedBucketPruner@Gu@physx@@QEAAII@Z 0000000180180ee0 f   GuExtendedBucketPruner.obj
 0001:00180200       ?removeObject@ExtendedBucketPruner@Gu@physx@@QEAA_NAEBUPrunerPayload@23@II0I@Z 0000000180181200 f   GuExtendedBucketPruner.obj
 0001:001803f0       ?reserveInternal@?$PxHashBase@V?$PxPair@$$CBUPrunerPayload@Gu@physx@@UExtendedBucketPrunerData@23@@physx@@UPrunerPayload@Gu@2@UExtendedBucketPrunerHash@42@UGetKey@?$PxHashMapBase@UPrunerPayload@Gu@physx@@UExtendedBucketPrunerData@23@UExtendedBucketPrunerHash@23@VPxAllocator@3@@2@VPxAllocator@2@$00@physx@@AEAAXI@Z 00000001801813f0 f i GuExtendedBucketPruner.obj
 0001:001805f0       ?shiftOrigin@ExtendedBucketPruner@Gu@physx@@QEAAXAEBV?$PxVec3T@M@3@@Z 00000001801815f0 f   GuExtendedBucketPruner.obj
 0001:00180670       ?swapIndex@ExtendedBucketPruner@Gu@physx@@QEAAXIAEBUPrunerPayload@23@I_N@Z 0000000180181670 f   GuExtendedBucketPruner.obj
 0001:00180740       ?sweep@ExtendedBucketPruner@Gu@physx@@QEBA_NAEBVShapeData@23@AEBV?$PxVec3T@M@3@AEAMAEAUPrunerRaycastCallback@23@@Z 0000000180181740 f   GuExtendedBucketPruner.obj
 0001:001808d0       ?updateObject@ExtendedBucketPruner@Gu@physx@@QEAA_NAEBVPxBounds3@3@AEBV?$PxTransformT@M@3@AEBUPrunerPayload@23@II@Z 00000001801818d0 f   GuExtendedBucketPruner.obj
 0001:001809a0       ?visualize@ExtendedBucketPruner@Gu@physx@@QEBAXAEAVPxRenderOutput@3@I@Z 00000001801819a0 f   GuExtendedBucketPruner.obj
 0001:00180a30       ??0?$OBBAABBTests@$00@Gu@physx@@QEAA@AEBV?$PxVec3T@M@2@AEBV?$PxMat33T@M@2@0@Z 0000000180181a30 f i GuSecondaryPruner.obj
 0001:00182960       ??_ECompanionPruner@Gu@physx@@UEAAPEAXI@Z 0000000180183960 f i GuSecondaryPruner.obj
 0001:00182960       ??_GCompanionPruner@Gu@physx@@UEAAPEAXI@Z 0000000180183960 f i GuSecondaryPruner.obj
 0001:001829b0       ??_ECompanionPrunerAABBTree@@UEAAPEAXI@Z 00000001801839b0 f i GuSecondaryPruner.obj
 0001:001829b0       ??_GCompanionPrunerAABBTree@@UEAAPEAXI@Z 00000001801839b0 f i GuSecondaryPruner.obj
 0001:00182a60       ??_ECompanionPrunerBucket@@UEAAPEAXI@Z 0000000180183a60 f i GuSecondaryPruner.obj
 0001:00182a60       ??_GCompanionPrunerBucket@@UEAAPEAXI@Z 0000000180183a60 f i GuSecondaryPruner.obj
 0001:00182ae0       ??_ECompanionPrunerIncremental@@UEAAPEAXI@Z 0000000180183ae0 f i GuSecondaryPruner.obj
 0001:00182ae0       ??_GCompanionPrunerIncremental@@UEAAPEAXI@Z 0000000180183ae0 f i GuSecondaryPruner.obj
 0001:00182b60       ?addObject@CompanionPrunerAABBTree@@UEAA_NAEBUPrunerPayload@Gu@physx@@IAEBVPxBounds3@4@AEBV?$PxTransformT@M@4@II@Z 0000000180183b60 f   GuSecondaryPruner.obj
 0001:00182da0       ?addObject@CompanionPrunerBucket@@UEAA_NAEBUPrunerPayload@Gu@physx@@IAEBVPxBounds3@4@AEBV?$PxTransformT@M@4@II@Z 0000000180183da0 f i GuSecondaryPruner.obj
 0001:00182dc0       ?addObject@CompanionPrunerIncremental@@UEAA_NAEBUPrunerPayload@Gu@physx@@IAEBVPxBounds3@4@AEBV?$PxTransformT@M@4@II@Z 0000000180183dc0 f i GuSecondaryPruner.obj
 0001:00182de0       ?addObjectInternal@CompanionPrunerAABBTree@@QEAA_NII@Z 0000000180183de0 f   GuSecondaryPruner.obj
 0001:00182f80       ?build@CompanionPrunerAABBTree@@UEAAXXZ 0000000180183f80 f   GuSecondaryPruner.obj
 0001:00183450       ?createCompanionPruner@Gu@physx@@YAPEAVCompanionPruner@12@_KW4CompanionPrunerType@12@PEBVPruningPool@12@@Z 0000000180184450 f   GuSecondaryPruner.obj
 0001:00183650       ?getGlobalBounds@CompanionPrunerAABBTree@@UEBAXAEAVPxBounds3@physx@@@Z 0000000180184650 f   GuSecondaryPruner.obj
 0001:00183740       ?getGlobalBounds@CompanionPrunerBucket@@UEBAXAEAVPxBounds3@physx@@@Z 0000000180184740 f i GuSecondaryPruner.obj
 0001:00183750       ?getGlobalBounds@CompanionPrunerIncremental@@UEBAXAEAVPxBounds3@physx@@@Z 0000000180184750 f i GuSecondaryPruner.obj
 0001:00183760       ?getNbObjects@CompanionPrunerAABBTree@@UEBAIXZ 0000000180184760 f   GuSecondaryPruner.obj
 0001:00183770       ?getNbObjects@CompanionPrunerBucket@@UEBAIXZ 0000000180184770 f i GuSecondaryPruner.obj
 0001:00183780       ?getNbObjects@CompanionPrunerIncremental@@UEBAIXZ 0000000180184780 f i GuSecondaryPruner.obj
 0001:00183790       ?growAndPushBack@?$PxArray@ULocalData@CompanionPrunerAABBTree@@V?$PxReflectionAllocator@ULocalData@CompanionPrunerAABBTree@@@physx@@@physx@@IEAAAEAULocalData@CompanionPrunerAABBTree@@AEBU34@@Z 0000000180184790 f i GuSecondaryPruner.obj
 0001:001838b0       ?overlap@CompanionPrunerAABBTree@@UEBA_NAEBVShapeData@Gu@physx@@AEAUPrunerOverlapCallback@34@@Z 00000001801848b0 f   GuSecondaryPruner.obj
 0001:00184830       ?overlap@CompanionPrunerBucket@@UEBA_NAEBVShapeData@Gu@physx@@AEAUPrunerOverlapCallback@34@@Z 0000000180185830 f i GuSecondaryPruner.obj
 0001:00184850       ?overlap@CompanionPrunerIncremental@@UEBA_NAEBVShapeData@Gu@physx@@AEAUPrunerOverlapCallback@34@@Z 0000000180185850 f i GuSecondaryPruner.obj
 0001:00184870       ?raycast@CompanionPrunerAABBTree@@UEBA_NAEBV?$PxVec3T@M@physx@@0AEAMAEAUPrunerRaycastCallback@Gu@3@@Z 0000000180185870 f   GuSecondaryPruner.obj
 0001:00184c50       ?raycast@CompanionPrunerBucket@@UEBA_NAEBV?$PxVec3T@M@physx@@0AEAMAEAUPrunerRaycastCallback@Gu@3@@Z 0000000180185c50 f i GuSecondaryPruner.obj
 0001:00184c70       ?raycast@CompanionPrunerIncremental@@UEBA_NAEBV?$PxVec3T@M@physx@@0AEAMAEAUPrunerRaycastCallback@Gu@3@@Z 0000000180185c70 f i GuSecondaryPruner.obj
 0001:00184c90       ?release@CompanionPrunerAABBTree@@UEAAXXZ 0000000180185c90 f   GuSecondaryPruner.obj
 0001:00184ca0       ?release@CompanionPrunerBucket@@UEAAXXZ 0000000180185ca0 f i GuSecondaryPruner.obj
 0001:00184cb0       ?release@CompanionPrunerIncremental@@UEAAXXZ 0000000180185cb0 f i GuSecondaryPruner.obj
 0001:00184cc0       ?releaseInternal@CompanionPrunerAABBTree@@QEAAXXZ 0000000180185cc0 f   GuSecondaryPruner.obj
 0001:00184d40       ?removeMarkedObjects@CompanionPrunerAABBTree@@UEAAII@Z 0000000180185d40 f   GuSecondaryPruner.obj
 0001:00184d60       ?removeMarkedObjects@CompanionPrunerBucket@@UEAAII@Z 0000000180185d60 f i GuSecondaryPruner.obj
 0001:00184d70       ?removeMarkedObjects@CompanionPrunerIncremental@@UEAAII@Z 0000000180185d70 f i GuSecondaryPruner.obj
 0001:00184d80       ?removeObject@CompanionPrunerAABBTree@@UEAA_NAEBUPrunerPayload@Gu@physx@@III@Z 0000000180185d80 f   GuSecondaryPruner.obj
 0001:00184e20       ?removeObject@CompanionPrunerBucket@@UEAA_NAEBUPrunerPayload@Gu@physx@@III@Z 0000000180185e20 f i GuSecondaryPruner.obj
 0001:00184e40       ?removeObject@CompanionPrunerIncremental@@UEAA_NAEBUPrunerPayload@Gu@physx@@III@Z 0000000180185e40 f i GuSecondaryPruner.obj
 0001:00184e60       ?shiftOrigin@CompanionPrunerAABBTree@@UEAAXAEBV?$PxVec3T@M@physx@@@Z 0000000180185e60 f   GuSecondaryPruner.obj
 0001:00184f90       ?shiftOrigin@CompanionPrunerIncremental@@UEAAXAEBV?$PxVec3T@M@physx@@@Z 0000000180185f90 f i GuSecondaryPruner.obj
 0001:00184fa0       ?swapIndex@CompanionPrunerIncremental@@UEAAXII@Z 0000000180185fa0 f i GuSecondaryPruner.obj
 0001:00184fb0       ?sweep@CompanionPrunerAABBTree@@UEBA_NAEBVShapeData@Gu@physx@@AEBV?$PxVec3T@M@4@AEAMAEAUPrunerRaycastCallback@34@@Z 0000000180185fb0 f   GuSecondaryPruner.obj
 0001:001854e0       ?sweep@CompanionPrunerBucket@@UEBA_NAEBVShapeData@Gu@physx@@AEBV?$PxVec3T@M@4@AEAMAEAUPrunerRaycastCallback@34@@Z 00000001801864e0 f i GuSecondaryPruner.obj
 0001:00185500       ?sweep@CompanionPrunerIncremental@@UEBA_NAEBVShapeData@Gu@physx@@AEBV?$PxVec3T@M@4@AEAMAEAUPrunerRaycastCallback@34@@Z 0000000180186500 f i GuSecondaryPruner.obj
 0001:00185520       ?timeStampChange@CompanionPrunerIncremental@@UEAAXXZ 0000000180186520 f i GuSecondaryPruner.obj
 0001:00185540       ?updateObject@CompanionPrunerAABBTree@@UEAA_NAEBUPrunerPayload@Gu@physx@@IAEBVPxBounds3@4@AEBV?$PxTransformT@M@4@I@Z 0000000180186540 f   GuSecondaryPruner.obj
 0001:001855c0       ?updateObject@CompanionPrunerBucket@@UEAA_NAEBUPrunerPayload@Gu@physx@@IAEBVPxBounds3@4@AEBV?$PxTransformT@M@4@I@Z 00000001801865c0 f i GuSecondaryPruner.obj
 0001:001855e0       ?updateObject@CompanionPrunerIncremental@@UEAA_NAEBUPrunerPayload@Gu@physx@@IAEBVPxBounds3@4@AEBV?$PxTransformT@M@4@I@Z 00000001801865e0 f i GuSecondaryPruner.obj
 0001:001855f0       ?visualize@CompanionPrunerAABBTree@@UEBAXAEAVPxRenderOutput@physx@@I@Z 00000001801865f0 f   GuSecondaryPruner.obj
 0001:00185610       ?visualize@CompanionPrunerIncremental@@UEBAXAEAVPxRenderOutput@physx@@I@Z 0000000180186610 f i GuSecondaryPruner.obj
 0001:00185620       ??0AABBPruner@Gu@physx@@QEAA@_N_KW4CompanionPrunerType@12@W4BVHBuildStrategy@12@I@Z 0000000180186620 f   GuAABBPruner.obj
 0001:00185750       ??1AABBPruner@Gu@physx@@UEAA@XZ 0000000180186750 f   GuAABBPruner.obj
 0001:001858b0       ??_EAABBPruner@Gu@physx@@UEAAPEAXI@Z 00000001801868b0 f i GuAABBPruner.obj
 0001:001858b0       ??_GAABBPruner@Gu@physx@@UEAAPEAXI@Z 00000001801868b0 f i GuAABBPruner.obj
 0001:00185920       ?addObjects@AABBPruner@Gu@physx@@UEAA_NPEAIPEBVPxBounds3@3@PEBUPrunerPayload@23@PEBV?$PxTransformT@M@3@I_N@Z 0000000180186920 f   GuAABBPruner.obj
 0001:00185bf0       ?buildStep@AABBPruner@Gu@physx@@UEAA_N_N@Z 0000000180186bf0 f   GuAABBPruner.obj
 0001:00185fe0       ?commit@AABBPruner@Gu@physx@@UEAAXXZ 0000000180186fe0 f   GuAABBPruner.obj
 0001:001866e0       ?fullRebuildAABBTree@AABBPruner@Gu@physx@@QEAA_NXZ 00000001801876e0 f   GuAABBPruner.obj
 0001:001868e0       ?getGlobalBounds@AABBPruner@Gu@physx@@UEBAXAEAVPxBounds3@3@@Z 00000001801878e0 f   GuAABBPruner.obj
 0001:00186a20       ?getPayloadData@AABBPruner@Gu@physx@@UEBAAEBUPrunerPayload@23@IPEAUPrunerPayloadData@23@@Z 0000000180187a20 f i GuAABBPruner.obj
 0001:00186a80       ?growAndPushBack@?$PxArray@UNewTreeFixup@AABBPruner@Gu@physx@@V?$PxReflectionAllocator@UNewTreeFixup@AABBPruner@Gu@physx@@@4@@physx@@IEAAAEAUNewTreeFixup@AABBPruner@Gu@2@AEBU3452@@Z 0000000180187a80 f i GuAABBPruner.obj
 0001:00186ba0       ?isDynamic@AABBPruner@Gu@physx@@UEBA_NXZ 0000000180187ba0 f i GuAABBPruner.obj
 0001:00186bb0       ?merge@AABBPruner@Gu@physx@@UEAAXPEBX@Z 0000000180187bb0 f   GuAABBPruner.obj
 0001:00186c30       ?overlap@AABBPruner@Gu@physx@@UEBA_NAEBVShapeData@23@AEAUPrunerOverlapCallback@23@@Z 0000000180187c30 f   GuAABBPruner.obj
 0001:00187200       ?preallocate@AABBPruner@Gu@physx@@UEAAXI@Z 0000000180188200 f i GuAABBPruner.obj
 0001:00187210       ?prepareBuild@AABBPruner@Gu@physx@@UEAA_NXZ 0000000180188210 f   GuAABBPruner.obj
 0001:00187410       ?purge@AABBPruner@Gu@physx@@UEAAXXZ 0000000180188410 f   GuAABBPruner.obj
 0001:00187430       ?raycast@AABBPruner@Gu@physx@@UEBA_NAEBV?$PxVec3T@M@3@0AEAMAEAUPrunerRaycastCallback@23@@Z 0000000180188430 f   GuAABBPruner.obj
 0001:00187520       ?refitUpdatedAndRemoved@AABBPruner@Gu@physx@@QEAAXXZ 0000000180188520 f   GuAABBPruner.obj
 0001:001875f0       ?release@AABBPruner@Gu@physx@@QEAAXXZ 00000001801885f0 f   GuAABBPruner.obj
 0001:00187720       ?removeObjects@AABBPruner@Gu@physx@@UEAAXPEBIIPEAUPrunerPayloadRemovalCallback@23@@Z 0000000180188720 f   GuAABBPruner.obj
 0001:001879f0       ?setRebuildRateHint@AABBPruner@Gu@physx@@UEAAXI@Z 00000001801889f0 f   GuAABBPruner.obj
 0001:00187a10       ?setTransform@AABBPruner@Gu@physx@@UEAA_NIAEBV?$PxTransformT@M@3@@Z 0000000180188a10 f i GuAABBPruner.obj
 0001:00187a70       ?shiftOrigin@AABBPruner@Gu@physx@@UEAAXAEBV?$PxVec3T@M@3@@Z 0000000180188a70 f   GuAABBPruner.obj
 0001:00187ae0       ?sweep@AABBPruner@Gu@physx@@UEBA_NAEBVShapeData@23@AEBV?$PxVec3T@M@3@AEAMAEAUPrunerRaycastCallback@23@@Z 0000000180188ae0 f   GuAABBPruner.obj
 0001:00187c70       ?updateObjects@AABBPruner@Gu@physx@@UEAAXPEBIIM0PEBVPxBounds3@3@PEBUPxTransformPadded@3@@Z 0000000180188c70 f   GuAABBPruner.obj
 0001:00187f10       ?visualize@AABBPruner@Gu@physx@@UEBAXAEAVPxRenderOutput@3@II@Z 0000000180188f10 f   GuAABBPruner.obj
 0001:00187fc0       ??0ActorShapeMap@Gu@physx@@QEAA@XZ 0000000180188fc0 f   GuActorShapeMap.obj
 0001:00188020       ??1ActorShapeMap@Gu@physx@@QEAA@XZ 0000000180189020 f   GuActorShapeMap.obj
 0001:00188080       ?add@ActorShapeMap@Gu@physx@@QEAA_NIPEBX0_K@Z 0000000180189080 f   GuActorShapeMap.obj
 0001:00188220       ?create@?$PxHashBase@V?$PxPair@$$CBUActorShape@ActorShapeMap@Gu@physx@@_K@physx@@UActorShape@ActorShapeMap@Gu@2@U?$PxHash@UActorShape@ActorShapeMap@Gu@physx@@@2@UGetKey@?$PxHashMapBase@UActorShape@ActorShapeMap@Gu@physx@@_KU?$PxHash@UActorShape@ActorShapeMap@Gu@physx@@@4@VPxAllocator@4@@2@VPxAllocator@2@$00@physx@@QEAAPEAV?$PxPair@$$CBUActorShape@ActorShapeMap@Gu@physx@@_K@2@AEBUActorShape@ActorShapeMap@Gu@2@AEA_N@Z 0000000180189220 f i GuActorShapeMap.obj
 0001:00188410       ?eraseInternal@?$PxHashBase@V?$PxPair@$$CBUActorShape@ActorShapeMap@Gu@physx@@_K@physx@@UActorShape@ActorShapeMap@Gu@2@U?$PxHash@UActorShape@ActorShapeMap@Gu@physx@@@2@UGetKey@?$PxHashMapBase@UActorShape@ActorShapeMap@Gu@physx@@_KU?$PxHash@UActorShape@ActorShapeMap@Gu@physx@@@4@VPxAllocator@4@@2@VPxAllocator@2@$00@physx@@AEAA_NPEAI@Z 0000000180189410 f i GuActorShapeMap.obj
 0001:00188520       ?find@ActorShapeMap@Gu@physx@@QEBA_KIPEBX0@Z 0000000180189520 f   GuActorShapeMap.obj
 0001:00188610       ?remove@ActorShapeMap@Gu@physx@@QEAA_NIPEBX0PEA_K@Z 0000000180189610 f   GuActorShapeMap.obj
 0001:00188760       ?reserveInternal@?$PxHashBase@V?$PxPair@$$CBUActorShape@ActorShapeMap@Gu@physx@@_K@physx@@UActorShape@ActorShapeMap@Gu@2@U?$PxHash@UActorShape@ActorShapeMap@Gu@physx@@@2@UGetKey@?$PxHashMapBase@UActorShape@ActorShapeMap@Gu@physx@@_KU?$PxHash@UActorShape@ActorShapeMap@Gu@physx@@@4@VPxAllocator@4@@2@VPxAllocator@2@$00@physx@@AEAAXI@Z 0000000180189760 f i GuActorShapeMap.obj
 0001:00188970       ??0QuerySystem@Gu@physx@@QEAA@_KMAEBVAdapter@12@_N@Z 0000000180189970 f   GuQuerySystem.obj
 0001:00188a40       ??1QuerySystem@Gu@physx@@QEAA@XZ 0000000180189a40 f   GuQuerySystem.obj
 0001:00188c90       ??_GPrunerExt@QuerySystem@Gu@physx@@QEAAPEAXI@Z 0000000180189c90 f i GuQuerySystem.obj
 0001:00188da0       ?addPruner@QuerySystem@Gu@physx@@QEAAIPEAVPruner@23@I@Z 0000000180189da0 f   GuQuerySystem.obj
 0001:00188ec0       ?addPrunerShape@QuerySystem@Gu@physx@@QEAA_KAEBUPrunerPayload@23@I_NAEBV?$PxTransformT@M@3@PEBVPxBounds3@3@@Z 0000000180189ec0 f   GuQuerySystem.obj
 0001:00189000       ?addToDirtyList@PrunerExt@QuerySystem@Gu@physx@@QEAAXIIAEBV?$PxTransformT@M@4@PEBVPxBounds3@4@@Z 000000018018a000 f   GuQuerySystem.obj
 0001:00189250       ?commitUpdates@QuerySystem@Gu@physx@@QEAAXXZ 000000018018a250 f   GuQuerySystem.obj
 0001:00189360       ?createTreeOfPruners@QuerySystem@Gu@physx@@QEAAXXZ 000000018018a360 f   GuQuerySystem.obj
 0001:00189530       ?flushMemory@QuerySystem@Gu@physx@@QEAAXXZ 000000018018a530 f   GuQuerySystem.obj
 0001:001895c0       ?getPayloadData@QuerySystem@Gu@physx@@QEBAAEBUPrunerPayload@23@_KPEAUPrunerPayloadData@23@@Z 000000018018a5c0 f   GuQuerySystem.obj
 0001:001895e0       ?growAndPushBack@?$PxArray@PEAUPrunerExt@QuerySystem@Gu@physx@@V?$PxReflectionAllocator@PEAUPrunerExt@QuerySystem@Gu@physx@@@4@@physx@@IEAAAEAPEAUPrunerExt@QuerySystem@Gu@2@AEBQEAU3452@@Z 000000018018a5e0 f i GuQuerySystem.obj
 0001:00189700       ?overlap@QuerySystem@Gu@physx@@QEBAXAEBVShapeData@23@AEAUPrunerOverlapCallback@23@PEBVPrunerFilter@23@@Z 000000018018a700 f   GuQuerySystem.obj
 0001:00189800       ?processDirtyList@PrunerExt@QuerySystem@Gu@physx@@QEAA_NAEBVAdapter@34@M@Z 000000018018a800 f   GuQuerySystem.obj
 0001:00189a40       ?processDirtyLists@QuerySystem@Gu@physx@@AEAAXXZ 000000018018aa40 f   GuQuerySystem.obj
 0001:00189ba0       ?raycast@QuerySystem@Gu@physx@@QEBAXAEBV?$PxVec3T@M@3@0AEAMAEAUPrunerRaycastCallback@23@PEBVPrunerFilter@23@@Z 000000018018aba0 f   GuQuerySystem.obj
 0001:00189ce0       ?recreate@?$PxArray@UData@PrunerExt@QuerySystem@Gu@physx@@V?$PxReflectionAllocator@UData@PrunerExt@QuerySystem@Gu@physx@@@5@@physx@@IEAAXI@Z 000000018018ace0 f i GuQuerySystem.obj
 0001:00189fd0       ?removePruner@QuerySystem@Gu@physx@@QEAAXI@Z 000000018018afd0 f   GuQuerySystem.obj
 0001:0018a0b0       ?removePrunerShape@QuerySystem@Gu@physx@@QEAAX_KPEAUPrunerPayloadRemovalCallback@23@@Z 000000018018b0b0 f   GuQuerySystem.obj
 0001:0018a2e0       ?sweep@QuerySystem@Gu@physx@@QEBAXAEBVShapeData@23@AEBV?$PxVec3T@M@3@AEAMAEAUPrunerRaycastCallback@23@PEBVPrunerFilter@23@@Z 000000018018b2e0 f   GuQuerySystem.obj
 0001:0018a410       ?sync@QuerySystem@Gu@physx@@QEAAXIPEBI0PEBVPxBounds3@3@PEBUPxTransformPadded@3@I@Z 000000018018b410 f   GuQuerySystem.obj
 0001:0018a4c0       ?update@QuerySystem@Gu@physx@@QEAAX_N0@Z 000000018018b4c0 f   GuQuerySystem.obj
 0001:0018a630       ?updatePrunerShape@QuerySystem@Gu@physx@@QEAAX_K_NAEBV?$PxTransformT@M@3@PEBVPxBounds3@3@@Z 000000018018b630 f   GuQuerySystem.obj
 0001:0018a820       createAABBPruner           000000018018b820 f   GuFactory.obj
 0001:0018a8e0       createBucketPruner         000000018018b8e0 f   GuFactory.obj
 0001:0018a970       createIncrementalPruner    000000018018b970 f   GuFactory.obj
 0001:0018aa00       ??$PxSmallSort@I$$CBUSortBoundsPredicate@physx@@@physx@@YAXPEAIHHAEBUSortBoundsPredicate@0@@Z 000000018018ba00 f i GuRTreeCooking.obj
 0001:0018aca0       ??$PxSort@IU?$PxLess@I@physx@@V?$PxReflectionAllocator@I@2@@physx@@YAXPEAIIAEBU?$PxLess@I@0@AEBV?$PxReflectionAllocator@I@0@I@Z 000000018018bca0 f i GuRTreeCooking.obj
 0001:0018b0f0       ??$PxSort@IUSortBoundsPredicate@physx@@V?$PxReflectionAllocator@I@2@@physx@@YAXPEAIIAEBUSortBoundsPredicate@0@AEBV?$PxReflectionAllocator@I@0@I@Z 000000018018c0f0 f i GuRTreeCooking.obj
 0001:0018b5a0       ??$quickSelectFirstK@UBoundsLTE@physx@@@quickSelect@physx@@YAXPEIAIIIIAEBUBoundsLTE@1@@Z 000000018018c5a0 f i GuRTreeCooking.obj
 0001:0018b780       ?allocate@?$PxArray@UInterval@physx@@V?$PxInlineAllocator@$0CAAA@V?$PxReflectionAllocator@UInterval@physx@@@physx@@@2@@physx@@IEAAPEAUInterval@2@I@Z 000000018018c780 f i GuRTreeCooking.obj
 0001:0018b840       ?allocate@?$PxArray@UPxBounds3V@physx@@V?$PxReflectionAllocator@UPxBounds3V@physx@@@2@@physx@@IEAAPEAUPxBounds3V@2@I@Z 000000018018c840 f i GuRTreeCooking.obj
 0001:0018b8d0       ?allocate@?$PxArray@URTreeNodeNQ@physx@@V?$PxReflectionAllocator@URTreeNodeNQ@physx@@@2@@physx@@IEAAPEAURTreeNodeNQ@2@I@Z 000000018018c8d0 f i GuRTreeCooking.obj
 0001:0018b960       ?allocate@?$PxArray@URTreeNodeQ@Gu@physx@@V?$PxReflectionAllocator@URTreeNodeQ@Gu@physx@@@3@@physx@@IEAAPEAURTreeNodeQ@Gu@2@I@Z 000000018018c960 f i GuRTreeCooking.obj
 0001:0018c680       ?buildFromTriangles@RTreeCooker@physx@@SAXAEAURTree@Gu@2@PEBV?$PxVec3T@M@2@IPEBGPEBIIAEAV?$PxArray@IV?$PxReflectionAllocator@I@physx@@@2@PEAURemapCallback@12@MW4Enum@PxMeshCookingHint@2@@Z 000000018018d680 f   GuRTreeCooking.obj
 0001:0018c940       ?copy@?$PxArray@URTreeNodeNQ@physx@@V?$PxReflectionAllocator@URTreeNodeNQ@physx@@@2@@physx@@KAXPEAURTreeNodeNQ@2@0PEBU32@@Z 000000018018d940 f i GuRTreeCooking.obj
 0001:0018cb00       ?growAndPushBack@?$PxArray@UInterval@physx@@V?$PxInlineAllocator@$0CAAA@V?$PxReflectionAllocator@UInterval@physx@@@physx@@@2@@physx@@IEAAAEAUInterval@2@AEBU32@@Z 000000018018db00 f i GuRTreeCooking.obj
 0001:0018cbe0       ?growAndPushBack@?$PxArray@UPxBounds3V@physx@@V?$PxReflectionAllocator@UPxBounds3V@physx@@@2@@physx@@IEAAAEAUPxBounds3V@2@AEBU32@@Z 000000018018dbe0 f i GuRTreeCooking.obj
 0001:0018ccc0       ?growAndPushBack@?$PxArray@URTreeNodeNQ@physx@@V?$PxReflectionAllocator@URTreeNodeNQ@physx@@@2@@physx@@IEAAAEAURTreeNodeNQ@2@AEBU32@@Z 000000018018dcc0 f i GuRTreeCooking.obj
 0001:0018cda0       ?growAndPushBack@?$PxArray@URTreeNodeQ@Gu@physx@@V?$PxReflectionAllocator@URTreeNodeQ@Gu@physx@@@3@@physx@@IEAAAEAURTreeNodeQ@Gu@2@AEBU342@@Z 000000018018dda0 f i GuRTreeCooking.obj
 0001:0018ce90       ?recreate@?$PxArray@UPxBounds3V@physx@@V?$PxReflectionAllocator@UPxBounds3V@physx@@@2@@physx@@IEAAXI@Z 000000018018de90 f i GuRTreeCooking.obj
 0001:0018cf40       ?recreate@?$PxArray@URTreeNodeNQ@physx@@V?$PxReflectionAllocator@URTreeNodeNQ@physx@@@2@@physx@@IEAAXI@Z 000000018018df40 f i GuRTreeCooking.obj
 0001:0018cfd0       ?recreate@?$PxArray@URTreeNodeQ@Gu@physx@@V?$PxReflectionAllocator@URTreeNodeQ@Gu@physx@@@3@@physx@@IEAAXI@Z 000000018018dfd0 f i GuRTreeCooking.obj
 0001:0018d090       ?resizeUninitialized@?$PxArray@URTreeNodeNQ@physx@@V?$PxReflectionAllocator@URTreeNodeNQ@physx@@@2@@physx@@QEAAXI@Z 000000018018e090 f i GuRTreeCooking.obj
 0001:0018d0d0       ?sort4@SubSortQuick@physx@@QEAAXPEIAIIAEAV?$PxArray@URTreeNodeNQ@physx@@V?$PxReflectionAllocator@URTreeNodeNQ@physx@@@2@@2@AEAIAEAUPxBounds3V@2@I@Z 000000018018e0d0 f i GuRTreeCooking.obj
 0001:0018d460       ?sort4@SubSortSAH@physx@@QEAAXPEAIIAEAV?$PxArray@URTreeNodeNQ@physx@@V?$PxReflectionAllocator@URTreeNodeNQ@physx@@@2@@2@AEAIIPEAURTreeNodeNQ@2@@Z 000000018018e460 f i GuRTreeCooking.obj
 0001:0018dd30       ?split@SubSortSAH@physx@@QEAAIPEAII@Z 000000018018ed30 f i GuRTreeCooking.obj
 0001:0018e780       cookBVH                    000000018018f780 f   GuCookingBVH.obj
 0001:0018e910       createBVH                  000000018018f910 f   GuCookingBVH.obj
 0001:0018eaa0       cookHeightField            000000018018faa0 f   GuCookingHF.obj
 0001:0018ebb0       createHeightField          000000018018fbb0 f   GuCookingHF.obj
 0001:0018f240       ?isFinite@?$PxVec3T@M@physx@@QEBA_NXZ 0000000180190240 f i GuCookingConvexMesh.obj
 0001:0018f2a0       computeHullPolygons        00000001801902a0 f   GuCookingConvexMesh.obj
 0001:0018f480       cookConvexMesh             0000000180190480 f   GuCookingConvexMesh.obj
 0001:0018f5f0       createConvexMesh           00000001801905f0 f   GuCookingConvexMesh.obj
 0001:0018f790       validateConvexMesh         0000000180190790 f   GuCookingConvexMesh.obj
 0001:0018f8b0       ??1BV4TriangleMeshBuilder@physx@@UEAA@XZ 00000001801908b0 f   GuCookingTriangleMesh.obj
 0001:0018f940       ??1RTreeTriangleMeshBuilder@physx@@UEAA@XZ 0000000180190940 f   GuCookingTriangleMesh.obj
 0001:0018f9b0       ??_EBV4TriangleMeshBuilder@physx@@UEAAPEAXI@Z 00000001801909b0 f i GuCookingTriangleMesh.obj
 0001:0018f9b0       ??_GBV4TriangleMeshBuilder@physx@@UEAAPEAXI@Z 00000001801909b0 f i GuCookingTriangleMesh.obj
 0001:0018f9f0       ??_ERTreeTriangleMeshBuilder@physx@@UEAAPEAXI@Z 00000001801909f0 f i GuCookingTriangleMesh.obj
 0001:0018f9f0       ??_GRTreeTriangleMeshBuilder@physx@@UEAAPEAXI@Z 00000001801909f0 f i GuCookingTriangleMesh.obj
 0001:0018fa30       ??_ETriangleMeshBuilder@physx@@UEAAPEAXI@Z 0000000180190a30 f i GuCookingTriangleMesh.obj
 0001:0018fa30       ??_GTriangleMeshBuilder@physx@@UEAAPEAXI@Z 0000000180190a30 f i GuCookingTriangleMesh.obj
 0001:001903e0       ?buildInertiaTensor@TriangleMeshBuilder@physx@@IEAAX_N@Z 00000001801913e0 f   GuCookingTriangleMesh.obj
 0001:00190540       ?buildInertiaTensorFromSDF@TriangleMeshBuilder@physx@@IEAAXXZ 0000000180191540 f   GuCookingTriangleMesh.obj
 0001:00190780       ?cleanMesh@TriangleMeshBuilder@physx@@QEAA_N_NPEAW4Enum@PxTriangleMeshCookingResult@2@@Z 0000000180191780 f   GuCookingTriangleMesh.obj
 0001:00190c70       ?createGRBMidPhaseAndData@TriangleMeshBuilder@physx@@QEAA_NI@Z 0000000180191c70 f   GuCookingTriangleMesh.obj
 0001:00190e20       ?createMidPhaseStructure@BV32TriangleMeshBuilder@physx@@SA_NAEBUPxCookingParams@2@AEAVTriangleMeshData@Gu@2@AEAVBV32Tree@52@@Z 0000000180191e20 f   GuCookingTriangleMesh.obj
 0001:00191070       ?createMidPhaseStructure@BV4TriangleMeshBuilder@physx@@UEAA_NXZ 0000000180192070 f   GuCookingTriangleMesh.obj
 0001:00191330       ?createMidPhaseStructure@RTreeTriangleMeshBuilder@physx@@UEAA_NXZ 0000000180192330 f   GuCookingTriangleMesh.obj
 0001:00191420       ?createSharedEdgeData@TriangleMeshBuilder@physx@@QEAAX_N0@Z 0000000180192420 f   GuCookingTriangleMesh.obj
 0001:00191ad0       ?createVertMapping@TriangleMeshBuilder@physx@@QEAAXXZ 0000000180192ad0 f   GuCookingTriangleMesh.obj
 0001:00191e30       ?importMesh@TriangleMeshBuilder@physx@@IEAA_NAEBVPxTriangleMeshDesc@2@PEAW4Enum@PxTriangleMeshCookingResult@2@_N@Z 0000000180192e30 f   GuCookingTriangleMesh.obj
 0001:001922f0       ?isValid@PxTriangleMeshDesc@physx@@QEBA_NXZ 00000001801932f0 f i GuCookingTriangleMesh.obj
 0001:001923c0       ?loadFromDescInternal@TriangleMeshBuilder@physx@@IEAA_NAEAVPxTriangleMeshDesc@2@PEAW4Enum@PxTriangleMeshCookingResult@2@_N@Z 00000001801933c0 f   GuCookingTriangleMesh.obj
 0001:001925e0       ?onMeshIndexFormatChange@BV4TriangleMeshBuilder@physx@@UEAAXXZ 00000001801935e0 f   GuCookingTriangleMesh.obj
 0001:00192620       ?remap@RTreeCookerRemap@@UEAAXPEAIII@Z 0000000180193620 f i GuCookingTriangleMesh.obj
 0001:00192640       ?remapTopology@TriangleMeshBuilder@physx@@QEAAXPEBI@Z 0000000180193640 f   GuCookingTriangleMesh.obj
 0001:001928e0       ?save@TriangleMeshBuilder@physx@@QEBA_NAEAVPxOutputStream@2@_NAEBUPxCookingParams@2@@Z 00000001801938e0 f   GuCookingTriangleMesh.obj
 0001:00193090       ?saveMidPhaseStructure@BV32TriangleMeshBuilder@physx@@SAXPEAVBV32Tree@Gu@2@AEAVPxOutputStream@2@_N@Z 0000000180194090 f   GuCookingTriangleMesh.obj
 0001:00193290       ?saveMidPhaseStructure@BV4TriangleMeshBuilder@physx@@UEBAXAEAVPxOutputStream@2@_N@Z 0000000180194290 f   GuCookingTriangleMesh.obj
 0001:00193440       ?saveMidPhaseStructure@RTreeTriangleMeshBuilder@physx@@UEBAXAEAVPxOutputStream@2@_N@Z 0000000180194440 f   GuCookingTriangleMesh.obj
 0001:00193680       cookTriangleMesh           0000000180194680 f   GuCookingTriangleMesh.obj
 0001:00193990       createTriangleMesh         0000000180194990 f   GuCookingTriangleMesh.obj
 0001:00193bb0       validateTriangleMesh       0000000180194bb0 f   GuCookingTriangleMesh.obj
 0001:00193e70       ??0SoftBodyCollisionData@Gu@physx@@QEAA@XZ 0000000180194e70 f i GuCookingTetrahedronMesh.obj
 0001:00193ed0       ??_ECollisionTetrahedronMeshData@Gu@physx@@UEAAPEAXI@Z 0000000180194ed0 f i GuCookingTetrahedronMesh.obj
 0001:00193ed0       ??_GCollisionTetrahedronMeshData@Gu@physx@@UEAAPEAXI@Z 0000000180194ed0 f i GuCookingTetrahedronMesh.obj
 0001:00193fa0       ??_EPxCollisionTetrahedronMeshData@physx@@UEAAPEAXI@Z 0000000180194fa0 f i GuCookingTetrahedronMesh.obj
 0001:00193fa0       ??_GPxCollisionTetrahedronMeshData@physx@@UEAAPEAXI@Z 0000000180194fa0 f i GuCookingTetrahedronMesh.obj
 0001:00193ff0       ??_EPxSimulationTetrahedronMeshData@physx@@UEAAPEAXI@Z 0000000180194ff0 f i GuCookingTetrahedronMesh.obj
 0001:00193ff0       ??_GPxSimulationTetrahedronMeshData@physx@@UEAAPEAXI@Z 0000000180194ff0 f i GuCookingTetrahedronMesh.obj
 0001:00194040       ??_ESimulationTetrahedronMeshData@Gu@physx@@UEAAPEAXI@Z 0000000180195040 f i GuCookingTetrahedronMesh.obj
 0001:00194040       ??_GSimulationTetrahedronMeshData@Gu@physx@@UEAAPEAXI@Z 0000000180195040 f i GuCookingTetrahedronMesh.obj
 0001:00194110       ?combineGridModelPartitions@@YAXAEBVTetrahedronMeshData@Gu@physx@@AEAVSoftBodySimulationData@23@PEAPEAI@Z 0000000180195110 f   GuCookingTetrahedronMesh.obj
 0001:00194960       ?combineGridModelPartitionsHexMesh@@YAXAEBVTetrahedronMeshData@Gu@physx@@AEAVSoftBodySimulationData@23@PEAPEAII@Z 0000000180195960 f   GuCookingTetrahedronMesh.obj
 0001:001953a0       ?computeCollisionData@TetrahedronMeshBuilder@physx@@SA_NAEBVPxTetrahedronMeshDesc@2@AEAVTetrahedronMeshData@Gu@2@AEAVSoftBodyCollisionData@52@AEBUPxCookingParams@2@_N@Z 00000001801963a0 f   GuCookingTetrahedronMesh.obj
 0001:001955e0       ?computeGridModelTetrahedronPartitions@@YAPEAIAEBVTetrahedronMeshData@Gu@physx@@AEAVSoftBodySimulationData@23@@Z 00000001801965e0 f   GuCookingTetrahedronMesh.obj
 0001:00195a80       ?computeModelsMapping@TetrahedronMeshBuilder@physx@@SAXAEAVTetrahedronMeshData@Gu@2@AEBV342@AEBVSoftBodyCollisionData@42@AEAVCollisionMeshMappingData@42@_NPEBUPxBoundedData@2@@Z 0000000180196a80 f   GuCookingTetrahedronMesh.obj
 0001:00196690       ?computeRestPoseAndPointMass@@YAXPEAU?$TetrahedronT@I@Gu@physx@@IPEBV?$PxVec3T@M@3@PEAMPEAV?$PxMat33T@M@3@@Z 0000000180197690 f   GuCookingTetrahedronMesh.obj
 0001:00196bc0       ?computeSimData@TetrahedronMeshBuilder@physx@@SAXAEBVPxTetrahedronMeshDesc@2@AEAVTetrahedronMeshData@Gu@2@AEAVSoftBodySimulationData@52@AEBUPxCookingParams@2@@Z 0000000180197bc0 f   GuCookingTetrahedronMesh.obj
 0001:00197290       ?computeTetData@TetrahedronMeshBuilder@physx@@SAXAEBVPxTetrahedronMeshDesc@2@AEAVTetrahedronMeshData@Gu@2@@Z 0000000180198290 f   GuCookingTetrahedronMesh.obj
 0001:00197380       ?computeTetrahedronPartition@@YAIPEBU?$TetrahedronT@I@Gu@physx@@IPEAII@Z 0000000180198380 f   GuCookingTetrahedronMesh.obj
 0001:00197470       ?createCollisionModelMapping@TetrahedronMeshBuilder@physx@@SAXAEBVTetrahedronMeshData@Gu@2@AEBVSoftBodyCollisionData@42@AEAVCollisionMeshMappingData@42@@Z 0000000180198470 f   GuCookingTetrahedronMesh.obj
 0001:00197a50       ?createGRBMidPhaseAndData@TetrahedronMeshBuilder@physx@@SA_NIAEAVTetrahedronMeshData@Gu@2@AEAVSoftBodyCollisionData@42@AEBUPxCookingParams@2@@Z 0000000180198a50 f   GuCookingTetrahedronMesh.obj
 0001:001987b0       ?createMidPhaseStructure@BV32TetrahedronMeshBuilder@physx@@SA_NAEBUPxCookingParams@2@AEAVTetrahedronMeshData@Gu@2@AEAVBV32Tree@52@AEAVSoftBodyCollisionData@52@@Z 00000001801997b0 f   GuCookingTetrahedronMesh.obj
 0001:00198a80       ?createMidPhaseStructure@TetrahedronMeshBuilder@physx@@SA_NAEAVTetrahedronMeshData@Gu@2@AEAVSoftBodyCollisionData@42@AEBUPxCookingParams@2@@Z 0000000180199a80 f   GuCookingTetrahedronMesh.obj
 0001:00199750       ?getData@CollisionTetrahedronMeshData@Gu@physx@@UEAAPEAVPxSoftBodyCollisionData@3@XZ 000000018019a750 f i GuCookingTetrahedronMesh.obj
 0001:00199750       ?getData@CollisionTetrahedronMeshData@Gu@physx@@UEBAPEBVPxSoftBodyCollisionData@3@XZ 000000018019a750 f i GuCookingTetrahedronMesh.obj
 0001:00199750       ?getData@SimulationTetrahedronMeshData@Gu@physx@@UEAAPEAVPxSoftBodySimulationData@3@XZ 000000018019a750 f i GuCookingTetrahedronMesh.obj
 0001:00199770       ?importMesh@TetrahedronMeshBuilder@physx@@SA_NAEBVPxTetrahedronMeshDesc@2@AEBUPxCookingParams@2@AEAVTetrahedronMeshData@Gu@2@AEAVSoftBodyCollisionData@62@_N@Z 000000018019a770 f   GuCookingTetrahedronMesh.obj
 0001:00199a70       ?isValid@PxTetrahedronMeshDesc@physx@@QEBA_NXZ 000000018019aa70 f i GuCookingTetrahedronMesh.obj
 0001:00199af0       ?loadFromDesc@TetrahedronMeshBuilder@physx@@SA_NAEBVPxTetrahedronMeshDesc@2@0VPxSoftBodySimulationDataDesc@2@AEAVTetrahedronMeshData@Gu@2@AEAVSoftBodySimulationData@62@2AEAVSoftBodyCollisionData@62@AEAVCollisionMeshMappingData@62@AEBUPxCookingParams@2@_N@Z 000000018019aaf0 f   GuCookingTetrahedronMesh.obj
 0001:00199c60       ?release@CollisionTetrahedronMeshData@Gu@physx@@UEAAXXZ 000000018019ac60 f i GuCookingTetrahedronMesh.obj
 0001:00199c80       ?reserveInternal@?$PxHashBase@V?$PxPair@$$CBVSortedTriangleInds@@I@physx@@VSortedTriangleInds@@USortedTriangleIndsHash@@UGetKey@?$PxHashMapBase@VSortedTriangleInds@@IUSortedTriangleIndsHash@@VPxAllocator@physx@@@2@VPxAllocator@2@$00@physx@@AEAAXI@Z 000000018019ac80 f i GuCookingTetrahedronMesh.obj
 0001:00199ec0       ?saveSoftBodyMeshData@TetrahedronMeshBuilder@physx@@SA_NAEAVPxOutputStream@2@_NAEBUPxCookingParams@2@AEBVTetrahedronMeshData@Gu@2@AEBVSoftBodySimulationData@62@3AEBVSoftBodyCollisionData@62@AEBVCollisionMeshMappingData@62@@Z 000000018019aec0 f   GuCookingTetrahedronMesh.obj
 0001:0019a5d0       ?saveTetrahedronMeshData@TetrahedronMeshBuilder@physx@@SA_NAEAVPxOutputStream@2@_NAEBUPxCookingParams@2@AEBVTetrahedronMeshData@Gu@2@@Z 000000018019b5d0 f   GuCookingTetrahedronMesh.obj
 0001:0019a780       ?smoothMassRatiosWhilePreservingTotalMass@@YAXPEAMIPEBIHMM@Z 000000018019b780 f   GuCookingTetrahedronMesh.obj
 0001:0019ac20       ?support@?$LocalConvex@VTetrahedronV@Gu@physx@@@Gu@physx@@UEBA?AT__m128@@AEBT4@@Z 000000018019bc20 f i GuCookingTetrahedronMesh.obj
 0001:0019ace0       ?support@?$LocalConvex@VTetrahedronV@Gu@physx@@@Gu@physx@@UEBA?AT__m128@@AEBT4@AEAH@Z 000000018019bce0 f i GuCookingTetrahedronMesh.obj
 0001:0019ae90       assembleSoftBodyMesh       000000018019be90 f   GuCookingTetrahedronMesh.obj
 0001:0019aef0       assembleSoftBodyMesh_Sim   000000018019bef0 f   GuCookingTetrahedronMesh.obj
 0001:0019afa0       computeCollisionData       000000018019bfa0 f   GuCookingTetrahedronMesh.obj
 0001:0019b1a0       computeModelsMapping       000000018019c1a0 f   GuCookingTetrahedronMesh.obj
 0001:0019b2a0       computeSimulationData      000000018019c2a0 f   GuCookingTetrahedronMesh.obj
 0001:0019b470       cookSoftBodyMesh           000000018019c470 f   GuCookingTetrahedronMesh.obj
 0001:0019ba90       cookTetrahedronMesh        000000018019ca90 f   GuCookingTetrahedronMesh.obj
 0001:0019bb80       createSoftBodyMesh         000000018019cb80 f   GuCookingTetrahedronMesh.obj
 0001:0019c220       createTetrahedronMesh      000000018019d220 f   GuCookingTetrahedronMesh.obj
 0001:0019df00       ?computeVolumeIntegrals@physx@@YA_NAEBVPxSimpleTriangleMesh@1@MAEAUPxIntegrals@1@@Z 000000018019ef00 f   GuCookingVolumeIntegration.obj
 0001:0019df40       ?computeVolumeIntegralsEberly@physx@@YA_NAEBVPxConvexMeshDesc@1@MAEAUPxIntegrals@1@AEBV?$PxVec3T@M@1@_N@Z 000000018019ef40 f   GuCookingVolumeIntegration.obj
 0001:0019e5a0       ??0QuickHull@local@@QEAA@AEBUPxCookingParams@physx@@AEBVPxConvexMeshDesc@3@@Z 000000018019f5a0 f   GuCookingQuickHullConvexHullLib.obj
 0001:0019e650       ??0QuickHullConvexHullLib@physx@@QEAA@AEBVPxConvexMeshDesc@1@AEBUPxCookingParams@1@@Z 000000018019f650 f   GuCookingQuickHullConvexHullLib.obj
 0001:0019e730       ??1?$MemBlock@UQuickHullFace@local@@$00@local@@QEAA@XZ 000000018019f730 f i GuCookingQuickHullConvexHullLib.obj
 0001:0019e730       ??1?$MemBlock@UQuickHullHalfEdge@local@@$0A@@local@@QEAA@XZ 000000018019f730 f i GuCookingQuickHullConvexHullLib.obj
 0001:0019e7f0       ??1QuickHull@local@@QEAA@XZ 000000018019f7f0 f   GuCookingQuickHullConvexHullLib.obj
 0001:0019e950       ??_GConvexHull@physx@@QEAAPEAXI@Z 000000018019f950 f i GuCookingQuickHullConvexHullLib.obj
 0001:0019ea40       ??_EConvexHullLib@physx@@UEAAPEAXI@Z 000000018019fa40 f i GuCookingQuickHullConvexHullLib.obj
 0001:0019ea40       ??_GConvexHullLib@physx@@UEAAPEAXI@Z 000000018019fa40 f i GuCookingQuickHullConvexHullLib.obj
 0001:0019ea80       ??_EQuickHullConvexHullLib@physx@@UEAAPEAXI@Z 000000018019fa80 f i GuCookingQuickHullConvexHullLib.obj
 0001:0019ea80       ??_GQuickHullConvexHullLib@physx@@UEAAPEAXI@Z 000000018019fa80 f i GuCookingQuickHullConvexHullLib.obj
 0001:0019eba0       ?addPointToHull@QuickHull@local@@IEAA_NPEBUQuickHullVertex@2@AEAUQuickHullFace@2@AEA_N@Z 000000018019fba0 f   GuCookingQuickHullConvexHullLib.obj
 0001:0019ee70       ?addSimplex@QuickHull@local@@IEAA_NPEAUQuickHullVertex@2@_N@Z 000000018019fe70 f   GuCookingQuickHullConvexHullLib.obj
 0001:0019f3f0       ?allocate@?$PxArray@PEAUQuickHullFace@local@@V?$PxReflectionAllocator@PEAUQuickHullFace@local@@@physx@@@physx@@IEAAPEAPEAUQuickHullFace@local@@I@Z 00000001801a03f0 f i GuCookingQuickHullConvexHullLib.obj
 0001:0019f480       ?allocate@?$PxArray@PEAUQuickHullHalfEdge@local@@V?$PxReflectionAllocator@PEAUQuickHullHalfEdge@local@@@physx@@@physx@@IEAAPEAPEAUQuickHullHalfEdge@local@@I@Z 00000001801a0480 f i GuCookingQuickHullConvexHullLib.obj
 0001:0019f510       ?allocate@?$PxArray@PEAUQuickHullVertex@local@@V?$PxReflectionAllocator@PEAUQuickHullVertex@local@@@physx@@@physx@@IEAAPEAPEAUQuickHullVertex@local@@I@Z 00000001801a0510 f i GuCookingQuickHullConvexHullLib.obj
 0001:0019f5a0       ?allocate@?$PxArray@UExpandPoint@local@@V?$PxReflectionAllocator@UExpandPoint@local@@@physx@@@physx@@IEAAPEAUExpandPoint@local@@I@Z 00000001801a05a0 f i GuCookingQuickHullConvexHullLib.obj
 0001:0019f630       ?allocate@?$PxArray@VPxPlane@physx@@V?$PxReflectionAllocator@VPxPlane@physx@@@2@@physx@@IEAAPEAVPxPlane@2@I@Z 00000001801a0630 f i GuCookingQuickHullConvexHullLib.obj
 0001:0019f6c0       ?buildHull@QuickHull@local@@QEAA?AW4Enum@QuickHullResult@2@XZ 00000001801a06c0 f   GuCookingQuickHullConvexHullLib.obj
 0001:0019f910       ?calculateHorizon@QuickHull@local@@IEAAXAEBV?$PxVec3T@M@physx@@PEAUQuickHullHalfEdge@2@AEAUQuickHullFace@2@AEAV?$PxArray@PEAUQuickHullHalfEdge@local@@V?$PxReflectionAllocator@PEAUQuickHullHalfEdge@local@@@physx@@@4@AEAV?$PxArray@PEAUQuickHullFace@local@@V?$PxReflectionAllocator@PEAUQuickHullFace@local@@@physx@@@4@@Z 00000001801a0910 f   GuCookingQuickHullConvexHullLib.obj
 0001:0019fac0       ?canMergeFaces@QuickHull@local@@IEAA_NAEBUQuickHullHalfEdge@2@@Z 00000001801a0ac0 f   GuCookingQuickHullConvexHullLib.obj
 0001:001a02f0       ?cleanupForSimplex@QuickHullConvexHullLib@physx@@IEAA_NPEAV?$PxVec3T@M@2@IPEAUQuickHullVertex@local@@1AEAM2@Z 00000001801a12f0 f   GuCookingQuickHullConvexHullLib.obj
 0001:001a0f40       ?computeMinMaxVerts@QuickHull@local@@IEAAXXZ 00000001801a1f40 f   GuCookingQuickHullConvexHullLib.obj
 0001:001a1310       ?connectHalfEdges@QuickHullFace@local@@AEAAPEAU12@PEAUQuickHullHalfEdge@2@0@Z 00000001801a2310 f   GuCookingQuickHullConvexHullLib.obj
 0001:001a1680       ?copy@?$PxArray@UExpandPoint@local@@V?$PxReflectionAllocator@UExpandPoint@local@@@physx@@@physx@@KAXPEAUExpandPoint@local@@0PEBU34@@Z 00000001801a2680 f i GuCookingQuickHullConvexHullLib.obj
 0001:001a1730       ?copy@?$PxArray@VPxPlane@physx@@V?$PxReflectionAllocator@VPxPlane@physx@@@2@@physx@@KAXPEAVPxPlane@2@0PEBV32@@Z 00000001801a2730 f i GuCookingQuickHullConvexHullLib.obj
 0001:001a1830       ?createConvexHull@QuickHullConvexHullLib@physx@@UEAA?AW4Enum@PxConvexMeshCookingResult@2@XZ 00000001801a2830 f   GuCookingQuickHullConvexHullLib.obj
 0001:001a1c40       ?createEdgeList@QuickHullConvexHullLib@physx@@UEAA_NIPEBEPEAPEAEPEAPEAG2@Z 00000001801a2c40 f   GuCookingQuickHullConvexHullLib.obj
 0001:001a1e60       ?createTriangle@QuickHull@local@@IEAAPEAUQuickHullFace@2@AEBUQuickHullVertex@2@00@Z 00000001801a2e60 f   GuCookingQuickHullConvexHullLib.obj
 0001:001a2230       ?doAdjacentMerge@QuickHull@local@@IEAA_NAEAUQuickHullFace@2@_NAEA_N@Z 00000001801a3230 f   GuCookingQuickHullConvexHullLib.obj
 0001:001a2580       ?expandHull@QuickHullConvexHullLib@physx@@IEAA?AW4Enum@PxConvexMeshCookingResult@2@XZ 00000001801a3580 f   GuCookingQuickHullConvexHullLib.obj
 0001:001a2ec0       ?expandHullOBB@QuickHullConvexHullLib@physx@@IEAA?AW4Enum@PxConvexMeshCookingResult@2@XZ 00000001801a3ec0 f   GuCookingQuickHullConvexHullLib.obj
 0001:001a3300       ?fillConvexMeshDesc@QuickHullConvexHullLib@physx@@UEAAXAEAVPxConvexMeshDesc@2@@Z 00000001801a4300 f   GuCookingQuickHullConvexHullLib.obj
 0001:001a3350       ?fillConvexMeshDescFromCroppedHull@QuickHullConvexHullLib@physx@@IEAAXAEAVPxConvexMeshDesc@2@@Z 00000001801a4350 f   GuCookingQuickHullConvexHullLib.obj
 0001:001a3540       ?fillConvexMeshDescFromQuickHull@QuickHullConvexHullLib@physx@@IEAAXAEAVPxConvexMeshDesc@2@@Z 00000001801a4540 f   GuCookingQuickHullConvexHullLib.obj
 0001:001a38c0       ?findSimplex@QuickHull@local@@IEAA_NXZ 00000001801a48c0 f   GuCookingQuickHullConvexHullLib.obj
 0001:001a4560       ?getFreeItem@?$MemBlock@UQuickHullFace@local@@$00@local@@QEAAPEAUQuickHullFace@2@XZ 00000001801a5560 f i GuCookingQuickHullConvexHullLib.obj
 0001:001a4690       ?getFreeItem@?$MemBlock@UQuickHullHalfEdge@local@@$0A@@local@@QEAAPEAUQuickHullHalfEdge@2@XZ 00000001801a5690 f i GuCookingQuickHullConvexHullLib.obj
 0001:001a4760       ?growAndPushBack@?$PxArray@PEAUQuickHullFace@local@@V?$PxReflectionAllocator@PEAUQuickHullFace@local@@@physx@@@physx@@IEAAAEAPEAUQuickHullFace@local@@AEBQEAU34@@Z 00000001801a5760 f i GuCookingQuickHullConvexHullLib.obj
 0001:001a4820       ?growAndPushBack@?$PxArray@PEAUQuickHullHalfEdge@local@@V?$PxReflectionAllocator@PEAUQuickHullHalfEdge@local@@@physx@@@physx@@IEAAAEAPEAUQuickHullHalfEdge@local@@AEBQEAU34@@Z 00000001801a5820 f i GuCookingQuickHullConvexHullLib.obj
 0001:001a48e0       ?growAndPushBack@?$PxArray@PEAUQuickHullVertex@local@@V?$PxReflectionAllocator@PEAUQuickHullVertex@local@@@physx@@@physx@@IEAAAEAPEAUQuickHullVertex@local@@AEBQEAU34@@Z 00000001801a58e0 f i GuCookingQuickHullConvexHullLib.obj
 0001:001a49a0       ?growAndPushBack@?$PxArray@UExpandPoint@local@@V?$PxReflectionAllocator@UExpandPoint@local@@@physx@@@physx@@IEAAAEAUExpandPoint@local@@AEBU34@@Z 00000001801a59a0 f i GuCookingQuickHullConvexHullLib.obj
 0001:001a4aa0       ?growAndPushBack@?$PxArray@VPxPlane@physx@@V?$PxReflectionAllocator@VPxPlane@physx@@@2@@physx@@IEAAAEAVPxPlane@2@AEBV32@@Z 00000001801a5aa0 f i GuCookingQuickHullConvexHullLib.obj
 0001:001a4b60       ?init@?$MemBlock@UQuickHullFace@local@@$00@local@@QEAAXI@Z 00000001801a5b60 f i GuCookingQuickHullConvexHullLib.obj
 0001:001a4c60       ?init@?$MemBlock@UQuickHullHalfEdge@local@@$0A@@local@@QEAAXI@Z 00000001801a5c60 f i GuCookingQuickHullConvexHullLib.obj
 0001:001a4d00       ?mergeAdjacentFace@QuickHullFace@local@@QEAA_NPEAUQuickHullHalfEdge@2@AEAV?$PxArray@PEAUQuickHullFace@local@@V?$PxReflectionAllocator@PEAUQuickHullFace@local@@@physx@@@physx@@@Z 00000001801a5d00 f   GuCookingQuickHullConvexHullLib.obj
 0001:001a5160       ?nextPointToAdd@QuickHull@local@@IEAAPEAUQuickHullVertex@2@AEAPEAUQuickHullFace@2@@Z 00000001801a6160 f   GuCookingQuickHullConvexHullLib.obj
 0001:001a52e0       ?parseInputVertices@QuickHull@local@@QEAAXPEBV?$PxVec3T@M@physx@@I@Z 00000001801a62e0 f   GuCookingQuickHullConvexHullLib.obj
 0001:001a5460       ?postMergeHull@QuickHull@local@@IEAAXXZ 00000001801a6460 f   GuCookingQuickHullConvexHullLib.obj
 0001:001a56c0       ?preallocate@QuickHull@local@@QEAAXI@Z 00000001801a66c0 f   GuCookingQuickHullConvexHullLib.obj
 0001:001a5800       ?recreate@?$PxArray@PEAUQuickHullFace@local@@V?$PxReflectionAllocator@PEAUQuickHullFace@local@@@physx@@@physx@@IEAAXI@Z 00000001801a6800 f i GuCookingQuickHullConvexHullLib.obj
 0001:001a58a0       ?recreate@?$PxArray@PEAUQuickHullHalfEdge@local@@V?$PxReflectionAllocator@PEAUQuickHullHalfEdge@local@@@physx@@@physx@@IEAAXI@Z 00000001801a68a0 f i GuCookingQuickHullConvexHullLib.obj
 0001:001a5940       ?recreate@?$PxArray@PEAUQuickHullVertex@local@@V?$PxReflectionAllocator@PEAUQuickHullVertex@local@@@physx@@@physx@@IEAAXI@Z 00000001801a6940 f i GuCookingQuickHullConvexHullLib.obj
 0001:001a59e0       ?recreate@?$PxArray@UExpandPoint@local@@V?$PxReflectionAllocator@UExpandPoint@local@@@physx@@@physx@@IEAAXI@Z 00000001801a69e0 f i GuCookingQuickHullConvexHullLib.obj
 0001:001a5a70       ?recreate@?$PxArray@VPxPlane@physx@@V?$PxReflectionAllocator@VPxPlane@physx@@@2@@physx@@IEAAXI@Z 00000001801a6a70 f i GuCookingQuickHullConvexHullLib.obj
 0001:001a5b00       ?resolveUnclaimedPoints@QuickHull@local@@IEAAXAEBV?$PxArray@PEAUQuickHullFace@local@@V?$PxReflectionAllocator@PEAUQuickHullFace@local@@@physx@@@physx@@@Z 00000001801a6b00 f   GuCookingQuickHullConvexHullLib.obj
 0001:001a5d80       ??$copy@V?$PxReflectionAllocator@VPair@@@physx@@@?$PxArray@VPair@@V?$PxReflectionAllocator@VPair@@@physx@@@physx@@IEAAXAEBV01@@Z 00000001801a6d80 f i GuCookingConvexPolygonsBuilder.obj
 0001:001a5e00       ??0ConvexPolygonsBuilder@physx@@QEAA@PEAUConvexHullData@Gu@1@_N@Z 00000001801a6e00 f   GuCookingConvexPolygonsBuilder.obj
 0001:001a5e20       ??1ConvexPolygonsBuilder@physx@@QEAA@XZ 00000001801a6e20 f   GuCookingConvexPolygonsBuilder.obj
 0001:001a6670       ?allocate@?$PxArray@VPair@@V?$PxReflectionAllocator@VPair@@@physx@@@physx@@IEAAPEAVPair@@I@Z 00000001801a7670 f i GuCookingConvexPolygonsBuilder.obj
 0001:001a7150       ?computeHullPolygons@ConvexPolygonsBuilder@physx@@QEAA_NAEBIPEBV?$PxVec3T@M@2@0PEBI@Z 00000001801a8150 f   GuCookingConvexPolygonsBuilder.obj
 0001:001a8410       ?createPolygonData@ConvexPolygonsBuilder@physx@@AEAA_NXZ 00000001801a9410 f   GuCookingConvexPolygonsBuilder.obj
 0001:001a8e70       ?createTrianglesFromPolygons@ConvexPolygonsBuilder@physx@@AEAA_NXZ 00000001801a9e70 f   GuCookingConvexPolygonsBuilder.obj
 0001:001aa4f0       ?growAndPushBack@?$PxArray@VPair@@V?$PxReflectionAllocator@VPair@@@physx@@@physx@@IEAAAEAVPair@@AEBV3@@Z 00000001801ab4f0 f i GuCookingConvexPolygonsBuilder.obj
 0001:001aa680       ??0ConvexMeshBuilder@physx@@QEAA@_N@Z 00000001801ab680 f   GuCookingConvexMeshBuilder.obj
 0001:001aa6f0       ??1ConvexMeshBuilder@physx@@QEAA@XZ 00000001801ab6f0 f   GuCookingConvexMeshBuilder.obj
 0001:001aab80       ?build@ConvexMeshBuilder@physx@@QEAA_NAEBVPxConvexMeshDesc@2@I_NPEAVConvexHullLib@2@@Z 00000001801abb80 f   GuCookingConvexMeshBuilder.obj
 0001:001aaf10       ?checkExtentRadiusRatio@ConvexMeshBuilder@physx@@QEAA_NXZ 00000001801abf10 f   GuCookingConvexMeshBuilder.obj
 0001:001aaf40       ?computeHullPolygons@ConvexMeshBuilder@physx@@QEAA_NAEBIPEBV?$PxVec3T@M@2@0PEBIAEAVPxAllocatorCallback@2@AEAIAEAPEAV32@4AEAPEAI4AEAPEAUPxHullPolygon@2@@Z 00000001801abf40 f   GuCookingConvexMeshBuilder.obj
 0001:001ab150       ?computeMassInfo@ConvexMeshBuilder@physx@@QEAAX_N@Z 00000001801ac150 f   GuCookingConvexMeshBuilder.obj
 0001:001ab4e0       ?computeSDF@ConvexMeshBuilder@physx@@QEAAXAEBVPxConvexMeshDesc@2@@Z 00000001801ac4e0 f   GuCookingConvexMeshBuilder.obj
 0001:001ab8f0       ?copy@ConvexMeshBuilder@physx@@QEAA_NAEAUConvexHullInitData@Gu@2@@Z 00000001801ac8f0 f   GuCookingConvexMeshBuilder.obj
 0001:001aba50       ?loadConvexHull@ConvexMeshBuilder@physx@@QEAA_NAEBVPxConvexMeshDesc@2@PEAVConvexHullLib@2@@Z 00000001801aca50 f   GuCookingConvexMeshBuilder.obj
 0001:001abca0       ?save@ConvexMeshBuilder@physx@@QEBA_NAEAVPxOutputStream@2@_N@Z 00000001801acca0 f   GuCookingConvexMeshBuilder.obj
 0001:001ac0c0       ??0ConvexHull@physx@@QEAA@AEBV?$PxVec3T@M@1@AEBV?$PxTransformT@M@1@AEBV?$PxArray@VPxPlane@physx@@V?$PxReflectionAllocator@VPxPlane@physx@@@2@@1@@Z 00000001801ad0c0 f   GuCookingConvexHullUtils.obj
 0001:001ad1e0       ?allocate@?$PxArray@VHalfEdge@ConvexHull@physx@@V?$PxReflectionAllocator@VHalfEdge@ConvexHull@physx@@@3@@physx@@IEAAPEAVHalfEdge@ConvexHull@2@I@Z 00000001801ae1e0 f i GuCookingConvexHullUtils.obj
 0001:001ad270       ?assertIntact@ConvexHull@physx@@QEBA_NM@Z 00000001801ae270 f   GuCookingConvexHullUtils.obj
 0001:001ad590       ?computeOBBFromConvex@physx@@YA_NAEBVPxConvexMeshDesc@1@AEAV?$PxVec3T@M@1@AEAV?$PxTransformT@M@1@@Z 00000001801ae590 f   GuCookingConvexHullUtils.obj
 0001:001adbf0       ?computeOBBSIMD@local@@YAXIPEBT__m128@@AEAT2@AEBT2@1@Z 00000001801aebf0 f   GuCookingConvexHullUtils.obj
 0001:001adfa0       ?convexHullCrop@physx@@YAPEAVConvexHull@1@AEBV21@AEBVPxPlane@1@M@Z 00000001801aefa0 f   GuCookingConvexHullUtils.obj
 0001:001aeda0       ?findCandidatePlane@ConvexHull@physx@@QEBAHMM@Z 00000001801afda0 f   GuCookingConvexHullUtils.obj
 0001:001af1f0       ?growAndPushBack@?$PxArray@VHalfEdge@ConvexHull@physx@@V?$PxReflectionAllocator@VHalfEdge@ConvexHull@physx@@@3@@physx@@IEAAAEAVHalfEdge@ConvexHull@2@AEBV342@@Z 00000001801b01f0 f i GuCookingConvexHullUtils.obj
 0001:001af2b0       ?maxNumVertsPerFace@ConvexHull@physx@@QEBAIXZ 00000001801b02b0 f   GuCookingConvexHullUtils.obj
 0001:001af320       ?recreate@?$PxArray@VHalfEdge@ConvexHull@physx@@V?$PxReflectionAllocator@VHalfEdge@ConvexHull@physx@@@3@@physx@@IEAAXI@Z 00000001801b0320 f i GuCookingConvexHullUtils.obj
 0001:001af3c0       ?resize@?$PxArray@VHalfEdge@ConvexHull@physx@@V?$PxReflectionAllocator@VHalfEdge@ConvexHull@physx@@@3@@physx@@QEAAXIAEBVHalfEdge@ConvexHull@2@@Z 00000001801b03c0 f i GuCookingConvexHullUtils.obj
 0001:001af480       ?resize@?$PxArray@VPxPlane@physx@@V?$PxReflectionAllocator@VPxPlane@physx@@@2@@physx@@QEAAXIAEBVPxPlane@2@@Z 00000001801b0480 f i GuCookingConvexHullUtils.obj
 0001:001af5a0       ??1ConvexHullLib@physx@@UEAA@XZ 00000001801b05a0 f   GuCookingConvexHullLib.obj
 0001:001afb90       ?cleanupVertices@ConvexHullLib@physx@@IEAA_NIPEBV?$PxVec3T@M@2@IAEAIPEAV32@@Z 00000001801b0b90 f   GuCookingConvexHullLib.obj
 0001:001afcd0       ?shiftAndcleanupVertices@ConvexHullLib@physx@@IEAA_NIPEBV?$PxVec3T@M@2@IAEAIPEAV32@@Z 00000001801b0cd0 f   GuCookingConvexHullLib.obj
 0001:001b02b0       ?shiftConvexMeshDesc@ConvexHullLib@physx@@IEAAXAEAVPxConvexMeshDesc@2@@Z 00000001801b12b0 f   GuCookingConvexHullLib.obj
 0001:001b0370       ?swapLargestFace@ConvexHullLib@physx@@IEAAXAEAVPxConvexMeshDesc@2@@Z 00000001801b1370 f   GuCookingConvexHullLib.obj
 0001:001b05a0       ??0ConvexHullBuilder@physx@@QEAA@PEAUConvexHullData@Gu@1@_N@Z 00000001801b15a0 f   GuCookingConvexHullBuilder.obj
 0001:001b05d0       ??1ConvexHullBuilder@physx@@QEAA@XZ 00000001801b15d0 f   GuCookingConvexHullBuilder.obj
 0001:001b06e0       ?calculateVertexMapTable@ConvexHullBuilder@physx@@QEAA_NI_N@Z 00000001801b16e0 f   GuCookingConvexHullBuilder.obj
 0001:001b08a0       ?checkHullPolygons@ConvexHullBuilder@physx@@QEBA_NXZ 00000001801b18a0 f   GuCookingConvexHullBuilder.obj
 0001:001b1040       ?copy@ConvexHullBuilder@physx@@QEAA_NAEAUConvexHullData@Gu@2@AEAI@Z 00000001801b2040 f   GuCookingConvexHullBuilder.obj
 0001:001b12b0       ?createEdgeList@ConvexHullBuilder@physx@@QEAA_N_NI@Z 00000001801b22b0 f   GuCookingConvexHullBuilder.obj
 0001:001b19f0       ?init@ConvexHullBuilder@physx@@QEAA_NIPEBV?$PxVec3T@M@2@PEBIIIPEBUPxHullPolygon@2@_NPEAVConvexHullLib@2@@Z 00000001801b29f0 f   GuCookingConvexHullBuilder.obj
 0001:001b2340       ?save@ConvexHullBuilder@physx@@QEBA_NAEAVPxOutputStream@2@_N@Z 00000001801b3340 f   GuCookingConvexHullBuilder.obj
 0001:001b2660       ??0BigConvexDataBuilder@physx@@QEAA@PEBUConvexHullData@Gu@1@PEAVBigConvexData@1@PEBV?$PxVec3T@M@1@@Z 00000001801b3660 f   GuCookingBigConvexDataBuilder.obj
 0001:001b2670       ?computeValencies@BigConvexDataBuilder@physx@@QEAA_NAEBVConvexHullBuilder@2@@Z 00000001801b3670 f   GuCookingBigConvexDataBuilder.obj
 0001:001b2a60       ?precompute@BigConvexDataBuilder@physx@@QEAA_NI@Z 00000001801b3a60 f   GuCookingBigConvexDataBuilder.obj
 0001:001b3660       ?save@BigConvexDataBuilder@physx@@QEBA_NAEAVPxOutputStream@2@_N@Z 00000001801b4660 f   GuCookingBigConvexDataBuilder.obj
 0001:001b384e       __imp_load_PxGetFoundation 00000001801b484e f   PhysXFoundation_64:PhysXFoundation_64.dll
 0001:001b385a       __tailMerge_physxfoundation_64_dll 00000001801b485a     PhysXFoundation_64:PhysXFoundation_64.dll
 0001:001b38d3       __imp_load_PxGetBroadcastAllocator 00000001801b48d3 f   PhysXFoundation_64:PhysXFoundation_64.dll
 0001:001b38df       __imp_load_?PxAtomicIncrement@physx@@YAHPECH@Z 00000001801b48df f   PhysXFoundation_64:PhysXFoundation_64.dll
 0001:001b38eb       __imp_load_??0PxMutexImpl@physx@@QEAA@XZ 00000001801b48eb f   PhysXFoundation_64:PhysXFoundation_64.dll
 0001:001b38f7       __imp_load_??1PxMutexImpl@physx@@QEAA@XZ 00000001801b48f7 f   PhysXFoundation_64:PhysXFoundation_64.dll
 0001:001b3903       __imp_load_?lock@PxMutexImpl@physx@@QEAAXXZ 00000001801b4903 f   PhysXFoundation_64:PhysXFoundation_64.dll
 0001:001b390f       __imp_load_?unlock@PxMutexImpl@physx@@QEAAXXZ 00000001801b490f f   PhysXFoundation_64:PhysXFoundation_64.dll
 0001:001b391b       __imp_load_?getSize@PxMutexImpl@physx@@SAIXZ 00000001801b491b f   PhysXFoundation_64:PhysXFoundation_64.dll
 0001:001b3927       __imp_load_?PxAtomicDecrement@physx@@YAHPECH@Z 00000001801b4927 f   PhysXFoundation_64:PhysXFoundation_64.dll
 0001:001b3933       __imp_load_?PxTransformFromSegment@physx@@YA?AV?$PxTransformT@M@1@AEBV?$PxVec3T@M@1@0PEAM@Z 00000001801b4933 f   PhysXFoundation_64:PhysXFoundation_64.dll
 0001:001b393f       __imp_load_?PxAtomicAdd@physx@@YAHPECHH@Z 00000001801b493f f   PhysXFoundation_64:PhysXFoundation_64.dll
 0001:001b394b       __imp_load_?getDefaultStackSize@PxThreadImpl@physx@@SAIXZ 00000001801b494b f   PhysXFoundation_64:PhysXFoundation_64.dll
 0001:001b3957       __imp_load_??0PxThreadImpl@physx@@QEAA@P6APEAXPEAX@Z0PEBD@Z 00000001801b4957 f   PhysXFoundation_64:PhysXFoundation_64.dll
 0001:001b3963       __imp_load_??1PxThreadImpl@physx@@QEAA@XZ 00000001801b4963 f   PhysXFoundation_64:PhysXFoundation_64.dll
 0001:001b396f       __imp_load_?start@PxThreadImpl@physx@@QEAAXIPEAVPxRunnable@2@@Z 00000001801b496f f   PhysXFoundation_64:PhysXFoundation_64.dll
 0001:001b397b       __imp_load_?waitForQuit@PxThreadImpl@physx@@QEAA_NXZ 00000001801b497b f   PhysXFoundation_64:PhysXFoundation_64.dll
 0001:001b3987       __imp_load_?getSize@PxThreadImpl@physx@@SAIXZ 00000001801b4987 f   PhysXFoundation_64:PhysXFoundation_64.dll
 0001:001b3993       __imp_load_?allocate@PxTempAllocator@physx@@QEAAPEAX_KPEBDH@Z 00000001801b4993 f   PhysXFoundation_64:PhysXFoundation_64.dll
 0001:001b399f       __imp_load_?deallocate@PxTempAllocator@physx@@QEAAXPEAX@Z 00000001801b499f f   PhysXFoundation_64:PhysXFoundation_64.dll
 0001:001b39ab       __imp_load_?PxOptimizeBoundingBox@physx@@YA?AV?$PxVec3T@M@1@AEAV?$PxMat33T@M@1@@Z 00000001801b49ab f   PhysXFoundation_64:PhysXFoundation_64.dll
 0001:001b39b7       __imp_load_?Pxstrcmp@physx@@YAHPEBD0@Z 00000001801b49b7 f   PhysXFoundation_64:PhysXFoundation_64.dll
 0001:001b39c3       __imp_load_PxGetProfilerCallback 00000001801b49c3 f   PhysXFoundation_64:PhysXFoundation_64.dll
 0001:001b39cf       __imp_load_??0PxFPUGuard@physx@@QEAA@XZ 00000001801b49cf f   PhysXFoundation_64:PhysXFoundation_64.dll
 0001:001b39db       __imp_load_??1PxFPUGuard@physx@@QEAA@XZ 00000001801b49db f   PhysXFoundation_64:PhysXFoundation_64.dll
 0001:001b39e7       __imp_load_?PxDiagonalize@physx@@YA?AV?$PxVec3T@M@1@AEBV?$PxMat33T@M@1@AEAV?$PxQuatT@M@1@@Z 00000001801b49e7 f   PhysXFoundation_64:PhysXFoundation_64.dll
 0001:001b39f4       ?DloadAcquireSectionWriteAccess@@YAXXZ 00000001801b49f4 f i Delayimp:delayhlp.obj
 0001:001b3aa0       ?DloadGetSRWLockFunctionPointers@@YAEXZ 00000001801b4aa0 f i Delayimp:delayhlp.obj
 0001:001b3b40       ?DloadMakePermanentImageCommit@@YAXPEAX_K@Z 00000001801b4b40 f i Delayimp:delayhlp.obj
 0001:001b3bd8       ?DloadObtainSection@@YAPEAXPEAK0@Z 00000001801b4bd8 f i Delayimp:delayhlp.obj
 0001:001b3c74       ?DloadProtectSection@@YAXKPEAK@Z 00000001801b4c74 f i Delayimp:delayhlp.obj
 0001:001b3d04       ?DloadReleaseSectionWriteAccess@@YAXXZ 00000001801b4d04 f i Delayimp:delayhlp.obj
 0001:001b3d98       __delayLoadHelper2         00000001801b4d98 f   Delayimp:delayhlp.obj
 0001:001b4070       ??3@YAXPEAX_K@Z            00000001801b5070 f   LIBCMT:delete_scalar_size.obj
 0001:001b4070       ??_V@YAXPEAX@Z             00000001801b5070 f   LIBCMT:delete_array.obj
 0001:001b4078       ??_Etype_info@@UEAAPEAXI@Z 00000001801b5078 f i LIBCMT:std_type_info_static.obj
 0001:001b4078       ??_Gtype_info@@UEAAPEAXI@Z 00000001801b5078 f i LIBCMT:std_type_info_static.obj
 0001:001b40a4       ?__scrt_initialize_type_info@@YAXXZ 00000001801b50a4 f   LIBCMT:tncleanup.obj
 0001:001b40b4       ?__scrt_uninitialize_type_info@@YAXXZ 00000001801b50b4 f   LIBCMT:tncleanup.obj
 0001:001b40d0       __chkstk                   00000001801b50d0 f   LIBCMT:chkstk.obj
 0001:001b40d0       _alloca_probe              00000001801b50d0 f   LIBCMT:chkstk.obj
 0001:001b4120       __vdecl_sinf4              00000001801b5120 f   LIBCMT:svml_ssinf4_dispatch.obj
 0001:001b4140       __libm_sse2_sincosf_       00000001801b5140 f   LIBCMT:svml_ssinf4_dispatch.obj
 0001:001b4183       __libm_sse2_sincosf4_      00000001801b5183 f   LIBCMT:svml_ssinf4_dispatch.obj
 0001:001b4190       ??3@YAXPEAX@Z              00000001801b5190 f   LIBCMT:delete_scalar.obj
 0001:001b4198       __scrt_acquire_startup_lock 00000001801b5198 f   LIBCMT:utility.obj
 0001:001b41d4       __scrt_dllmain_after_initialize_c 00000001801b51d4 f   LIBCMT:utility.obj
 0001:001b4208       __scrt_dllmain_before_initialize_c 00000001801b5208 f   LIBCMT:utility.obj
 0001:001b4220       __scrt_dllmain_crt_thread_attach 00000001801b5220 f   LIBCMT:utility.obj
 0001:001b4248       __scrt_dllmain_crt_thread_detach 00000001801b5248 f   LIBCMT:utility.obj
 0001:001b4260       __scrt_dllmain_exception_filter 00000001801b5260 f   LIBCMT:utility.obj
 0001:001b42c0       __scrt_dllmain_uninitialize_c 00000001801b52c0 f   LIBCMT:utility.obj
 0001:001b42f0       __scrt_dllmain_uninitialize_critical 00000001801b52f0 f   LIBCMT:utility.obj
 0001:001b4304       __scrt_initialize_crt      00000001801b5304 f   LIBCMT:utility.obj
 0001:001b4350       __scrt_initialize_onexit_tables 00000001801b5350 f   LIBCMT:utility.obj
 0001:001b43dc       __scrt_is_nonwritable_in_current_image 00000001801b53dc f   LIBCMT:utility.obj
 0001:001b4474       __scrt_release_startup_lock 00000001801b5474 f   LIBCMT:utility.obj
 0001:001b4498       __scrt_uninitialize_crt    00000001801b5498 f   LIBCMT:utility.obj
 0001:001b44c4       _onexit                    00000001801b54c4 f   LIBCMT:utility.obj
 0001:001b4500       atexit                     00000001801b5500 f   LIBCMT:utility.obj
 0001:001b4518       __isa_available_init       00000001801b5518 f   LIBCMT:cpu_disp.obj
 0001:001b49e4       _DllMainCRTStartup         00000001801b59e4 f   LIBCMT:dll_dllmain.obj
 0001:001b4a30       __sse2_sinf4@@16           00000001801b5a30 f   LIBCMT:svml_ssinf4_sse2.obj
 0001:001b5370       __sse4_sinf4@@16           00000001801b6370 f   LIBCMT:svml_ssinf4_sse4.obj
 0001:001b5ae4       __scrt_is_ucrt_dll_in_use  00000001801b6ae4 f   LIBCMT:ucrt_detection.obj
 0001:001b5af0       __crt_debugger_hook        00000001801b6af0 f   LIBCMT:utility_desktop.obj
 0001:001b5af8       __scrt_fastfail            00000001801b6af8 f   LIBCMT:utility_desktop.obj
 0001:001b5c44       __security_init_cookie     00000001801b6c44 f   LIBCMT:gs_support.obj
 0001:001b5cf0       __local_stdio_scanf_options 00000001801b6cf0 f i LIBCMT:default_local_stdio_options.obj
 0001:001b5cf8       __scrt_initialize_default_local_stdio_options 00000001801b6cf8 f   LIBCMT:default_local_stdio_options.obj
 0001:001b5d14       __scrt_get_dyn_tls_init_callback 00000001801b6d14 f   LIBCMT:dyn_tls_init.obj
 0001:001b5d1c       _RTC_Initialize            00000001801b6d1c f   LIBCMT:initsect.obj
 0001:001b5d58       _RTC_Terminate             00000001801b6d58 f   LIBCMT:initsect.obj
 0001:001b5da0       __common_ssin_cout_rare    00000001801b6da0 f   LIBCMT:svml_s_sin_cout.obj
 0001:001b5e20       memcpy_repmovs             00000001801b6e20 f   libvcruntime:memcpy.obj
 0001:001b5e40       memcpy                     00000001801b6e40 f   libvcruntime:memcpy.obj
 0001:001b5e40       memmove                    00000001801b6e40 f   libvcruntime:memcpy.obj
 0001:001b64b0       _get_purecall_handler      00000001801b74b0 f   libvcruntime:purevirt.obj
 0001:001b64bc       _purecall                  00000001801b74bc f   libvcruntime:purevirt.obj
 0001:001b64e0       __std_type_info_compare    00000001801b74e0 f   libvcruntime:std_type_info.obj
 0001:001b6508       __std_type_info_destroy_list 00000001801b7508 f   libvcruntime:std_type_info.obj
 0001:001b6534       __std_type_info_name       00000001801b7534 f   libvcruntime:std_type_info.obj
 0001:001b6660       memset_repstos             00000001801b7660 f   libvcruntime:memset.obj
 0001:001b6680       memset                     00000001801b7680 f   libvcruntime:memset.obj
 0001:001b6a08       strstr                     00000001801b7a08 f   libvcruntime:strstr.obj
 0001:001b6c00       __vcrt_initialize          00000001801b7c00 f   libvcruntime:initialization.obj
 0001:001b6c28       __vcrt_thread_attach       00000001801b7c28 f   libvcruntime:initialization.obj
 0001:001b6c3c       __vcrt_thread_detach       00000001801b7c3c f   libvcruntime:initialization.obj
 0001:001b6c4c       __vcrt_uninitialize        00000001801b7c4c f   libvcruntime:initialization.obj
 0001:001b6c68       __vcrt_uninitialize_critical 00000001801b7c68 f   libvcruntime:initialization.obj
 0001:001b6c78       __C_specific_handler       00000001801b7c78 f   libvcruntime:riscchandler.obj
 0001:001b6e70       __DestructExceptionObject  00000001801b7e70 f   libvcruntime:ehhelpers.obj
 0001:001b6ee0       ?_CallMemberFunction0@@YAXQEAX0@Z 00000001801b7ee0 f i libvcruntime:ehhelpers.obj
 0001:001b6ee4       _IsExceptionObjectToBeDestroyed 00000001801b7ee4 f   libvcruntime:ehhelpers.obj
 0001:001b6f14       __AdjustPointer            00000001801b7f14 f   libvcruntime:ehhelpers.obj
 0001:001b6f38       __FrameUnwindFilter        00000001801b7f38 f   libvcruntime:ehhelpers.obj
 0001:001b6fa0       __std_terminate            00000001801b7fa0 f   libvcruntime:ehhelpers.obj
 0001:001b6fac       ??$?0$00@DName@@QEAA@PEBDU?$StringLifeSelector@$00@@@Z 00000001801b7fac f i libvcruntime:undname.obj
 0001:001b6fec       ??$?0$01@DName@@QEAA@PEBDU?$StringLifeSelector@$01@@@Z 00000001801b7fec f i libvcruntime:undname.obj
 0001:001b6fec       ??$?0$0A@@DName@@QEAA@PEBDU?$StringLifeSelector@$0A@@@@Z 00000001801b7fec f i libvcruntime:undname.obj
 0001:001b702c       ??$?0$01@pcharNode@@QEAA@PEBDHU?$StringLifeSelector@$01@@@Z 00000001801b802c f i libvcruntime:undname.obj
 0001:001b702c       ??$?0$0A@@pcharNode@@QEAA@PEBDHU?$StringLifeSelector@$0A@@@@Z 00000001801b802c f i libvcruntime:undname.obj
 0001:001b70a0       ??$append@VDNameNode@@@DName@@AEAAXPEBVDNameNode@@@Z 00000001801b80a0 f i libvcruntime:undname.obj
 0001:001b70a0       ??$append@VDNameStatusNode@@@DName@@AEAAXPEBVDNameStatusNode@@@Z 00000001801b80a0 f i libvcruntime:undname.obj
 0001:001b70a0       ??$append@VcharNode@@@DName@@AEAAXPEBVcharNode@@@Z 00000001801b80a0 f i libvcruntime:undname.obj
 0001:001b70a0       ??$append@VpcharNode@@@DName@@AEAAXPEBVpcharNode@@@Z 00000001801b80a0 f i libvcruntime:undname.obj
 0001:001b7104       ??$doPchar@$00@DName@@AEAAXPEBDH@Z 00000001801b8104 f i libvcruntime:undname.obj
 0001:001b71a8       ??$doPchar@$01@DName@@AEAAXPEBDH@Z 00000001801b81a8 f i libvcruntime:undname.obj
 0001:001b71a8       ??$doPchar@$0A@@DName@@AEAAXPEBDH@Z 00000001801b81a8 f i libvcruntime:undname.obj
 0001:001b7240       ??0DName@@QEAA@AEAPEBDD@Z  00000001801b8240 f   libvcruntime:undname.obj
 0001:001b72f0       ??0DName@@QEAA@AEBUStringLiteral@@@Z 00000001801b82f0 f   libvcruntime:undname.obj
 0001:001b731c       ??0DName@@QEAA@PEAV0@@Z    00000001801b831c f   libvcruntime:undname.obj
 0001:001b73a0       ??0DName@@QEAA@_J@Z        00000001801b83a0 f   libvcruntime:undname.obj
 0001:001b7448       ??0DName@@QEAA@_K@Z        00000001801b8448 f   libvcruntime:undname.obj
 0001:001b74d0       ??0UnDecorator@@QEAA@PEBDP6APEADJ@ZK@Z 00000001801b84d0 f i libvcruntime:undname.obj
 0001:001b7584       ??2@YAPEAX_KAEAV_HeapManager@@H@Z 00000001801b8584 f   libvcruntime:undname.obj
 0001:001b75b0       ??4DName@@QEAAAEAV0@W4DNameStatus@@@Z 00000001801b85b0 f   libvcruntime:undname.obj
 0001:001b75e0       ??AReplicator@@QEBA?AVDName@@H@Z 00000001801b85e0 f   libvcruntime:undname.obj
 0001:001b7620       ??HDName@@QEBA?AV0@AEBUStringLiteral@@@Z 00000001801b8620 f   libvcruntime:undname.obj
 0001:001b764c       ??HDName@@QEBA?AV0@AEBV0@@Z 00000001801b864c f   libvcruntime:undname.obj
 0001:001b7678       ??HDName@@QEBA?AV0@D@Z     00000001801b8678 f   libvcruntime:undname.obj
 0001:001b76a4       ??HDName@@QEBA?AV0@W4DNameStatus@@@Z 00000001801b86a4 f   libvcruntime:undname.obj
 0001:001b76d0       ??YDName@@QEAAAEAV0@AEBUStringLiteral@@@Z 00000001801b86d0 f   libvcruntime:undname.obj
 0001:001b7750       ??YDName@@QEAAAEAV0@AEBV0@@Z 00000001801b8750 f   libvcruntime:undname.obj
 0001:001b77a8       ??YDName@@QEAAAEAV0@D@Z    00000001801b87a8 f   libvcruntime:undname.obj
 0001:001b7814       ??YDName@@QEAAAEAV0@W4DNameStatus@@@Z 00000001801b8814 f   libvcruntime:undname.obj
 0001:001b786c       ??YReplicator@@QEAAAEAV0@AEBVDName@@@Z 00000001801b886c f   libvcruntime:undname.obj
 0001:001b78c4       ?UScore@UnDecorator@@SA?AUStringLiteral@@W4Tokens@@@Z 00000001801b88c4 f   libvcruntime:undname.obj
 0001:001b7910       ?composeDeclaration@UnDecorator@@CA?AVDName@@AEBV2@@Z 00000001801b8910 f i libvcruntime:undname.obj
 0001:001b8804       ?doPchar@DName@@AEAAXD@Z   00000001801b9804 f   libvcruntime:undname.obj
 0001:001b8854       ?getAddressOf@UnDecorator@@CA?AVDName@@XZ 00000001801b9854 f   libvcruntime:undname.obj
 0001:001b88e4       ?getArgumentList@UnDecorator@@CA?AVDName@@XZ 00000001801b98e4 f   libvcruntime:undname.obj
 0001:001b8a98       ?getArgumentTypes@UnDecorator@@CA?AVDName@@XZ 00000001801b9a98 f   libvcruntime:undname.obj
 0001:001b8be4       ?getArrayAccess@UnDecorator@@CA?AVDName@@XZ 00000001801b9be4 f   libvcruntime:undname.obj
 0001:001b8c80       ?getArrayObject@UnDecorator@@CA?AVDName@@XZ 00000001801b9c80 f   libvcruntime:undname.obj
 0001:001b8d3c       ?getArrayType@UnDecorator@@CA?AVDName@@AEBV2@@Z 00000001801b9d3c f i libvcruntime:undname.obj
 0001:001b8fa8       ?getBasedType@UnDecorator@@CA?AVDName@@XZ 00000001801b9fa8 f   libvcruntime:undname.obj
 0001:001b90a0       ?getBasicDataType@UnDecorator@@CA?AVDName@@AEBV2@@Z 00000001801ba0a0 f   libvcruntime:undname.obj
 0001:001b96a4       ?getCallingConvention@UnDecorator@@CA?AVDName@@XZ 00000001801ba6a4 f   libvcruntime:undname.obj
 0001:001b97dc       ?getDataIndirectType@UnDecorator@@CA?AVDName@@AEBV2@W4IndirectionKind@@0H@Z 00000001801ba7dc f   libvcruntime:undname.obj
 0001:001ba100       ?getDataType@UnDecorator@@CA?AVDName@@PEAV2@@Z 00000001801bb100 f   libvcruntime:undname.obj
 0001:001ba214       ?getDecoratedName@UnDecorator@@CA?AVDName@@XZ 00000001801bb214 f   libvcruntime:undname.obj
 0001:001ba4fc       ?getDimension@UnDecorator@@CA?AVDName@@_N@Z 00000001801bb4fc f   libvcruntime:undname.obj
 0001:001ba644       ?getDispatchTarget@UnDecorator@@CA?AVDName@@XZ 00000001801bb644 f   libvcruntime:undname.obj
 0001:001ba6a4       ?getECSUDataType@UnDecorator@@CA?AVDName@@XZ 00000001801bb6a4 f   libvcruntime:undname.obj
 0001:001ba8a0       ?getEnumType@UnDecorator@@CA?AVDName@@XZ 00000001801bb8a0 f i libvcruntime:undname.obj
 0001:001ba9d0       ?getExtendedDataIndirectType@UnDecorator@@CA?AVDName@@AEAW4IndirectionKind@@AEA_NH@Z 00000001801bb9d0 f   libvcruntime:undname.obj
 0001:001babd4       ?getExternalDataType@UnDecorator@@CA?AVDName@@AEBV2@@Z 00000001801bbbd4 f i libvcruntime:undname.obj
 0001:001bac94       ?getFloatingPoint@UnDecorator@@CA?AVDName@@H@Z 00000001801bbc94 f   libvcruntime:undname.obj
 0001:001badfc       ?getFunctionIndirectType@UnDecorator@@CA?AVDName@@AEBV2@@Z 00000001801bbdfc f   libvcruntime:undname.obj
 0001:001bb330       ?getLastChar@DNameStatusNode@@UEBADXZ 00000001801bc330 f i libvcruntime:undname.obj
 0001:001bb33c       ?getLastChar@charNode@@UEBADXZ 00000001801bc33c f i libvcruntime:undname.obj
 0001:001bb340       ?getLastChar@pDNameNode@@UEBADXZ 00000001801bc340 f i libvcruntime:undname.obj
 0001:001bb36c       ?getLastChar@pairNode@@UEBADXZ 00000001801bc36c f i libvcruntime:undname.obj
 0001:001bb3a4       ?getLastChar@pcharNode@@UEBADXZ 00000001801bc3a4 f i libvcruntime:undname.obj
 0001:001bb3b8       ?getLexicalFrame@UnDecorator@@CA?AVDName@@XZ 00000001801bc3b8 f i libvcruntime:undname.obj
 0001:001bb41c       ?getMemberAccess@UnDecorator@@CA?AVDName@@XZ 00000001801bc41c f   libvcruntime:undname.obj
 0001:001bb4b0       ?getMemoryWithBuffer@_HeapManager@@QEAAPEAX_K@Z 00000001801bc4b0 f   libvcruntime:undname.obj
 0001:001bb540       ?getNoexcept@UnDecorator@@CA?AVDName@@XZ 00000001801bc540 f   libvcruntime:undname.obj
 0001:001bb5a4       ?getNumberOfDimensions@UnDecorator@@CAHXZ 00000001801bc5a4 f   libvcruntime:undname.obj
 0001:001bb60c       ?getOperatorName@UnDecorator@@CA?AVDName@@_NPEA_N@Z 00000001801bc60c f i libvcruntime:undname.obj
 0001:001bbfbc       ?getPointerToMember@UnDecorator@@CA?AVDName@@XZ 00000001801bcfbc f   libvcruntime:undname.obj
 0001:001bc0b4       ?getPrimaryDataType@UnDecorator@@CA?AVDName@@AEBV2@@Z 00000001801bd0b4 f   libvcruntime:undname.obj
 0001:001bc36c       ?getPtrRefDataType@UnDecorator@@CA?AVDName@@AEBV2@H@Z 00000001801bd36c f   libvcruntime:undname.obj
 0001:001bc538       ?getPtrRefType@UnDecorator@@CA?AVDName@@AEBV2@0W4IndirectionKind@@@Z 00000001801bd538 f   libvcruntime:undname.obj
 0001:001bc710       ?getRestrictionSpec@UnDecorator@@CA?AVDName@@XZ 00000001801bd710 f   libvcruntime:undname.obj
 0001:001bc8ec       ?getReturnType@UnDecorator@@CA?AVDName@@PEAV2@@Z 00000001801bd8ec f   libvcruntime:undname.obj
 0001:001bc920       ?getScope@UnDecorator@@CA?AVDName@@XZ 00000001801bd920 f   libvcruntime:undname.obj
 0001:001bcdd8       ?getScopedName@UnDecorator@@CA?AVDName@@XZ 00000001801bddd8 f   libvcruntime:undname.obj
 0001:001bcf1c       ?getSignedDimension@UnDecorator@@CA?AVDName@@XZ 00000001801bdf1c f   libvcruntime:undname.obj
 0001:001bcfa4       ?getString@DNameStatusNode@@UEBAPEADPEAD0@Z 00000001801bdfa4 f i libvcruntime:undname.obj
 0001:001bcfec       ?getString@charNode@@UEBAPEADPEAD0@Z 00000001801bdfec f i libvcruntime:undname.obj
 0001:001bd000       ?getString@pDNameNode@@UEBAPEADPEAD0@Z 00000001801be000 f i libvcruntime:undname.obj
 0001:001bd030       ?getString@pairNode@@UEBAPEADPEAD0@Z 00000001801be030 f i libvcruntime:undname.obj
 0001:001bd07c       ?getString@pcharNode@@UEBAPEADPEAD0@Z 00000001801be07c f i libvcruntime:undname.obj
 0001:001bd0b4       ?getStringEncoding@UnDecorator@@CA?AVDName@@W4PrefixKind@@H@Z 00000001801be0b4 f   libvcruntime:undname.obj
 0001:001bd1c4       ?getStringObject@UnDecorator@@CA?AVDName@@XZ 00000001801be1c4 f   libvcruntime:undname.obj
 0001:001bd22c       ?getSymbolName@UnDecorator@@CA?AVDName@@XZ 00000001801be22c f i libvcruntime:undname.obj
 0001:001bd278       ?getTemplateArgumentList@UnDecorator@@CA?AVDName@@XZ 00000001801be278 f   libvcruntime:undname.obj
 0001:001bd494       ?getTemplateName@UnDecorator@@CA?AVDName@@_N@Z 00000001801be494 f   libvcruntime:undname.obj
 0001:001bd75c       ?getTemplateNonTypeArgument@UnDecorator@@CA?AVDName@@XZ 00000001801be75c f   libvcruntime:undname.obj
 0001:001bdcac       ?getTemplateTypeArgument@UnDecorator@@CA?AVDName@@XZ 00000001801becac f   libvcruntime:undname.obj
 0001:001bde14       ?getThrowTypes@UnDecorator@@CA?AVDName@@XZ 00000001801bee14 f   libvcruntime:undname.obj
 0001:001bde38       ?getTypeEncoding@UnDecorator@@CAHXZ 00000001801bee38 f i libvcruntime:undname.obj
 0001:001be1f4       ?getUndecoratedName@UnDecorator@@QEAAPEADPEADH@Z 00000001801bf1f4 f i libvcruntime:undname.obj
 0001:001be348       ?getUnionObject@UnDecorator@@CA?AVDName@@XZ 00000001801bf348 f   libvcruntime:undname.obj
 0001:001be420       ?getVCallThunkType@UnDecorator@@CA?AVDName@@XZ 00000001801bf420 f i libvcruntime:undname.obj
 0001:001be498       ?getValue@UnDecorator@@CA?AV?$optional@_K@std@@XZ 00000001801bf498 f   libvcruntime:undname.obj
 0001:001be4dc       ?getValueObject@UnDecorator@@CA?AVDName@@XZ 00000001801bf4dc f   libvcruntime:undname.obj
 0001:001be61c       ?getVdispMapType@UnDecorator@@CA?AVDName@@AEBV2@@Z 00000001801bf61c f i libvcruntime:undname.obj
 0001:001be698       ?getVfTableType@UnDecorator@@CA?AVDName@@AEBV2@@Z 00000001801bf698 f i libvcruntime:undname.obj
 0001:001be8a4       ?getZName@UnDecorator@@CA?AVDName@@_N0@Z 00000001801bf8a4 f   libvcruntime:undname.obj
 0001:001beb78       ?length@pDNameNode@@UEBAHXZ 00000001801bfb78 f i libvcruntime:undname.obj
 0001:001beba0       ?length@pairNode@@UEBAHXZ  00000001801bfba0 f i libvcruntime:undname.obj
 0001:001bebe8       ?parseDecoratedName@UnDecorator@@CA?AVDName@@XZ 00000001801bfbe8 f   libvcruntime:undname.obj
 0001:001bed00       ?raw_length@pDNameNode@@UEBAHXZ 00000001801bfd00 f i libvcruntime:undname.obj
 0001:001bed04       ?raw_length@pairNode@@UEBAHXZ 00000001801bfd04 f i libvcruntime:undname.obj
 0001:001bed08       __unDName                  00000001801bfd08 f   libvcruntime:undname.obj
 0001:001bed30       __unDNameEx                00000001801bfd30 f   libvcruntime:undname.obj
 0001:001bee20       snprintf                   00000001801bfe20 f i libvcruntime:undname.obj
 0001:001bee78       sprintf_s                  00000001801bfe78 f i libvcruntime:undname.obj
 0001:001beecc       __vcrt_freefls             00000001801bfecc f   libvcruntime:per_thread_data.obj
 0001:001beeec       __vcrt_freeptd_for_this_thread 00000001801bfeec f   libvcruntime:per_thread_data.obj
 0001:001bef34       __vcrt_getptd              00000001801bff34 f   libvcruntime:per_thread_data.obj
 0001:001bef50       __vcrt_getptd_noexit       00000001801bff50 f   libvcruntime:per_thread_data.obj
 0001:001bf010       __vcrt_initialize_ptd      00000001801c0010 f   libvcruntime:per_thread_data.obj
 0001:001bf058       __vcrt_uninitialize_ptd    00000001801c0058 f   libvcruntime:per_thread_data.obj
 0001:001bf07c       __vcrt_initialize_locks    00000001801c007c f   libvcruntime:locks.obj
 0001:001bf0c4       __vcrt_lock                00000001801c00c4 f   libvcruntime:locks.obj
 0001:001bf0e0       __vcrt_uninitialize_locks  00000001801c00e0 f   libvcruntime:locks.obj
 0001:001bf118       __vcrt_unlock              00000001801c0118 f   libvcruntime:locks.obj
 0001:001bf150       _NLG_Notify                00000001801c0150 f   libvcruntime:notify.obj
 0001:001bf170       __NLG_Dispatch2            00000001801c0170 f   libvcruntime:notify.obj
 0001:001bf180       __NLG_Return2              00000001801c0180 f   libvcruntime:notify.obj
 0001:001bf184       __except_validate_context_record 00000001801c0184 f   libvcruntime:jbcxrval.obj
 0001:001bf1bc       ??$_CallSETranslator@V__FrameHandler3@@@@YAHPEAUEHExceptionRecord@@PEA_KPEAU_CONTEXT@@PEAU_xDISPATCHER_CONTEXT@@PEBU_s_FuncInfo@@K1H@Z 00000001801c01bc f i libvcruntime:risctrnsctrl.obj
 0001:001bf210       ??$_CallSETranslator@V__FrameHandler4@@@@YAHPEAUEHExceptionRecord@@PEA_KPEAU_CONTEXT@@PEAU_xDISPATCHER_CONTEXT@@PEAUFuncInfo4@FH4@@K1H@Z 00000001801c0210 f i libvcruntime:risctrnsctrl.obj
 0001:001bf264       ?CatchTryBlock@__FrameHandler3@@SAPEBU_s_TryBlockMapEntry@@PEBU_s_FuncInfo@@H@Z 00000001801c0264 f   libvcruntime:risctrnsctrl.obj
 0001:001bf2c8       ?DecompFuncInfo@FH4@@YA_JPEAEAEAUFuncInfo4@1@_KH_N@Z 00000001801c02c8 f i libvcruntime:risctrnsctrl.obj
 0001:001bf3fc       ?ExecutionInCatch@__FrameHandler3@@SA_NPEAU_xDISPATCHER_CONTEXT@@PEBU_s_FuncInfo@@@Z 00000001801c03fc f   libvcruntime:risctrnsctrl.obj
 0001:001bf428       ?ExecutionInCatch@__FrameHandler4@@SA_NPEAU_xDISPATCHER_CONTEXT@@PEAUFuncInfo4@FH4@@@Z 00000001801c0428 f   libvcruntime:risctrnsctrl.obj
 0001:001bf430       ?FrameUnwindToEmptyState@__FrameHandler3@@SAXPEA_KPEAU_xDISPATCHER_CONTEXT@@PEBU_s_FuncInfo@@@Z 00000001801c0430 f   libvcruntime:risctrnsctrl.obj
 0001:001bf494       ?FrameUnwindToEmptyState@__FrameHandler4@@SAXPEA_KPEAU_xDISPATCHER_CONTEXT@@PEAUFuncInfo4@FH4@@@Z 00000001801c0494 f   libvcruntime:risctrnsctrl.obj
 0001:001bf4c8       ?GetEstablisherFrame@__FrameHandler3@@SAPEA_KPEA_KPEAU_xDISPATCHER_CONTEXT@@PEBU_s_FuncInfo@@0@Z 00000001801c04c8 f   libvcruntime:risctrnsctrl.obj
 0001:001bf594       ?GetEstablisherFrame@__FrameHandler4@@SAPEA_KPEA_KPEAU_xDISPATCHER_CONTEXT@@PEAUFuncInfo4@FH4@@0@Z 00000001801c0594 f   libvcruntime:risctrnsctrl.obj
 0001:001bf5b8       ?GetRangeOfTrysToCheck@__FrameHandler3@@SA?AU?$pair@Viterator@TryBlockMap@__FrameHandler3@@V123@@std@@AEAVTryBlockMap@1@HPEAU_xDISPATCHER_CONTEXT@@PEBU_s_FuncInfo@@H@Z 00000001801c05b8 f   libvcruntime:risctrnsctrl.obj
 0001:001bf6f8       ?GetRangeOfTrysToCheck@__FrameHandler4@@SA?AU?$pair@Viterator@TryBlockMap4@FH4@@V123@@std@@AEAVTryBlockMap4@FH4@@HPEAU_xDISPATCHER_CONTEXT@@PEAUFuncInfo4@5@H@Z 00000001801c06f8 f   libvcruntime:risctrnsctrl.obj
 0001:001bf864       ?UnwindNestedFrames@__FrameHandler3@@SAXPEA_KPEAUEHExceptionRecord@@PEAU_CONTEXT@@0PEAXPEBU_s_FuncInfo@@HHPEBU_s_HandlerType@@PEAU_xDISPATCHER_CONTEXT@@E@Z 00000001801c0864 f   libvcruntime:risctrnsctrl.obj
 0001:001bf968       ?UnwindNestedFrames@__FrameHandler4@@SAXPEA_KPEAUEHExceptionRecord@@PEAU_CONTEXT@@0PEAXPEAUFuncInfo4@FH4@@HHPEAUHandlerType4@5@PEAU_xDISPATCHER_CONTEXT@@E@Z 00000001801c0968 f   libvcruntime:risctrnsctrl.obj
 0001:001bfa88       ?setBuffer@TryBlockMap4@FH4@@QEAAXViterator@12@@Z 00000001801c0a88 f i libvcruntime:risctrnsctrl.obj
 0001:001bfc4c       _CreateFrameInfo           00000001801c0c4c f   libvcruntime:risctrnsctrl.obj
 0001:001bfc88       _FindAndUnlinkFrame        00000001801c0c88 f   libvcruntime:risctrnsctrl.obj
 0001:001bfcdc       _GetImageBase              00000001801c0cdc f   libvcruntime:risctrnsctrl.obj
 0001:001bfcf0       _GetThrowImageBase         00000001801c0cf0 f   libvcruntime:risctrnsctrl.obj
 0001:001bfd04       _SetImageBase              00000001801c0d04 f   libvcruntime:risctrnsctrl.obj
 0001:001bfd1c       _SetThrowImageBase         00000001801c0d1c f   libvcruntime:risctrnsctrl.obj
 0001:001bfd34       __CxxFrameHandler3         00000001801c0d34 f   libvcruntime:risctrnsctrl.obj
 0001:001bfdbc       __CxxFrameHandler4         00000001801c0dbc f   libvcruntime:risctrnsctrl.obj
 0001:001bffcc       __vcrt_FlsAlloc            00000001801c0fcc f   libvcruntime:winapi_downlevel.obj
 0001:001c0014       __vcrt_FlsFree             00000001801c1014 f   libvcruntime:winapi_downlevel.obj
 0001:001c005c       __vcrt_FlsGetValue         00000001801c105c f   libvcruntime:winapi_downlevel.obj
 0001:001c00a4       __vcrt_FlsSetValue         00000001801c10a4 f   libvcruntime:winapi_downlevel.obj
 0001:001c00f8       __vcrt_InitializeCriticalSectionEx 00000001801c10f8 f   libvcruntime:winapi_downlevel.obj
 0001:001c015c       ?GetCurrentState@__FrameHandler3@@SAHPEA_KPEAU_xDISPATCHER_CONTEXT@@PEBU_s_FuncInfo@@@Z 00000001801c115c f   libvcruntime:ehstate.obj
 0001:001c0184       ?GetUnwindTryBlock@__FrameHandler3@@SAHPEA_KPEAU_xDISPATCHER_CONTEXT@@PEBU_s_FuncInfo@@@Z 00000001801c1184 f   libvcruntime:ehstate.obj
 0001:001c01b0       ?SetState@__FrameHandler3@@SAXPEA_KPEBU_s_FuncInfo@@H@Z 00000001801c11b0 f   libvcruntime:ehstate.obj
 0001:001c01bc       ?SetUnwindTryBlock@__FrameHandler3@@SAXPEA_KPEAU_xDISPATCHER_CONTEXT@@PEBU_s_FuncInfo@@H@Z 00000001801c11bc f   libvcruntime:ehstate.obj
 0001:001c01f8       ?StateFromControlPc@__FrameHandler3@@SAHPEBU_s_FuncInfo@@PEAU_xDISPATCHER_CONTEXT@@@Z 00000001801c11f8 f   libvcruntime:ehstate.obj
 0001:001c0200       ?StateFromControlPc@__FrameHandler4@@SAHPEAUFuncInfo4@FH4@@PEAU_xDISPATCHER_CONTEXT@@@Z 00000001801c1200 f   libvcruntime:ehstate.obj
 0001:001c0208       ?StateFromIp@__FrameHandler3@@SAHPEBU_s_FuncInfo@@PEAU_xDISPATCHER_CONTEXT@@_K@Z 00000001801c1208 f   libvcruntime:ehstate.obj
 0001:001c0270       ?StateFromIp@__FrameHandler4@@SAHPEAUFuncInfo4@FH4@@PEAU_xDISPATCHER_CONTEXT@@_K@Z 00000001801c1270 f   libvcruntime:ehstate.obj
 0001:001c1970       ??$TypeMatchHelper@V__FrameHandler3@@@@YAHPEBU_s_HandlerType@@PEBU_s_CatchableType@@PEBU_s_ThrowInfo@@@Z 00000001801c2970 f i libvcruntime:frame.obj
 0001:001c1ab0       ??$TypeMatchHelper@V__FrameHandler4@@@@YAHPEAUHandlerType4@FH4@@PEBU_s_CatchableType@@PEBU_s_ThrowInfo@@@Z 00000001801c2ab0 f i libvcruntime:frame.obj
 0001:001c1bf4       ??$__InternalCxxFrameHandler@V__FrameHandler3@@@@YA?AW4_EXCEPTION_DISPOSITION@@PEAUEHExceptionRecord@@PEA_KPEAU_CONTEXT@@PEAU_xDISPATCHER_CONTEXT@@PEBU_s_FuncInfo@@H1E@Z 00000001801c2bf4 f i libvcruntime:frame.obj
 0001:001c1e2c       ??$__InternalCxxFrameHandler@V__FrameHandler4@@@@YA?AW4_EXCEPTION_DISPOSITION@@PEAUEHExceptionRecord@@PEA_KPEAU_CONTEXT@@PEAU_xDISPATCHER_CONTEXT@@PEAUFuncInfo4@FH4@@H1E@Z 00000001801c2e2c f i libvcruntime:frame.obj
 0001:001c20c0       ??$__InternalCxxFrameHandlerWrapper@V__FrameHandler3@@@@YA?AW4_EXCEPTION_DISPOSITION@@PEAUEHExceptionRecord@@PEA_KPEAU_CONTEXT@@PEAU_xDISPATCHER_CONTEXT@@PEBU_s_FuncInfo@@H1E@Z 00000001801c30c0 f i libvcruntime:frame.obj
 0001:001c20c8       ??$__InternalCxxFrameHandlerWrapper@V__FrameHandler4@@@@YA?AW4_EXCEPTION_DISPOSITION@@PEAUEHExceptionRecord@@PEA_KPEAU_CONTEXT@@PEAU_xDISPATCHER_CONTEXT@@PEAUFuncInfo4@FH4@@H1E@Z 00000001801c30c8 f i libvcruntime:frame.obj
 0001:001c2114       ??0HandlerMap4@FH4@@QEAA@PEBUTryBlockMapEntry4@1@_KH@Z 00000001801c3114 f i libvcruntime:frame.obj
 0001:001c2198       ??0TryBlockMap4@FH4@@QEAA@PEBUFuncInfo4@1@_K@Z 00000001801c3198 f i libvcruntime:frame.obj
 0001:001c227c       ??0bad_exception@std@@QEAA@AEBV01@@Z 00000001801c327c f i libvcruntime:frame.obj
 0001:001c22b8       ??0bad_exception@std@@QEAA@XZ 00000001801c32b8 f i libvcruntime:frame.obj
 0001:001c22d8       ??0exception@std@@QEAA@AEBV01@@Z 00000001801c32d8 f i libvcruntime:frame.obj
 0001:001c230c       ??1bad_exception@std@@UEAA@XZ 00000001801c330c f i libvcruntime:frame.obj
 0001:001c2320       ??_Ebad_exception@std@@UEAAPEAXI@Z 00000001801c3320 f i libvcruntime:frame.obj
 0001:001c2320       ??_Eexception@std@@UEAAPEAXI@Z 00000001801c3320 f i libvcruntime:frame.obj
 0001:001c2320       ??_Gbad_exception@std@@UEAAPEAXI@Z 00000001801c3320 f i libvcruntime:frame.obj
 0001:001c2320       ??_Gexception@std@@UEAAPEAXI@Z 00000001801c3320 f i libvcruntime:frame.obj
 0001:001c2364       ?CxxCallCatchBlock@__FrameHandler3@@SAPEAXPEAU_EXCEPTION_RECORD@@@Z 00000001801c3364 f   libvcruntime:frame.obj
 0001:001c2550       ?CxxCallCatchBlock@__FrameHandler4@@SAPEAXPEAU_EXCEPTION_RECORD@@@Z 00000001801c3550 f   libvcruntime:frame.obj
 0001:001c27a0       ?DecompHandler@HandlerMap4@FH4@@AEAAXXZ 00000001801c37a0 f i libvcruntime:frame.obj
 0001:001c29ec       ?FrameUnwindToState@__FrameHandler3@@SAXPEA_KPEAU_xDISPATCHER_CONTEXT@@PEBU_s_FuncInfo@@H@Z 00000001801c39ec f   libvcruntime:frame.obj
 0001:001c2b78       ?FrameUnwindToState@__FrameHandler4@@SAXPEA_KPEAU_xDISPATCHER_CONTEXT@@PEAUFuncInfo4@FH4@@H@Z 00000001801c3b78 f   libvcruntime:frame.obj
 0001:001c2e7c       ?GetHandlerSearchState@__FrameHandler3@@SAHPEA_KPEAU_xDISPATCHER_CONTEXT@@PEBU_s_FuncInfo@@@Z 00000001801c3e7c f i libvcruntime:frame.obj
 0001:001c308c       ?ReadEntry@UWMap4@FH4@@AEAAXPEAPEAE@Z 00000001801c408c f i libvcruntime:frame.obj
 0001:001c3128       ?_CallMemberFunction1@@YAXQEAX00@Z 00000001801c4128 f i libvcruntime:frame.obj
 0001:001c3134       ?_CallMemberFunction2@@YAXQEAX00H@Z 00000001801c4134 f i libvcruntime:frame.obj
 0001:001c3144       ?getStartStop@UWMap4@FH4@@QEAAXHHAEAViterator@12@0@Z 00000001801c4144 f i libvcruntime:frame.obj
 0001:001c3214       ?getStateFromIterators@UWMap4@FH4@@SAHAEBViterator@12@H0H0@Z 00000001801c4214 f i libvcruntime:frame.obj
 0001:001c32c4       ?what@exception@std@@UEBAPEBDXZ 00000001801c42c4 f i libvcruntime:frame.obj
 0001:001c32f0       _CallSettingFrame          00000001801c42f0 f   libvcruntime:handlers.obj
 0001:001c3340       _CallSettingFrame_LookupContinuationIndex 00000001801c4340 f   libvcruntime:handlers.obj
 0001:001c3370       _CallSettingFrame_NotifyContinuationAddr 00000001801c4370 f   libvcruntime:handlers.obj
 0001:001c33a0       _CallSettingFrameEncoded   00000001801c43a0 f   libvcruntime:handlers.obj
 0001:001c33e8       __std_exception_copy       00000001801c43e8 f   libvcruntime:std_exception.obj
 0001:001c3478       __std_exception_destroy    00000001801c4478 f   libvcruntime:std_exception.obj
 0001:001c34a0       _CxxThrowException         00000001801c44a0 f   libvcruntime:throw.obj
 0001:001c3550       cosf                       00000001801c4550 f   libucrt:cosf.obj
 0001:001c3a50       sinf                       00000001801c4a50 f   libucrt:sinf.obj
 0001:001c4150       tanf                       00000001801c5150 f   libucrt:tanf.obj
 0001:001c47c4       __acrt_initialize_stdio    00000001801c57c4 f   libucrt:_file.obj
 0001:001c48e4       __acrt_iob_func            00000001801c58e4 f   libucrt:_file.obj
 0001:001c48f8       __acrt_uninitialize_stdio  00000001801c58f8 f   libucrt:_file.obj
 0001:001c4954       _lock_file                 00000001801c5954 f   libucrt:_file.obj
 0001:001c4960       _unlock_file               00000001801c5960 f   libucrt:_file.obj
 0001:001c4b5c       ??$ensure_buffer_is_big_enough@D@formatting_buffer@__crt_stdio_output@@QEAA_N_KAEAV__crt_cached_ptd_host@@@Z 00000001801c5b5c f i libucrt:output.obj
 0001:001c4c04       ??$parse_integer@KV?$c_string_character_source@D@__crt_strtox@@$0A@@__crt_strtox@@YAKAEAV__crt_cached_ptd_host@@V?$c_string_character_source@D@0@H_N@Z 00000001801c5c04 f i libucrt:output.obj
 0001:001c4eb8       ??$type_case_integer@$07@?$output_processor@DV?$stream_output_adapter@D@__crt_stdio_output@@V?$standard_base@DV?$stream_output_adapter@D@__crt_stdio_output@@@2@@__crt_stdio_output@@AEAA_N_N@Z 00000001801c5eb8 f i libucrt:output.obj
 0001:001c4eb8       ??$type_case_integer@$07@?$output_processor@DV?$string_output_adapter@D@__crt_stdio_output@@V?$format_validation_base@DV?$string_output_adapter@D@__crt_stdio_output@@@2@@__crt_stdio_output@@AEAA_N_N@Z 00000001801c5eb8 f i libucrt:output.obj
 0001:001c4eb8       ??$type_case_integer@$07@?$output_processor@DV?$string_output_adapter@D@__crt_stdio_output@@V?$standard_base@DV?$string_output_adapter@D@__crt_stdio_output@@@2@@__crt_stdio_output@@AEAA_N_N@Z 00000001801c5eb8 f i libucrt:output.obj
 0001:001c50bc       ??$type_case_integer@$09@?$output_processor@DV?$stream_output_adapter@D@__crt_stdio_output@@V?$standard_base@DV?$stream_output_adapter@D@__crt_stdio_output@@@2@@__crt_stdio_output@@AEAA_N_N@Z 00000001801c60bc f i libucrt:output.obj
 0001:001c50bc       ??$type_case_integer@$09@?$output_processor@DV?$string_output_adapter@D@__crt_stdio_output@@V?$format_validation_base@DV?$string_output_adapter@D@__crt_stdio_output@@@2@@__crt_stdio_output@@AEAA_N_N@Z 00000001801c60bc f i libucrt:output.obj
 0001:001c50bc       ??$type_case_integer@$09@?$output_processor@DV?$string_output_adapter@D@__crt_stdio_output@@V?$standard_base@DV?$string_output_adapter@D@__crt_stdio_output@@@2@@__crt_stdio_output@@AEAA_N_N@Z 00000001801c60bc f i libucrt:output.obj
 0001:001c52c0       ??$type_case_integer@$0BA@@?$output_processor@DV?$stream_output_adapter@D@__crt_stdio_output@@V?$standard_base@DV?$stream_output_adapter@D@__crt_stdio_output@@@2@@__crt_stdio_output@@AEAA_N_N@Z 00000001801c62c0 f i libucrt:output.obj
 0001:001c52c0       ??$type_case_integer@$0BA@@?$output_processor@DV?$string_output_adapter@D@__crt_stdio_output@@V?$format_validation_base@DV?$string_output_adapter@D@__crt_stdio_output@@@2@@__crt_stdio_output@@AEAA_N_N@Z 00000001801c62c0 f i libucrt:output.obj
 0001:001c52c0       ??$type_case_integer@$0BA@@?$output_processor@DV?$string_output_adapter@D@__crt_stdio_output@@V?$standard_base@DV?$string_output_adapter@D@__crt_stdio_output@@@2@@__crt_stdio_output@@AEAA_N_N@Z 00000001801c62c0 f i libucrt:output.obj
 0001:001c54c4       ??$type_case_integer_parse_into_buffer@I$07@?$output_processor@DV?$stream_output_adapter@D@__crt_stdio_output@@V?$standard_base@DV?$stream_output_adapter@D@__crt_stdio_output@@@2@@__crt_stdio_output@@AEAAXI_N@Z 00000001801c64c4 f i libucrt:output.obj
 0001:001c54c4       ??$type_case_integer_parse_into_buffer@I$07@?$output_processor@DV?$string_output_adapter@D@__crt_stdio_output@@V?$format_validation_base@DV?$string_output_adapter@D@__crt_stdio_output@@@2@@__crt_stdio_output@@AEAAXI_N@Z 00000001801c64c4 f i libucrt:output.obj
 0001:001c54c4       ??$type_case_integer_parse_into_buffer@I$07@?$output_processor@DV?$string_output_adapter@D@__crt_stdio_output@@V?$standard_base@DV?$string_output_adapter@D@__crt_stdio_output@@@2@@__crt_stdio_output@@AEAAXI_N@Z 00000001801c64c4 f i libucrt:output.obj
 0001:001c5534       ??$type_case_integer_parse_into_buffer@I$09@?$output_processor@DV?$stream_output_adapter@D@__crt_stdio_output@@V?$standard_base@DV?$stream_output_adapter@D@__crt_stdio_output@@@2@@__crt_stdio_output@@AEAAXI_N@Z 00000001801c6534 f i libucrt:output.obj
 0001:001c5534       ??$type_case_integer_parse_into_buffer@I$09@?$output_processor@DV?$string_output_adapter@D@__crt_stdio_output@@V?$format_validation_base@DV?$string_output_adapter@D@__crt_stdio_output@@@2@@__crt_stdio_output@@AEAAXI_N@Z 00000001801c6534 f i libucrt:output.obj
 0001:001c5534       ??$type_case_integer_parse_into_buffer@I$09@?$output_processor@DV?$string_output_adapter@D@__crt_stdio_output@@V?$standard_base@DV?$string_output_adapter@D@__crt_stdio_output@@@2@@__crt_stdio_output@@AEAAXI_N@Z 00000001801c6534 f i libucrt:output.obj
 0001:001c55e0       ??$type_case_integer_parse_into_buffer@I$0BA@@?$output_processor@DV?$stream_output_adapter@D@__crt_stdio_output@@V?$standard_base@DV?$stream_output_adapter@D@__crt_stdio_output@@@2@@__crt_stdio_output@@AEAAXI_N@Z 00000001801c65e0 f i libucrt:output.obj
 0001:001c55e0       ??$type_case_integer_parse_into_buffer@I$0BA@@?$output_processor@DV?$string_output_adapter@D@__crt_stdio_output@@V?$format_validation_base@DV?$string_output_adapter@D@__crt_stdio_output@@@2@@__crt_stdio_output@@AEAAXI_N@Z 00000001801c65e0 f i libucrt:output.obj
 0001:001c55e0       ??$type_case_integer_parse_into_buffer@I$0BA@@?$output_processor@DV?$string_output_adapter@D@__crt_stdio_output@@V?$standard_base@DV?$string_output_adapter@D@__crt_stdio_output@@@2@@__crt_stdio_output@@AEAAXI_N@Z 00000001801c65e0 f i libucrt:output.obj
 0001:001c5664       ??$type_case_integer_parse_into_buffer@_K$07@?$output_processor@DV?$stream_output_adapter@D@__crt_stdio_output@@V?$standard_base@DV?$stream_output_adapter@D@__crt_stdio_output@@@2@@__crt_stdio_output@@AEAAX_K_N@Z 00000001801c6664 f i libucrt:output.obj
 0001:001c5664       ??$type_case_integer_parse_into_buffer@_K$07@?$output_processor@DV?$string_output_adapter@D@__crt_stdio_output@@V?$format_validation_base@DV?$string_output_adapter@D@__crt_stdio_output@@@2@@__crt_stdio_output@@AEAAX_K_N@Z 00000001801c6664 f i libucrt:output.obj
 0001:001c5664       ??$type_case_integer_parse_into_buffer@_K$07@?$output_processor@DV?$string_output_adapter@D@__crt_stdio_output@@V?$standard_base@DV?$string_output_adapter@D@__crt_stdio_output@@@2@@__crt_stdio_output@@AEAAX_K_N@Z 00000001801c6664 f i libucrt:output.obj
 0001:001c56d4       ??$type_case_integer_parse_into_buffer@_K$09@?$output_processor@DV?$stream_output_adapter@D@__crt_stdio_output@@V?$standard_base@DV?$stream_output_adapter@D@__crt_stdio_output@@@2@@__crt_stdio_output@@AEAAX_K_N@Z 00000001801c66d4 f i libucrt:output.obj
 0001:001c56d4       ??$type_case_integer_parse_into_buffer@_K$09@?$output_processor@DV?$string_output_adapter@D@__crt_stdio_output@@V?$format_validation_base@DV?$string_output_adapter@D@__crt_stdio_output@@@2@@__crt_stdio_output@@AEAAX_K_N@Z 00000001801c66d4 f i libucrt:output.obj
 0001:001c56d4       ??$type_case_integer_parse_into_buffer@_K$09@?$output_processor@DV?$string_output_adapter@D@__crt_stdio_output@@V?$standard_base@DV?$string_output_adapter@D@__crt_stdio_output@@@2@@__crt_stdio_output@@AEAAX_K_N@Z 00000001801c66d4 f i libucrt:output.obj
 0001:001c5784       ??$type_case_integer_parse_into_buffer@_K$0BA@@?$output_processor@DV?$stream_output_adapter@D@__crt_stdio_output@@V?$standard_base@DV?$stream_output_adapter@D@__crt_stdio_output@@@2@@__crt_stdio_output@@AEAAX_K_N@Z 00000001801c6784 f i libucrt:output.obj
 0001:001c5784       ??$type_case_integer_parse_into_buffer@_K$0BA@@?$output_processor@DV?$string_output_adapter@D@__crt_stdio_output@@V?$format_validation_base@DV?$string_output_adapter@D@__crt_stdio_output@@@2@@__crt_stdio_output@@AEAAX_K_N@Z 00000001801c6784 f i libucrt:output.obj
 0001:001c5784       ??$type_case_integer_parse_into_buffer@_K$0BA@@?$output_processor@DV?$string_output_adapter@D@__crt_stdio_output@@V?$standard_base@DV?$string_output_adapter@D@__crt_stdio_output@@@2@@__crt_stdio_output@@AEAAX_K_N@Z 00000001801c6784 f i libucrt:output.obj
 0001:001c5924       ?crop_zeroes@__crt_stdio_output@@YAXPEADQEAU__crt_locale_pointers@@@Z 00000001801c6924 f i libucrt:output.obj
 0001:001c5990       ?get_raw_ptd@__crt_cached_ptd_host@@QEAAPEAU__acrt_ptd@@XZ 00000001801c6990 f i libucrt:output.obj
 0001:001c59f8       ?parse_int_from_format_string@?$output_processor@DV?$stream_output_adapter@D@__crt_stdio_output@@V?$standard_base@DV?$stream_output_adapter@D@__crt_stdio_output@@@2@@__crt_stdio_output@@AEAA_NQEAH@Z 00000001801c69f8 f i libucrt:output.obj
 0001:001c59f8       ?parse_int_from_format_string@?$output_processor@DV?$string_output_adapter@D@__crt_stdio_output@@V?$format_validation_base@DV?$string_output_adapter@D@__crt_stdio_output@@@2@@__crt_stdio_output@@AEAA_NQEAH@Z 00000001801c69f8 f i libucrt:output.obj
 0001:001c59f8       ?parse_int_from_format_string@?$output_processor@DV?$string_output_adapter@D@__crt_stdio_output@@V?$standard_base@DV?$string_output_adapter@D@__crt_stdio_output@@@2@@__crt_stdio_output@@AEAA_NQEAH@Z 00000001801c69f8 f i libucrt:output.obj
 0001:001c5a88       ?process@?$output_processor@DV?$stream_output_adapter@D@__crt_stdio_output@@V?$standard_base@DV?$stream_output_adapter@D@__crt_stdio_output@@@2@@__crt_stdio_output@@QEAAHXZ 00000001801c6a88 f i libucrt:output.obj
 0001:001c5e20       ?process@?$output_processor@DV?$string_output_adapter@D@__crt_stdio_output@@V?$format_validation_base@DV?$string_output_adapter@D@__crt_stdio_output@@@2@@__crt_stdio_output@@QEAAHXZ 00000001801c6e20 f i libucrt:output.obj
 0001:001c61a4       ?process@?$output_processor@DV?$string_output_adapter@D@__crt_stdio_output@@V?$standard_base@DV?$string_output_adapter@D@__crt_stdio_output@@@2@@__crt_stdio_output@@QEAAHXZ 00000001801c71a4 f i libucrt:output.obj
 0001:001c6524       ?state_case_size@?$output_processor@DV?$stream_output_adapter@D@__crt_stdio_output@@V?$standard_base@DV?$stream_output_adapter@D@__crt_stdio_output@@@2@@__crt_stdio_output@@AEAA_NXZ 00000001801c7524 f i libucrt:output.obj
 0001:001c66ac       ?state_case_size@?$output_processor@DV?$string_output_adapter@D@__crt_stdio_output@@V?$format_validation_base@DV?$string_output_adapter@D@__crt_stdio_output@@@2@@__crt_stdio_output@@AEAA_NXZ 00000001801c76ac f i libucrt:output.obj
 0001:001c66ac       ?state_case_size@?$output_processor@DV?$string_output_adapter@D@__crt_stdio_output@@V?$standard_base@DV?$string_output_adapter@D@__crt_stdio_output@@@2@@__crt_stdio_output@@AEAA_NXZ 00000001801c76ac f i libucrt:output.obj
 0001:001c6834       ?state_case_type@?$output_processor@DV?$stream_output_adapter@D@__crt_stdio_output@@V?$standard_base@DV?$stream_output_adapter@D@__crt_stdio_output@@@2@@__crt_stdio_output@@AEAA_NXZ 00000001801c7834 f i libucrt:output.obj
 0001:001c6c6c       ?state_case_type@?$output_processor@DV?$string_output_adapter@D@__crt_stdio_output@@V?$format_validation_base@DV?$string_output_adapter@D@__crt_stdio_output@@@2@@__crt_stdio_output@@AEAA_NXZ 00000001801c7c6c f i libucrt:output.obj
 0001:001c6c6c       ?state_case_type@?$output_processor@DV?$string_output_adapter@D@__crt_stdio_output@@V?$standard_base@DV?$string_output_adapter@D@__crt_stdio_output@@@2@@__crt_stdio_output@@AEAA_NXZ 00000001801c7c6c f i libucrt:output.obj
 0001:001c7070       ?type_case_Z@?$output_processor@DV?$stream_output_adapter@D@__crt_stdio_output@@V?$standard_base@DV?$stream_output_adapter@D@__crt_stdio_output@@@2@@__crt_stdio_output@@AEAA_NXZ 00000001801c8070 f i libucrt:output.obj
 0001:001c7070       ?type_case_Z@?$output_processor@DV?$string_output_adapter@D@__crt_stdio_output@@V?$format_validation_base@DV?$string_output_adapter@D@__crt_stdio_output@@@2@@__crt_stdio_output@@AEAA_NXZ 00000001801c8070 f i libucrt:output.obj
 0001:001c7070       ?type_case_Z@?$output_processor@DV?$string_output_adapter@D@__crt_stdio_output@@V?$standard_base@DV?$string_output_adapter@D@__crt_stdio_output@@@2@@__crt_stdio_output@@AEAA_NXZ 00000001801c8070 f i libucrt:output.obj
 0001:001c70ec       ?type_case_a@?$output_processor@DV?$stream_output_adapter@D@__crt_stdio_output@@V?$standard_base@DV?$stream_output_adapter@D@__crt_stdio_output@@@2@@__crt_stdio_output@@AEAA_NXZ 00000001801c80ec f i libucrt:output.obj
 0001:001c70ec       ?type_case_a@?$output_processor@DV?$string_output_adapter@D@__crt_stdio_output@@V?$format_validation_base@DV?$string_output_adapter@D@__crt_stdio_output@@@2@@__crt_stdio_output@@AEAA_NXZ 00000001801c80ec f i libucrt:output.obj
 0001:001c70ec       ?type_case_a@?$output_processor@DV?$string_output_adapter@D@__crt_stdio_output@@V?$standard_base@DV?$string_output_adapter@D@__crt_stdio_output@@@2@@__crt_stdio_output@@AEAA_NXZ 00000001801c80ec f i libucrt:output.obj
 0001:001c7340       ?type_case_c_tchar@?$output_processor@DV?$stream_output_adapter@D@__crt_stdio_output@@V?$standard_base@DV?$stream_output_adapter@D@__crt_stdio_output@@@2@@__crt_stdio_output@@AEAA_ND@Z 00000001801c8340 f i libucrt:output.obj
 0001:001c7340       ?type_case_c_tchar@?$output_processor@DV?$string_output_adapter@D@__crt_stdio_output@@V?$format_validation_base@DV?$string_output_adapter@D@__crt_stdio_output@@@2@@__crt_stdio_output@@AEAA_ND@Z 00000001801c8340 f i libucrt:output.obj
 0001:001c7340       ?type_case_c_tchar@?$output_processor@DV?$string_output_adapter@D@__crt_stdio_output@@V?$standard_base@DV?$string_output_adapter@D@__crt_stdio_output@@@2@@__crt_stdio_output@@AEAA_ND@Z 00000001801c8340 f i libucrt:output.obj
 0001:001c7414       ?type_case_n@?$output_processor@DV?$stream_output_adapter@D@__crt_stdio_output@@V?$standard_base@DV?$stream_output_adapter@D@__crt_stdio_output@@@2@@__crt_stdio_output@@AEAA_NXZ 00000001801c8414 f i libucrt:output.obj
 0001:001c7414       ?type_case_n@?$output_processor@DV?$string_output_adapter@D@__crt_stdio_output@@V?$format_validation_base@DV?$string_output_adapter@D@__crt_stdio_output@@@2@@__crt_stdio_output@@AEAA_NXZ 00000001801c8414 f i libucrt:output.obj
 0001:001c7414       ?type_case_n@?$output_processor@DV?$string_output_adapter@D@__crt_stdio_output@@V?$standard_base@DV?$string_output_adapter@D@__crt_stdio_output@@@2@@__crt_stdio_output@@AEAA_NXZ 00000001801c8414 f i libucrt:output.obj
 0001:001c74cc       ?type_case_s@?$output_processor@DV?$stream_output_adapter@D@__crt_stdio_output@@V?$standard_base@DV?$stream_output_adapter@D@__crt_stdio_output@@@2@@__crt_stdio_output@@AEAA_NXZ 00000001801c84cc f i libucrt:output.obj
 0001:001c74cc       ?type_case_s@?$output_processor@DV?$string_output_adapter@D@__crt_stdio_output@@V?$format_validation_base@DV?$string_output_adapter@D@__crt_stdio_output@@@2@@__crt_stdio_output@@AEAA_NXZ 00000001801c84cc f i libucrt:output.obj
 0001:001c74cc       ?type_case_s@?$output_processor@DV?$string_output_adapter@D@__crt_stdio_output@@V?$standard_base@DV?$string_output_adapter@D@__crt_stdio_output@@@2@@__crt_stdio_output@@AEAA_NXZ 00000001801c84cc f i libucrt:output.obj
 0001:001c7570       ?update_locale_slow@__crt_cached_ptd_host@@AEAAXXZ 00000001801c8570 f i libucrt:output.obj
 0001:001c75e8       ?validate_stream_is_ansi_if_required@?$__acrt_stdio_char_traits@D@@SA_NQEAU_iobuf@@@Z 00000001801c85e8 f i libucrt:output.obj
 0001:001c7684       ?write_string@?$string_output_adapter@D@__crt_stdio_output@@QEBAXQEBDHQEAHAEAV__crt_cached_ptd_host@@@Z 00000001801c8684 f i libucrt:output.obj
 0001:001c7728       ?write_string_impl@?$output_adapter_common@DV?$stream_output_adapter@D@__crt_stdio_output@@@__crt_stdio_output@@IEBAXQEBDHQEAHAEAV__crt_cached_ptd_host@@@Z 00000001801c8728 f i libucrt:output.obj
 0001:001c77f4       __stdio_common_vfprintf    00000001801c87f4 f   libucrt:output.obj
 0001:001c7918       __stdio_common_vsprintf    00000001801c8918 f   libucrt:output.obj
 0001:001c7b6c       __stdio_common_vsprintf_s  00000001801c8b6c f   libucrt:output.obj
 0001:001c7c80       _fpclass                   00000001801c8c80 f   libucrt:ieeemisc.obj
 0001:001c7d10       powf                       00000001801c8d10 f   libucrt:powf.obj
 0001:001c8bd8       atan2f                     00000001801c9bd8 f   libucrt:atan2f.obj
 0001:001c8fd0       acosf                      00000001801c9fd0 f   libucrt:acosf.obj
 0001:001c91fc       free                       00000001801ca1fc f   libucrt:free.obj
 0001:001c9210       _seh_filter_dll            00000001801ca210 f   libucrt:exception_filter.obj
 0001:001c9224       _seh_filter_exe            00000001801ca224 f   libucrt:exception_filter.obj
 0001:001c963c       __acrt_initialize_thread_local_exit_callback 00000001801ca63c f   libucrt:exit.obj
 0001:001c9644       _cexit                     00000001801ca644 f   libucrt:exit.obj
 0001:001c9654       _exit                      00000001801ca654 f   libucrt:exit.obj
 0001:001c9660       _is_c_termination_complete 00000001801ca660 f   libucrt:exit.obj
 0001:001c9830       __acrt_allocate_buffer_for_argv 00000001801ca830 f   libucrt:argv_parsing.obj
 0001:001c9890       _configure_narrow_argv     00000001801ca890 f   libucrt:argv_parsing.obj
 0001:001c9c18       __dcrt_uninitialize_environments_nolock 00000001801cac18 f   libucrt:environment_initialization.obj
 0001:001c9c5c       _initialize_narrow_environment 00000001801cac5c f   libucrt:environment_initialization.obj
 0001:001c9fac       _crt_atexit                00000001801cafac f   libucrt:onexit.obj
 0001:001c9fbc       _execute_onexit_table      00000001801cafbc f   libucrt:onexit.obj
 0001:001ca000       _initialize_onexit_table   00000001801cb000 f   libucrt:onexit.obj
 0001:001ca028       _register_onexit_function  00000001801cb028 f   libucrt:onexit.obj
 0001:001ca0a8       __acrt_uninitialize_command_line 00000001801cb0a8 f   libucrt:argv_data.obj
 0001:001ca1a0       __acrt_initialize          00000001801cb1a0 f   libucrt:initialization.obj
 0001:001ca1b4       __acrt_thread_attach       00000001801cb1b4 f   libucrt:initialization.obj
 0001:001ca1c8       __acrt_thread_detach       00000001801cb1c8 f   libucrt:initialization.obj
 0001:001ca1d8       __acrt_uninitialize        00000001801cb1d8 f   libucrt:initialization.obj
 0001:001ca210       __acrt_uninitialize_critical 00000001801cb210 f   libucrt:initialization.obj
 0001:001ca220       _initterm                  00000001801cb220 f   libucrt:initterm.obj
 0001:001ca264       _initterm_e                00000001801cb264 f   libucrt:initterm.obj
 0001:001ca2ac       terminate                  00000001801cb2ac f   libucrt:terminate.obj
 0001:001ca2d8       abort                      00000001801cb2d8 f   libucrt:abort.obj
 0001:001ca330       malloc                     00000001801cb330 f   libucrt:malloc.obj
 0001:001ca338       strcpy_s                   00000001801cb338 f   libucrt:strcpy_s.obj
 0001:001ca398       ??$parse_integer@KV?$c_string_character_source@D@__crt_strtox@@$00@__crt_strtox@@YAKAEAV__crt_cached_ptd_host@@V?$c_string_character_source@D@0@H_N@Z 00000001801cb398 f i libucrt:atox.obj
 0001:001ca688       _ischartype_l              00000001801cb688 f i libucrt:atox.obj
 0001:001ca700       atol                       00000001801cb700 f   libucrt:atox.obj
 0001:001ca7c0       strncmp                    00000001801cb7c0 f   libucrt:strncmp.obj
 0001:001ca840       calloc                     00000001801cb840 f   libucrt:calloc.obj
 0001:001ca848       wcsncmp                    00000001801cb848 f   libucrt:wcsncmp.obj
 0001:001ca880       __remainder_piby2d2f_forAsm 00000001801cb880 f   libucrt:remainder_piby2f_forasm.obj
 0001:001ca9d0       __remainder_piby2_fma3     00000001801cb9d0 f   libucrt:remainder_piby2_forfma3.obj
 0001:001cabc0       __remainder_piby2_fma3_bdl 00000001801cbbc0 f   libucrt:remainder_piby2_forfma3.obj
 0001:001cac38       _cosf_special              00000001801cbc38 f   libucrt:sincos_special.obj
 0001:001cacd8       _sinf_special              00000001801cbcd8 f   libucrt:sincos_special.obj
 0001:001cacec       _tanf_special              00000001801cbcec f   libucrt:sincos_special.obj
 0001:001cad00       _clrfp                     00000001801cbd00 f   libucrt:fpctrl.obj
 0001:001cad20       _ctrlfp                    00000001801cbd20 f   libucrt:fpctrl.obj
 0001:001cad9c       _set_statfp                00000001801cbd9c f   libucrt:fpctrl.obj
 0001:001cadbc       _statfp                    00000001801cbdbc f   libucrt:fpctrl.obj
 0001:001cadd0       __acrt_initialize_fma3     00000001801cbdd0 f   libucrt:fma3_available.obj
 0001:001cae40       __remainder_piby2d2f_forC  00000001801cbe40 f   libucrt:remainder_piby2f_forc.obj
 0001:001cafcc       ?get_raw_ptd_noexit@__crt_cached_ptd_host@@QEAAPEAU__acrt_ptd@@XZ 00000001801cbfcc f i libucrt:invalid_parameter.obj
 0001:001cb038       ?value@?$dual_state_global@P6AXPEB_W00I_K@Z@__crt_state_management@@QEAAAEAP6AXPEB_W00I_K@ZAEAV__crt_cached_ptd_host@@@Z 00000001801cc038 f i libucrt:invalid_parameter.obj
 0001:001cb084       __acrt_call_reportfault    00000001801cc084 f   libucrt:invalid_parameter.obj
 0001:001cb1e0       __acrt_initialize_invalid_parameter_handler 00000001801cc1e0 f   libucrt:invalid_parameter.obj
 0001:001cb1e8       _invalid_parameter         00000001801cc1e8 f   libucrt:invalid_parameter.obj
 0001:001cb284       _invalid_parameter_internal 00000001801cc284 f   libucrt:invalid_parameter.obj
 0001:001cb350       _invalid_parameter_noinfo  00000001801cc350 f   libucrt:invalid_parameter.obj
 0001:001cb370       _invoke_watson             00000001801cc370 f   libucrt:invalid_parameter.obj
 0001:001cb3b8       __acrt_errno_from_os_error 00000001801cc3b8 f   libucrt:errno.obj
 0001:001cb400       __acrt_errno_map_os_error  00000001801cc400 f   libucrt:errno.obj
 0001:001cb448       __acrt_errno_map_os_error_ptd 00000001801cc448 f   libucrt:errno.obj
 0001:001cb46c       __doserrno                 00000001801cc46c f   libucrt:errno.obj
 0001:001cb48c       _errno                     00000001801cc48c f   libucrt:errno.obj
 0001:001cb4ac       _calloc_base               00000001801cc4ac f   libucrt:calloc_base.obj
 0001:001cb524       _free_base                 00000001801cc524 f   libucrt:free_base.obj
 0001:001cb71c       __acrt_AppPolicyGetProcessTerminationMethodInternal 00000001801cc71c f   libucrt:winapi_thunks.obj
 0001:001cb774       __acrt_AreFileApisANSI     00000001801cc774 f   libucrt:winapi_thunks.obj
 0001:001cb7b8       __acrt_FlsAlloc            00000001801cc7b8 f   libucrt:winapi_thunks.obj
 0001:001cb7c0       __acrt_FlsFree             00000001801cc7c0 f   libucrt:winapi_thunks.obj
 0001:001cb7c8       __acrt_FlsGetValue         00000001801cc7c8 f   libucrt:winapi_thunks.obj
 0001:001cb7d0       __acrt_FlsSetValue         00000001801cc7d0 f   libucrt:winapi_thunks.obj
 0001:001cb7d8       __acrt_InitializeCriticalSectionEx 00000001801cc7d8 f   libucrt:winapi_thunks.obj
 0001:001cb848       __acrt_LCMapStringEx       00000001801cc848 f   libucrt:winapi_thunks.obj
 0001:001cb934       __acrt_LocaleNameToLCID    00000001801cc934 f   libucrt:winapi_thunks.obj
 0001:001cb994       __acrt_initialize_winapi_thunks 00000001801cc994 f   libucrt:winapi_thunks.obj
 0001:001cb9b8       __acrt_uninitialize_winapi_thunks 00000001801cc9b8 f   libucrt:winapi_thunks.obj
 0001:001cb9fc       _fcloseall                 00000001801cc9fc f   libucrt:closeall.obj
 0001:001cbc90       __acrt_stdio_flush_nolock  00000001801ccc90 f   libucrt:fflush.obj
 0001:001cbd1c       _fflush_nolock             00000001801ccd1c f   libucrt:fflush.obj
 0001:001cbdf0       _flushall                  00000001801ccdf0 f   libucrt:fflush.obj
 0001:001cbdf8       __acrt_stdio_free_buffer_nolock 00000001801ccdf8 f   libucrt:_freebuf.obj
 0001:001cc034       __acrt_initialize_lowio    00000001801cd034 f   libucrt:ioinit.obj
 0001:001cc070       __acrt_uninitialize_lowio  00000001801cd070 f   libucrt:ioinit.obj
 0001:001cc0b0       _malloc_base               00000001801cd0b0 f   libucrt:malloc_base.obj
 0001:001cc110       strnlen                    00000001801cd110 f   libucrt:strnlen.obj
 0001:001cc260       wcsnlen                    00000001801cd260 f   libucrt:strnlen.obj
 0001:001cc438       __acrt_update_locale_info  00000001801cd438 f   libucrt:locale_update.obj
 0001:001cc46c       __acrt_update_locale_info_explicit 00000001801cd46c f   libucrt:locale_update.obj
 0001:001cc4a4       __acrt_update_multibyte_info 00000001801cd4a4 f   libucrt:locale_update.obj
 0001:001cc4d8       __acrt_update_multibyte_info_explicit 00000001801cd4d8 f   libucrt:locale_update.obj
 0001:001cd024       __acrt_fp_format           00000001801ce024 f   libucrt:cvt.obj
 0001:001cd30c       _wctomb_internal           00000001801ce30c f   libucrt:wctomb.obj
 0001:001cd4bc       _mbtowc_internal           00000001801ce4bc f   libucrt:mbtowc.obj
 0001:001cd634       _fileno                    00000001801ce634 f   libucrt:fileno.obj
 0001:001cd65c       _get_printf_count_output   00000001801ce65c f   libucrt:printf_count_output.obj
 0001:001cd674       _fputc_nolock_internal     00000001801ce674 f   libucrt:fputc.obj
 0001:001cd68c       __acrt_should_use_temporary_buffer 00000001801ce68c f   libucrt:_sftbuf.obj
 0001:001cd6d8       __acrt_stdio_begin_temporary_buffering_nolock 00000001801ce6d8 f   libucrt:_sftbuf.obj
 0001:001cd7a0       __acrt_stdio_end_temporary_buffering_nolock 00000001801ce7a0 f   libucrt:_sftbuf.obj
 0001:001cdb58       __acrt_freeptd             00000001801ceb58 f   libucrt:per_thread_data.obj
 0001:001cdb9c       __acrt_getptd              00000001801ceb9c f   libucrt:per_thread_data.obj
 0001:001cdc70       __acrt_getptd_head         00000001801cec70 f   libucrt:per_thread_data.obj
 0001:001cdd14       __acrt_getptd_noexit       00000001801ced14 f   libucrt:per_thread_data.obj
 0001:001cdddc       __acrt_getptd_noexit_explicit 00000001801ceddc f   libucrt:per_thread_data.obj
 0001:001cde9c       __acrt_initialize_ptd      00000001801cee9c f   libucrt:per_thread_data.obj
 0001:001cded8       __acrt_uninitialize_ptd    00000001801ceed8 f   libucrt:per_thread_data.obj
 0001:001cdf6c       __acrt_set_locale_changed  00000001801cef6c f   libucrt:wsetlocale.obj
 0001:001cdf78       __acrt_uninitialize_locale 00000001801cef78 f   libucrt:wsetlocale.obj
 0001:001ce0cc       _handle_error              00000001801cf0cc f   libucrt:libm_error.obj
 0001:001ce1f4       _handle_errorf             00000001801cf1f4 f   libucrt:libm_error.obj
 0001:001ce328       _handle_nan                00000001801cf328 f   libucrt:libm_error.obj
 0001:001ce344       _handle_nanf               00000001801cf344 f   libucrt:libm_error.obj
 0001:001ce360       _powf_special              00000001801cf360 f   libucrt:pow_special.obj
 0001:001ce4d0       __acrt_initialize_locks    00000001801cf4d0 f   libucrt:locks.obj
 0001:001ce518       __acrt_lock                00000001801cf518 f   libucrt:locks.obj
 0001:001ce534       __acrt_uninitialize_locks  00000001801cf534 f   libucrt:locks.obj
 0001:001ce56c       __acrt_unlock              00000001801cf56c f   libucrt:locks.obj
 0001:001ce588       __acrt_app_verifier_enabled 00000001801cf588 f   libucrt:peb_access.obj
 0001:001ce5a4       __acrt_is_secure_process   00000001801cf5a4 f   libucrt:peb_access.obj
 0001:001ce5bc       __acrt_get_process_end_policy 00000001801cf5bc f   libucrt:win_policies.obj
 0001:001ce600       ??$__acrt_convert_wcs_mbs_cp@D_WV<lambda_7c9dea7b4ca7285d2cdb541a38da6275>@@U__crt_win32_buffer_internal_dynamic_resizing@@@@YAHQEBDAEAV?$__crt_win32_buffer@_WU__crt_win32_buffer_internal_dynamic_resizing@@@@AEBV<lambda_7c9dea7b4ca7285d2cdb541a38da6275>@@I@Z 00000001801cf600 f i libucrt:argv_wildcards.obj
 0001:001ce77c       ??$__acrt_convert_wcs_mbs_cp@_WDV<lambda_d8593a27d1aa8c02be35c86a17d324c4>@@U__crt_win32_buffer_internal_dynamic_resizing@@@@YAHQEB_WAEAV?$__crt_win32_buffer@DU__crt_win32_buffer_internal_dynamic_resizing@@@@AEBV<lambda_d8593a27d1aa8c02be35c86a17d324c4>@@I@Z 00000001801cf77c f i libucrt:argv_wildcards.obj
 0001:001cf020       ??0_LocaleUpdate@@QEAA@QEAU__crt_locale_pointers@@@Z 00000001801d0020 f i libucrt:argv_wildcards.obj
 0001:001cf0bc       __acrt_expand_narrow_argv_wildcards 00000001801d00bc f   libucrt:argv_wildcards.obj
 0001:001cf0c4       ??$__acrt_convert_wcs_mbs_cp@_WDV<lambda_f788ae46380686e8b737efdd8c720d07>@@U__crt_win32_buffer_no_resizing@@@@YAHQEB_WAEAV?$__crt_win32_buffer@DU__crt_win32_buffer_no_resizing@@@@AEBV<lambda_f788ae46380686e8b737efdd8c720d07>@@I@Z 00000001801d00c4 f i libucrt:getmodulefilenamea.obj
 0001:001cf1e0       __acrt_GetModuleFileNameA  00000001801d01e0 f   libucrt:getmodulefilenamea.obj
 0001:001cfafc       __acrt_initialize_multibyte 00000001801d0afc f   libucrt:mbctype.obj
 0001:001cfb5c       __acrt_update_thread_multibyte_data 00000001801d0b5c f   libucrt:mbctype.obj
 0001:001cfb78       _setmbcp_nolock            00000001801d0b78 f   libucrt:mbctype.obj
 0001:001cfeac       _ismbblead                 00000001801d0eac f   libucrt:ismbbyte.obj
 0001:001cfec0       __acrt_initialize_command_line 00000001801d0ec0 f   libucrt:argv_data.obj
 0001:001cfee8       __acrt_MultiByteToWideChar 00000001801d0ee8 f   libucrt:multibytetowidechar.obj
 0001:001cff78       __acrt_WideCharToMultiByte 00000001801d0f78 f   libucrt:widechartomultibyte.obj
 0001:001d0058       __dcrt_get_narrow_environment_from_os 00000001801d1058 f   libucrt:get_environment_from_os.obj
 0001:001d0168       _recalloc_base             00000001801d1168 f   libucrt:recalloc.obj
 0001:001d0200       __acrt_initialize_heap     00000001801d1200 f   libucrt:heap_handle.obj
 0001:001d021c       __acrt_uninitialize_heap   00000001801d121c f   libucrt:heap_handle.obj
 0001:001d0228       __acrt_execute_initializers 00000001801d1228 f   libucrt:shared_initialization.obj
 0001:001d02bc       __acrt_execute_uninitializers 00000001801d12bc f   libucrt:shared_initialization.obj
 0001:001d0304       __acrt_initialize_new_handler 00000001801d1304 f   libucrt:new_handler.obj
 0001:001d030c       _callnewh                  00000001801d130c f   libucrt:new_handler.obj
 0001:001d034c       _query_new_handler         00000001801d134c f   libucrt:new_handler.obj
 0001:001d03cc       __acrt_get_sigabrt_handler 00000001801d13cc f   libucrt:signal.obj
 0001:001d03fc       __acrt_initialize_signal_handlers 00000001801d13fc f   libucrt:signal.obj
 0001:001d041c       raise                      00000001801d141c f   libucrt:signal.obj
 0001:001d0698       __acrt_has_user_matherr    00000001801d1698 f   libucrt:matherr.obj
 0001:001d06b8       __acrt_initialize_user_matherr 00000001801d16b8 f   libucrt:matherr.obj
 0001:001d06c0       __acrt_invoke_user_matherr 00000001801d16c0 f   libucrt:matherr.obj
 0001:001d06fc       __pctype_func              00000001801d16fc f   libucrt:ctype.obj
 0001:001d072c       _isctype_l                 00000001801d172c f   libucrt:isctype.obj
 0001:001d0850       _get_fpsr                  00000001801d1850 f   libucrt:fpsr.obj
 0001:001d0860       _set_fpsr                  00000001801d1860 f   libucrt:fpsr.obj
 0001:001d086a       _fclrf                     00000001801d186a f   libucrt:fpsr.obj
 0001:001d087e       _frnd                      00000001801d187e f   libucrt:fpsr.obj
 0001:001d08a0       _query_new_mode            00000001801d18a0 f   libucrt:new_mode.obj
 0001:001d08a8       __acrt_DownlevelLocaleNameToLCID 00000001801d18a8 f   libucrt:lcidtoname_downlevel.obj
 0001:001d0a70       fclose                     00000001801d1a70 f   libucrt:fclose.obj
 0001:001d0b94       _commit                    00000001801d1b94 f   libucrt:commit.obj
 0001:001d1430       _write_internal            00000001801d2430 f   libucrt:write.obj
 0001:001d1550       _write_nolock              00000001801d2550 f   libucrt:write.obj
 0001:001d1858       __acrt_lowio_create_handle_array 00000001801d2858 f   libucrt:osfinfo.obj
 0001:001d1900       __acrt_lowio_destroy_handle_array 00000001801d2900 f   libucrt:osfinfo.obj
 0001:001d1950       __acrt_lowio_ensure_fh_exists 00000001801d2950 f   libucrt:osfinfo.obj
 0001:001d19f8       __acrt_lowio_lock_fh       00000001801d29f8 f   libucrt:osfinfo.obj
 0001:001d1a20       __acrt_lowio_unlock_fh     00000001801d2a20 f   libucrt:osfinfo.obj
 0001:001d1a48       _free_osfhnd               00000001801d2a48 f   libucrt:osfinfo.obj
 0001:001d1b04       _get_osfhandle             00000001801d2b04 f   libucrt:osfinfo.obj
 0001:001d1b7c       __acrt_add_locale_ref      00000001801d2b7c f   libucrt:locale_refcounting.obj
 0001:001d1c08       __acrt_free_locale         00000001801d2c08 f   libucrt:locale_refcounting.obj
 0001:001d1d80       __acrt_locale_add_lc_time_reference 00000001801d2d80 f   libucrt:locale_refcounting.obj
 0001:001d1da8       __acrt_locale_free_lc_time_if_unreferenced 00000001801d2da8 f   libucrt:locale_refcounting.obj
 0001:001d1de0       __acrt_locale_release_lc_time_reference 00000001801d2de0 f   libucrt:locale_refcounting.obj
 0001:001d1e08       __acrt_release_locale_ref  00000001801d2e08 f   libucrt:locale_refcounting.obj
 0001:001d1eb0       __acrt_update_thread_locale_data 00000001801d2eb0 f   libucrt:locale_refcounting.obj
 0001:001d1f20       _updatetlocinfoEx_nolock   00000001801d2f20 f   libucrt:locale_refcounting.obj
 0001:001d2058       __acrt_fp_strflt_to_string 00000001801d3058 f   libucrt:_fptostr.obj
 0001:001d2170       ?divide@__crt_strtox@@YA_KAEAUbig_integer@1@AEBU21@@Z 00000001801d3170 f i libucrt:cfout.obj
 0001:001d260c       __acrt_fltout              00000001801d360c f   libucrt:cfout.obj
 0001:001d3924       fegetround                 00000001801d4924 f   libucrt:fegetround.obj
 0001:001d3938       ?__c32rtomb_utf8@__crt_mbstring@@YA_KPEAD_UPEAU_Mbstatet@@AEAV__crt_cached_ptd_host@@@Z 00000001801d4938 f   libucrt:c32rtomb.obj
 0001:001d39dc       ?__mbrtowc_utf8@__crt_mbstring@@YA_KPEA_WPEBD_KPEAU_Mbstatet@@AEAV__crt_cached_ptd_host@@@Z 00000001801d49dc f   libucrt:mbrtowc.obj
 0001:001d3a20       ?__mbsrtowcs_utf8@__crt_mbstring@@YA_KPEA_WPEAPEBD_KPEAU_Mbstatet@@AEAV__crt_cached_ptd_host@@@Z 00000001801d4a20 f   libucrt:mbrtowc.obj
 0001:001d3d38       __acrt_stdio_flush_and_write_narrow_nolock 00000001801d4d38 f   libucrt:_flsbuf.obj
 0001:001d3e04       _isatty                    00000001801d4e04 f   libucrt:isatty.obj
 0001:001d3e64       __acrt_locale_free_monetary 00000001801d4e64 f   libucrt:initmon.obj
 0001:001d3f70       __acrt_locale_free_numeric 00000001801d4f70 f   libucrt:initnum.obj
 0001:001d4010       __acrt_locale_free_time    00000001801d5010 f   libucrt:inittime.obj
 0001:001d4118       __acrt_GetStringTypeA      00000001801d5118 f   libucrt:getstringtypea.obj
 0001:001d42a8       _raise_exc                 00000001801d52a8 f   libucrt:fpexcept.obj
 0001:001d42d0       _raise_exc_ex              00000001801d52d0 f   libucrt:fpexcept.obj
 0001:001d45d8       _raise_excf                00000001801d55d8 f   libucrt:fpexcept.obj
 0001:001d4604       _set_errno_from_matherr    00000001801d5604 f   libucrt:fpexcept.obj
 0001:001d4640       qsort                      00000001801d5640 f   libucrt:qsort.obj
 0001:001d4a50       strncpy_s                  00000001801d5a50 f   libucrt:strncpy_s.obj
 0001:001d4be0       strpbrk                    00000001801d5be0 f   libucrt:strpbrk.obj
 0001:001d4fa8       _mbsdec                    00000001801d5fa8 f   libucrt:mbsdec.obj
 0001:001d4fb0       _mbsdec_l                  00000001801d5fb0 f   libucrt:mbsdec.obj
 0001:001d5378       __acrt_LCMapStringA        00000001801d6378 f   libucrt:lcmapstringa.obj
 0001:001d5428       _msize_base                00000001801d6428 f   libucrt:msize.obj
 0001:001d5464       _realloc_base              00000001801d6464 f   libucrt:realloc_base.obj
 0001:001d54e0       __ascii_wcsnicmp           00000001801d64e0 f   libucrt:wcsnicmp.obj
 0001:001d55a4       _close_internal            00000001801d65a4 f   libucrt:close.obj
 0001:001d5668       _close_nolock_internal     00000001801d6668 f   libucrt:close.obj
 0001:001d5738       ?__acrt_stdio_free_stream@@YAXV__crt_stdio_stream@@@Z 00000001801d6738 f   libucrt:stream.obj
 0001:001d5920       _lseeki64                  00000001801d6920 f   libucrt:lseek.obj
 0001:001d59bc       _lseeki64_nolock_internal  00000001801d69bc f   libucrt:lseek.obj
 0001:001d59c4       _putwch_nolock             00000001801d69c4 f   libucrt:putwch.obj
 0001:001d5a00       _query_app_type            00000001801d6a00 f   libucrt:report_runtime_error.obj
 0001:001d5a08       _controlfp_s               00000001801d6a08 f   libucrt:contrlfp.obj
 0001:001d5a6c       fegetenv                   00000001801d6a6c f   libucrt:fegetenv.obj
 0001:001d5a8c       fesetenv                   00000001801d6a8c f   libucrt:fesetenv.obj
 0001:001d5ae4       feholdexcept               00000001801d6ae4 f   libucrt:feholdexcept.obj
 0001:001d5b34       ceil                       00000001801d6b34 f   libucrt:ceil.obj
 0001:001d5c00       log10                      00000001801d6c00 f   libucrt:log10.obj
 0001:001d61ac       __acrt_fenv_get_common_round_control 00000001801d71ac f   libucrt:_fenvutils.obj
 0001:001d61b8       __acrt_fenv_get_control    00000001801d71b8 f   libucrt:_fenvutils.obj
 0001:001d629c       __acrt_fenv_get_status     00000001801d729c f   libucrt:_fenvutils.obj
 0001:001d62f4       __acrt_fenv_set_control    00000001801d72f4 f   libucrt:_fenvutils.obj
 0001:001d642c       __acrt_fenv_set_status     00000001801d742c f   libucrt:_fenvutils.obj
 0001:001d64a0       ?reset_and_return@__crt_mbstring@@YA_K_KPEAU_Mbstatet@@@Z 00000001801d74a0 f   libucrt:common_utf8.obj
 0001:001d64a8       ?return_illegal_sequence@__crt_mbstring@@YA_KPEAU_Mbstatet@@AEAV__crt_cached_ptd_host@@@Z 00000001801d74a8 f   libucrt:common_utf8.obj
 0001:001d64bc       ?__mbrtoc32_utf8@__crt_mbstring@@YA_KPEA_UPEBD_KPEAU_Mbstatet@@AEAV__crt_cached_ptd_host@@@Z 00000001801d74bc f   libucrt:mbrtoc32.obj
 0001:001d6698       __acrt_stdio_allocate_buffer_nolock 00000001801d7698 f   libucrt:_getbuf.obj
 0001:001d6704       __strncnt                  00000001801d7704 f   libucrt:strncnt.obj
 0001:001d671c       __dcrt_lowio_ensure_console_output_initialized 00000001801d771c f   libucrt:initcon.obj
 0001:001d6770       __dcrt_terminate_console_output 00000001801d7770 f   libucrt:initcon.obj
 0001:001d678c       __dcrt_write_console       00000001801d778c f   libucrt:initcon.obj
 0001:001d684c       _clearfp                   00000001801d784c f   libucrt:ieee.obj
 0001:001d68b8       _control87                 00000001801d78b8 f   libucrt:ieee.obj
 0001:001d6b60       _log10_special             00000001801d7b60 f   libucrt:log_special.obj
 0001:001d6c20       _FindPESection             00000001801d7c20 f   LIBCMT:pesect.obj
 0001:001d6c70       _IsNonwritableInCurrentImage 00000001801d7c70 f   LIBCMT:pesect.obj
 0001:001d6cc0       _ValidateImageBase         00000001801d7cc0 f   LIBCMT:pesect.obj
 0001:001d6cec       __GSHandlerCheck           00000001801d7cec f   LIBCMT:gshandler.obj
 0001:001d6d0c       __GSHandlerCheckCommon     00000001801d7d0c f   LIBCMT:gshandler.obj
 0001:001d6d80       __security_check_cookie    00000001801d7d80 f   LIBCMT:amdsecgs.obj
 0001:001d6da0       __GSHandlerCheck_SEH       00000001801d7da0 f   LIBCMT:gshandlerseh.obj
 0001:001d6e28       __raise_securityfailure    00000001801d7e28 f   LIBCMT:gs_report.obj
 0001:001d6e5c       __report_gsfailure         00000001801d7e5c f   LIBCMT:gs_report.obj
 0001:001d6f30       __report_rangecheckfailure 00000001801d7f30 f   LIBCMT:gs_report.obj
 0001:001d6f44       __report_securityfailure   00000001801d7f44 f   LIBCMT:gs_report.obj
 0001:001d70c4       __GSHandlerCheck_EH        00000001801d80c4 f   LIBCMT:gshandlereh.obj
 0001:001d7144       __C_specific_handler_noexcept 00000001801d8144 f   libvcruntime:chandler_noexcept.obj
 0001:001d7190       strrchr                    00000001801d8190 f   libvcruntime:strrchr.obj
 0001:001d72e0       memcmp                     00000001801d82e0 f   libvcruntime:memcmp.obj
 0001:001d73c0       _guard_dispatch_icall_nop  00000001801d83c0 f   LIBCMT:guard_dispatch.obj
 0001:001d73e0       _guard_xfg_dispatch_icall_nop 00000001801d83e0 f   LIBCMT:guard_xfg_dispatch.obj
 0002:00000000       __imp_GetLastError         00000001801d9000     kernel32:KERNEL32.dll
 0002:00000008       __imp_FreeLibrary          00000001801d9008     kernel32:KERNEL32.dll
 0002:00000010       __imp_GetProcAddress       00000001801d9010     kernel32:KERNEL32.dll
 0002:00000018       __imp_LoadLibraryA         00000001801d9018     kernel32:KERNEL32.dll
 0002:00000020       __imp_RaiseException       00000001801d9020     kernel32:KERNEL32.dll
 0002:00000028       __imp_GetSystemInfo        00000001801d9028     kernel32:KERNEL32.dll
 0002:00000030       __imp_VirtualProtect       00000001801d9030     kernel32:KERNEL32.dll
 0002:00000038       __imp_VirtualQuery         00000001801d9038     kernel32:KERNEL32.dll
 0002:00000040       __imp_GetModuleHandleW     00000001801d9040     kernel32:KERNEL32.dll
 0002:00000048       __imp_LoadLibraryExA       00000001801d9048     kernel32:KERNEL32.dll
 0002:00000050       __imp_InitializeSListHead  00000001801d9050     kernel32:KERNEL32.dll
 0002:00000058       __imp_RtlCaptureContext    00000001801d9058     kernel32:KERNEL32.dll
 0002:00000060       __imp_RtlLookupFunctionEntry 00000001801d9060     kernel32:KERNEL32.dll
 0002:00000068       __imp_RtlVirtualUnwind     00000001801d9068     kernel32:KERNEL32.dll
 0002:00000070       __imp_IsDebuggerPresent    00000001801d9070     kernel32:KERNEL32.dll
 0002:00000078       __imp_UnhandledExceptionFilter 00000001801d9078     kernel32:KERNEL32.dll
 0002:00000080       __imp_SetUnhandledExceptionFilter 00000001801d9080     kernel32:KERNEL32.dll
 0002:00000088       __imp_GetStartupInfoW      00000001801d9088     kernel32:KERNEL32.dll
 0002:00000090       __imp_IsProcessorFeaturePresent 00000001801d9090     kernel32:KERNEL32.dll
 0002:00000098       __imp_QueryPerformanceCounter 00000001801d9098     kernel32:KERNEL32.dll
 0002:000000a0       __imp_GetCurrentProcessId  00000001801d90a0     kernel32:KERNEL32.dll
 0002:000000a8       __imp_GetCurrentThreadId   00000001801d90a8     kernel32:KERNEL32.dll
 0002:000000b0       __imp_GetSystemTimeAsFileTime 00000001801d90b0     kernel32:KERNEL32.dll
 0002:000000b8       __imp_InterlockedPushEntrySList 00000001801d90b8     kernel32:KERNEL32.dll
 0002:000000c0       __imp_InterlockedFlushSList 00000001801d90c0     kernel32:KERNEL32.dll
 0002:000000c8       __imp_RtlUnwindEx          00000001801d90c8     kernel32:KERNEL32.dll
 0002:000000d0       __imp_SetLastError         00000001801d90d0     kernel32:KERNEL32.dll
 0002:000000d8       __imp_EnterCriticalSection 00000001801d90d8     kernel32:KERNEL32.dll
 0002:000000e0       __imp_LeaveCriticalSection 00000001801d90e0     kernel32:KERNEL32.dll
 0002:000000e8       __imp_DeleteCriticalSection 00000001801d90e8     kernel32:KERNEL32.dll
 0002:000000f0       __imp_InitializeCriticalSectionAndSpinCount 00000001801d90f0     kernel32:KERNEL32.dll
 0002:000000f8       __imp_TlsAlloc             00000001801d90f8     kernel32:KERNEL32.dll
 0002:00000100       __imp_TlsGetValue          00000001801d9100     kernel32:KERNEL32.dll
 0002:00000108       __imp_TlsSetValue          00000001801d9108     kernel32:KERNEL32.dll
 0002:00000110       __imp_TlsFree              00000001801d9110     kernel32:KERNEL32.dll
 0002:00000118       __imp_LoadLibraryExW       00000001801d9118     kernel32:KERNEL32.dll
 0002:00000120       __imp_EncodePointer        00000001801d9120     kernel32:KERNEL32.dll
 0002:00000128       __imp_RtlPcToFileHeader    00000001801d9128     kernel32:KERNEL32.dll
 0002:00000130       __imp_GetCurrentProcess    00000001801d9130     kernel32:KERNEL32.dll
 0002:00000138       __imp_ExitProcess          00000001801d9138     kernel32:KERNEL32.dll
 0002:00000140       __imp_TerminateProcess     00000001801d9140     kernel32:KERNEL32.dll
 0002:00000148       __imp_GetModuleHandleExW   00000001801d9148     kernel32:KERNEL32.dll
 0002:00000150       __imp_GetModuleFileNameW   00000001801d9150     kernel32:KERNEL32.dll
 0002:00000158       __imp_HeapAlloc            00000001801d9158     kernel32:KERNEL32.dll
 0002:00000160       __imp_HeapFree             00000001801d9160     kernel32:KERNEL32.dll
 0002:00000168       __imp_FlsAlloc             00000001801d9168     kernel32:KERNEL32.dll
 0002:00000170       __imp_FlsGetValue          00000001801d9170     kernel32:KERNEL32.dll
 0002:00000178       __imp_FlsSetValue          00000001801d9178     kernel32:KERNEL32.dll
 0002:00000180       __imp_FlsFree              00000001801d9180     kernel32:KERNEL32.dll
 0002:00000188       __imp_LCMapStringW         00000001801d9188     kernel32:KERNEL32.dll
 0002:00000190       __imp_GetStdHandle         00000001801d9190     kernel32:KERNEL32.dll
 0002:00000198       __imp_GetFileType          00000001801d9198     kernel32:KERNEL32.dll
 0002:000001a0       __imp_FindClose            00000001801d91a0     kernel32:KERNEL32.dll
 0002:000001a8       __imp_FindFirstFileExW     00000001801d91a8     kernel32:KERNEL32.dll
 0002:000001b0       __imp_FindNextFileW        00000001801d91b0     kernel32:KERNEL32.dll
 0002:000001b8       __imp_IsValidCodePage      00000001801d91b8     kernel32:KERNEL32.dll
 0002:000001c0       __imp_GetACP               00000001801d91c0     kernel32:KERNEL32.dll
 0002:000001c8       __imp_GetOEMCP             00000001801d91c8     kernel32:KERNEL32.dll
 0002:000001d0       __imp_GetCPInfo            00000001801d91d0     kernel32:KERNEL32.dll
 0002:000001d8       __imp_GetCommandLineA      00000001801d91d8     kernel32:KERNEL32.dll
 0002:000001e0       __imp_GetCommandLineW      00000001801d91e0     kernel32:KERNEL32.dll
 0002:000001e8       __imp_MultiByteToWideChar  00000001801d91e8     kernel32:KERNEL32.dll
 0002:000001f0       __imp_WideCharToMultiByte  00000001801d91f0     kernel32:KERNEL32.dll
 0002:000001f8       __imp_GetEnvironmentStringsW 00000001801d91f8     kernel32:KERNEL32.dll
 0002:00000200       __imp_FreeEnvironmentStringsW 00000001801d9200     kernel32:KERNEL32.dll
 0002:00000208       __imp_GetProcessHeap       00000001801d9208     kernel32:KERNEL32.dll
 0002:00000210       __imp_FlushFileBuffers     00000001801d9210     kernel32:KERNEL32.dll
 0002:00000218       __imp_WriteFile            00000001801d9218     kernel32:KERNEL32.dll
 0002:00000220       __imp_GetConsoleOutputCP   00000001801d9220     kernel32:KERNEL32.dll
 0002:00000228       __imp_GetConsoleMode       00000001801d9228     kernel32:KERNEL32.dll
 0002:00000230       __imp_SetStdHandle         00000001801d9230     kernel32:KERNEL32.dll
 0002:00000238       __imp_GetFileSizeEx        00000001801d9238     kernel32:KERNEL32.dll
 0002:00000240       __imp_SetFilePointerEx     00000001801d9240     kernel32:KERNEL32.dll
 0002:00000248       __imp_GetStringTypeW       00000001801d9248     kernel32:KERNEL32.dll
 0002:00000250       __imp_HeapSize             00000001801d9250     kernel32:KERNEL32.dll
 0002:00000258       __imp_HeapReAlloc          00000001801d9258     kernel32:KERNEL32.dll
 0002:00000260       __imp_CloseHandle          00000001801d9260     kernel32:KERNEL32.dll
 0002:00000268       __imp_CreateFileW          00000001801d9268     kernel32:KERNEL32.dll
 0002:00000270       __imp_WriteConsoleW        00000001801d9270     kernel32:KERNEL32.dll
 0002:00000278       \177KERNEL32_NULL_THUNK_DATA 00000001801d9278     kernel32:KERNEL32.dll
 0002:00000280       __guard_check_icall_fptr   00000001801d9280     LIBCMT:guard_support.obj
 0002:00000288       __guard_xfg_check_icall_fptr 00000001801d9288     LIBCMT:guard_support.obj
 0002:00000290       __guard_dispatch_icall_fptr 00000001801d9290     LIBCMT:guard_support.obj
 0002:00000298       __guard_xfg_dispatch_icall_fptr 00000001801d9298     LIBCMT:guard_support.obj
 0002:000002a0       __guard_xfg_table_dispatch_icall_fptr 00000001801d92a0     LIBCMT:guard_support.obj
 0002:000002a8       __castguard_check_failure_os_handled_fptr 00000001801d92a8     LIBCMT:guard_support.obj
 0002:000002b0       __guard_memcpy_fptr        00000001801d92b0     libvcruntime:softmemtag.obj
 0002:000002b8       __xc_a                     00000001801d92b8     LIBCMT:initializers.obj
 0002:00001c90       __xc_z                     00000001801dac90     LIBCMT:initializers.obj
 0002:00001c98       __xi_a                     00000001801dac98     LIBCMT:initializers.obj
 0002:00001ca0       __acrt_stdio_initializer   00000001801daca0     libucrt:stdio_initializer.obj
 0002:00001ca8       __acrt_tran_fma3_initializer 00000001801daca8     libucrt:fma3_initializer.obj
 0002:00001cb0       __acrt_multibyte_initializer 00000001801dacb0     libucrt:multibyte_initializer.obj
 0002:00001cb8       __xi_z                     00000001801dacb8     LIBCMT:initializers.obj
 0002:00001cc0       __xp_a                     00000001801dacc0     LIBCMT:initializers.obj
 0002:00001cc8       __acrt_locale_terminator   00000001801dacc8     libucrt:locale_initializer.obj
 0002:00001cd0       __dcrt_console_output_terminator 00000001801dacd0     libucrt:console_output_initializer.obj
 0002:00001cd8       __acrt_stdio_terminator    00000001801dacd8     libucrt:stdio_initializer.obj
 0002:00001ce0       __xp_z                     00000001801dace0     LIBCMT:initializers.obj
 0002:00001ce8       __xt_a                     00000001801dace8     LIBCMT:initializers.obj
 0002:00001cf0       __xt_z                     00000001801dacf0     LIBCMT:initializers.obj
 0002:00001d00       ??_C@_08MDGMHCHN@PtrTable@ 00000001801dad00     CmPtrTable.obj
 0002:00001d0c       ??_C@_04GKJNKENE@void@     00000001801dad0c     CmPtrTable.obj
 0002:00001d18       ??_C@_07DFEBJDHE@mSingle@  00000001801dad18     CmPtrTable.obj
 0002:00001d20       ??_C@_05NLHHBMOH@PxU16@    00000001801dad20     CmPtrTable.obj
 0002:00001d28       ??_C@_06EPKHJPIM@mCount@   00000001801dad28     CmPtrTable.obj
 0002:00001d30       ??_C@_04DDKJGDCM@bool@     00000001801dad30     CmPtrTable.obj
 0002:00001d38       ??_C@_0M@DAGELID@mOwnsMemory@ 00000001801dad38     CmPtrTable.obj
 0002:00001d48       ??_C@_0M@MMPOMMLP@mBufferUsed@ 00000001801dad48     CmPtrTable.obj
 0002:00001d54       ??_C@_05LMJPANIN@PxU32@    00000001801dad54     CmPtrTable.obj
 0002:00001d60       ??_C@_09PMLNMEMN@mFreeSlot@ 00000001801dad60     CmPtrTable.obj
 0002:00001d70       ??_7PxCollection@physx@@6B@ 00000001801dad70     CmCollection.obj
 0002:00001df0       ??_C@_00CNPNBAHC@@         00000001801dadf0     CmCollection.obj
 0002:00001df8       ??_7Collection@Cm@physx@@6B@ 00000001801dadf8     CmCollection.obj
 0002:00001e80       ??_C@_0GE@GBACBMOC@PxCollection?3?3add?5called?5for?5an@ 00000001801dae80     CmCollection.obj
 0002:00001ee8       ??_C@_0DL@EBPFMACH@D?3?2Projects?2PhysX?2physx?2source?2@ 00000001801daee8     CmCollection.obj
 0002:00001f30       ??_C@_0EM@OMMGDOMK@PxCollection?3?3add?5called?5with?5a@ 00000001801daf30     CmCollection.obj
 0002:00001f80       ??_C@_0DN@NPGBEKGG@D?3?2Projects?2PhysX?2physx?2include@ 00000001801daf80     CmCollection.obj
 0002:00001fc0       ??_C@_0BM@OIFKLHDN@?$DMallocation?5names?5disabled?$DO@ 00000001801dafc0     CmCollection.obj
 0002:00001fe0       ??_7RadixSort@Cm@physx@@6B@ 00000001801dafe0     CmRadixSort.obj
 0002:00001fe8       ??_7RadixSortBuffered@Cm@physx@@6B@ 00000001801dafe8     CmRadixSort.obj
 0002:00001ff0       ??_C@_0DK@CJCKCFJK@D?3?2Projects?2PhysX?2physx?2source?2@ 00000001801daff0     CmRadixSort.obj
 0002:00002030       __xmm@00000001000000010000000100000001 00000001801db030     CmRadixSort.obj
 0002:00002040       __xmm@00000003000000020000000100000000 00000001801db040     CmRadixSort.obj
 0002:00002050       __real@3d4ccccd            00000001801db050     CmVisualization.obj
 0002:00002054       __real@3e19999a            00000001801db054     CmVisualization.obj
 0002:00002058       __real@3e490fdb            00000001801db058     CmVisualization.obj
 0002:0000205c       __real@3e800000            00000001801db05c     CmVisualization.obj
 0002:00002060       __real@3e99999a            00000001801db060     CmVisualization.obj
 0002:00002064       __real@3ea0d97c            00000001801db064     CmVisualization.obj
 0002:00002068       __real@3eddb3d7            00000001801db068     CmVisualization.obj
 0002:0000206c       __real@3f3504f3            00000001801db06c     CmVisualization.obj
 0002:00002070       __real@3f800000            00000001801db070     CmVisualization.obj
 0002:00002074       __real@3fc00000            00000001801db074     CmVisualization.obj
 0002:00002078       __real@3fddb3d7            00000001801db078     CmVisualization.obj
 0002:0000207c       __real@40100000            00000001801db07c     CmVisualization.obj
 0002:00002080       __real@40c90fdb            00000001801db080     CmVisualization.obj
 0002:00002084       __real@bfddb3d7            00000001801db084     CmVisualization.obj
 0002:00002088       __real@c0000000            00000001801db088     CmVisualization.obj
 0002:00002090       __xmm@3f800000000000000000000000000000 00000001801db090     CmVisualization.obj
 0002:000020a0       __xmm@7fffffff7fffffff7fffffff7fffffff 00000001801db0a0     CmVisualization.obj
 0002:000020b0       __xmm@80000000800000008000000080000000 00000001801db0b0     CmVisualization.obj
 0002:000020c0       ??_C@_0BB@CPDDPFKD@GetUpdatedModule@ 00000001801db0c0     CmWindowsModuleUpdateLoader.obj
 0002:000020e0       ??_C@_0FC@DGCHNFJB@D?3?2Projects?2PhysX?2physx?2source?2@ 00000001801db0e0     CmWindowsModuleUpdateLoader.obj
 0002:00002138       ??_C@_0CP@PGOIOJOO@?$CFs?3?$CFi?3?5loadLibrary?5error?5when?5l@ 00000001801db138     CmWindowsModuleUpdateLoader.obj
 0002:00002168       ??_C@_0BA@EGLNOO@PhysXFoundation@ 00000001801db168     CmWindowsDelayLoadHook.obj
 0002:00002178       ??_C@_0M@ILKNCJKN@PhysXCommon@ 00000001801db178     CmWindowsDelayLoadHook.obj
 0002:000021b0       __real@3f000000            00000001801db1b0     GuBox.obj
 0002:000021b4       __real@3f7ff972            00000001801db1b4     GuBox.obj
 0002:000021c0       __xmm@000000003a83126f3a83126f3a83126f 00000001801db1c0     GuBox.obj
 0002:000021d0       __xmm@00000000ba83126fba83126fba83126f 00000001801db1d0     GuBox.obj
 0002:000021e0       __xmm@3a83126f3a83126f3a83126f3a83126f 00000001801db1e0     GuBox.obj
 0002:000021f0       __xmm@ba83126fba83126fba83126fba83126f 00000001801db1f0     GuBox.obj
 0002:00002220       ??_7EntityReport@Gu@physx@@6B@ 00000001801db220     GuSweepsHF.obj
 0002:00002220       ??_7OverlapCallback@PxBVH@physx@@6B@ 00000001801db220     GuQuerySystem.obj
 0002:00002220       ??_7OverlapReport@Gu@physx@@6B@ 00000001801db220     GuCCTSweepTests.obj
 0002:00002220       ??_7RaycastCallback@PxBVH@physx@@6B@ 00000001801db220     GuQuerySystem.obj
 0002:00002220       ??_7RemapCallback@RTreeCooker@physx@@6B@ 00000001801db220     GuCookingTriangleMesh.obj
 0002:00002240       __real@3b03126f            00000001801db240     GuCCTSweepTests.obj
 0002:00002244       __real@40000000            00000001801db244     GuCCTSweepTests.obj
 0002:00002280       ??_7SupportLocal@Gu@physx@@6B@ 00000001801db280     GuGeometryQuery.obj
 0002:000022a0       ??_7?$SupportLocalImpl@VBoxV@Gu@physx@@@Gu@physx@@6B@ 00000001801db2a0     GuGeometryQuery.obj
 0002:000022c0       ??_7?$SupportLocalImpl@VConvexHullV@Gu@physx@@@Gu@physx@@6B@ 00000001801db2c0     GuGeometryQuery.obj
 0002:000022e0       ??_C@_0DF@JIJJLLIC@D?3?2Projects?2PhysX?2physx?2include@ 00000001801db2e0     GuGeometryQuery.obj
 0002:00002318       __real@30d1b7e9            00000001801db318     GuGeometryQuery.obj
 0002:0000231c       __real@322bcc77            00000001801db31c     GuGeometryQuery.obj
 0002:00002320       __real@358637bd            00000001801db320     GuGeometryQuery.obj
 0002:00002324       __real@3a83126f            00000001801db324     GuGeometryQuery.obj
 0002:00002328       __real@3ccccccd            00000001801db328     GuGeometryQuery.obj
 0002:0000232c       __real@3dcccccd            00000001801db32c     GuGeometryQuery.obj
 0002:00002330       __real@49742400            00000001801db330     GuGeometryQuery.obj
 0002:00002334       __real@7f7fffff            00000001801db334     GuGeometryQuery.obj
 0002:00002338       __real@bf800000            00000001801db338     GuGeometryQuery.obj
 0002:00002340       __xmm@0000000000000000000000003f800000 00000001801db340     GuGeometryQuery.obj
 0002:00002350       __xmm@00000000000000003f80000000000000 00000001801db350     GuGeometryQuery.obj
 0002:00002360       __xmm@00000000000000003f8000003f800000 00000001801db360     GuGeometryQuery.obj
 0002:00002370       __xmm@000000003f8000000000000000000000 00000001801db370     GuGeometryQuery.obj
 0002:00002380       __xmm@000000003f8000003f8000003f800000 00000001801db380     GuGeometryQuery.obj
 0002:00002390       __xmm@00000000ffffffffffffffffffffffff 00000001801db390     GuGeometryQuery.obj
 0002:000023a0       __xmm@3d4ccccd3d4ccccd3d4ccccd3d4ccccd 00000001801db3a0     GuGeometryQuery.obj
 0002:000023b0       __xmm@3e19999a3e19999a3e19999a3e19999a 00000001801db3b0     GuGeometryQuery.obj
 0002:000023c0       __xmm@3e4ccccd3e4ccccd3e4ccccd3e4ccccd 00000001801db3c0     GuGeometryQuery.obj
 0002:000023d0       __xmm@3e8000003e8000003e8000003e800000 00000001801db3d0     GuGeometryQuery.obj
 0002:000023e0       __xmm@3f7ef9db3f7ef9db3f7ef9db3f7ef9db 00000001801db3e0     GuGeometryQuery.obj
 0002:000023f0       __xmm@3f7ff2e53f7ff2e53f7ff2e53f7ff2e5 00000001801db3f0     GuGeometryQuery.obj
 0002:00002400       __xmm@3f8000003f8000003f8000003f800000 00000001801db400     GuGeometryQuery.obj
 0002:00002410       __xmm@7f7fffff7f7fffff7f7fffff7f7fffff 00000001801db410     GuGeometryQuery.obj
 0002:00002420       __xmm@bf000000bf000000bf000000bf000000 00000001801db420     GuGeometryQuery.obj
 0002:00002450       ??_C@_0DP@CHNILJBM@D?3?2Projects?2PhysX?2physx?2source?2@ 00000001801db450     GuMeshFactory.obj
 0002:000024a0       ??_C@_0EM@BDFDGBD@Inserting?5object?5failed?3?5Object@ 00000001801db4a0     GuMeshFactory.obj
 0002:00002510       ??_7CallbackRaycast@RTree@Gu@physx@@6B@ 00000001801db510     GuMidphaseRTree.obj
 0002:00002510       ??_7CallbackRefit@RTree@Gu@physx@@6B@ 00000001801db510     GuTriangleMeshRTree.obj
 0002:00002510       ??_7PxInsertionCallback@physx@@6B@ 00000001801db510     GuMeshFactory.obj
 0002:00002520       ??_7PxCollisionMeshMappingData@physx@@6B@ 00000001801db520     GuMeshFactory.obj
 0002:00002530       ??_7MeshFactory@Gu@physx@@6B@ 00000001801db530     GuMeshFactory.obj
 0002:00002538       ??_7MeshDataBase@Gu@physx@@6B@ 00000001801db538     GuMeshFactory.obj
 0002:00002540       ??_C@_0DP@MJAOLHJL@D?3?2Projects?2PhysX?2physx?2source?2@ 00000001801db540     GuMeshFactory.obj
 0002:00002580       ??_7TriangleMeshData@Gu@physx@@6B@ 00000001801db580     GuMeshFactory.obj
 0002:00002588       ??_7RTreeTriangleData@Gu@physx@@6B@ 00000001801db588     GuMeshFactory.obj
 0002:00002590       ??_7BV4TriangleData@Gu@physx@@6B@ 00000001801db590     GuMeshFactory.obj
 0002:00002598       ??_7SoftBodyCollisionData@Gu@physx@@6B@ 00000001801db598     GuMeshFactory.obj
 0002:000025a0       ??_7CollisionMeshMappingData@Gu@physx@@6B@ 00000001801db5a0     GuMeshFactory.obj
 0002:000025b0       ??_7SoftBodySimulationData@Gu@physx@@6B@ 00000001801db5b0     GuMeshFactory.obj
 0002:000025c0       ??_C@_0GP@NHELMDAL@Loading?5triangle?5mesh?5failed?3?5D@ 00000001801db5c0     GuMeshFactory.obj
 0002:00002630       ??_C@_0BP@CDOKDACA@RTree?5binary?5image?5load?5error?4@ 00000001801db630     GuMeshFactory.obj
 0002:00002650       ??_C@_0BN@MJPNIELF@BV4?5binary?5image?5load?5error?4@ 00000001801db650     GuMeshFactory.obj
 0002:00002670       ??_C@_0BO@JDPABAOF@BV32?5binary?5image?5load?5error?4@ 00000001801db670     GuMeshFactory.obj
 0002:00002690       ??_C@_0DF@JBPELCPL@D?3?2Projects?2PhysX?2physx?2include@ 00000001801db690     GuMeshFactory.obj
 0002:000026d0       __xmm@fe7fffff7e7fffff7e7fffff7e7fffff 00000001801db6d0     GuMeshFactory.obj
 0002:00002700       ??_C@_06EJKDJEDO@PxBase@   00000001801db700     GuMetaData.obj
 0002:00002708       ??_C@_07GFCEJNGM@Valency@  00000001801db708     GuMetaData.obj
 0002:00002710       ??_C@_07NHGKEEIN@mOffset@  00000001801db710     GuMetaData.obj
 0002:00002718       ??_C@_0BB@BAGHBMNJ@BigConvexRawData@ 00000001801db718     GuMetaData.obj
 0002:00002730       ??_C@_07PBDEJAAC@mSubdiv@  00000001801db730     GuMetaData.obj
 0002:00002738       ??_C@_0L@HNPACPGH@mNbSamples@ 00000001801db738     GuMetaData.obj
 0002:00002744       ??_C@_04NCKNBPPK@PxU8@     00000001801db744     GuMetaData.obj
 0002:00002750       ??_C@_08DEPEKJNI@mSamples@ 00000001801db750     GuMetaData.obj
 0002:00002760       ??_C@_08IJDNJBMI@mNbVerts@ 00000001801db760     GuMetaData.obj
 0002:00002770       ??_C@_0M@MMKMIJAF@mNbAdjVerts@ 00000001801db770     GuMetaData.obj
 0002:00002780       ??_C@_0L@EOKMNILC@mValencies@ 00000001801db780     GuMetaData.obj
 0002:00002790       ??_C@_0P@DLGEAMHJ@mAdjacentVerts@ 00000001801db790     GuMetaData.obj
 0002:000027a0       ??_C@_03NGLDENDA@SDF@      00000001801db7a0     GuMetaData.obj
 0002:000027a4       ??_C@_06KDGGGLIJ@PxVec3@   00000001801db7a4     GuMetaData.obj
 0002:000027ac       ??_C@_06GIEBFILM@PxReal@   00000001801db7ac     GuMetaData.obj
 0002:000027b8       ??_C@_0O@PFOPBKAM@BigConvexData@ 00000001801db7b8     GuMetaData.obj
 0002:000027c8       ??_C@_05PLKALGFN@mData@    00000001801db7c8     GuMetaData.obj
 0002:000027d0       ??_C@_08PEMCLHEM@mVBuffer@ 00000001801db7d0     GuMetaData.obj
 0002:000027e0       ??_C@_09FBMAGD@Alignment@  00000001801db7e0     GuMetaData.obj
 0002:000027f0       ??_C@_0BE@KFHIBEEA@InternalObjectsData@ 00000001801db7f0     GuMetaData.obj
 0002:00002808       ??_C@_07NKGFFIBH@mRadius@  00000001801db808     GuMetaData.obj
 0002:00002810       ??_C@_08EHFCACAE@mExtents@ 00000001801db810     GuMetaData.obj
 0002:00002820       ??_C@_0BA@LFMGGCBK@HullPolygonData@ 00000001801db820     GuMetaData.obj
 0002:00002830       ??_C@_06BOHHGLB@mPlane@    00000001801db830     GuMetaData.obj
 0002:00002838       ??_C@_06EHMLHGLN@mVRef8@   00000001801db838     GuMetaData.obj
 0002:00002840       ??_C@_09BAHHHINI@mMinIndex@ 00000001801db840     GuMetaData.obj
 0002:00002850       ??_C@_0P@GBLBPIPB@ConvexHullData@ 00000001801db850     GuMetaData.obj
 0002:00002860       ??_C@_09JDCJAPKD@PxBounds3@ 00000001801db860     GuMetaData.obj
 0002:0000286c       ??_C@_05NDNHIFA@mAABB@     00000001801db86c     GuMetaData.obj
 0002:00002878       ??_C@_0O@LNOGEMJI@mCenterOfMass@ 00000001801db878     GuMetaData.obj
 0002:00002888       ??_C@_09CNMCBBKH@mPolygons@ 00000001801db888     GuMetaData.obj
 0002:00002898       ??_C@_0BC@KKPDCFJC@mBigConvexRawData@ 00000001801db898     GuMetaData.obj
 0002:000028b0       ??_C@_08MPNAAJLD@mSdfData@ 00000001801db8b0     GuMetaData.obj
 0002:000028c0       ??_C@_08ELDMKGKH@mNbEdges@ 00000001801db8c0     GuMetaData.obj
 0002:000028d0       ??_C@_0BA@CGLOHBAC@mNbHullVertices@ 00000001801db8d0     GuMetaData.obj
 0002:000028e0       ??_C@_0M@HGFFLLDM@mNbPolygons@ 00000001801db8e0     GuMetaData.obj
 0002:000028f0       ??_C@_09BHJEMDGO@mInternal@ 00000001801db8f0     GuMetaData.obj
 0002:00002900       ??_C@_0L@GMFHOMKA@ConvexMesh@ 00000001801db900     GuMetaData.obj
 0002:00002910       ??_C@_09ILEBDLJH@mHullData@ 00000001801db910     GuMetaData.obj
 0002:0000291c       ??_C@_03DKDIKGNC@mNb@      00000001801db91c     GuMetaData.obj
 0002:00002920       ??_C@_0P@ENLHFHMD@mBigConvexData@ 00000001801db920     GuMetaData.obj
 0002:00002930       ??_C@_05ILALLCHK@mMass@    00000001801db930     GuMetaData.obj
 0002:00002938       ??_C@_07DBPDADGB@PxMat33@  00000001801db938     GuMetaData.obj
 0002:00002940       ??_C@_08FNBHNDBI@mInertia@ 00000001801db940     GuMetaData.obj
 0002:00002950       ??_C@_0O@FCKNKLMJ@GuMeshFactory@ 00000001801db950     GuMetaData.obj
 0002:00002960       ??_C@_0N@EGBCLMAK@mMeshFactory@ 00000001801db960     GuMetaData.obj
 0002:00002970       ??_C@_0BE@CJJAMAMK@PxHeightFieldSample@ 00000001801db970     GuMetaData.obj
 0002:00002984       ??_C@_05MBLIPEMA@PxI16@    00000001801db984     GuMetaData.obj
 0002:0000298c       ??_C@_06LNLHEAAG@height@   00000001801db98c     GuMetaData.obj
 0002:00002998       ??_C@_0N@HHDGHJN@PxBitAndByte@ 00000001801db998     GuMetaData.obj
 0002:000029a8       ??_C@_0P@MBBMLBO@materialIndex0@ 00000001801db9a8     GuMetaData.obj
 0002:000029b8       ??_C@_0P@BFAKPKFP@materialIndex1@ 00000001801db9b8     GuMetaData.obj
 0002:000029c8       ??_C@_0BD@EBLPJEOE@PxHeightFieldFlags@ 00000001801db9c8     GuMetaData.obj
 0002:000029e0       ??_C@_0BK@FNNCFFCN@PxHeightFieldFormat?3?3Enum@ 00000001801db9e0     GuMetaData.obj
 0002:00002a00       ??_C@_0BA@CLNFMAAA@HeightFieldData@ 00000001801dba00     GuMetaData.obj
 0002:00002a10       ??_C@_04IMCGAIPI@rows@     00000001801dba10     GuMetaData.obj
 0002:00002a18       ??_C@_07HIFEPIJN@columns@  00000001801dba18     GuMetaData.obj
 0002:00002a20       ??_C@_08MOAGOABI@rowLimit@ 00000001801dba20     GuMetaData.obj
 0002:00002a30       ??_C@_08BAGEHOBO@colLimit@ 00000001801dba30     GuMetaData.obj
 0002:00002a40       ??_C@_09LKDBLADF@nbColumns@ 00000001801dba40     GuMetaData.obj
 0002:00002a50       ??_C@_07ODIFGGLK@samples@  00000001801dba50     GuMetaData.obj
 0002:00002a58       ??_C@_0BE@POHEGOJG@convexEdgeThreshold@ 00000001801dba58     GuMetaData.obj
 0002:00002a6c       ??_C@_05GECEPKB@flags@     00000001801dba6c     GuMetaData.obj
 0002:00002a74       ??_C@_06DLEPGFEF@format@   00000001801dba74     GuMetaData.obj
 0002:00002a80       ??_C@_0BF@MOGDNMPL@PxMaterialTableIndex@ 00000001801dba80     GuMetaData.obj
 0002:00002a98       ??_C@_0M@JMJICJJO@HeightField@ 00000001801dba98     GuMetaData.obj
 0002:00002aa8       ??_C@_0O@ENGHMLJP@mSampleStride@ 00000001801dbaa8     GuMetaData.obj
 0002:00002ab8       ??_C@_0L@EBEEMFFB@mMinHeight@ 00000001801dbab8     GuMetaData.obj
 0002:00002ac8       ??_C@_0L@EAEIFPOF@mMaxHeight@ 00000001801dbac8     GuMetaData.obj
 0002:00002ad8       ??_C@_0N@FEFJOKKE@mModifyCount@ 00000001801dbad8     GuMetaData.obj
 0002:00002ae8       ??_C@_09PHDKHCK@RTreePage@ 00000001801dbae8     GuMetaData.obj
 0002:00002af4       ??_C@_04LLPOBGED@minx@     00000001801dbaf4     GuMetaData.obj
 0002:00002afc       ??_C@_04KCOFCHAC@miny@     00000001801dbafc     GuMetaData.obj
 0002:00002b04       ??_C@_04IJMIHEMB@minz@     00000001801dbb04     GuMetaData.obj
 0002:00002b0c       ??_C@_04GGOBOBGO@maxx@     00000001801dbb0c     GuMetaData.obj
 0002:00002b14       ??_C@_04HPPKNACP@maxy@     00000001801dbb14     GuMetaData.obj
 0002:00002b1c       ??_C@_04FENHIDOM@maxz@     00000001801dbb1c     GuMetaData.obj
 0002:00002b24       ??_C@_04HHDFEJON@ptrs@     00000001801dbb24     GuMetaData.obj
 0002:00002b2c       ??_C@_05FFEIGAJF@RTree@    00000001801dbb2c     GuMetaData.obj
 0002:00002b34       ??_C@_06OMCHPNEO@PxVec4@   00000001801dbb34     GuMetaData.obj
 0002:00002b40       ??_C@_0L@NBIFEFLN@mBoundsMin@ 00000001801dbb40     GuMetaData.obj
 0002:00002b50       ??_C@_0L@MDAOKBNC@mBoundsMax@ 00000001801dbb50     GuMetaData.obj
 0002:00002b60       ??_C@_0N@NJEHLCOF@mInvDiagonal@ 00000001801dbb60     GuMetaData.obj
 0002:00002b70       ??_C@_0BA@BEFIGPFG@mDiagonalScaler@ 00000001801dbb70     GuMetaData.obj
 0002:00002b80       ??_C@_09DICGGKGO@mPageSize@ 00000001801dbb80     GuMetaData.obj
 0002:00002b90       ??_C@_0O@BOFFCNOL@mNumRootPages@ 00000001801dbb90     GuMetaData.obj
 0002:00002ba0       ??_C@_0L@JKLGBKAE@mNumLevels@ 00000001801dbba0     GuMetaData.obj
 0002:00002bb0       ??_C@_0M@PHDOHJGK@mTotalNodes@ 00000001801dbbb0     GuMetaData.obj
 0002:00002bc0       ??_C@_0M@GDGHALAO@mTotalPages@ 00000001801dbbc0     GuMetaData.obj
 0002:00002bcc       ??_C@_06MHCBBJGP@mFlags@   00000001801dbbcc     GuMetaData.obj
 0002:00002bd4       ??_C@_06MMNBLHOK@mPages@   00000001801dbbd4     GuMetaData.obj
 0002:00002be0       ??_C@_0P@JNLGHJNH@SourceMeshBase@ 00000001801dbbe0     GuMetaData.obj
 0002:00002bf0       ??_C@_06JFCLJMNN@mVerts@   00000001801dbbf0     GuMetaData.obj
 0002:00002bf8       ??_C@_05GNIIDDHH@mType@    00000001801dbbf8     GuMetaData.obj
 0002:00002c00       ??_C@_06DHAAKLFK@mRemap@   00000001801dbc00     GuMetaData.obj
 0002:00002c08       ??_C@_0L@LEOGNOEC@SourceMesh@ 00000001801dbc08     GuMetaData.obj
 0002:00002c18       ??_C@_07MPIKOOAP@mNbTris@  00000001801dbc18     GuMetaData.obj
 0002:00002c20       ??_C@_0N@FBMOMEHF@mTriangles32@ 00000001801dbc20     GuMetaData.obj
 0002:00002c30       ??_C@_0N@DGCGNFBP@mTriangles16@ 00000001801dbc30     GuMetaData.obj
 0002:00002c40       ??_C@_0O@NLNHFNO@QuantizedAABB@ 00000001801dbc40     GuMetaData.obj
 0002:00002c50       ??_C@_0BC@OOGBEMHH@mData?$FL0?$FN?4mExtents@ 00000001801dbc50     GuMetaData.obj
 0002:00002c68       ??_C@_0BB@OCEDKIEF@mData?$FL0?$FN?4mCenter@ 00000001801dbc68     GuMetaData.obj
 0002:00002c80       ??_C@_0BC@HFMEAABI@mData?$FL1?$FN?4mExtents@ 00000001801dbc80     GuMetaData.obj
 0002:00002c98       ??_C@_0BB@CDMNHHIF@mData?$FL1?$FN?4mCenter@ 00000001801dbc98     GuMetaData.obj
 0002:00002cb0       ??_C@_0BC@CFKNCOI@mData?$FL2?$FN?4mExtents@ 00000001801dbcb0     GuMetaData.obj
 0002:00002cc8       ??_C@_0BB@LKCPBBIE@mData?$FL2?$FN?4mCenter@ 00000001801dbcc8     GuMetaData.obj
 0002:00002ce0       ??_C@_0O@MJJKKPFN@BVDataPackedQ@ 00000001801dbce0     GuMetaData.obj
 0002:00002cf0       ??_C@_0O@JFMLAIPJ@CenterExtents@ 00000001801dbcf0     GuMetaData.obj
 0002:00002d00       ??_C@_07GNKDIIKJ@mCenter@  00000001801dbd00     GuMetaData.obj
 0002:00002d08       ??_C@_0P@KBMJDPLO@BVDataPackedNQ@ 00000001801dbd08     GuMetaData.obj
 0002:00002d18       ??_C@_0M@PNCEBOG@LocalBounds@ 00000001801dbd18     GuMetaData.obj
 0002:00002d24       ??_C@_05KNFBNCOH@float@    00000001801dbd24     GuMetaData.obj
 0002:00002d30       ??_C@_0BC@LADJKHPL@mExtentsMagnitude@ 00000001801dbd30     GuMetaData.obj
 0002:00002d48       ??_C@_07HELIOLAF@BV4Tree@  00000001801dbd48     GuMetaData.obj
 0002:00002d50       ??_C@_0P@EMMDNPMH@mMeshInterface@ 00000001801dbd50     GuMetaData.obj
 0002:00002d60       ??_C@_0N@DCKMHLCL@mLocalBounds@ 00000001801dbd60     GuMetaData.obj
 0002:00002d70       ??_C@_08EEJOMIJL@mNbNodes@ 00000001801dbd70     GuMetaData.obj
 0002:00002d7c       ??_C@_06FIIIMFIO@mNodes@   00000001801dbd7c     GuMetaData.obj
 0002:00002d88       ??_C@_09FGKNPI@mInitData@  00000001801dbd88     GuMetaData.obj
 0002:00002d98       ??_C@_0BC@CLDEHKCO@mCenterOrMinCoeff@ 00000001801dbd98     GuMetaData.obj
 0002:00002db0       ??_C@_0BD@LAOLBNJ@mExtentsOrMaxCoeff@ 00000001801dbdb0     GuMetaData.obj
 0002:00002dc8       ??_C@_0P@JEECKKBL@mUserAllocated@ 00000001801dbdc8     GuMetaData.obj
 0002:00002dd8       ??_C@_0L@GLIMNECG@mQuantized@ 00000001801dbdd8     GuMetaData.obj
 0002:00002de8       ??_C@_0L@CCOJDAID@mIsEdgeSet@ 00000001801dbde8     GuMetaData.obj
 0002:00002df8       ??_C@_08BNDBAGDH@mPadding@ 00000001801dbdf8     GuMetaData.obj
 0002:00002e08       ??_C@_0N@OJNNNLIB@TriangleMesh@ 00000001801dbe08     GuMetaData.obj
 0002:00002e18       ??_C@_0M@OGEDMEAL@mNbVertices@ 00000001801dbe18     GuMetaData.obj
 0002:00002e28       ??_C@_0N@MGGDNHNI@mNbTriangles@ 00000001801dbe28     GuMetaData.obj
 0002:00002e38       ??_C@_09LNNEGOJA@mVertices@ 00000001801dbe38     GuMetaData.obj
 0002:00002e48       ??_C@_0L@KBOFAKLO@mTriangles@ 00000001801dbe48     GuMetaData.obj
 0002:00002e58       ??_C@_0P@MHDFIHLD@mExtraTrigData@ 00000001801dbe58     GuMetaData.obj
 0002:00002e68       ??_C@_0N@MGIKKCI@mGeomEpsilon@ 00000001801dbe68     GuMetaData.obj
 0002:00002e78       ??_C@_0BB@IFLOOCNA@mMaterialIndices@ 00000001801dbe78     GuMetaData.obj
 0002:00002e90       ??_C@_0L@OPJMBFMI@mFaceRemap@ 00000001801dbe90     GuMetaData.obj
 0002:00002ea0       ??_C@_0N@BIOECAPM@mAdjacencies@ 00000001801dbea0     GuMetaData.obj
 0002:00002eb0       ??_C@_09CICJHLPI@mEdgeList@ 00000001801dbeb0     GuMetaData.obj
 0002:00002ec0       ??_C@_0BD@IPKCNNIK@mLocalCenterOfMass@ 00000001801dbec0     GuMetaData.obj
 0002:00002ed8       ??_C@_0BA@OCOIGPII@mGRB_triIndices@ 00000001801dbed8     GuMetaData.obj
 0002:00002ee8       ??_C@_0BE@JPINNDAH@mGRB_triAdjacencies@ 00000001801dbee8     GuMetaData.obj
 0002:00002f00       ??_C@_0P@EDFJJHEF@mGRB_faceRemap@ 00000001801dbf00     GuMetaData.obj
 0002:00002f10       ??_C@_0BG@EEALPPCP@mGRB_faceRemapInverse@ 00000001801dbf10     GuMetaData.obj
 0002:00002f28       ??_C@_0O@CKMBAIFN@mGRB_BV32Tree@ 00000001801dbf28     GuMetaData.obj
 0002:00002f38       ??_C@_0BE@MGIOIICI@mSdfData?4mMeshLower@ 00000001801dbf38     GuMetaData.obj
 0002:00002f50       ??_C@_0BC@NNEDELGI@mSdfData?4mSpacing@ 00000001801dbf50     GuMetaData.obj
 0002:00002f68       ??_C@_0BB@OHOFDAIL@mSdfData?4mDims?4x@ 00000001801dbf68     GuMetaData.obj
 0002:00002f80       ??_C@_0BB@POPOABMK@mSdfData?4mDims?4y@ 00000001801dbf80     GuMetaData.obj
 0002:00002f98       ??_C@_0BB@NFNDFCAJ@mSdfData?4mDims?4z@ 00000001801dbf98     GuMetaData.obj
 0002:00002fb0       ??_C@_0BC@GMPBGGPI@mSdfData?4mNumSdfs@ 00000001801dbfb0     GuMetaData.obj
 0002:00002fc8       ??_C@_0O@BCEBBLNE@mSdfData?4mSdf@ 00000001801dbfc8     GuMetaData.obj
 0002:00002fd8       ??_C@_0BG@HMHEFHIE@mSdfData?4mSubgridSize@ 00000001801dbfd8     GuMetaData.obj
 0002:00002ff0       ??_C@_0BI@OFJBKPGB@mSdfData?4mNumStartSlots@ 00000001801dbff0     GuMetaData.obj
 0002:00003008       ??_C@_0BM@MGEPBEON@mSdfData?4mSubgridStartSlots@ 00000001801dc008     GuMetaData.obj
 0002:00003028       ??_C@_0BJ@PKKGJLNM@mSdfData?4mNumSubgridSdfs@ 00000001801dc028     GuMetaData.obj
 0002:00003048       ??_C@_0BF@HLMPGIBH@mSdfData?4mSubgridSdf@ 00000001801dc048     GuMetaData.obj
 0002:00003060       ??_C@_0CF@GMJNHGOK@mSdfData?4mSdfSubgrids3DTexBlock@ 00000001801dc060     GuMetaData.obj
 0002:00003088       ??_C@_0CF@HFIGEHKL@mSdfData?4mSdfSubgrids3DTexBlock@ 00000001801dc088     GuMetaData.obj
 0002:000030b0       ??_C@_0CF@FOKLBEGI@mSdfData?4mSdfSubgrids3DTexBlock@ 00000001801dc0b0     GuMetaData.obj
 0002:000030d8       ??_C@_0BO@EIPCIOJH@mSdfData?4mSubgridsMinSdfValue@ 00000001801dc0d8     GuMetaData.obj
 0002:000030f8       ??_C@_0BO@NIIBJOHN@mSdfData?4mSubgridsMaxSdfValue@ 00000001801dc0f8     GuMetaData.obj
 0002:00003118       ??_C@_0BO@GKGODKFG@mSdfData?4mBytesPerSparsePixel@ 00000001801dc118     GuMetaData.obj
 0002:00003138       ??_C@_0BJ@LEBGJKBE@mAccumulatedTrianglesRef@ 00000001801dc138     GuMetaData.obj
 0002:00003158       ??_C@_0BF@OJMCNCDP@mTrianglesReferences@ 00000001801dc158     GuMetaData.obj
 0002:00003170       ??_C@_0BH@LDGPOFA@mNbTrianglesReferences@ 00000001801dc170     GuMetaData.obj
 0002:00003188       ??_C@_0BC@IFGECKF@RTreeTriangleMesh@ 00000001801dc188     GuMetaData.obj
 0002:0000319c       ??_C@_06JDIHDDGN@mRTree@   00000001801dc19c     GuMetaData.obj
 0002:000031a8       ??_C@_0BA@LNNFPOKA@BV4TriangleMesh@ 00000001801dc1a8     GuMetaData.obj
 0002:000031b8       ??_C@_08FKLPEGDB@mBV4Tree@ 00000001801dc1b8     GuMetaData.obj
 0002:000031c8       ??_7?$SupportLocalImpl@VConvexHullNoScaleV@Gu@physx@@@Gu@physx@@6B@ 00000001801dc1c8     GuMTD.obj
 0002:00003210       ?absMask@?1??FAbs@aos@physx@@YA?AT__m128@@T4@@Z@4QBIB 00000001801dc210     GuMTD.obj
 0002:00003220       ??_7GjkConvex@Gu@physx@@6B@ 00000001801dc220     GuMTD.obj
 0002:00003250       ??_7?$LocalConvex@VCapsuleV@Gu@physx@@@Gu@physx@@6B@ 00000001801dc250     GuMTD.obj
 0002:00003280       ??_7?$LocalConvex@VConvexHullV@Gu@physx@@@Gu@physx@@6B@ 00000001801dc280     GuMTD.obj
 0002:000032b0       __real@2edbe6ff            00000001801dc2b0     GuMTD.obj
 0002:000032b4       __real@34000000            00000001801dc2b4     GuMTD.obj
 0002:000032b8       __real@ff7fffff            00000001801dc2b8     GuMTD.obj
 0002:000032c0       __xmm@34000000340000003400000034000000 00000001801dc2c0     GuMTD.obj
 0002:000032d0       __xmm@358637bd358637bd358637bd358637bd 00000001801dc2d0     GuMTD.obj
 0002:000032e0       __xmm@3dcccccd3dcccccd3dcccccd3dcccccd 00000001801dc2e0     GuMTD.obj
 0002:000032f0       __xmm@3f7ff1413f7ff1413f7ff1413f7ff141 00000001801dc2f0     GuMTD.obj
 0002:00003320       ??_7?$RelativeConvex@VBoxV@Gu@physx@@@Gu@physx@@6B@ 00000001801dc320     GuOverlapTests.obj
 0002:00003350       ??_7?$RelativeConvex@VConvexHullV@Gu@physx@@@Gu@physx@@6B@ 00000001801dc350     GuOverlapTests.obj
 0002:000033b0       __real@1e3ce508            00000001801dc3b0     GuRaycastTests.obj
 0002:000033b4       __real@28800000            00000001801dc3b4     GuRaycastTests.obj
 0002:000033b8       __real@33d6bf95            00000001801dc3b8     GuRaycastTests.obj
 0002:000033bc       __real@3727c5ac            00000001801dc3bc     GuRaycastTests.obj
 0002:000033c0       __real@38d1b717            00000001801dc3c0     GuRaycastTests.obj
 0002:000033c4       __real@3f0147ae            00000001801dc3c4     GuRaycastTests.obj
 0002:000033c8       __real@3f7ffffe            00000001801dc3c8     GuRaycastTests.obj
 0002:000033cc       __real@3f800347            00000001801dc3cc     GuRaycastTests.obj
 0002:000033d0       __real@41200000            00000001801dc3d0     GuRaycastTests.obj
 0002:000033d4       __real@80000000            00000001801dc3d4     GuRaycastTests.obj
 0002:000033d8       __real@b3d6bf95            00000001801dc3d8     GuRaycastTests.obj
 0002:000033dc       __real@b8d1b717            00000001801dc3dc     GuRaycastTests.obj
 0002:000033e0       __real@c1200000            00000001801dc3e0     GuRaycastTests.obj
 0002:00003420       ??_7?$MeshHitCallback@UPxGeomRaycastHit@physx@@@Gu@physx@@6B@ 00000001801dc420     GuSweepMTD.obj
 0002:00003430       ??_7MeshMTDGenerationCallback@@6B@ 00000001801dc430     GuSweepMTD.obj
 0002:00003440       ??_7MidPhaseQueryLocalReport@@6B@ 00000001801dc440     GuSweepMTD.obj
 0002:00003450       __real@3f8147ae            00000001801dc450     GuSweepMTD.obj
 0002:00003454       __real@3f933333            00000001801dc454     GuSweepMTD.obj
 0002:00003480       __real@3c23d70a            00000001801dc480     GuSweepSharedTests.obj
 0002:00003484       __real@42c80000            00000001801dc484     GuSweepSharedTests.obj
 0002:00003490       __xmm@ffffffffffffffffffffffffffffffff 00000001801dc490     GuSweepSharedTests.obj
 0002:000034c0       ??_7?$LocalConvex@VBoxV@Gu@physx@@@Gu@physx@@6B@ 00000001801dc4c0     GuSweepTests.obj
 0002:000034f0       ??_7?$LocalConvex@VTriangleV@Gu@physx@@@Gu@physx@@6B@ 00000001801dc4f0     GuSweepTests.obj
 0002:00003520       __xmm@00000002000000020000000200000002 00000001801dc520     GuSweepTests.obj
 0002:00003530       __xmm@3eaaaa9f3eaaaa9f3eaaaa9f3eaaaa9f 00000001801dc530     GuSweepTests.obj
 0002:000035e8       ??_7PxRunnable@physx@@6B@  00000001801dc5e8     GuSDF.obj
 0002:000035f8       ??_C@_0DH@CEKIOCGN@D?3?2Projects?2PhysX?2physx?2source?2@ 00000001801dc5f8     GuSDF.obj
 0002:00003630       ??_7PointOntoTriangleMeshProjector@Gu@physx@@6B@ 00000001801dc630     GuSDF.obj
 0002:00003648       ??_7?$PxThreadT@V?$PxReflectionAllocator@VPxThreadImpl@physx@@@physx@@@physx@@6B@ 00000001801dc648     GuSDF.obj
 0002:00003658       ??_C@_06FJHNOCKE@thread@   00000001801dc658     GuSDF.obj
 0002:00003660       ??_C@_0BAK@OPLLKLNG@SDF?5creation?3?5Mesh?5is?5not?5suita@ 00000001801dc660     GuSDF.obj
 0002:00003770       ??_C@_0FB@OMEANACP@SDF?5creation?3?5Input?5mesh?5is?5not@ 00000001801dc770     GuSDF.obj
 0002:000037c8       ??_C@_0DG@OOJJGHLL@D?3?2Projects?2PhysX?2physx?2include@ 00000001801dc7c8     GuSDF.obj
 0002:00003800       ??_C@_0DE@OPOMDMJB@D?3?2Projects?2PhysX?2physx?2include@ 00000001801dc800     GuSDF.obj
 0002:00003838       ??_C@_0DN@DNFMLJGH@D?3?2Projects?2PhysX?2physx?2include@ 00000001801dc838     GuSDF.obj
 0002:00003878       __real@37800080            00000001801dc878     GuSDF.obj
 0002:0000387c       __real@3b808081            00000001801dc87c     GuSDF.obj
 0002:00003880       __real@3e2aaaab            00000001801dc880     GuSDF.obj
 0002:00003884       __real@3eaaaaab            00000001801dc884     GuSDF.obj
 0002:00003888       __real@3f7d70a4            00000001801dc888     GuSDF.obj
 0002:0000388c       __real@7e7fffff            00000001801dc88c     GuSDF.obj
 0002:00003890       __real@bf000000            00000001801dc890     GuSDF.obj
 0002:00003894       __real@fe7fffff            00000001801dc894     GuSDF.obj
 0002:000038a0       __xmm@00000001000000010000000100000000 00000001801dc8a0     GuSDF.obj
 0002:000038b0       __real@437f0000            00000001801dc8b0     GuCookingSDF.obj
 0002:000038b4       __real@477fff00            00000001801dc8b4     GuCookingSDF.obj
 0002:000038e0       ??_7?$RelativeConvex@UCustomConvexV@@@Gu@physx@@6B@ 00000001801dc8e0     GuGjkQuery.obj
 0002:00003910       ??_7?$LocalConvex@UCustomConvexV@@@Gu@physx@@6B@ 00000001801dc910     GuGjkQuery.obj
 0002:00003940       ??_7?$LocalConvex@UPointConvexV@@@Gu@physx@@6B@ 00000001801dc940     GuGjkQuery.obj
 0002:00003990       __real@3da2f983            00000001801dc990     GuWindingNumber.obj
 0002:00003994       __real@3e22f983            00000001801dc994     GuWindingNumber.obj
 0002:00003998       __real@3f99999a            00000001801dc998     GuWindingNumber.obj
 0002:00003a00       __real@3c343958            00000001801dca00     GuCCDSweepConvexMesh.obj
 0002:00003a04       __real@3ca3d70a            00000001801dca04     GuCCDSweepConvexMesh.obj
 0002:00003a08       __real@3f0ccccd            00000001801dca08     GuCCDSweepConvexMesh.obj
 0002:00003a0c       __real@3f8ccccd            00000001801dca0c     GuCCDSweepConvexMesh.obj
 0002:00003a10       __real@b58637bd            00000001801dca10     GuCCDSweepConvexMesh.obj
 0002:00003a40       ??_7?$RelativeConvex@VCapsuleV@Gu@physx@@@Gu@physx@@6B@ 00000001801dca40     GuCCDSweepPrimitives.obj
 0002:00003a70       ??_7?$RelativeConvex@VTriangleV@Gu@physx@@@Gu@physx@@6B@ 00000001801dca70     GuCCDSweepPrimitives.obj
 0002:00003aa0       __real@3ba3d70a            00000001801dcaa0     GuCCDSweepPrimitives.obj
 0002:00003aa4       __real@501502f9            00000001801dcaa4     GuCCDSweepPrimitives.obj
 0002:00003ad0       ??_C@_0EG@FLEOJLKG@D?3?2Projects?2PhysX?2physx?2source?2@ 00000001801dcad0     GuAdjacencies.obj
 0002:00003b18       ??_C@_0DA@FMEHLBKI@Adjacencies?3?3UpdateLink?3?5invali@ 00000001801dcb18     GuAdjacencies.obj
 0002:00003b50       ??_C@_0EA@CPHOACLK@Adjacencies?3?3CreateDatabase?3?5ca@ 00000001801dcb50     GuAdjacencies.obj
 0002:00003b90       ??_C@_0ED@OOGBKGHE@D?3?2Projects?2PhysX?2physx?2source?2@ 00000001801dcb90     GuEdgeList.obj
 0002:00003bd8       ??_C@_0CO@GBNJFPN@EdgeList?3?3CreateFacesToEdges?3?5N@ 00000001801dcbd8     GuEdgeList.obj
 0002:00003c08       ??_C@_0CO@EHJBBMNK@EdgeList?3?3ComputeActiveEdges?3?5N@ 00000001801dcc08     GuEdgeList.obj
 0002:00003c38       ??_C@_0DI@GBHLFOFP@ActiveEdges?3?3ComputeConvexEdges@ 00000001801dcc38     GuEdgeList.obj
 0002:00003c70       ??_C@_0DM@JOGBLHDI@ActiveEdges?3?3ComputeConvexEdges@ 00000001801dcc70     GuEdgeList.obj
 0002:00003cb0       ??_C@_0ED@FEMJKPEL@ActiveEdges?3?3ComputeConvexEdges@ 00000001801dccb0     GuEdgeList.obj
 0002:00003d00       ??_C@_0EB@BFDPMFCD@ActiveEdges?3?3ComputeConvexEdges@ 00000001801dcd00     GuEdgeList.obj
 0002:00003d44       __real@bf7fbe77            00000001801dcd44     GuEdgeList.obj
 0002:00003d48       ??_7Quantizer@Gu@physx@@6B@ 00000001801dcd48     GuQuantizer.obj
 0002:00003d70       ??_7QuantizerImpl@@6B@     00000001801dcd70     GuQuantizer.obj
 0002:00003da0       ??_C@_0EE@JOGLKBGB@D?3?2Projects?2PhysX?2physx?2source?2@ 00000001801dcda0     GuQuantizer.obj
 0002:00003de4       __real@3f0020c5            00000001801dcde4     GuQuantizer.obj
 0002:00003de8       __real@3f8020c5            00000001801dcde8     GuQuantizer.obj
 0002:00003df0       ??_C@_0EG@HOBFLGPC@D?3?2Projects?2PhysX?2physx?2source?2@ 00000001801dcdf0     GuMeshCleaner.obj
 0002:00003e38       __real@40800000            00000001801dce38     GuMeshCleaner.obj
 0002:00003e40       ??_C@_0EI@NCEHLLDJ@D?3?2Projects?2PhysX?2physx?2source?2@ 00000001801dce40     GuVertexReducer.obj
 0002:00003f80       __real@3f7fbe77            00000001801dcf80     GuContactBoxBox.obj
 0002:00003fd0       __real@3f7ff2e5            00000001801dcfd0     GuContactCapsuleCapsule.obj
 0002:00004060       __real@358637be            00000001801dd060     GuContactCapsuleMesh.obj
 0002:00004064       __real@ba83126f            00000001801dd064     GuContactCapsuleMesh.obj
 0002:000040c0       ??_7ConvexMeshContactGenerationCallback@@6B@ 00000001801dd0c0     GuContactConvexMesh.obj
 0002:00004140       __real@3ec90fdb            00000001801dd140     GuContactPolygonPolygon.obj
 0002:00004144       __real@3f490fdb            00000001801dd144     GuContactPolygonPolygon.obj
 0002:00004148       __real@3f96cbe4            00000001801dd148     GuContactPolygonPolygon.obj
 0002:0000414c       __real@3fc90fdb            00000001801dd14c     GuContactPolygonPolygon.obj
 0002:00004150       __real@3ffb53d2            00000001801dd150     GuContactPolygonPolygon.obj
 0002:00004154       __real@4016cbe4            00000001801dd154     GuContactPolygonPolygon.obj
 0002:00004158       __real@402feddf            00000001801dd158     GuContactPolygonPolygon.obj
 0002:000041c0       ??_C@_0EI@IAMENPBN@D?3?2Projects?2PhysX?2physx?2source?2@ 00000001801dd1c0     GuBigConvexData.obj
 0002:00004230       ??_C@_0N@CDGINLLF@PxConvexMesh@ 00000001801dd230     GuConvexMesh.obj
 0002:00004240       ??_7PxBase@physx@@6B@      00000001801dd240     GuConvexMesh.obj
 0002:00004268       ??_C@_0CE@IDAGNPDH@isKindOf?5called?5with?5invalid?5st@ 00000001801dd268     GuConvexMesh.obj
 0002:00004290       ??_C@_0N@OPPDBGAG@PxRefCounted@ 00000001801dd290     GuConvexMesh.obj
 0002:000042a0       ??_C@_0DI@NADMFPEC@D?3?2Projects?2PhysX?2physx?2include@ 00000001801dd2a0     GuConvexMesh.obj
 0002:000042d8       ??_7ConvexMesh@Gu@physx@@6B@ 00000001801dd2d8     GuConvexMesh.obj
 0002:00004370       ??_C@_0EF@OFBHLLBD@D?3?2Projects?2PhysX?2physx?2source?2@ 00000001801dd370     GuConvexMesh.obj
 0002:000043b8       ??_C@_0DM@NEJKOFIP@Loading?5convex?5mesh?5failed?3?5Dep@ 00000001801dd3b8     GuConvexMesh.obj
 0002:000043f8       ??_C@_0DB@PAHEPIEL@PxConvexMesh?3?3release?3?5double?5d@ 00000001801dd3f8     GuConvexMesh.obj
 0002:00004430       ??_C@_0DN@CLPPAJOM@D?3?2Projects?2PhysX?2physx?2source?2@ 00000001801dd430     GuConvexMesh.obj
 0002:00004490       __xmm@000000000000000000000000ffffffff 00000001801dd490     GuConvexSupportTable.obj
 0002:000044a0       __xmm@0000000000000000ffffffff00000000 00000001801dd4a0     GuConvexSupportTable.obj
 0002:000044b0       __xmm@0000000000000000ffffffffffffffff 00000001801dd4b0     GuConvexSupportTable.obj
 0002:000044c0       __xmm@00000000ffffffff0000000000000000 00000001801dd4c0     GuConvexSupportTable.obj
 0002:000044d0       __xmm@00000000ffffffff00000000ffffffff 00000001801dd4d0     GuConvexSupportTable.obj
 0002:000044e0       __xmm@00000000ffffffffffffffff00000000 00000001801dd4e0     GuConvexSupportTable.obj
 0002:00004570       __xmm@2b8cbccc2b8cbccc2b8cbccc2b8cbccc 00000001801dd570     GuDistancePointTriangle.obj
 0002:000045c0       __xmm@3f0000003f0000003f0000003f000000 00000001801dd5c0     GuDistanceSegmentSegment.obj
 0002:000045f0       __real@2b8cbccc            00000001801dd5f0     GuDistanceSegmentTriangle.obj
 0002:00004600       __xmm@3f8000013f8000013f8000013f800001 00000001801dd600     GuDistanceSegmentTriangle.obj
 0002:00004610       __xmm@b4000000b4000000b4000000b4000000 00000001801dd610     GuDistanceSegmentTriangle.obj
 0002:00004640       __real@26901d7d            00000001801dd640     GuDistanceTriangleTriangle.obj
 0002:000046c0       __xmm@38d1b71738d1b71738d1b71738d1b717 00000001801dd6c0     GuGJKSimplex.obj
 0002:000046f0       ??_C@_0O@PBAKPCEC@PxHeightField@ 00000001801dd6f0     GuHeightField.obj
 0002:00004700       ??_C@_0DJ@HCBAFCOI@D?3?2Projects?2PhysX?2physx?2include@ 00000001801dd700     GuHeightField.obj
 0002:00004740       ??_7HeightField@Gu@physx@@6B@ 00000001801dd740     GuHeightField.obj
 0002:000047f8       ??_C@_0DC@BDMMBOKH@PxHeightField?3?3release?3?5double?5@ 00000001801dd7f8     GuHeightField.obj
 0002:00004830       ??_C@_0EC@PMHLIIBB@D?3?2Projects?2PhysX?2physx?2source?2@ 00000001801dd830     GuHeightField.obj
 0002:00004878       ??_C@_0CI@DMKEKGNK@Gu?3?3HeightField?3?3load?3?5PX_ALLOC@ 00000001801dd878     GuHeightField.obj
 0002:000048a0       ??_C@_0DG@KKLNCOHH@D?3?2Projects?2PhysX?2physx?2include@ 00000001801dd8a0     GuHeightField.obj
 0002:00004900       __real@3a03126f            00000001801dd900     GuHeightFieldUtil.obj
 0002:00004904       __real@3f19999a            00000001801dd904     GuHeightFieldUtil.obj
 0002:00004910       __xmm@40000000000000000000000000000000 00000001801dd910     GuHeightFieldUtil.obj
 0002:000049a0       ??_7HeightFieldTraceSegmentReport@@6B@ 00000001801dd9a0     GuSweepsHF.obj
 0002:000049b0       ??_7CapsuleTraceSegmentReport@@6B@ 00000001801dd9b0     GuSweepsHF.obj
 0002:000049c0       ??_7ConvexTraceSegmentReport@@6B@ 00000001801dd9c0     GuSweepsHF.obj
 0002:000049d0       ??_7BoxTraceSegmentReport@@6B@ 00000001801dd9d0     GuSweepsHF.obj
 0002:000049e0       __real@aedbe6ff            00000001801dd9e0     GuSweepsHF.obj
 0002:00004a10       __real@3089705f            00000001801dda10     GuIntersectionRayBox.obj
 0002:00004a14       __real@b4000000            00000001801dda14     GuIntersectionRayBox.obj
 0002:00004a20       __xmm@000000003089705f3089705f3089705f 00000001801dda20     GuIntersectionRayBox.obj
 0002:00004a30       __xmm@00000000bf800000bf800000bf800000 00000001801dda30     GuIntersectionRayBox.obj
 0002:00004a80       ??_7SourceMeshBase@Gu@physx@@6B@ 00000001801dda80     GuBV4.obj
 0002:00004aa8       ??_7SourceMesh@Gu@physx@@6B@ 00000001801ddaa8     GuBV4.obj
 0002:00004ad0       ??_7TetrahedronSourceMesh@Gu@physx@@6B@ 00000001801ddad0     GuBV4.obj
 0002:00004af8       ??_C@_0DM@HKNJDIGE@D?3?2Projects?2PhysX?2physx?2source?2@ 00000001801ddaf8     GuBV4.obj
 0002:00004b40       __xmm@ff7fffffff7fffffff7fffffff7fffff 00000001801ddb40     GuBV4.obj
 0002:00004b70       ??_C@_0EB@GGOHAINN@D?3?2Projects?2PhysX?2physx?2source?2@ 00000001801ddb70     GuBV4Build.obj
 0002:00004bb4       __real@38000100            00000001801ddbb4     GuBV4Build.obj
 0002:00004bb8       __real@3e93cd3a            00000001801ddbb8     GuBV4Build.obj
 0002:00004bbc       __real@46fffe00            00000001801ddbbc     GuBV4Build.obj
 0002:00004bc0       __real@be93cd3a            00000001801ddbc0     GuBV4Build.obj
 0002:00004bf0       __xmm@0000ffff0000ffff0000ffff0000ffff 00000001801ddbf0     GuBV4_AABBSweep.obj
 0002:00004c00       __xmm@3089705f3089705f3089705f3089705f 00000001801ddc00     GuBV4_AABBSweep.obj
 0002:00004c10       __xmm@33d6bf9533d6bf9533d6bf9533d6bf95 00000001801ddc10     GuBV4_AABBSweep.obj
 0002:00004c20       __xmm@40000000400000004000000040000000 00000001801ddc20     GuBV4_AABBSweep.obj
 0002:00004cb0       __xmm@322bcc77322bcc77322bcc77322bcc77 00000001801ddcb0     GuBV4_MeshMeshOverlap.obj
 0002:00004d00       __real@00000000            00000001801ddd00     GuBV4_Raycast.obj
 0002:00004d30       __real@4f7fffff            00000001801ddd30     GuBV4_SphereOverlap.obj
 0002:00004d80       __xmm@000000007f7fffff0000000000000000 00000001801ddd80     GuMidphaseBV4.obj
 0002:00004df0       ??_C@_0FD@EHCCILIF@Adjacency?5information?5not?5creat@ 00000001801dddf0     GuMeshQuery.obj
 0002:00004e50       ??_C@_0EC@PPJDHAHK@D?3?2Projects?2PhysX?2physx?2source?2@ 00000001801dde50     GuMeshQuery.obj
 0002:00004ea0       ??_C@_0FL@BKNMAHIA@PxMeshQuery?3?3findOverlapTriangl@ 00000001801ddea0     GuMeshQuery.obj
 0002:00004f00       ??_C@_0BA@MBAFFELP@MeshQuery?4sweep@ 00000001801ddf00     GuMeshQuery.obj
 0002:00004f10       __real@4cbebc20            00000001801ddf10     GuMeshQuery.obj
 0002:00004f40       ??_7Callback@RTree@Gu@physx@@6B@ 00000001801ddf40     GuMidphaseRTree.obj
 0002:00004f58       ??_7?$RayRTreeCallback@$00$0A@@@6BCallbackRaycast@RTree@Gu@physx@@@ 00000001801ddf58     GuMidphaseRTree.obj
 0002:00004f58       ??_7?$RayRTreeCallback@$0A@$0A@@@6BCallbackRaycast@RTree@Gu@physx@@@ 00000001801ddf58     GuMidphaseRTree.obj
 0002:00004f68       ??_7?$RayRTreeCallback@$00$0A@@@6BCallback@RTree@Gu@physx@@@ 00000001801ddf68     GuMidphaseRTree.obj
 0002:00004f68       ??_7?$RayRTreeCallback@$0A@$0A@@@6BCallback@RTree@Gu@physx@@@ 00000001801ddf68     GuMidphaseRTree.obj
 0002:00004f80       ??_7RayMeshColliderCallback@@6B@ 00000001801ddf80     GuMidphaseRTree.obj
 0002:00004f90       ??_C@_0EN@DPPFLBLF@Point?9mesh?5distance?5query?5not?5s@ 00000001801ddf90     GuMidphaseRTree.obj
 0002:00004fe0       ??_C@_0EG@BPJGHFNE@D?3?2Projects?2PhysX?2physx?2source?2@ 00000001801ddfe0     GuMidphaseRTree.obj
 0002:00005028       ??_7?$RayRTreeCallback@$0A@$00@@6BCallbackRaycast@RTree@Gu@physx@@@ 00000001801de028     GuMidphaseRTree.obj
 0002:00005038       ??_7?$RayRTreeCallback@$0A@$00@@6BCallback@RTree@Gu@physx@@@ 00000001801de038     GuMidphaseRTree.obj
 0002:00005050       ??_7?$RayRTreeCallback@$00$00@@6BCallbackRaycast@RTree@Gu@physx@@@ 00000001801de050     GuMidphaseRTree.obj
 0002:00005060       ??_7?$RayRTreeCallback@$00$00@@6BCallback@RTree@Gu@physx@@@ 00000001801de060     GuMidphaseRTree.obj
 0002:000050e0       __xmm@7f7fffff000000000000000000000000 00000001801de0e0     GuMidphaseRTree.obj
 0002:00005160       ??_7?$PxReportCallback@UPxGeomIndexPair@physx@@@physx@@6B@ 00000001801de160     GuOverlapTestsMesh.obj
 0002:00005180       ??_C@_0EP@CEFGCJKJ@PxGeometryQuery?3?3overlap?$CI?$CJ?3?5onl@ 00000001801de180     GuOverlapTestsMesh.obj
 0002:000051d0       ??_C@_0EJ@PLPOMHNC@D?3?2Projects?2PhysX?2physx?2source?2@ 00000001801de1d0     GuOverlapTestsMesh.obj
 0002:00005240       ?MN@RTreePage@Gu@physx@@2MB 00000001801de240     GuRTree.obj
 0002:00005244       ?MX@RTreePage@Gu@physx@@2MB 00000001801de244     GuRTree.obj
 0002:00005248       ??_C@_0DO@OBCNFEAD@D?3?2Projects?2PhysX?2physx?2source?2@ 00000001801de248     GuRTree.obj
 0002:00005300       ??_7SweepShapeMeshHitCallback@Gu@physx@@6B@ 00000001801de300     GuSweepsMesh.obj
 0002:00005310       ??_7SweepCapsuleMeshHitCallback@Gu@physx@@6B@ 00000001801de310     GuSweepsMesh.obj
 0002:00005320       ??_7SweepBoxMeshHitCallback@Gu@physx@@6B@ 00000001801de320     GuSweepsMesh.obj
 0002:00005330       ??_7SweepConvexMeshHitCallback@Gu@physx@@6B@ 00000001801de330     GuSweepsMesh.obj
 0002:00005360       ??_C@_0P@GGNFNHKF@PxTriangleMesh@ 00000001801de360     GuTriangleMesh.obj
 0002:00005370       ??_C@_0DK@EJPLOILI@D?3?2Projects?2PhysX?2physx?2include@ 00000001801de370     GuTriangleMesh.obj
 0002:000053b0       ??_7TriangleMesh@Gu@physx@@6B@ 00000001801de3b0     GuTriangleMesh.obj
 0002:00005488       ??_C@_0DD@LOOPMCGG@PxTriangleMesh?3?3release?3?5double@ 00000001801de488     GuTriangleMesh.obj
 0002:000054c0       ??_C@_0FH@PMPAJDGI@PxTriangleMesh?3?3getVerticesForM@ 00000001801de4c0     GuTriangleMesh.obj
 0002:00005520       ??_C@_0EF@NLEHBEPC@D?3?2Projects?2PhysX?2physx?2source?2@ 00000001801de520     GuTriangleMesh.obj
 0002:00005570       ??_C@_0EF@GMNFLDH@PxTriangleMesh?3?3refitBVH?$CI?$CJ?5is?5n@ 00000001801de570     GuTriangleMesh.obj
 0002:000055c0       __xmm@38383838383838383838383838383838 00000001801de5c0     GuTriangleMesh.obj
 0002:000055f0       ??_C@_0BE@CNJKIINO@PxBVH34TriangleMesh@ 00000001801de5f0     GuTriangleMeshBV4.obj
 0002:00005608       ??_7BV4TriangleMesh@Gu@physx@@6B@ 00000001801de608     GuTriangleMeshBV4.obj
 0002:000056e0       ??_C@_0EF@JLFNNPLP@BVH34?5trees?3?5refit?5operation?5on@ 00000001801de6e0     GuTriangleMeshBV4.obj
 0002:00005730       ??_C@_0EI@EMPOOLJJ@D?3?2Projects?2PhysX?2physx?2source?2@ 00000001801de730     GuTriangleMeshBV4.obj
 0002:00005778       __real@3951b717            00000001801de778     GuTriangleMeshBV4.obj
 0002:000057a0       ??_C@_0BE@EIFHCCBO@PxBVH33TriangleMesh@ 00000001801de7a0     GuTriangleMeshRTree.obj
 0002:000057b8       ??_7RTreeTriangleMesh@Gu@physx@@6B@ 00000001801de7b8     GuTriangleMeshRTree.obj
 0002:00005890       ??_7?$RefitCallback@G@physx@@6B@ 00000001801de890     GuTriangleMeshRTree.obj
 0002:000058a0       ??_7?$RefitCallback@I@physx@@6B@ 00000001801de8a0     GuTriangleMeshRTree.obj
 0002:000058d0       ??_C@_0DN@DGOGJNGI@D?3?2Projects?2PhysX?2physx?2source?2@ 00000001801de8d0     GuBV32.obj
 0002:00005930       ??_C@_0EC@KKFJKOEP@D?3?2Projects?2PhysX?2physx?2source?2@ 00000001801de930     GuBV32Build.obj
 0002:000059a0       ??_C@_0BC@FDAIDHBP@PxTetrahedronMesh@ 00000001801de9a0     GuTetrahedronMesh.obj
 0002:000059b8       ??_C@_0DN@LCNAHNLL@D?3?2Projects?2PhysX?2physx?2include@ 00000001801de9b8     GuTetrahedronMesh.obj
 0002:000059f8       ??_C@_0BC@FBICGJIB@PxSoftBodyAuxData@ 00000001801de9f8     GuTetrahedronMesh.obj
 0002:00005a10       ??_C@_0P@CLLFGFAA@PxSoftBodyMesh@ 00000001801dea10     GuTetrahedronMesh.obj
 0002:00005a20       ??_7SoftBodyAuxData@Gu@physx@@6B@ 00000001801dea20     GuTetrahedronMesh.obj
 0002:00005a68       ??_7TetrahedronMesh@Gu@physx@@6B@ 00000001801dea68     GuTetrahedronMesh.obj
 0002:00005ae0       ??_7BVTetrahedronMesh@Gu@physx@@6B@ 00000001801deae0     GuTetrahedronMesh.obj
 0002:00005b58       ??_7SoftBodyMesh@Gu@physx@@6B@ 00000001801deb58     GuTetrahedronMesh.obj
 0002:00005bd8       ??_C@_0DG@JJNMDPMD@PxTetrahedronMesh?3?3release?3?5dou@ 00000001801debd8     GuTetrahedronMesh.obj
 0002:00005c10       ??_C@_0DD@GGFGEPII@PxSoftBodyMesh?3?3release?3?5double@ 00000001801dec10     GuTetrahedronMesh.obj
 0002:00005c50       ??_C@_0EI@KOLNABAN@D?3?2Projects?2PhysX?2physx?2source?2@ 00000001801dec50     GuTetrahedronMesh.obj
 0002:00005ce0       __xmm@00000000358637bd358637bd358637bd 00000001801dece0     GuPCMContactBoxBox.obj
 0002:00005cf0       __xmm@3f4ccccd3f4ccccd3f4ccccd3f4ccccd 00000001801decf0     GuPCMContactBoxBox.obj
 0002:00005d00       __xmm@3f8003473f8003473f8003473f800347 00000001801ded00     GuPCMContactBoxBox.obj
 0002:00005d10       __xmm@ffffffff00000000ffffffffffffffff 00000001801ded10     GuPCMContactBoxBox.obj
 0002:00005d40       ??_7?$LocalConvex@VConvexHullNoScaleV@Gu@physx@@@Gu@physx@@6B@ 00000001801ded40     GuPCMContactBoxConvex.obj
 0002:00005d70       __xmm@3f3504f33f3504f33f3504f33f3504f3 00000001801ded70     GuPCMContactBoxConvex.obj
 0002:00005dc0       __xmm@ffffffffffffffffffffffff00000000 00000001801dedc0     GuPCMContactCapsuleCapsule.obj
 0002:00005df0       __xmm@3fa000003fa000003fa000003fa00000 00000001801dedf0     GuPCMContactCapsuleConvex.obj
 0002:00005e20       ??_7PCMCapsuleVsHeightfieldContactGenerationCallback@@6B@ 00000001801dee20     GuPCMContactCapsuleHeightField.obj
 0002:00005e30       __real@3f7f3b64            00000001801dee30     GuPCMContactCapsuleHeightField.obj
 0002:00005e80       __xmm@3f7ff9723f7ff9723f7ff9723f7ff972 00000001801dee80     GuPCMContactCapsuleMesh.obj
 0002:00005e90       __xmm@3f7fffef3f7fffef3f7fffef3f7fffef 00000001801dee90     GuPCMContactCapsuleMesh.obj
 0002:00005ea0       __xmm@60ad78ec60ad78ec60ad78ec60ad78ec 00000001801deea0     GuPCMContactCapsuleMesh.obj
 0002:00005ed0       ??_7?$SupportLocalImpl@VTriangleV@Gu@physx@@@Gu@physx@@6B@ 00000001801deed0     GuPCMContactConvexCommon.obj
 0002:00005ef0       __xmm@3cf5c2803cf5c2803cf5c2803cf5c280 00000001801deef0     GuPCMContactConvexCommon.obj
 0002:00005f00       __xmm@3f7851ec3f7851ec3f7851ec3f7851ec 00000001801def00     GuPCMContactConvexCommon.obj
 0002:00005f30       ??_7?$RelativeConvex@VConvexHullNoScaleV@Gu@physx@@@Gu@physx@@6B@ 00000001801def30     GuPCMContactConvexConvex.obj
 0002:00005f90       __xmm@3f19999a3f19999a3f19999a3f19999a 00000001801def90     GuPCMContactConvexHeightField.obj
 0002:00006000       __xmm@3f34fdf43f34fdf43f34fdf43f34fdf4 00000001801df000     GuPCMContactGenBoxConvex.obj
 0002:00006030       __xmm@3f80a3d73f80a3d73f80a3d73f80a3d7 00000001801df030     GuPCMContactGenSphereCapsule.obj
 0002:00006040       __xmm@bba3d70abba3d70abba3d70abba3d70a 00000001801df040     GuPCMContactGenSphereCapsule.obj
 0002:00006070       __xmm@3f7ffd613f7ffd613f7ffd613f7ffd61 00000001801df070     GuPCMContactPlaneBox.obj
 0002:000060a0       __real@3b23d70b            00000001801df0a0     GuPCMContactPlaneCapsule.obj
 0002:000060b0       __xmm@3ca3d70a3ca3d70a3ca3d70a3ca3d70a 00000001801df0b0     GuPCMContactPlaneCapsule.obj
 0002:000060e0       __xmm@3a03126f3a03126f3a03126f3a03126f 00000001801df0e0     GuPCMContactPlaneConvex.obj
 0002:00006200       __xmm@3727c5ac3727c5ac3727c5ac3727c5ac 00000001801df200     GuPCMContactSphereSphere.obj
 0002:00006230       __xmm@3f7f06f73f7f06f73f7f06f73f7f06f7 00000001801df230     GuPCMContactCustomGeometry.obj
 0002:00006240       ?gPCMBoxPolygonData@Gu@physx@@3QBEB 00000001801df240     GuPCMShapeConvex.obj
 0002:000062c0       ?invalidateThresholds@Gu@physx@@3QBMB 00000001801df2c0     GuPersistentContactManifold.obj
 0002:000062d8       ?invalidateQuatThresholds@Gu@physx@@3QBMB 00000001801df2d8     GuPersistentContactManifold.obj
 0002:000062f0       ?invalidateThresholds2@Gu@physx@@3QBMB 00000001801df2f0     GuPersistentContactManifold.obj
 0002:00006300       ?invalidateQuatThresholds2@Gu@physx@@3QBMB 00000001801df300     GuPersistentContactManifold.obj
 0002:00006310       __xmm@00000000340000003400000034000000 00000001801df310     GuPersistentContactManifold.obj
 0002:00006320       __xmm@000000003f8000003f80000000000000 00000001801df320     GuPersistentContactManifold.obj
 0002:00006330       __xmm@00000000bf8000003f80000000000000 00000001801df330     GuPersistentContactManifold.obj
 0002:00006340       __xmm@ffffffffffffffff00000000ffffffff 00000001801df340     GuPersistentContactManifold.obj
 0002:00006370       __xmm@c1200000c1200000c1200000c1200000 00000001801df370     GuPCMContactGenUtil.obj
 0002:000063c0       __real@b727c5ac            00000001801df3c0     GuSweepBoxSphere.obj
 0002:00006430       ??_C@_0EJ@DJNEKCIA@D?3?2Projects?2PhysX?2physx?2source?2@ 00000001801df430     GuSweepCapsuleBox.obj
 0002:000064c0       __real@3f7fff58            00000001801df4c0     GuSweepCapsuleTriangle.obj
 0002:00006530       ??_C@_0CH@DHJGKCPD@Gu?3?3computeBounds?3?5Unknown?5shap@ 00000001801df530     GuBounds.obj
 0002:00006558       ??_C@_0DK@IEODELPE@D?3?2Projects?2PhysX?2physx?2source?2@ 00000001801df558     GuBounds.obj
 0002:00006594       __real@34800000            00000001801df594     GuBounds.obj
 0002:00006598       __real@3f7fffef            00000001801df598     GuBounds.obj
 0002:000065a0       __xmm@3f8147ae3f8147ae3f8147ae3f8147ae 00000001801df5a0     GuBounds.obj
 0002:000065d0       ??_C@_0DM@EFKLHLAE@D?3?2Projects?2PhysX?2physx?2source?2@ 00000001801df5d0     GuAABBTree.obj
 0002:00006610       __xmm@5a60b17f5a60b17f5a60b17f5a60b17f 00000001801df610     GuAABBTree.obj
 0002:00006620       __xmm@da60b17fda60b17fda60b17fda60b17f 00000001801df620     GuAABBTree.obj
 0002:00006690       ??_C@_0EH@PHDMPLHG@D?3?2Projects?2PhysX?2physx?2source?2@ 00000001801df690     GuIncrementalAABBTree.obj
 0002:000066d8       ??_C@_0DE@NDNJAKEP@D?3?2Projects?2PhysX?2physx?2include@ 00000001801df6d8     GuIncrementalAABBTree.obj
 0002:0000670c       __real@40400000            00000001801df70c     GuIncrementalAABBTree.obj
 0002:00006710       ??_C@_0DH@EMJKKMLK@D?3?2Projects?2PhysX?2physx?2source?2@ 00000001801df710     GuSAH.obj
 0002:00006770       ??_7PxBVH@physx@@6B@       00000001801df770     GuBVH.obj
 0002:000067e8       ??_C@_05OKJNPKBM@PxBVH@    00000001801df7e8     GuBVH.obj
 0002:000067f0       ??_C@_0DB@EEJPGNCO@D?3?2Projects?2PhysX?2physx?2include@ 00000001801df7f0     GuBVH.obj
 0002:00006828       ??_7RefCountable@Cm@physx@@6B@ 00000001801df828     GuBVH.obj
 0002:00006838       ??_7BVH@Gu@physx@@6BPxBVH@2@@ 00000001801df838     GuBVH.obj
 0002:000068b0       ??_7BVH@Gu@physx@@6BRefCountable@Cm@2@@ 00000001801df8b0     GuBVH.obj
 0002:000068c0       ??_C@_0DH@FOPCDPEP@D?3?2Projects?2PhysX?2physx?2source?2@ 00000001801df8c0     GuBVH.obj
 0002:000068f8       ??_C@_0CK@HAIOEINI@PxBVH?3?3release?3?5double?5deletion@ 00000001801df8f8     GuBVH.obj
 0002:00006950       ??_C@_0EN@CHEAOGED@D?3?2Projects?2PhysX?2physx?2source?2@ 00000001801df950     GuIncrementalAABBPrunerCore.obj
 0002:000069a0       __real@3f80a3d7            00000001801df9a0     GuIncrementalAABBPrunerCore.obj
 0002:000069d0       ??_7BasePruner@Gu@physx@@6B@ 00000001801df9d0     GuIncrementalAABBPruner.obj
 0002:000069e8       ??_7IncrementalAABBPruner@Gu@physx@@6B@ 00000001801df9e8     GuIncrementalAABBPruner.obj
 0002:00006a70       ??_C@_0BM@FLAABPLG@SceneQuery?4prunerAddObjects@ 00000001801dfa70     GuIncrementalAABBPruner.obj
 0002:00006a90       ??_C@_0BP@EAAOKPEE@SceneQuery?4prunerUpdateObjects@ 00000001801dfa90     GuIncrementalAABBPruner.obj
 0002:00006ab0       ??_C@_0BP@EHMBNBOH@SceneQuery?4prunerRemoveObjects@ 00000001801dfab0     GuIncrementalAABBPruner.obj
 0002:00006ad0       ??_C@_0BI@HOKOKBIM@SceneQuery?4prunerCommit@ 00000001801dfad0     GuIncrementalAABBPruner.obj
 0002:00006af0       ??_C@_0EJ@CCLOEHLN@D?3?2Projects?2PhysX?2physx?2source?2@ 00000001801dfaf0     GuIncrementalAABBPruner.obj
 0002:00006b60       ??_C@_0BE@PKINCBHP@PruningPool?3?3resize@ 00000001801dfb60     GuPruningPool.obj
 0002:00006b78       ??_C@_0DP@DFEIGMFJ@D?3?2Projects?2PhysX?2physx?2source?2@ 00000001801dfb78     GuPruningPool.obj
 0002:00006bb8       ??_C@_0BI@HMDEMGJB@PruningPool?3?3addObjects@ 00000001801dfbb8     GuPruningPool.obj
 0002:00006bd0       ??_C@_0BK@JPNIEHEJ@PruningPool?3?3removeObject@ 00000001801dfbd0     GuPruningPool.obj
 0002:00006bf0       ??_C@_0BJ@GNLAFFBD@PruningPool?3?3shiftOrigin@ 00000001801dfbf0     GuPruningPool.obj
 0002:00006c10       ??_C@_0CE@MGPCCKGE@PruningPool?3?3updateAndInflateBo@ 00000001801dfc10     GuPruningPool.obj
 0002:00006c80       ??_7BucketPruner@Gu@physx@@6B@ 00000001801dfc80     GuBucketPruner.obj
 0002:00006d10       ??_C@_0EA@COCBBMGG@D?3?2Projects?2PhysX?2physx?2source?2@ 00000001801dfd10     GuBucketPruner.obj
 0002:00006d50       __real@bf13cd3a            00000001801dfd50     GuBucketPruner.obj
 0002:00006d60       __xmm@000000007e7fffff7e7fffff7e7fffff 00000001801dfd60     GuBucketPruner.obj
 0002:00006d70       __xmm@00000000fe7ffffffe7ffffffe7fffff 00000001801dfd70     GuBucketPruner.obj
 0002:00006d80       __xmm@3f13cd3a3f13cd3a3f13cd3a3f13cd3a 00000001801dfd80     GuBucketPruner.obj
 0002:00006d90       __xmm@bf13cd3abf13cd3abf13cd3a3f13cd3a 00000001801dfd90     GuBucketPruner.obj
 0002:00006da0       __xmm@bf8000003f8000003f800000bf800000 00000001801dfda0     GuBucketPruner.obj
 0002:00006db0       __xmm@bf8000003f800000bf8000003f800000 00000001801dfdb0     GuBucketPruner.obj
 0002:00006dc0       __xmm@bf800000bf8000003f8000003f800000 00000001801dfdc0     GuBucketPruner.obj
 0002:00006dd0       __xmm@bf800000bf800000bf8000003f800000 00000001801dfdd0     GuBucketPruner.obj
 0002:00006de0       ?mIndices@MaverickNode@Gu@physx@@2QBIB 00000001801dfde0     GuMaverickNode.obj
 0002:00006e40       ??_C@_0EI@PKPHMCOA@D?3?2Projects?2PhysX?2physx?2source?2@ 00000001801dfe40     GuExtendedBucketPruner.obj
 0002:00006eb0       ??_7CompanionPruner@Gu@physx@@6B@ 00000001801dfeb0     GuSecondaryPruner.obj
 0002:00006f30       ??_7CompanionPrunerBucket@@6B@ 00000001801dff30     GuSecondaryPruner.obj
 0002:00006fb0       ??_7CompanionPrunerIncremental@@6B@ 00000001801dffb0     GuSecondaryPruner.obj
 0002:00007030       ??_7CompanionPrunerAABBTree@@6B@ 00000001801e0030     GuSecondaryPruner.obj
 0002:000070b0       ??_C@_0ED@CHDBNDNH@D?3?2Projects?2PhysX?2physx?2source?2@ 00000001801e00b0     GuSecondaryPruner.obj
 0002:00007120       ??_7AABBPruner@Gu@physx@@6B@ 00000001801e0120     GuAABBPruner.obj
 0002:000071c0       ??_C@_0CC@JANKLMNO@SceneQuery?4bucketPrunerAddObjec@ 00000001801e01c0     GuAABBPruner.obj
 0002:000071f0       ??_C@_0LA@IHBEIKND@SceneQuery?5static?5AABB?5Tree?5reb@ 00000001801e01f0     GuAABBPruner.obj
 0002:000072a0       ??_C@_0DO@NCAPGNHO@D?3?2Projects?2PhysX?2physx?2source?2@ 00000001801e02a0     GuAABBPruner.obj
 0002:000072e0       ??_C@_0CB@JOCHAJIC@SceneQuery?4prunerNewTreeFinaliz@ 00000001801e02e0     GuAABBPruner.obj
 0002:00007308       ??_C@_0BP@IOICCIGM@SceneQuery?4prunerNewTreeSwitch@ 00000001801e0308     GuAABBPruner.obj
 0002:00007328       ??_C@_0CA@LJGALBJD@SceneQuery?4prunerNewTreeMapping@ 00000001801e0328     GuAABBPruner.obj
 0002:00007348       ??_C@_0CD@OCIEMIME@SceneQuery?4prunerNewTreeFinalRe@ 00000001801e0348     GuAABBPruner.obj
 0002:00007370       ??_C@_0CG@PMFEEPAE@SceneQuery?4prunerNewTreeRemoveO@ 00000001801e0370     GuAABBPruner.obj
 0002:00007398       ??_C@_0BL@NAENOAHO@SceneQuery?4prunerBuildStep@ 00000001801e0398     GuAABBPruner.obj
 0002:000073b8       ??_C@_0CC@MJCIDELA@SceneQuery?4prunerNewTreeFullRef@ 00000001801e03b8     GuAABBPruner.obj
 0002:000073e0       ??_C@_0BI@DAHHAEPA@SceneQuery?4prepareBuild@ 00000001801e03e0     GuAABBPruner.obj
 0002:000073f8       ??_C@_0CF@PDMDBIIO@SceneQuery?4prunerFullRebuildAAB@ 00000001801e03f8     GuAABBPruner.obj
 0002:00007420       ??_C@_0CE@GKMPPEJP@SceneQuery?4prunerUpdateBucketPr@ 00000001801e0420     GuAABBPruner.obj
 0002:00007448       ??_C@_0CI@MKOHFNNO@SceneQuery?4prunerRefitUpdatedAn@ 00000001801e0448     GuAABBPruner.obj
 0002:00007470       ??_C@_0EB@GEFAFCAO@D?3?2Projects?2PhysX?2physx?2source?2@ 00000001801e0470     GuActorShapeMap.obj
 0002:000074e0       ??_C@_0BF@DNABLJAF@Invalid?5pruner?5index@ 00000001801e04e0     GuQuerySystem.obj
 0002:000074f8       ??_C@_0DP@GLCOJEND@D?3?2Projects?2PhysX?2physx?2source?2@ 00000001801e04f8     GuQuerySystem.obj
 0002:00007538       ??_C@_0BO@MMDENGGP@QuerySystem?4processDirtyLists@ 00000001801e0538     GuQuerySystem.obj
 0002:00007558       ??_C@_0BE@PHJMAGEL@QuerySystem?3?3update@ 00000001801e0558     GuQuerySystem.obj
 0002:00007570       ??_C@_0BK@GODFCMPK@QuerySystem?4commitUpdates@ 00000001801e0570     GuQuerySystem.obj
 0002:000075c0       ??_C@_0CA@NAJNANMC@QuerySystem?4createTreeOfPruners@ 00000001801e05c0     GuQuerySystem.obj
 0002:00007600       ??_C@_0DL@NPBMMOKF@D?3?2Projects?2PhysX?2physx?2source?2@ 00000001801e0600     GuFactory.obj
 0002:00007640       ?reductionFactors@SubSortQuick@physx@@2QBMB 00000001801e0640     GuRTreeCooking.obj
 0002:00007650       ?stopAtTrisPerLeaf1@SubSortQuick@physx@@2QBIB 00000001801e0650     GuRTreeCooking.obj
 0002:00007720       ??_C@_0EI@BMCDIIBF@D?3?2Projects?2PhysX?2physx?2source?2@ 00000001801e0720     GuRTreeCooking.obj
 0002:00007768       __real@41100000            00000001801e0768     GuRTreeCooking.obj
 0002:0000776c       __real@41700000            00000001801e076c     GuRTreeCooking.obj
 0002:00007770       __real@42200000            00000001801e0770     GuRTreeCooking.obj
 0002:00007780       __xmm@00000004000000030000000200000001 00000001801e0780     GuRTreeCooking.obj
 0002:000077b0       ??_C@_0EG@NJOHAMKE@D?3?2Projects?2PhysX?2physx?2source?2@ 00000001801e07b0     GuCookingBVH.obj
 0002:000077f8       ??_C@_0DL@JHPKHGFA@Cooking?3?3cookBVH?3?5user?9provided@ 00000001801e07f8     GuCookingBVH.obj
 0002:00007838       ??_C@_0DN@PLNPGFEB@Cooking?3?3createBVH?3?5user?9provid@ 00000001801e0838     GuCookingBVH.obj
 0002:00007880       ??_C@_0EL@JCJBAPHL@Cooking?3?3cookHeightField?3?5user?9@ 00000001801e0880     GuCookingHF.obj
 0002:000078d0       ??_C@_0EF@KHJJELCE@D?3?2Projects?2PhysX?2physx?2source?2@ 00000001801e08d0     GuCookingHF.obj
 0002:00007920       ??_C@_0EN@FCEPCAFC@Cooking?3?3createHeightField?3?5use@ 00000001801e0920     GuCookingHF.obj
 0002:00007970       ??_C@_0EK@EKAIJEBL@Cooking?3?3cookConvexMesh?3?5user?9p@ 00000001801e0970     GuCookingConvexMesh.obj
 0002:000079c0       ??_C@_0FA@GFFGAPML@Cooking?3?3cookConvexMesh?3?5provid@ 00000001801e09c0     GuCookingConvexMesh.obj
 0002:00007a10       ??_C@_0EP@PKDCPNNO@Cooking?3?3cookConvexMesh?3?5provid@ 00000001801e0a10     GuCookingConvexMesh.obj
 0002:00007a60       ??_C@_0EO@LKFMMDE@Cooking?3?3cookConvexMesh?3?5user?9p@ 00000001801e0a60     GuCookingConvexMesh.obj
 0002:00007ab0       ??_C@_0EL@KJEPJALG@Cooking?3?3cookConvexMesh?3?5user?9p@ 00000001801e0ab0     GuCookingConvexMesh.obj
 0002:00007b00       ??_C@_0FM@LHMEBKMM@Cooking?3?3cookConvexMesh?3?5GPU?9co@ 00000001801e0b00     GuCookingConvexMesh.obj
 0002:00007b60       ??_C@_0FJ@FHCFFABE@Cooking?3?3cookConvexMesh?3?5GPU?9co@ 00000001801e0b60     GuCookingConvexMesh.obj
 0002:00007bc0       ??_C@_0LM@CHONPBFM@Cooking?3?3cookConvexMesh?3?5GPU?9co@ 00000001801e0bc0     GuCookingConvexMesh.obj
 0002:00007c80       ??_C@_0EN@DJIFJOFO@D?3?2Projects?2PhysX?2physx?2source?2@ 00000001801e0c80     GuCookingConvexMesh.obj
 0002:00007cf0       ??_7TriangleMeshBuilder@physx@@6B@ 00000001801e0cf0     GuCookingTriangleMesh.obj
 0002:00007d18       ??_7RTreeTriangleMeshBuilder@physx@@6B@ 00000001801e0d18     GuCookingTriangleMesh.obj
 0002:00007d40       ??_7BV4TriangleMeshBuilder@physx@@6B@ 00000001801e0d40     GuCookingTriangleMesh.obj
 0002:00007d70       ??_C@_0EP@EGHKIEDK@D?3?2Projects?2PhysX?2physx?2source?2@ 00000001801e0d70     GuCookingTriangleMesh.obj
 0002:00007dc0       ??_C@_0EM@DBPINPE@TriangleMeshBuilder?3?3cleanMesh?3@ 00000001801e0dc0     GuCookingTriangleMesh.obj
 0002:00007e10       ??_C@_0EF@MLNDPEDJ@TriangleMeshBuilder?3?3cleanMesh?3@ 00000001801e0e10     GuCookingTriangleMesh.obj
 0002:00007e60       ??_C@_0FJ@HHJLKGDF@TriangleMesh?3?5triangles?5are?5too@ 00000001801e0e60     GuCookingTriangleMesh.obj
 0002:00007ec0       ??_C@_0CN@KGPHHHLK@TriangleMesh?3?5mesh?5is?5too?5big?5f@ 00000001801e0ec0     GuCookingTriangleMesh.obj
 0002:00007ef0       ??_C@_0DD@CMJGDCNN@TriangleMesh?3?3loadFromDesc?3?5des@ 00000001801e0ef0     GuCookingTriangleMesh.obj
 0002:00007f30       ??_C@_0ED@ILJJNHIP@TriangleMesh?3?3loadFromDesc?3?5mPa@ 00000001801e0f30     GuCookingTriangleMesh.obj
 0002:00007f78       ??_C@_0BK@JIDHMMCE@BV4?5tree?5failed?5to?5build?4@ 00000001801e0f78     GuCookingTriangleMesh.obj
 0002:00007f98       ??_C@_0BL@DHNECNBE@BV32?5tree?5failed?5to?5build?4@ 00000001801e0f98     GuCookingTriangleMesh.obj
 0002:00007fb8       ??_7RTreeCookerRemap@@6B@  00000001801e0fb8     GuCookingTriangleMesh.obj
 0002:00007fd0       ??_C@_0FC@PJIHAFK@Cooking?3?3validateTriangleMesh?3?5@ 00000001801e0fd0     GuCookingTriangleMesh.obj
 0002:000080b0       ??_7PxCollisionTetrahedronMeshData@physx@@6B@ 00000001801e10b0     GuCookingTetrahedronMesh.obj
 0002:000080e0       ??_7PxSimulationTetrahedronMeshData@physx@@6B@ 00000001801e10e0     GuCookingTetrahedronMesh.obj
 0002:00008100       ??_7CollisionTetrahedronMeshData@Gu@physx@@6B@ 00000001801e1100     GuCookingTetrahedronMesh.obj
 0002:00008130       ??_7SimulationTetrahedronMeshData@Gu@physx@@6B@ 00000001801e1130     GuCookingTetrahedronMesh.obj
 0002:00008150       ??_C@_0FC@BICIAAGD@D?3?2Projects?2PhysX?2physx?2source?2@ 00000001801e1150     GuCookingTetrahedronMesh.obj
 0002:000081a8       ??_7?$LocalConvex@VTetrahedronV@Gu@physx@@@Gu@physx@@6B@ 00000001801e11a8     GuCookingTetrahedronMesh.obj
 0002:000081d8       ??_C@_0CD@OJGNHLOE@BV4_AABBTree?5tree?5failed?5to?5bui@ 00000001801e11d8     GuCookingTetrahedronMesh.obj
 0002:00008200       ??_C@_0DG@NCNIEEHB@TetrahedronMesh?3?3loadFromDesc?3?5@ 00000001801e1200     GuCookingTetrahedronMesh.obj
 0002:00008240       ??_C@_0EG@CJIFGLMC@TetrahedronMesh?3?3loadFromDesc?3?5@ 00000001801e1240     GuCookingTetrahedronMesh.obj
 0002:00008288       __real@be2aaaab            00000001801e1288     GuCookingTetrahedronMesh.obj
 0002:00008290       __xmm@00000003000000030000000300000003 00000001801e1290     GuCookingTetrahedronMesh.obj
 0002:000082c0       __real@3bc79ca10c924223    00000001801e12c0     GuCookingVolumeIntegration.obj
 0002:000082c8       __real@3f91111111111111    00000001801e12c8     GuCookingVolumeIntegration.obj
 0002:000082d0       __real@3fa5555555555555    00000001801e12d0     GuCookingVolumeIntegration.obj
 0002:000082d8       __real@3fa999999999999a    00000001801e12d8     GuCookingVolumeIntegration.obj
 0002:000082e0       __real@3fb5555555555555    00000001801e12e0     GuCookingVolumeIntegration.obj
 0002:000082e8       __real@3fc5555555555555    00000001801e12e8     GuCookingVolumeIntegration.obj
 0002:000082f0       __real@3fe0000000000000    00000001801e12f0     GuCookingVolumeIntegration.obj
 0002:000082f8       __real@3ff0000000000000    00000001801e12f8     GuCookingVolumeIntegration.obj
 0002:00008300       __real@4008000000000000    00000001801e1300     GuCookingVolumeIntegration.obj
 0002:00008308       __real@4010000000000000    00000001801e1308     GuCookingVolumeIntegration.obj
 0002:00008310       __real@bf91111111111111    00000001801e1310     GuCookingVolumeIntegration.obj
 0002:00008318       __real@bfa999999999999a    00000001801e1318     GuCookingVolumeIntegration.obj
 0002:00008320       __real@bfb5555555555555    00000001801e1320     GuCookingVolumeIntegration.obj
 0002:00008328       __real@bfc5555555555555    00000001801e1328     GuCookingVolumeIntegration.obj
 0002:00008330       __xmm@3c0888893c0888893c0888893c088889 00000001801e1330     GuCookingVolumeIntegration.obj
 0002:00008340       __xmm@3c8888893c8888893c8888893c888889 00000001801e1340     GuCookingVolumeIntegration.obj
 0002:00008350       __xmm@3d2aaaab3d2aaaab3d2aaaab3d2aaaab 00000001801e1350     GuCookingVolumeIntegration.obj
 0002:00008360       __xmm@3e2aaaab3e2aaaab3e2aaaab3e2aaaab 00000001801e1360     GuCookingVolumeIntegration.obj
 0002:00008370       __xmm@3f811111111111113f81111111111111 00000001801e1370     GuCookingVolumeIntegration.obj
 0002:00008380       __xmm@3f811111111111113f91111111111111 00000001801e1380     GuCookingVolumeIntegration.obj
 0002:00008390       __xmm@3f911111111111113f91111111111111 00000001801e1390     GuCookingVolumeIntegration.obj
 0002:000083a0       __xmm@3fa55555555555553fa5555555555555 00000001801e13a0     GuCookingVolumeIntegration.obj
 0002:000083b0       __xmm@3fa55555555555553fc5555555555555 00000001801e13b0     GuCookingVolumeIntegration.obj
 0002:000083c0       __xmm@3fd55555555555553fd5555555555555 00000001801e13c0     GuCookingVolumeIntegration.obj
 0002:000083d0       __xmm@3fe00000000000003fe0000000000000 00000001801e13d0     GuCookingVolumeIntegration.obj
 0002:000083e0       __xmm@7fffffffffffffff7fffffffffffffff 00000001801e13e0     GuCookingVolumeIntegration.obj
 0002:000083f0       __xmm@80000000000000008000000000000000 00000001801e13f0     GuCookingVolumeIntegration.obj
 0002:00008400       ??_7ConvexHullLib@physx@@6B@ 00000001801e1400     GuCookingQuickHullConvexHullLib.obj
 0002:00008420       ??_7QuickHullConvexHullLib@physx@@6B@ 00000001801e1420     GuCookingQuickHullConvexHullLib.obj
 0002:00008440       ??_C@_0FJ@ODEJKHAB@D?3?2Projects?2PhysX?2physx?2source?2@ 00000001801e1440     GuCookingQuickHullConvexHullLib.obj
 0002:000084a0       ??_C@_0GA@EPPAEJPM@QuickHullConvexHullLib?3?3findSim@ 00000001801e14a0     GuCookingQuickHullConvexHullLib.obj
 0002:00008500       ??_C@_0FB@NEBIJMML@QuickHullConvexHullLib?3?3findSim@ 00000001801e1500     GuCookingQuickHullConvexHullLib.obj
 0002:00008560       ??_C@_0FB@CLLCBEMM@QuickHullConvexHullLib?3?3findSim@ 00000001801e1560     GuCookingQuickHullConvexHullLib.obj
 0002:000085b4       __real@34c00000            00000001801e15b4     GuCookingQuickHullConvexHullLib.obj
 0002:000085b8       ??_C@_0DP@PJBJBEGF@Meshmerizer?3?3extractHullPolygon@ 00000001801e15b8     GuCookingConvexPolygonsBuilder.obj
 0002:00008600       ??_C@_0FI@KFLBDIEN@D?3?2Projects?2PhysX?2physx?2source?2@ 00000001801e1600     GuCookingConvexPolygonsBuilder.obj
 0002:00008658       ??_C@_0DL@IAFKOCCK@ConvexHullBuilder?3?5convex?5hull?5@ 00000001801e1658     GuCookingConvexPolygonsBuilder.obj
 0002:000086a0       ??_C@_0GF@OJLJHAMH@ConvexHullBuilder?3?3CreateTriang@ 00000001801e16a0     GuCookingConvexPolygonsBuilder.obj
 0002:00008730       ??_C@_0DF@LLFJIJGM@Gu?3?3ConvexMesh?3?3loadFromDesc?3?5d@ 00000001801e1730     GuCookingConvexMeshBuilder.obj
 0002:00008770       ??_C@_0HK@JOGKIEAA@Gu?3?3ConvexMesh?3?5Mesh?5has?5a?5nega@ 00000001801e1770     GuCookingConvexMeshBuilder.obj
 0002:000087f0       ??_C@_0DH@NJPPHFFD@Gu?3?3ConvexMesh?3?5Error?5computing@ 00000001801e17f0     GuCookingConvexMeshBuilder.obj
 0002:00008828       ??_C@_0DJ@LJDLGLDJ@Gu?3?3ConvexMesh?3?3loadConvexHull?3@ 00000001801e1828     GuCookingConvexMeshBuilder.obj
 0002:00008870       ??_C@_0HJ@KJANPPOE@ConvexMeshBuilder?3?3computeHullP@ 00000001801e1870     GuCookingConvexMeshBuilder.obj
 0002:000088f0       ??_C@_0FE@LNJOOALB@D?3?2Projects?2PhysX?2physx?2source?2@ 00000001801e18f0     GuCookingConvexMeshBuilder.obj
 0002:00008948       ??_C@_0O@JMAGMMGG@PxHullPolygon@ 00000001801e1948     GuCookingConvexMeshBuilder.obj
 0002:00008958       __real@3f13cd3a            00000001801e1958     GuCookingConvexMeshBuilder.obj
 0002:00008980       ??_C@_0FC@GJKPFAHI@D?3?2Projects?2PhysX?2physx?2source?2@ 00000001801e1980     GuCookingConvexHullUtils.obj
 0002:000089d4       __real@3e20d97c            00000001801e19d4     GuCookingConvexHullUtils.obj
 0002:000089e0       ??_C@_0FA@EPAIIPD@D?3?2Projects?2PhysX?2physx?2source?2@ 00000001801e19e0     GuCookingConvexHullLib.obj
 0002:00008a30       ??_C@_0JE@PABBNGEL@ConvexHullLib?3?3cleanupVertices?3@ 00000001801e1a30     GuCookingConvexHullLib.obj
 0002:00008af0       ??_C@_0FE@HDDKEAOE@D?3?2Projects?2PhysX?2physx?2source?2@ 00000001801e1af0     GuCookingConvexHullBuilder.obj
 0002:00008b50       ??_C@_0EB@DCEIFDGC@ConvexHullBuilder?3?3init?3?5convex@ 00000001801e1b50     GuCookingConvexHullBuilder.obj
 0002:00008ba0       ??_C@_0FM@KICBLCBH@Gu?3?3ConvexMesh?3?3checkHullPolygo@ 00000001801e1ba0     GuCookingConvexHullBuilder.obj
 0002:00008c00       ??_C@_0GO@HBFIOGLL@Gu?3?3ConvexMesh?3?3checkHullPolygo@ 00000001801e1c00     GuCookingConvexHullBuilder.obj
 0002:00008c70       ??_C@_0HF@OLJFBIEL@ConvexHullBuilder?3?5convex?5hull?5@ 00000001801e1c70     GuCookingConvexHullBuilder.obj
 0002:00008cf0       ??_C@_0OG@JNHFOIL@ConvexHullBuilder?3?5convex?5hull?5@ 00000001801e1cf0     GuCookingConvexHullBuilder.obj
 0002:00008de0       ??_C@_0EJ@NIOIBAKH@Cooking?3?3cookConvexMesh?3?5non?9ma@ 00000001801e1de0     GuCookingConvexHullBuilder.obj
 0002:00008e50       ??_C@_0FH@KLHELHDE@D?3?2Projects?2PhysX?2physx?2source?2@ 00000001801e1e50     GuCookingBigConvexDataBuilder.obj
 0002:00008eb0       __sz_PhysXFoundation_64_dll 00000001801e1eb0     PhysXFoundation_64:PhysXFoundation_64.dll
 0002:00008ec8       ??_C@_1BK@DBDEIDLH@?$AAK?$AAE?$AAR?$AAN?$AAE?$AAL?$AA3?$AA2?$AA?4?$AAD?$AAL?$AAL@ 00000001801e1ec8     Delayimp:delayhlp.obj
 0002:00008ee8       ??_C@_0BI@OMNLIJDB@AcquireSRWLockExclusive@ 00000001801e1ee8     Delayimp:delayhlp.obj
 0002:00008f00       ??_C@_0BI@HMIEPCNJ@ReleaseSRWLockExclusive@ 00000001801e1f00     Delayimp:delayhlp.obj
 0002:00008f18       __pfnDliFailureHook2       00000001801e1f18     Delayimp:delayhk1.obj
 0002:00008f28       ??_7type_info@@6B@         00000001801e1f28     LIBCMT:std_type_info_static.obj
 0002:00008f90       _pDefaultRawDllMain        00000001801e1f90     LIBCMT:dll_dllmain.obj
 0002:00008f90       _pRawDllMain               00000001801e1f90     LIBCMT:dll_dllmain.obj
 0002:00008fa0       _load_config_used          00000001801e1fa0     LIBCMT:loadcfg.obj
 0002:000090e0       _pDestructExceptionObject  00000001801e20e0     libvcruntime:ehhelpers.obj
 0002:00009800       ??_C@_08EHJDFFNH@__based?$CI@ 00000001801e2800     libvcruntime:undname.obj
 0002:00009810       ??_C@_07KOLFKCDI@__cdecl@  00000001801e2810     libvcruntime:undname.obj
 0002:00009818       ??_C@_08GHMPAG@__pascal@   00000001801e2818     libvcruntime:undname.obj
 0002:00009828       ??_C@_09IFJBGAPI@__stdcall@ 00000001801e2828     libvcruntime:undname.obj
 0002:00009838       ??_C@_0L@NPHFGOKO@__thiscall@ 00000001801e2838     libvcruntime:undname.obj
 0002:00009848       ??_C@_0L@JMKHOMEK@__fastcall@ 00000001801e2848     libvcruntime:undname.obj
 0002:00009858       ??_C@_0N@BCKKPABJ@__vectorcall@ 00000001801e2858     libvcruntime:undname.obj
 0002:00009868       ??_C@_09HIJEGCPM@__clrcall@ 00000001801e2868     libvcruntime:undname.obj
 0002:00009874       ??_C@_06GHPCKEAG@__eabi@   00000001801e2874     libvcruntime:undname.obj
 0002:00009880       ??_C@_09IOPIDJLG@__swift_1@ 00000001801e2880     libvcruntime:undname.obj
 0002:00009890       ??_C@_09KFNFGKHF@__swift_2@ 00000001801e2890     libvcruntime:undname.obj
 0002:000098a0       ??_C@_09LMMOFLDE@__swift_3@ 00000001801e28a0     libvcruntime:undname.obj
 0002:000098b0       ??_C@_07JOMMBBKO@__ptr64@  00000001801e28b0     libvcruntime:undname.obj
 0002:000098b8       ??_C@_0L@PILCLIHE@__restrict@ 00000001801e28b8     libvcruntime:undname.obj
 0002:000098c8       ??_C@_0M@GFIIJFMG@__unaligned@ 00000001801e28c8     libvcruntime:undname.obj
 0002:000098d8       ??_C@_09DHDLOLLB@restrict?$CI@ 00000001801e28d8     libvcruntime:undname.obj
 0002:000098e4       ??_C@_04NIHEBCM@?5new@     00000001801e28e4     libvcruntime:undname.obj
 0002:000098f0       ??_C@_07FPCDHGMM@?5delete@ 00000001801e28f0     libvcruntime:undname.obj
 0002:000098f8       ??_C@_01NEMOKFLO@?$DN@     00000001801e28f8     libvcruntime:undname.obj
 0002:000098fc       ??_C@_02GPIOPFAK@?$DO?$DO@ 00000001801e28fc     libvcruntime:undname.obj
 0002:00009900       ??_C@_02FODMEDOG@?$DM?$DM@ 00000001801e2900     libvcruntime:undname.obj
 0002:00009904       ??_C@_01DCLJPIOD@?$CB@     00000001801e2904     libvcruntime:undname.obj
 0002:00009908       ??_C@_02EGOFBIJA@?$DN?$DN@ 00000001801e2908     libvcruntime:undname.obj
 0002:0000990c       ??_C@_02FDNJECIE@?$CB?$DN@ 00000001801e290c     libvcruntime:undname.obj
 0002:00009910       ??_C@_02GPECMEKF@?$FL?$FN@ 00000001801e2910     libvcruntime:undname.obj
 0002:00009918       ??_C@_08LHJFAFGD@operator@ 00000001801e2918     libvcruntime:undname.obj
 0002:00009924       ??_C@_02HBOOOICD@?9?$DO@   00000001801e2924     libvcruntime:undname.obj
 0002:00009928       ??_C@_01NBENCBCI@?$CK@     00000001801e2928     libvcruntime:undname.obj
 0002:0000992c       ??_C@_02ECNGHCIF@?$CL?$CL@ 00000001801e292c     libvcruntime:undname.obj
 0002:00009930       ??_C@_02BAABKJLB@?9?9@     00000001801e2930     libvcruntime:undname.obj
 0002:00009934       ??_C@_01JOAMLHOP@?9@       00000001801e2934     libvcruntime:undname.obj
 0002:00009938       ??_C@_01MIFGBAGJ@?$CL@     00000001801e2938     libvcruntime:undname.obj
 0002:0000993c       ??_C@_01HNPIGOCE@?$CG@     00000001801e293c     libvcruntime:undname.obj
 0002:00009940       ??_C@_03MNHNFDLC@?9?$DO?$CK@ 00000001801e2940     libvcruntime:undname.obj
 0002:00009944       ??_C@_01KMDKNFGN@?1@       00000001801e2944     libvcruntime:undname.obj
 0002:00009948       ??_C@_01FGNFDNOH@?$CF@     00000001801e2948     libvcruntime:undname.obj
 0002:0000994c       ??_C@_01MNNFJEPP@?$DM@     00000001801e294c     libvcruntime:undname.obj
 0002:00009950       ??_C@_02EHCHHCKH@?$DM?$DN@ 00000001801e2950     libvcruntime:undname.obj
 0002:00009954       ??_C@_01PPODPGHN@?$DO@     00000001801e2954     libvcruntime:undname.obj
 0002:00009958       ??_C@_02EEKDKGMJ@?$DO?$DN@ 00000001801e2958     libvcruntime:undname.obj
 0002:0000995c       ??_C@_01IHBHIGKO@?0@       00000001801e295c     libvcruntime:undname.obj
 0002:00009960       ??_C@_02HCKGKOFO@?$CI?$CJ@ 00000001801e2960     libvcruntime:undname.obj
 0002:00009964       ??_C@_01PJKLJHI@?$HO@      00000001801e2964     libvcruntime:undname.obj
 0002:00009968       ??_C@_01JKBOJNNK@?$FO@     00000001801e2968     libvcruntime:undname.obj
 0002:0000996c       ??_C@_01DNKMNLPK@?$HM@     00000001801e296c     libvcruntime:undname.obj
 0002:00009970       ??_C@_02PPKAJPJL@?$CG?$CG@ 00000001801e2970     libvcruntime:undname.obj
 0002:00009974       ??_C@_02NONPIBCD@?$HM?$HM@ 00000001801e2974     libvcruntime:undname.obj
 0002:00009978       ??_C@_02FPIMKNGF@?$CK?$DN@ 00000001801e2978     libvcruntime:undname.obj
 0002:0000997c       ??_C@_02FOEOMHFC@?$CL?$DN@ 00000001801e297c     libvcruntime:undname.obj
 0002:00009980       ??_C@_02FKMDLLOA@?9?$DN@   00000001801e2980     libvcruntime:undname.obj
 0002:00009984       ??_C@_02FJEHGPIO@?1?$DN@   00000001801e2984     libvcruntime:undname.obj
 0002:00009988       ??_C@_02FENAOKFI@?$CF?$DN@ 00000001801e2988     libvcruntime:undname.obj
 0002:0000998c       ??_C@_03IKFCCPFF@?$DO?$DO?$DN@ 00000001801e298c     libvcruntime:undname.obj
 0002:00009990       ??_C@_03CDNPDDLA@?$DM?$DM?$DN@ 00000001801e2990     libvcruntime:undname.obj
 0002:00009994       ??_C@_02FGJGFEAB@?$CG?$DN@ 00000001801e2994     libvcruntime:undname.obj
 0002:00009998       ??_C@_02DHLNPPGH@?$HM?$DN@ 00000001801e2998     libvcruntime:undname.obj
 0002:0000999c       ??_C@_02MHEGNOJ@?$FO?$DN@  00000001801e299c     libvcruntime:undname.obj
 0002:000099a0       ??_C@_09IFPLHPGF@?$GAvftable?8@ 00000001801e29a0     libvcruntime:undname.obj
 0002:000099b0       ??_C@_09BLBHBJP@?$GAvbtable?8@ 00000001801e29b0     libvcruntime:undname.obj
 0002:000099c0       ??_C@_07FEEIOKP@?$GAvcall?8@ 00000001801e29c0     libvcruntime:undname.obj
 0002:000099c8       ??_C@_08LLFFHHDJ@?$GAtypeof?8@ 00000001801e29c8     libvcruntime:undname.obj
 0002:000099d8       ??_C@_0BF@KDPPACIK@?$GAlocal?5static?5guard?8@ 00000001801e29d8     libvcruntime:undname.obj
 0002:000099f0       ??_C@_08OBABFOLI@?$GAstring?8@ 00000001801e29f0     libvcruntime:undname.obj
 0002:00009a00       ??_C@_0BD@JDLKDPAB@?$GAvbase?5destructor?8@ 00000001801e2a00     libvcruntime:undname.obj
 0002:00009a18       ??_C@_0BN@DEGPLNFK@?$GAvector?5deleting?5destructor?8@ 00000001801e2a18     libvcruntime:undname.obj
 0002:00009a38       ??_C@_0BO@OBMKPJIG@?$GAdefault?5constructor?5closure?8@ 00000001801e2a38     libvcruntime:undname.obj
 0002:00009a58       ??_C@_0BN@IMDCHIKM@?$GAscalar?5deleting?5destructor?8@ 00000001801e2a58     libvcruntime:undname.obj
 0002:00009a78       ??_C@_0BO@PFGOCPJJ@?$GAvector?5constructor?5iterator?8@ 00000001801e2a78     libvcruntime:undname.obj
 0002:00009a98       ??_C@_0BN@LFPFMEDL@?$GAvector?5destructor?5iterator?8@ 00000001801e2a98     libvcruntime:undname.obj
 0002:00009ab8       ??_C@_0CE@IKBNEHA@?$GAvector?5vbase?5constructor?5itera@ 00000001801e2ab8     libvcruntime:undname.obj
 0002:00009ae0       ??_C@_0BL@NILFHHPC@?$GAvirtual?5displacement?5map?8@ 00000001801e2ae0     libvcruntime:undname.obj
 0002:00009b00       ??_C@_0CB@JONCMFFK@?$GAeh?5vector?5constructor?5iterator@ 00000001801e2b00     libvcruntime:undname.obj
 0002:00009b28       ??_C@_0CA@GCEOPDGL@?$GAeh?5vector?5destructor?5iterator?8@ 00000001801e2b28     libvcruntime:undname.obj
 0002:00009b48       ??_C@_0CH@OOJPLCPH@?$GAeh?5vector?5vbase?5constructor?5it@ 00000001801e2b48     libvcruntime:undname.obj
 0002:00009b70       ??_C@_0BL@LLKPOHJI@?$GAcopy?5constructor?5closure?8@ 00000001801e2b70     libvcruntime:undname.obj
 0002:00009b90       ??_C@_0BA@KBCDOMBN@?$GAudt?5returning?8@ 00000001801e2b90     libvcruntime:undname.obj
 0002:00009ba0       ??_C@_03KLGMFNMG@?$GAEH@   00000001801e2ba0     libvcruntime:undname.obj
 0002:00009ba4       ??_C@_05KHLCHHI@?$GARTTI@  00000001801e2ba4     libvcruntime:undname.obj
 0002:00009bb0       ??_C@_0BA@KKLDJDLB@?$GAlocal?5vftable?8@ 00000001801e2bb0     libvcruntime:undname.obj
 0002:00009bc0       ??_C@_0CE@IIHCMGGL@?$GAlocal?5vftable?5constructor?5clos@ 00000001801e2bc0     libvcruntime:undname.obj
 0002:00009be4       ??_C@_06FHBGPFGH@?5new?$FL?$FN@ 00000001801e2be4     libvcruntime:undname.obj
 0002:00009bf0       ??_C@_09LBNFPBCA@?5delete?$FL?$FN@ 00000001801e2bf0     libvcruntime:undname.obj
 0002:00009c00       ??_C@_0P@HJKNJFNN@?$GAomni?5callsig?8@ 00000001801e2c00     libvcruntime:undname.obj
 0002:00009c10       ??_C@_0BL@CNOONJFP@?$GAplacement?5delete?5closure?8@ 00000001801e2c10     libvcruntime:undname.obj
 0002:00009c30       ??_C@_0BN@CKNJLHMB@?$GAplacement?5delete?$FL?$FN?5closure?8@ 00000001801e2c30     libvcruntime:undname.obj
 0002:00009c50       ??_C@_0CG@CFDHKGGD@?$GAmanaged?5vector?5constructor?5ite@ 00000001801e2c50     libvcruntime:undname.obj
 0002:00009c78       ??_C@_0CF@IMGKMJNO@?$GAmanaged?5vector?5destructor?5iter@ 00000001801e2c78     libvcruntime:undname.obj
 0002:00009ca0       ??_C@_0CG@HLDDJMAG@?$GAeh?5vector?5copy?5constructor?5ite@ 00000001801e2ca0     libvcruntime:undname.obj
 0002:00009cc8       ??_C@_0CM@FCBBDIGB@?$GAeh?5vector?5vbase?5copy?5construct@ 00000001801e2cc8     libvcruntime:undname.obj
 0002:00009cf8       ??_C@_0BL@CLIPGLGB@?$GAdynamic?5initializer?5for?5?8@ 00000001801e2cf8     libvcruntime:undname.obj
 0002:00009d18       ??_C@_0CB@PDBIFEP@?$GAdynamic?5atexit?5destructor?5for?5@ 00000001801e2d18     libvcruntime:undname.obj
 0002:00009d40       ??_C@_0CD@CGAJBKEJ@?$GAvector?5copy?5constructor?5iterat@ 00000001801e2d40     libvcruntime:undname.obj
 0002:00009d68       ??_C@_0CJ@GJELGAMM@?$GAvector?5vbase?5copy?5constructor?5@ 00000001801e2d68     libvcruntime:undname.obj
 0002:00009d98       ??_C@_0CL@FGIJHLCE@?$GAmanaged?5vector?5copy?5constructo@ 00000001801e2d98     libvcruntime:undname.obj
 0002:00009dc8       ??_C@_0BM@PMGGMLDN@?$GAlocal?5static?5thread?5guard?8@ 00000001801e2dc8     libvcruntime:undname.obj
 0002:00009de8       ??_C@_0N@BDNMDMOL@operator?5?$CC?$CC?5@ 00000001801e2de8     libvcruntime:undname.obj
 0002:00009df8       ??_C@_0BC@GGEBGALA@operator?5co_await@ 00000001801e2df8     libvcruntime:undname.obj
 0002:00009e10       ??_C@_0M@GAAIMMOH@operator?$DM?$DN?$DO@ 00000001801e2e10     libvcruntime:undname.obj
 0002:00009e20       ??_C@_0BC@DAFEJGAK@?5Type?5Descriptor?8@ 00000001801e2e20     libvcruntime:undname.obj
 0002:00009e38       ??_C@_0BM@LDKODKLH@?5Base?5Class?5Descriptor?5at?5?$CI@ 00000001801e2e38     libvcruntime:undname.obj
 0002:00009e58       ??_C@_0BD@LGICGFMM@?5Base?5Class?5Array?8@ 00000001801e2e58     libvcruntime:undname.obj
 0002:00009e70       ??_C@_0BN@MECKDCOJ@?5Class?5Hierarchy?5Descriptor?8@ 00000001801e2e70     libvcruntime:undname.obj
 0002:00009e90       ??_C@_0BK@CFCOFLF@?5Complete?5Object?5Locator?8@ 00000001801e2e90     libvcruntime:undname.obj
 0002:00009eb0       ??_C@_0BG@JNJLAMPM@?$GAanonymous?5namespace?8@ 00000001801e2eb0     libvcruntime:undname.obj
 0002:00009ec8       ??_C@_04HEJADOOB@CV?3?5@   00000001801e2ec8     libvcruntime:undname.obj
 0002:00009ed0       ??_C@_02MOLJINC@?3?3@      00000001801e2ed0     libvcruntime:undname.obj
 0002:00009ed8       ??_C@_0BE@JAEOCHPE@template?9parameter?9@ 00000001801e2ed8     libvcruntime:undname.obj
 0002:00009ef0       ??_C@_0BF@LNLGBBNL@?$GAtemplate?9parameter?9@ 00000001801e2ef0     libvcruntime:undname.obj
 0002:00009f08       ??_C@_0O@KHGCOMHP@generic?9type?9@ 00000001801e2f08     libvcruntime:undname.obj
 0002:00009f18       ??_C@_0P@ODDENDLM@?$GAgeneric?9type?9@ 00000001801e2f18     libvcruntime:undname.obj
 0002:00009f28       ??_C@_02OHHJMEON@?8?8@     00000001801e2f28     libvcruntime:undname.obj
 0002:00009f30       ??_C@_0BN@IBLMMFAP@?$GAnon?9type?9template?9parameter@ 00000001801e2f30     libvcruntime:undname.obj
 0002:00009f50       ??_C@_03DLDNIBIK@?$CFlf@   00000001801e2f50     libvcruntime:undname.obj
 0002:00009f54       ??_C@_04OFALKAJ@?$DP?$DP_C@ 00000001801e2f54     libvcruntime:undname.obj
 0002:00009f5c       ??_C@_03KHICJKCI@?4?4?4@   00000001801e2f5c     libvcruntime:undname.obj
 0002:00009f60       ??_C@_04HIBGFPH@NULL@      00000001801e2f60     libvcruntime:undname.obj
 0002:00009f68       ??_C@_02DPKJAMEF@?$CFd@    00000001801e2f68     libvcruntime:undname.obj
 0002:00009f70       ??_C@_0BK@IHCCFNEL@?$GAtemplate?9type?9parameter?9@ 00000001801e2f70     libvcruntime:undname.obj
 0002:00009f90       ??_C@_0BK@OFCNNNKO@?$GAgeneric?9class?9parameter?9@ 00000001801e2f90     libvcruntime:undname.obj
 0002:00009fb0       ??_C@_0BL@NGJBLFIL@?$GAgeneric?9method?9parameter?9@ 00000001801e2fb0     libvcruntime:undname.obj
 0002:00009fd0       ??_C@_07OHNGEDJK@nullptr@  00000001801e2fd0     libvcruntime:undname.obj
 0002:00009fd8       ??_C@_06COJIGPIB@lambda@   00000001801e2fd8     libvcruntime:undname.obj
 0002:00009fe0       ??_C@_0BE@EODMJLIF@?$GAtemplate?9parameter@ 00000001801e2fe0     libvcruntime:undname.obj
 0002:00009ff4       ??_C@_03OPGICMGF@?$HN?8?5@ 00000001801e2ff4     libvcruntime:undname.obj
 0002:00009ff8       ??_C@_02IGFCGPIL@?$HN?8@   00000001801e2ff8     libvcruntime:undname.obj
 0002:0000a000       ??_C@_0N@CBHHHENL@?$GAvtordispex?$HL@ 00000001801e3000     libvcruntime:undname.obj
 0002:0000a010       ??_C@_0L@GHPFDFH@?$GAvtordisp?$HL@ 00000001801e3010     libvcruntime:undname.obj
 0002:0000a020       ??_C@_0L@HNGCOGAE@?$GAadjustor?$HL@ 00000001801e3020     libvcruntime:undname.obj
 0002:0000a030       ??_C@_0CB@KJDOOODE@?$GAlocal?5static?5destructor?5helper@ 00000001801e3030     libvcruntime:undname.obj
 0002:0000a058       ??_C@_0DB@ILEFOCIJ@?$GAtemplate?5static?5data?5member?5co@ 00000001801e3058     libvcruntime:undname.obj
 0002:0000a090       ??_C@_0DA@HGFJFBBE@?$GAtemplate?5static?5data?5member?5de@ 00000001801e3090     libvcruntime:undname.obj
 0002:0000a0c0       ??_C@_07PGOEDBHP@static?5@ 00000001801e30c0     libvcruntime:undname.obj
 0002:0000a0c8       ??_C@_08NIEOINHE@virtual?5@ 00000001801e30c8     libvcruntime:undname.obj
 0002:0000a0d8       ??_C@_09LAPHOOG@private?3?5@ 00000001801e30d8     libvcruntime:undname.obj
 0002:0000a0e8       ??_C@_0M@GAIFPFIP@protected?3?5@ 00000001801e30e8     libvcruntime:undname.obj
 0002:0000a0f8       ??_C@_08GPDDCMKI@public?3?5@ 00000001801e30f8     libvcruntime:undname.obj
 0002:0000a108       ??_C@_08KJLFOPNE@?$FLthunk?$FN?3@ 00000001801e3108     libvcruntime:undname.obj
 0002:0000a118       ??_C@_0M@DHNBOJMP@extern?5?$CCC?$CC?5@ 00000001801e3118     libvcruntime:undname.obj
 0002:0000a124       ??_C@_02KCKGHPCA@?$CJ?5@   00000001801e3124     libvcruntime:undname.obj
 0002:0000a128       ??_C@_05CIHEBHNO@char?5@   00000001801e3128     libvcruntime:undname.obj
 0002:0000a130       ??_C@_06EHJMALKF@short?5@  00000001801e3130     libvcruntime:undname.obj
 0002:0000a138       ??_C@_04LAHKHJMA@int?5@    00000001801e3138     libvcruntime:undname.obj
 0002:0000a140       ??_C@_05CJIMAING@long?5@   00000001801e3140     libvcruntime:undname.obj
 0002:0000a148       ??_C@_09EBBEKKIH@unsigned?5@ 00000001801e3148     libvcruntime:undname.obj
 0002:0000a154       ??_C@_05BEFAKPML@void?5@   00000001801e3154     libvcruntime:undname.obj
 0002:0000a160       ??_C@_09GAIEOBLP@volatile?5@ 00000001801e3160     libvcruntime:undname.obj
 0002:0000a170       ??_C@_08PABEKFH@volatile@  00000001801e3170     libvcruntime:undname.obj
 0002:0000a180       ??_C@_0BA@LKIJLKPP@std?3?3nullptr_t?5@ 00000001801e3180     libvcruntime:undname.obj
 0002:0000a190       ??_C@_0P@GCOCNKDM@std?3?3nullptr_t@ 00000001801e3190     libvcruntime:undname.obj
 0002:0000a1a0       ??_C@_0L@EGPHHEKN@?$DMellipsis?$DO@ 00000001801e31a0     libvcruntime:undname.obj
 0002:0000a1ac       ??_C@_04EENFHACM@?0?4?4?4@ 00000001801e31ac     libvcruntime:undname.obj
 0002:0000a1b8       ??_C@_0M@ELJOJFFH@?0?$DMellipsis?$DO@ 00000001801e31b8     libvcruntime:undname.obj
 0002:0000a1c8       ??_C@_09DNHFEOJI@?5noexcept@ 00000001801e31c8     libvcruntime:undname.obj
 0002:0000a1d4       ??_C@_03PBJBJNON@cpu@      00000001801e31d4     libvcruntime:undname.obj
 0002:0000a1d8       ??_C@_03DCBBJBAA@amp@      00000001801e31d8     libvcruntime:undname.obj
 0002:0000a1dc       ??_C@_02KEGNLNML@?0?5@     00000001801e31dc     libvcruntime:undname.obj
 0002:0000a1e0       ??_C@_04ENMBGAPA@char@     00000001801e31e0     libvcruntime:undname.obj
 0002:0000a1e8       ??_C@_05BFKKPKCG@short@    00000001801e31e8     libvcruntime:undname.obj
 0002:0000a1f0       ??_C@_03JBIPMCLC@int@      00000001801e31f0     libvcruntime:undname.obj
 0002:0000a1f4       ??_C@_04GOKPGOLB@long@     00000001801e31f4     libvcruntime:undname.obj
 0002:0000a1fc       ??_C@_06BNJCAIGJ@double@   00000001801e31fc     libvcruntime:undname.obj
 0002:0000a204       ??_C@_06EBGKOKIG@__int8@   00000001801e3204     libvcruntime:undname.obj
 0002:0000a210       ??_C@_07ICFHOGAF@__int16@  00000001801e3210     libvcruntime:undname.obj
 0002:0000a218       ??_C@_07OFLPPHGP@__int32@  00000001801e3218     libvcruntime:undname.obj
 0002:0000a220       ??_C@_07LFCOJCAC@__int64@  00000001801e3220     libvcruntime:undname.obj
 0002:0000a228       ??_C@_08GAHOLHEO@__int128@ 00000001801e3228     libvcruntime:undname.obj
 0002:0000a238       ??_C@_09EEKGDCPH@?$DMunknown?$DO@ 00000001801e3238     libvcruntime:undname.obj
 0002:0000a248       ??_C@_07CFHGOPCN@char8_t@  00000001801e3248     libvcruntime:undname.obj
 0002:0000a250       ??_C@_08HBIPOFJB@char16_t@ 00000001801e3250     libvcruntime:undname.obj
 0002:0000a260       ??_C@_08IECNCBKG@char32_t@ 00000001801e3260     libvcruntime:undname.obj
 0002:0000a270       ??_C@_07CLGGIAMF@wchar_t@  00000001801e3270     libvcruntime:undname.obj
 0002:0000a278       ??_C@_04HAPDLBFF@auto@     00000001801e3278     libvcruntime:undname.obj
 0002:0000a280       ??_C@_0P@LHCGKIGK@decltype?$CIauto?$CJ@ 00000001801e3280     libvcruntime:undname.obj
 0002:0000a290       ??_C@_05PCNBGHCF@this?5@   00000001801e3290     libvcruntime:undname.obj
 0002:0000a298       ??_C@_06GCICPBLB@__w64?5@  00000001801e3298     libvcruntime:undname.obj
 0002:0000a2a0       ??_C@_07NFANNNEC@UNKNOWN@  00000001801e32a0     libvcruntime:undname.obj
 0002:0000a2a8       ??_C@_07EDHNAJHC@signed?5@ 00000001801e32a8     libvcruntime:undname.obj
 0002:0000a2b0       ??_C@_05BNCCCJPP@const@    00000001801e32b0     libvcruntime:undname.obj
 0002:0000a2b8       ??_C@_09EFNPDFFP@?5volatile@ 00000001801e32b8     libvcruntime:undname.obj
 0002:0000a2c8       ??_C@_0P@GCIFDJCJ@?$GAunknown?5ecsu?8@ 00000001801e32c8     libvcruntime:undname.obj
 0002:0000a2d8       ??_C@_06MOJHIBMG@union?5@  00000001801e32d8     libvcruntime:undname.obj
 0002:0000a2e0       ??_C@_07DIBCDNGL@struct?5@ 00000001801e32e0     libvcruntime:undname.obj
 0002:0000a2e8       ??_C@_06LJBABKPM@class?5@  00000001801e32e8     libvcruntime:undname.obj
 0002:0000a2f0       ??_C@_08KOFANOFK@coclass?5@ 00000001801e32f0     libvcruntime:undname.obj
 0002:0000a300       ??_C@_0N@DLIEFKNA@cointerface?5@ 00000001801e3300     libvcruntime:undname.obj
 0002:0000a310       ??_C@_05LJGMCFOG@enum?5@   00000001801e3310     libvcruntime:undname.obj
 0002:0000a318       ??_C@_06LIJLOJAG@const?5@  00000001801e3318     libvcruntime:undname.obj
 0002:0000a320       ??_C@_02KJPKDIBN@?$CG?5@   00000001801e3320     libvcruntime:undname.obj
 0002:0000a324       ??_C@_03PCKGMOPB@?$CG?$CG?5@ 00000001801e3324     libvcruntime:undname.obj
 0002:0000a328       ??_C@_0M@EALIELKG@cli?3?3array?$DM@ 00000001801e3328     libvcruntime:undname.obj
 0002:0000a338       ??_C@_0O@GKABPPIF@cli?3?3pin_ptr?$DM@ 00000001801e3338     libvcruntime:undname.obj
 0002:0000a348       ??_C@_02GOGNNPBN@?$CJ?$FL@ 00000001801e3348     libvcruntime:undname.obj
 0002:0000a34c       ??_C@_06EEGAIFAK@?$HLflat?$HN@ 00000001801e334c     libvcruntime:undname.obj
 0002:0000a354       ??_C@_05JIBOFOHK@?$HLfor?5@ 00000001801e3354     libvcruntime:undname.obj
 0002:0000a35c       ??_C@_02MDINNEEG@s?5@      00000001801e335c     libvcruntime:undname.obj
 0002:0000a368       ??_7charNode@@6B@          00000001801e3368     libvcruntime:undname.obj
 0002:0000a390       ??_7pcharNode@@6B@         00000001801e3390     libvcruntime:undname.obj
 0002:0000a3b8       ??_7pDNameNode@@6B@        00000001801e33b8     libvcruntime:undname.obj
 0002:0000a3e0       ??_7DNameStatusNode@@6B@   00000001801e33e0     libvcruntime:undname.obj
 0002:0000a408       ??_7pairNode@@6B@          00000001801e3408     libvcruntime:undname.obj
 0002:0000a530       ??_C@_04OKOHEJBO@?5?$DP?$DP?5@ 00000001801e3530     libvcruntime:undname.obj
 0002:0000a540       ?nodes@?1??make@DNameStatusNode@@SAPEBV2@W4DNameStatus@@@Z@4QBV2@B 00000001801e3540     libvcruntime:undname.obj
 0002:0000a580       ?s_negLengthTab@FH4@@3QBCB 00000001801e3580     libvcruntime:risctrnsctrl.obj
 0002:0000a590       ?s_shiftTab@FH4@@3QBEB     00000001801e3590     libvcruntime:risctrnsctrl.obj
 0002:0000a6f0       ??_C@_1DM@KHCHBNEB@?$AAa?$AAp?$AAi?$AA?9?$AAm?$AAs?$AA?9?$AAw?$AAi?$AAn?$AA?9?$AAc?$AAo?$AAr?$AAe@ 00000001801e36f0     libvcruntime:winapi_downlevel.obj
 0002:0000a730       ??_C@_1DK@LPPGFMPP@?$AAa?$AAp?$AAi?$AA?9?$AAm?$AAs?$AA?9?$AAw?$AAi?$AAn?$AA?9?$AAc?$AAo?$AAr?$AAe@ 00000001801e3730     libvcruntime:winapi_downlevel.obj
 0002:0000a770       ??_C@_1BC@GDMECMAK@?$AAk?$AAe?$AAr?$AAn?$AAe?$AAl?$AA3?$AA2@ 00000001801e3770     libvcruntime:winapi_downlevel.obj
 0002:0000a788       ??_C@_1BA@PFFKHIOG@?$AAa?$AAp?$AAi?$AA?9?$AAm?$AAs?$AA?9@ 00000001801e3788     libvcruntime:winapi_downlevel.obj
 0002:0000a7a0       ??_C@_08KNHFBNJ@FlsAlloc@  00000001801e37a0     libvcruntime:winapi_downlevel.obj
 0002:0000a7b8       ??_C@_07PEJMOBNF@FlsFree@  00000001801e37b8     libvcruntime:winapi_downlevel.obj
 0002:0000a7c8       ??_C@_0M@GDNOONDI@FlsGetValue@ 00000001801e37c8     libvcruntime:winapi_downlevel.obj
 0002:0000a7e0       ??_C@_0M@JCPCPOEF@FlsSetValue@ 00000001801e37e0     libvcruntime:winapi_downlevel.obj
 0002:0000a7f8       ??_C@_0BM@HCFOFFN@InitializeCriticalSectionEx@ 00000001801e37f8     libvcruntime:winapi_downlevel.obj
 0002:0000a820       ??_7exception@std@@6B@     00000001801e3820     libvcruntime:frame.obj
 0002:0000a830       ??_C@_0BC@EOODALEL@Unknown?5exception@ 00000001801e3830     libvcruntime:frame.obj
 0002:0000a850       ??_7bad_exception@std@@6B@ 00000001801e3850     libvcruntime:frame.obj
 0002:0000a860       ??_C@_0O@DPKOEFFH@bad?5exception@ 00000001801e3860     libvcruntime:frame.obj
 0002:0000abb0       ?standard_lookup_table_spectre@__crt_stdio_output@@3V?$spectre_mitigated_lookup_table@Ustate_transition_pair@__crt_stdio_output@@$0IA@@1@B 00000001801e3bb0     libucrt:output.obj
 0002:0000acb0       ?format_validation_lookup_table_spectre@__crt_stdio_output@@3V?$spectre_mitigated_lookup_table@Ustate_transition_pair@__crt_stdio_output@@$0IA@@1@B 00000001801e3cb0     libucrt:output.obj
 0002:0000adb0       ??_C@_1O@CEDCILHN@?$AA?$CI?$AAn?$AAu?$AAl?$AAl?$AA?$CJ@ 00000001801e3db0     libucrt:output.obj
 0002:0000adc0       ??_C@_06OJHGLDPL@?$CInull?$CJ@ 00000001801e3dc0     libucrt:output.obj
 0002:0000be58       __real@3f1a36e2eb1c432d    00000001801e4e58     libucrt:atan2f.obj
 0002:0000be60       __real@3fb0000000000000    00000001801e4e60     libucrt:atan2f.obj
 0002:0000be68       __real@3fc2492482bd6be1    00000001801e4e68     libucrt:atan2f.obj
 0002:0000be70       __real@3fc99999999643a3    00000001801e4e70     libucrt:atan2f.obj
 0002:0000be78       __real@3fd5555555550877    00000001801e4e78     libucrt:atan2f.obj
 0002:0000be80       __real@3fd5555555555538    00000001801e4e80     libucrt:atan2f.obj
 0002:0000be88       __real@3ff921fb54442d18    00000001801e4e88     libucrt:atan2f.obj
 0002:0000be90       __real@400921fb54442d18    00000001801e4e90     libucrt:atan2f.obj
 0002:0000be98       __real@40490fdb            00000001801e4e98     libucrt:atan2f.obj
 0002:0000bea0       __real@4070000000000000    00000001801e4ea0     libucrt:atan2f.obj
 0002:0000bea8       __real@bf490fdb            00000001801e4ea8     libucrt:atan2f.obj
 0002:0000beac       __real@bfc90fdb            00000001801e4eac     libucrt:atan2f.obj
