 PhysXCommon_64

 Timestamp is 653804cc (Tue Oct 24 19:54:20 2023)

 Preferred load address is 0000000180000000

 Start         Length     Name                   Class
 0001:00000000 00003530H .text$di                CODE
 0001:00003530 001d58b0H .text$mn                CODE
 0001:001d8de0 00000040H .text$mn$00             CODE
 0001:001d8e20 00000680H .text$x                 CODE
 0001:001d94a0 0000000fH .text$yd                CODE
 0002:00000000 00000280H .idata$5                DATA
 0002:00000280 00000038H .00cfg                  DATA
 0002:000002b8 00000008H .CRT$XCA                DATA
 0002:000002c0 000019d0H .CRT$XCU                DATA
 0002:00001c90 00000008H .CRT$XCZ                DATA
 0002:00001c98 00000008H .CRT$XIA                DATA
 0002:00001ca0 00000018H .CRT$XIC                DATA
 0002:00001cb8 00000008H .CRT$XIZ                DATA
 0002:00001cc0 00000008H .CRT$XPA                DATA
 0002:00001cc8 00000010H .CRT$XPX                DATA
 0002:00001cd8 00000008H .CRT$XPXA               DATA
 0002:00001ce0 00000008H .CRT$XPZ                DATA
 0002:00001ce8 00000008H .CRT$XTA                DATA
 0002:00001cf0 00000010H .CRT$XTZ                DATA
 0002:00001cf8 00000000H .gehcont$y              DATA
 0002:00001cf8 00000000H .gfids$y                DATA
 0002:00001d00 00012480H .rdata                  DATA
 0002:00014180 00000000H .rdata$CastGuardVftablesA DATA
 0002:00014180 00000000H .rdata$CastGuardVftablesC DATA
 0002:00014180 0000043cH .rdata$r                DATA
 0002:000145bc 0000045cH .rdata$voltmd           DATA
 0002:00014a18 00000420H .rdata$zzzdbg           DATA
 0002:00014e38 00000008H .rtc$IAA                DATA
 0002:00014e40 00000008H .rtc$IZZ                DATA
 0002:00014e48 00000008H .rtc$TAA                DATA
 0002:00014e50 00000008H .rtc$TZZ                DATA
 0002:00014e58 00015008H .xdata                  DATA
 0002:00029e60 00000084H .xdata$x                DATA
 0002:00029ee4 00000020H .didat$2                DATA
 0002:00029f04 00000024H .didat$3                DATA
 0002:00029f28 000000d0H .didat$4                DATA
 0002:00029ff8 00000430H .didat$6                DATA
 0002:0002a428 000000d8H .didat$7                DATA
 0002:0002a500 0000c6a8H .edata                  DATA
 0002:00036ba8 00000014H .idata$2                DATA
 0002:00036bbc 00000014H .idata$3                DATA
 0002:00036bd0 00000280H .idata$4                DATA
 0002:00036e50 000005beH .idata$6                DATA
 0003:00000000 00001c40H .data                   DATA
 0003:00001c40 00001158H .data$r                 DATA
 0003:00002d98 000000f0H .data$rs                DATA
 0003:00002e88 000000d8H .didat$5                DATA
 0003:00002f60 0000463cH .bss                    DATA
 0004:00000000 0000c630H .pdata                  DATA
 0005:00000000 0000236cH _RDATA                  DATA
 0006:00000000 000000a0H .rsrc$01                DATA
 0006:000000a0 000004b0H .rsrc$02                DATA

  Address         Publics by Value              Rva+Base               Lib:Object

 0000:00000000       __AbsoluteZero             0000000000000000     <absolute>
 0000:00000000       ___safe_se_handler_count   0000000000000000     <absolute>
 0000:00000000       ___safe_se_handler_table   0000000000000000     <absolute>
 0000:00000000       __arm64x_extra_rfe_table   0000000000000000     <absolute>
 0000:00000000       __arm64x_extra_rfe_table_size 0000000000000000     <absolute>
 0000:00000000       __arm64x_native_entrypoint 0000000000000000     <absolute>
 0000:00000000       __arm64x_redirection_metadata 0000000000000000     <absolute>
 0000:00000000       __arm64x_redirection_metadata_count 0000000000000000     <absolute>
 0000:00000000       __dynamic_value_reloc_table 0000000000000000     <absolute>
 0000:00000000       __enclave_config           0000000000000000     <absolute>
 0000:00000000       __guard_check_icall_a64n_fptr 0000000000000000     <absolute>
 0000:00000000       __guard_eh_cont_count      0000000000000000     <absolute>
 0000:00000000       __guard_eh_cont_table      0000000000000000     <absolute>
 0000:00000000       __guard_fids_count         0000000000000000     <absolute>
 0000:00000000       __guard_fids_table         0000000000000000     <absolute>
 0000:00000000       __guard_iat_count          0000000000000000     <absolute>
 0000:00000000       __guard_iat_table          0000000000000000     <absolute>
 0000:00000000       __guard_longjmp_count      0000000000000000     <absolute>
 0000:00000000       __guard_longjmp_table      0000000000000000     <absolute>
 0000:00000000       __hybrid_auxiliary_delayload_iat 0000000000000000     <absolute>
 0000:00000000       __hybrid_auxiliary_delayload_iat_copy 0000000000000000     <absolute>
 0000:00000000       __hybrid_auxiliary_iat     0000000000000000     <absolute>
 0000:00000000       __hybrid_auxiliary_iat_copy 0000000000000000     <absolute>
 0000:00000000       __hybrid_code_map          0000000000000000     <absolute>
 0000:00000000       __hybrid_code_map_count    0000000000000000     <absolute>
 0000:00000000       __hybrid_image_info_bitfield 0000000000000000     <absolute>
 0000:00000000       __x64_code_ranges_to_entry_points 0000000000000000     <absolute>
 0000:00000000       __x64_code_ranges_to_entry_points_count 0000000000000000     <absolute>
 0000:00000100       __guard_flags              0000000000000100     <absolute>
 0000:00000000       __ImageBase                0000000180000000     <linker-defined>
 0001:00003530       ??0PtrTable@Cm@physx@@QEAA@W4PxEMPTY@2@@Z 0000000180004530 f i CmPtrTable.obj
 0001:00003550       ??0PtrTable@Cm@physx@@QEAA@XZ 0000000180004550 f   CmPtrTable.obj
 0001:00003560       ??1AABBTreeBuildNode@Gu@physx@@QEAA@XZ 0000000180004560 f   GuMeshFactory.obj
 0001:00003560       ??1BigConvexDataBuilder@physx@@QEAA@XZ 0000000180004560 f   GuCookingBigConvexDataBuilder.obj
 0001:00003560       ??1Box@Gu@physx@@QEAA@XZ   0000000180004560 f   GuBox.obj
 0001:00003560       ??1HeightFieldData@Gu@physx@@QEAA@XZ 0000000180004560 f   GuCCTSweepTests.obj
 0001:00003560       ??1PtrTable@Cm@physx@@QEAA@XZ 0000000180004560 f   CmPtrTable.obj
 0001:00003560       ?build@CompanionPrunerIncremental@@UEAAXXZ 0000000180004560 f   GuSecondaryPruner.obj
 0001:00003560       ?checkTreeLeaf@IncrementalAABBTree@Gu@physx@@QEAAXPEAVIncrementalAABBTreeNode@23@I@Z 0000000180004560 f   GuIncrementalAABBTree.obj
 0001:00003560       ?execute@?$PxThreadT@V?$PxReflectionAllocator@VPxThreadImpl@physx@@@physx@@@physx@@UEAAXXZ 0000000180004560 f   GuSDF.obj
 0001:00003560       ?execute@PxRunnable@physx@@UEAAXXZ 0000000180004560 f   GuSDF.obj
 0001:00003560       ?merge@BucketPruner@Gu@physx@@UEAAXPEBX@Z 0000000180004560 f   GuBucketPruner.obj
 0001:00003560       ?merge@IncrementalAABBPruner@Gu@physx@@UEAAXPEBX@Z 0000000180004560 f   GuIncrementalAABBPruner.obj
 0001:00003560       ?onMeshIndexFormatChange@TriangleMeshBuilder@physx@@UEAAXXZ 0000000180004560 f   GuCookingTriangleMesh.obj
 0001:00003560       ?profile@Callback@RTree@Gu@physx@@UEAAXXZ 0000000180004560 f   GuMidphaseRTree.obj
 0001:00003560       ?purge@BucketPruner@Gu@physx@@UEAAXXZ 0000000180004560 f   GuBucketPruner.obj
 0001:00003560       ?requiresObjects@ConvexMesh@Gu@physx@@UEAAXAEAVPxProcessPxBaseCallback@3@@Z 0000000180004560 f   GuConvexMesh.obj
 0001:00003560       ?requiresObjects@HeightField@Gu@physx@@UEAAXAEAVPxProcessPxBaseCallback@3@@Z 0000000180004560 f   GuHeightField.obj
 0001:00003560       ?requiresObjects@SoftBodyMesh@Gu@physx@@UEAAXAEAVPxProcessPxBaseCallback@3@@Z 0000000180004560 f   GuTetrahedronMesh.obj
 0001:00003560       ?requiresObjects@TriangleMesh@Gu@physx@@UEAAXAEAVPxProcessPxBaseCallback@3@@Z 0000000180004560 f   GuTriangleMesh.obj
 0001:00003560       ?swapIndex@CompanionPrunerAABBTree@@UEAAXII@Z 0000000180004560 f   GuSecondaryPruner.obj
 0001:00003560       ?swapIndex@CompanionPrunerBucket@@UEAAXII@Z 0000000180004560 f   GuSecondaryPruner.obj
 0001:00003560       ?timeStampChange@CompanionPrunerAABBTree@@UEAAXXZ 0000000180004560 f   GuSecondaryPruner.obj
 0001:00003560       ?timeStampChange@CompanionPrunerBucket@@UEAAXXZ 0000000180004560 f   GuSecondaryPruner.obj
 0001:00003560       ?visualize@BasePruner@Gu@physx@@UEBAXAEAVPxRenderOutput@3@II@Z 0000000180004560 f   GuIncrementalAABBPruner.obj
 0001:00003560       _guard_check_icall_nop     0000000180004560 f   LIBCMT:guard_support.obj
 0001:00003570       ??4AABBTreeBounds@Gu@physx@@QEAAAEAV012@AEBV012@@Z 0000000180004570 f i GuMeshFactory.obj
 0001:00003570       ??4CmModuleUpdateLoader@Cm@physx@@QEAAAEAV012@AEBV012@@Z 0000000180004570 f i CmWindowsModuleUpdateLoader.obj
 0001:00003570       ??4PtrTable@Cm@physx@@QEAAAEAU012@AEBU012@@Z 0000000180004570 f i CmPtrTable.obj
 0001:00003580       ?add@PtrTable@Cm@physx@@QEAAXPEAXAEAVPtrTableStorageManager@23@@Z 0000000180004580 f   CmPtrTable.obj
 0001:00003690       ?clear@PtrTable@Cm@physx@@QEAAXAEAVPtrTableStorageManager@23@@Z 0000000180004690 f   CmPtrTable.obj
 0001:00003700       ?exportExtraData@PtrTable@Cm@physx@@QEAAXAEAVPxSerializationContext@3@@Z 0000000180004700 f   CmPtrTable.obj
 0001:00003750       ?find@PtrTable@Cm@physx@@QEBAIPEBX@Z 0000000180004750 f   CmPtrTable.obj
 0001:00003780       ?getBinaryMetaData@PtrTable@Cm@physx@@SAXAEAVPxOutputStream@3@@Z 0000000180004780 f   CmPtrTable.obj
 0001:00003970       ?getCount@PtrTable@Cm@physx@@QEBAIXZ 0000000180004970 f i CmPtrTable.obj
 0001:00003980       ?getPtrs@PtrTable@Cm@physx@@QEAAPEAPEAXXZ 0000000180004980 f i CmPtrTable.obj
 0001:00003980       ?getPtrs@PtrTable@Cm@physx@@QEBAPEBQEAXXZ 0000000180004980 f i CmPtrTable.obj
 0001:00003990       ?importExtraData@PtrTable@Cm@physx@@QEAAXAEAVPxDeserializationContext@3@@Z 0000000180004990 f   CmPtrTable.obj
 0001:000039c0       ?realloc@PtrTable@Cm@physx@@AEAAXIIAEAVPtrTableStorageManager@23@@Z 00000001800049c0 f   CmPtrTable.obj
 0001:00003a50       ?replaceWithLast@PtrTable@Cm@physx@@QEAAXIAEAVPtrTableStorageManager@23@@Z 0000000180004a50 f   CmPtrTable.obj
 0001:00003b50       ??_ECollection@Cm@physx@@UEAAPEAXI@Z 0000000180004b50 f i CmCollection.obj
 0001:00003b50       ??_GCollection@Cm@physx@@UEAAPEAXI@Z 0000000180004b50 f i CmCollection.obj
 0001:00003c00       ??_EPxCollection@physx@@MEAAPEAXI@Z 0000000180004c00 f i CmCollection.obj
 0001:00003c00       ??_GPxCollection@physx@@MEAAPEAXI@Z 0000000180004c00 f i CmCollection.obj
 0001:00003c30       ?add@Collection@Cm@physx@@UEAAXAEAVPxBase@3@_K@Z 0000000180004c30 f   CmCollection.obj
 0001:00003d20       ?add@Collection@Cm@physx@@UEAAXAEAVPxCollection@3@@Z 0000000180004d20 f   CmCollection.obj
 0001:00003f40       ?addId@Collection@Cm@physx@@UEAAXAEAVPxBase@3@_K@Z 0000000180004f40 f   CmCollection.obj
 0001:00004080       ?contains@Collection@Cm@physx@@UEBA_NAEAVPxBase@3@@Z 0000000180005080 f   CmCollection.obj
 0001:00004130       ?create@?$PxHashBase@V?$PxPair@$$CB_KPEAVPxBase@physx@@@physx@@_KU?$PxHash@_K@2@UGetKey@?$PxHashMapBase@_KPEAVPxBase@physx@@U?$PxHash@_K@2@VPxAllocator@2@@2@VPxAllocator@2@$00@physx@@QEAAPEAV?$PxPair@$$CB_KPEAVPxBase@physx@@@2@AEB_KAEA_N@Z 0000000180005130 f i CmCollection.obj
 0001:00004130       ?create@?$PxHashBase@V?$PxPair@QEAVPxBase@physx@@_K@physx@@PEAVPxBase@2@U?$PxHash@PEAVPxBase@physx@@@2@UGetKey@?$PxHashMapBase@PEAVPxBase@physx@@_KU?$PxHash@PEAVPxBase@physx@@@2@VPxAllocator@2@@2@VPxAllocator@2@$00@physx@@QEAAPEAV?$PxPair@QEAVPxBase@physx@@_K@2@AEBQEAVPxBase@2@AEA_N@Z 0000000180005130 f i CmCollection.obj
 0001:000042c0       ?erase@?$PxHashBase@V?$PxPair@$$CB_KPEAVPxBase@physx@@@physx@@_KU?$PxHash@_K@2@UGetKey@?$PxHashMapBase@_KPEAVPxBase@physx@@U?$PxHash@_K@2@VPxAllocator@2@@2@VPxAllocator@2@$00@physx@@QEAA_NAEB_K@Z 00000001800052c0 f i CmCollection.obj
 0001:000042c0       ?erase@?$PxHashBase@V?$PxPair@QEAVPxBase@physx@@_K@physx@@PEAVPxBase@2@U?$PxHash@PEAVPxBase@physx@@@2@UGetKey@?$PxHashMapBase@PEAVPxBase@physx@@_KU?$PxHash@PEAVPxBase@physx@@@2@VPxAllocator@2@@2@VPxAllocator@2@$00@physx@@QEAA_NAEBQEAVPxBase@2@@Z 00000001800052c0 f i CmCollection.obj
 0001:00004470       ?find@?$PxHashMapBase@PEAVPxBase@physx@@_KU?$PxHash@PEAVPxBase@physx@@@2@VPxAllocator@2@@physx@@QEBAPEBV?$PxPair@QEAVPxBase@physx@@_K@2@AEBQEAVPxBase@2@@Z 0000000180005470 f i CmCollection.obj
 0001:00004470       ?find@?$PxHashMapBase@_KPEAVPxBase@physx@@U?$PxHash@_K@2@VPxAllocator@2@@physx@@QEBAPEBV?$PxPair@$$CB_KPEAVPxBase@physx@@@2@AEB_K@Z 0000000180005470 f i CmCollection.obj
 0001:00004510       ?find@Collection@Cm@physx@@UEBAPEAVPxBase@3@_K@Z 0000000180005510 f   CmCollection.obj
 0001:00004570       ?getId@Collection@Cm@physx@@UEBA_KAEBVPxBase@3@@Z 0000000180005570 f   CmCollection.obj
 0001:00004620       ?getIds@Collection@Cm@physx@@UEBAIPEA_KII@Z 0000000180005620 f   CmCollection.obj
 0001:00004740       ?getNbIds@Collection@Cm@physx@@UEBAIXZ 0000000180005740 f   CmCollection.obj
 0001:00004750       ?getNbObjects@Collection@Cm@physx@@UEBAIXZ 0000000180005750 f   CmCollection.obj
 0001:00004760       ?getObject@Collection@Cm@physx@@UEBAAEAVPxBase@3@I@Z 0000000180005760 f   CmCollection.obj
 0001:00004770       ?getObjects@Collection@Cm@physx@@UEBAIPEAPEAVPxBase@3@II@Z 0000000180005770 f   CmCollection.obj
 0001:00004810       ?insert@?$PxHashMapBase@_KPEAVPxBase@physx@@U?$PxHash@_K@2@VPxAllocator@2@@physx@@QEAA_N_KQEAVPxBase@2@@Z 0000000180005810 f i CmCollection.obj
 0001:00004860       ?release@Collection@Cm@physx@@UEAAXXZ 0000000180005860 f i CmCollection.obj
 0001:00004880       ?remove@Collection@Cm@physx@@UEAAXAEAVPxBase@3@@Z 0000000180005880 f   CmCollection.obj
 0001:000049c0       ?remove@Collection@Cm@physx@@UEAAXAEAVPxCollection@3@@Z 00000001800059c0 f   CmCollection.obj
 0001:00004b20       ?removeId@Collection@Cm@physx@@UEAAX_K@Z 0000000180005b20 f   CmCollection.obj
 0001:00004c10       ?reserveInternal@?$PxHashBase@V?$PxPair@$$CB_KPEAVPxBase@physx@@@physx@@_KU?$PxHash@_K@2@UGetKey@?$PxHashMapBase@_KPEAVPxBase@physx@@U?$PxHash@_K@2@VPxAllocator@2@@2@VPxAllocator@2@$00@physx@@AEAAXI@Z 0000000180005c10 f i CmCollection.obj
 0001:00004c10       ?reserveInternal@?$PxHashBase@V?$PxPair@QEAVPxBase@physx@@_K@physx@@PEAVPxBase@2@U?$PxHash@PEAVPxBase@physx@@@2@UGetKey@?$PxHashMapBase@PEAVPxBase@physx@@_KU?$PxHash@PEAVPxBase@physx@@@2@VPxAllocator@2@@2@VPxAllocator@2@$00@physx@@AEAAXI@Z 0000000180005c10 f i CmCollection.obj
 0001:00004df0       PxCreateCollection         0000000180005df0 f   CmCollection.obj
 0001:00004ee0       ??0RadixSort@Cm@physx@@QEAA@XZ 0000000180005ee0 f   CmRadixSort.obj
 0001:00004f10       ??0RadixSortBuffered@Cm@physx@@QEAA@XZ 0000000180005f10 f   CmRadixSort.obj
 0001:00004f40       ??1RadixSort@Cm@physx@@UEAA@XZ 0000000180005f40 f   CmRadixSort.obj
 0001:00004f50       ??1RadixSortBuffered@Cm@physx@@UEAA@XZ 0000000180005f50 f   CmRadixSort.obj
 0001:00004f80       ??_ERadixSort@Cm@physx@@UEAAPEAXI@Z 0000000180005f80 f i CmRadixSort.obj
 0001:00005010       ??_ERadixSortBuffered@Cm@physx@@UEAAPEAXI@Z 0000000180006010 f i CmRadixSort.obj
 0001:00005100       ?CheckResize@RadixSortBuffered@Cm@physx@@AEAAXI@Z 0000000180006100 f i CmRadixSort.obj
 0001:00005140       ?GetNbHits@RadixSort@Cm@physx@@QEBAIXZ 0000000180006140 f i CmRadixSort.obj
 0001:00005150       ?GetNbTotalCalls@RadixSort@Cm@physx@@QEBAIXZ 0000000180006150 f i CmRadixSort.obj
 0001:00005160       ?GetRanks@RadixSort@Cm@physx@@QEBAPEBIXZ 0000000180006160 f i CmRadixSort.obj
 0001:00005160       ?getGridModelInvMass@SoftBodyAuxData@Gu@physx@@UEAAPEAMXZ 0000000180006160 f i GuTetrahedronMesh.obj
 0001:00005160       ?getHeightField@HeightFieldUtil@Gu@physx@@QEBAAEBVHeightField@23@XZ 0000000180006160 f i GuCCTSweepTests.obj
 0001:00005160       ?getSimulationMesh@SoftBodyMesh@Gu@physx@@UEAAPEAVPxTetrahedronMesh@3@XZ 0000000180006160 f i GuTetrahedronMesh.obj
 0001:00005160       ?getSimulationMesh@SoftBodyMesh@Gu@physx@@UEBAPEBVPxTetrahedronMesh@3@XZ 0000000180006160 f i GuTetrahedronMesh.obj
 0001:00005170       ?GetRecyclable@RadixSort@Cm@physx@@QEBAPEAIXZ 0000000180006170 f i CmRadixSort.obj
 0001:00005170       ?GetValencies@BigConvexData@physx@@QEBAPEBUValency@Gu@2@XZ 0000000180006170 f i GuMetaData.obj
 0001:00005170       ?getCollisionMesh@SoftBodyMesh@Gu@physx@@UEAAPEAVPxTetrahedronMesh@3@XZ 0000000180006170 f i GuTetrahedronMesh.obj
 0001:00005170       ?getCollisionMesh@SoftBodyMesh@Gu@physx@@UEBAPEBVPxTetrahedronMesh@3@XZ 0000000180006170 f i GuTetrahedronMesh.obj
 0001:00005170       ?getHeightFieldGeometry@HeightFieldUtil@Gu@physx@@QEBAAEBVPxHeightFieldGeometry@3@XZ 0000000180006170 f i GuCCTSweepTests.obj
 0001:00005170       ?getObjects@PruningPool@Gu@physx@@QEBAPEAUPrunerPayload@23@XZ 0000000180006170 f i GuIncrementalAABBPrunerCore.obj
 0001:00005170       ?getPos@AABBTreeBuildNode@Gu@physx@@QEBAPEBV123@XZ 0000000180006170 f i GuMeshFactory.obj
 0001:00005170       ?getVertices@TetrahedronMesh@Gu@physx@@UEBAPEBV?$PxVec3T@M@3@XZ 0000000180006170 f i GuTetrahedronMesh.obj
 0001:00005170       ?getVertices@TriangleMesh@Gu@physx@@UEBAPEBV?$PxVec3T@M@3@XZ 0000000180006170 f i GuTriangleMesh.obj
 0001:00005180       ?Resize@RadixSortBuffered@Cm@physx@@AEAA_NI@Z 0000000180006180 f   CmRadixSort.obj
 0001:00005280       ?SetBuffers@RadixSort@Cm@physx@@QEAA_NPEAI00PEAPEAI@Z 0000000180006280 f   CmRadixSort.obj
 0001:000052c0       ?Sort@RadixSort@Cm@physx@@QEAAAEAV123@PEBIIW4RadixHint@23@@Z 00000001800062c0 f   CmRadixSort.obj
 0001:00005970       ?Sort@RadixSort@Cm@physx@@QEAAAEAV123@PEBMI@Z 0000000180006970 f   CmRadixSort.obj
 0001:00006110       ?Sort@RadixSortBuffered@Cm@physx@@QEAAAEAV123@PEBIIW4RadixHint@23@@Z 0000000180007110 f   CmRadixSort.obj
 0001:000061b0       ?Sort@RadixSortBuffered@Cm@physx@@QEAAAEAV123@PEBMI@Z 00000001800071b0 f   CmRadixSort.obj
 0001:00006240       ?invalidateRanks@RadixSort@Cm@physx@@QEAAXXZ 0000000180007240 f i CmRadixSort.obj
 0001:00006250       ?reset@RadixSortBuffered@Cm@physx@@QEAAXXZ 0000000180007250 f   CmRadixSort.obj
 0001:000062d0       ?ReadHeader@Cm@physx@@YA_NEEEEAEAIAEA_NAEAVPxInputStream@2@@Z 00000001800072d0 f   CmSerialize.obj
 0001:00006430       ?ReadIndices@Cm@physx@@YAXGIPEAGAEAVPxInputStream@2@_N@Z 0000000180007430 f   CmSerialize.obj
 0001:000065c0       ?StoreIndices@Cm@physx@@YAXGIPEBGAEAVPxOutputStream@2@_N@Z 00000001800075c0 f   CmSerialize.obj
 0001:000066b0       ?WriteHeader@Cm@physx@@YA_NEEEEI_NAEAVPxOutputStream@2@@Z 00000001800076b0 f   CmSerialize.obj
 0001:000067e0       ?computeMaxIndex@physx@@YAGPEBGI@Z 00000001800077e0 f   CmSerialize.obj
 0001:00006810       ?computeMaxIndex@physx@@YAIPEBII@Z 0000000180007810 f   CmSerialize.obj
 0001:00006840       ?readByteBuffer@physx@@YAXPEAEIAEAVPxInputStream@1@@Z 0000000180007840 f   CmSerialize.obj
 0001:00006840       ?writeByteBuffer@physx@@YAXPEBEIAEAVPxOutputStream@1@@Z 0000000180007840 f   CmSerialize.obj
 0001:00006860       ?readChunk@physx@@YAXAEAC000AEAVPxInputStream@1@@Z 0000000180007860 f   CmSerialize.obj
 0001:000068e0       ?readDword@physx@@YAI_NAEAVPxInputStream@1@@Z 00000001800078e0 f   CmSerialize.obj
 0001:00006940       ?readFloat@physx@@YAM_NAEAVPxInputStream@1@@Z 0000000180007940 f   CmSerialize.obj
 0001:000069a0       ?readFloatBuffer@physx@@YA_NPEAMI_NAEAVPxInputStream@1@@Z 00000001800079a0 f   CmSerialize.obj
 0001:00006a20       ?readHeader@physx@@YA_NCCCCAEAIAEA_NAEAVPxInputStream@1@@Z 0000000180007a20 f   CmSerialize.obj
 0001:00006b70       ?readIndices@physx@@YAXIIPEAIAEAVPxInputStream@1@_N@Z 0000000180007b70 f   CmSerialize.obj
 0001:00006ca0       ?readWord@physx@@YAG_NAEAVPxInputStream@1@@Z 0000000180007ca0 f   CmSerialize.obj
 0001:00006ce0       ?readWordBuffer@physx@@YAXPEAGI_NAEAVPxInputStream@1@@Z 0000000180007ce0 f   CmSerialize.obj
 0001:00006d50       ?storeIndices@physx@@YAXIIPEBIAEAVPxOutputStream@1@_N@Z 0000000180007d50 f   CmSerialize.obj
 0001:00006ee0       ?writeDword@physx@@YAXI_NAEAVPxOutputStream@1@@Z 0000000180007ee0 f   CmSerialize.obj
 0001:00006f30       ?writeFloat@physx@@YAXM_NAEAVPxOutputStream@1@@Z 0000000180007f30 f   CmSerialize.obj
 0001:00006f80       ?writeFloatBuffer@physx@@YAXPEBMI_NAEAVPxOutputStream@1@@Z 0000000180007f80 f   CmSerialize.obj
 0001:00007020       ?writeHeader@physx@@YA_NCCCCI_NAEAVPxOutputStream@1@@Z 0000000180008020 f   CmSerialize.obj
 0001:00007150       ?writeWord@physx@@YAXG_NAEAVPxOutputStream@1@@Z 0000000180008150 f   CmSerialize.obj
 0001:00007190       ?writeWordBuffer@physx@@YAXPEBGI_NAEAVPxOutputStream@1@@Z 0000000180008190 f   CmSerialize.obj
 0001:00007210       ??6PxRenderOutput@physx@@QEAAAEAV01@AEBV?$PxTransformT@M@1@@Z 0000000180008210 f i CmVisualization.obj
 0001:00007390       ??6PxRenderOutput@physx@@QEAAAEAV01@AEBV?$PxVec3T@M@1@@Z 0000000180008390 f i CmVisualization.obj
 0001:00007680       ?renderOutputDebugArrow@Cm@physx@@YAXAEAVPxRenderOutput@2@AEBUPxDebugArrow@2@@Z 0000000180008680 f   CmVisualization.obj
 0001:00007a20       ?renderOutputDebugBasis@Cm@physx@@YAXAEAVPxRenderOutput@2@AEBUPxDebugBasis@2@@Z 0000000180008a20 f   CmVisualization.obj
 0001:00007fb0       ?renderOutputDebugBox@Cm@physx@@YAXAEAVPxRenderOutput@2@AEBVPxBounds3@2@@Z 0000000180008fb0 f   CmVisualization.obj
 0001:00008220       ?renderOutputDebugCircle@Cm@physx@@YAXAEAVPxRenderOutput@2@IM@Z 0000000180009220 f   CmVisualization.obj
 0001:00008300       ?visualizeAngularLimit@Cm@physx@@YAXAEAVPxRenderOutput@2@MAEBV?$PxTransformT@M@2@MM@Z 0000000180009300 f   CmVisualization.obj
 0001:00008490       ?visualizeDoubleCone@Cm@physx@@YAXAEAVPxRenderOutput@2@MAEBV?$PxTransformT@M@2@M@Z 0000000180009490 f   CmVisualization.obj
 0001:000086b0       ?visualizeJointFrames@Cm@physx@@YAXAEAVPxRenderOutput@2@MAEBV?$PxTransformT@M@2@1@Z 00000001800096b0 f   CmVisualization.obj
 0001:000091b0       ?visualizeLimitCone@Cm@physx@@YAXAEAVPxRenderOutput@2@MAEBV?$PxTransformT@M@2@MM@Z 000000018000a1b0 f   CmVisualization.obj
 0001:000093e0       ?visualizeLinearLimit@Cm@physx@@YAXAEAVPxRenderOutput@2@MAEBV?$PxTransformT@M@2@1M@Z 000000018000a3e0 f   CmVisualization.obj
 0001:000099d0       ??0CmModuleUpdateLoader@Cm@physx@@QEAA@PEBD@Z 000000018000a9d0 f   CmWindowsModuleUpdateLoader.obj
 0001:00009a10       ??1CmModuleUpdateLoader@Cm@physx@@QEAA@XZ 000000018000aa10 f   CmWindowsModuleUpdateLoader.obj
 0001:00009a40       ?LoadModule@CmModuleUpdateLoader@Cm@physx@@QEAAPEAUHINSTANCE__@@PEBD0@Z 000000018000aa40 f   CmWindowsModuleUpdateLoader.obj
 0001:00009ab0       __local_stdio_printf_options 000000018000aab0 f i CmWindowsModuleUpdateLoader.obj
 0001:00009ac0       printf                     000000018000aac0 f i CmWindowsModuleUpdateLoader.obj
 0001:00009b20       ?commonDelayHook@@YAP6A_JXZIPEAUDelayLoadInfo@@@Z 000000018000ab20 f   CmWindowsDelayLoadHook.obj
 0001:00009c00       PxSetPhysXCommonDelayLoadHook 000000018000ac00 f   CmWindowsDelayLoadHook.obj
 0001:00009c10       ??0?$PxQuatT@M@physx@@QEAA@AEBV?$PxMat33T@M@1@@Z 000000018000ac10 f i GuBox.obj
 0001:00009e10       ??0Box@Gu@physx@@QEAA@AEBV012@@Z 000000018000ae10 f i GuBox.obj
 0001:00009e10       ??4Box@Gu@physx@@QEAAAEBV012@AEBV012@@Z 000000018000ae10 f i GuBox.obj
 0001:00009e70       ??0Box@Gu@physx@@QEAA@AEBV?$PxVec3T@M@2@0AEBV?$PxMat33T@M@2@@Z 000000018000ae70 f i GuBox.obj
 0001:00009ee0       ??0AABBTreeBuildNode@Gu@physx@@QEAA@XZ 000000018000aee0 f i GuMeshFactory.obj
 0001:00009ee0       ??0BigConvexData@physx@@QEAA@W4PxEMPTY@1@@Z 000000018000aee0 f i GuMetaData.obj
 0001:00009ee0       ??0Box@Gu@physx@@QEAA@XZ   000000018000aee0 f i GuBox.obj
 0001:00009ee0       ??0HeightFieldData@Gu@physx@@QEAA@W4PxEMPTY@2@@Z 000000018000aee0 f i GuCCTSweepTests.obj
 0001:00009ee0       ?getAABB@AABBTreeBuildNode@Gu@physx@@QEBAAEBVPxBounds3@3@XZ 000000018000aee0 f i GuMeshFactory.obj
 0001:00009ee0       ?getPaddedBounds@HeightFieldData@Gu@physx@@QEBAAEBVCenterExtentsPadded@23@XZ 000000018000aee0 f i GuCCTSweepTests.obj
 0001:00009ef0       ?computeAABBExtent@Box@Gu@physx@@QEBA?AV?$PxVec3T@M@3@XZ 000000018000aef0 f i GuBox.obj
 0001:00009fb0       ?computeBoxPoints@Box@Gu@physx@@QEBAXPEIAV?$PxVec3T@M@3@@Z 000000018000afb0 f i GuBox.obj
 0001:00009ff0       ?computeOBBPoints@Gu@physx@@YAXPEIAV?$PxVec3T@M@2@AEBV32@1111@Z 000000018000aff0 f   GuBox.obj
 0001:0000a270       ?create@Box@Gu@physx@@QEAAXAEBVCapsule@23@@Z 000000018000b270 f   GuBox.obj
 0001:0000a4a0       ?getBoxEdges@Gu@physx@@YAPEBEXZ 000000018000b4a0 f   GuBox.obj
 0001:0000a4b0       ?getTransform@Box@Gu@physx@@QEBA?AV?$PxTransformT@M@3@XZ 000000018000b4b0 f i GuBox.obj
 0001:0000a510       ?isValid@Box@Gu@physx@@QEBA_NXZ 000000018000b510 f i GuBox.obj
 0001:0000a530       ?rotate@Box@Gu@physx@@QEBA?AV?$PxVec3T@M@3@AEBV43@@Z 000000018000b530 f i GuBox.obj
 0001:0000a5c0       ?rotateInv@Box@Gu@physx@@QEBA?AV?$PxVec3T@M@3@AEBV43@@Z 000000018000b5c0 f i GuBox.obj
 0001:0000a650       ?setAxes@Box@Gu@physx@@QEAAXAEBV?$PxVec3T@M@3@00@Z 000000018000b650 f i GuBox.obj
 0001:0000a690       ?setEmpty@Box@Gu@physx@@QEAAXXZ 000000018000b690 f i GuBox.obj
 0001:0000a6d0       ?transform@Box@Gu@physx@@QEBA?AV?$PxVec3T@M@3@AEBV43@@Z 000000018000b6d0 f i GuBox.obj
 0001:0000a770       ?PxComputeBasisVectors@physx@@YAXAEBV?$PxVec3T@M@1@0AEAV21@11@Z 000000018000b770 f i GuCapsule.obj
 0001:0000a910       ?computeBoxAroundCapsule@Gu@physx@@YAXAEBVCapsule@12@AEAVBox@12@@Z 000000018000b910 f   GuCapsule.obj
 0001:0000aa60       ??0HeightFieldData@Gu@physx@@QEAA@$$QEAU012@@Z 000000018000ba60 f i GuCCTSweepTests.obj
 0001:0000aa60       ??0HeightFieldData@Gu@physx@@QEAA@AEBU012@@Z 000000018000ba60 f i GuCCTSweepTests.obj
 0001:0000aa60       ??4HeightFieldData@Gu@physx@@QEAAAEAU012@$$QEAU012@@Z 000000018000ba60 f i GuCCTSweepTests.obj
 0001:0000aa60       ??4HeightFieldData@Gu@physx@@QEAAAEAU012@AEBU012@@Z 000000018000ba60 f i GuCCTSweepTests.obj
 0001:0000aac0       ??0HeightFieldData@Gu@physx@@QEAA@XZ 000000018000bac0 f i GuCCTSweepTests.obj
 0001:0000aad0       ??0HeightFieldTraceUtil@Gu@physx@@QEAA@AEBVPxHeightFieldGeometry@2@@Z 000000018000bad0 f i GuCCTSweepTests.obj
 0001:0000aad0       ??0HeightFieldUtil@Gu@physx@@QEAA@AEBVPxHeightFieldGeometry@2@@Z 000000018000bad0 f i GuCCTSweepTests.obj
 0001:0000ab10       ??4AABBTreeBuildParams@Gu@physx@@QEAAAEAV012@AEBV012@@Z 000000018000bb10 f i GuMeshFactory.obj
 0001:0000ab10       ??4HeightFieldTraceUtil@Gu@physx@@QEAAAEAV012@$$QEAV012@@Z 000000018000bb10 f i GuCCTSweepTests.obj
 0001:0000ab10       ??4HeightFieldTraceUtil@Gu@physx@@QEAAAEAV012@AEBV012@@Z 000000018000bb10 f i GuCCTSweepTests.obj
 0001:0000ab10       ??4HeightFieldUtil@Gu@physx@@QEAAAEAV012@AEBV012@@Z 000000018000bb10 f i GuCCTSweepTests.obj
 0001:0000ab30       ??4HeightFieldUtil@Gu@physx@@QEAAAEAV012@$$QEAV012@@Z 000000018000bb30 f i GuCCTSweepTests.obj
 0001:0000ab90       ??_EEntityReport@Gu@physx@@UEAAPEAXI@Z 000000018000bb90 f i GuSweepsHF.obj
 0001:0000ab90       ??_EOverlapCallback@PxBVH@physx@@UEAAPEAXI@Z 000000018000bb90 f i GuQuerySystem.obj
 0001:0000ab90       ??_EOverlapReport@Gu@physx@@UEAAPEAXI@Z 000000018000bb90 f i GuCCTSweepTests.obj
 0001:0000ab90       ??_ERaycastCallback@PxBVH@physx@@UEAAPEAXI@Z 000000018000bb90 f i GuQuerySystem.obj
 0001:0000ab90       ??_ERemapCallback@RTreeCooker@physx@@UEAAPEAXI@Z 000000018000bb90 f i GuCookingTriangleMesh.obj
 0001:0000ab90       ??_GEntityReport@Gu@physx@@UEAAPEAXI@Z 000000018000bb90 f i GuSweepsHF.obj
 0001:0000ab90       ??_GOverlapCallback@PxBVH@physx@@UEAAPEAXI@Z 000000018000bb90 f i GuQuerySystem.obj
 0001:0000ab90       ??_GOverlapReport@Gu@physx@@UEAAPEAXI@Z 000000018000bb90 f i GuCCTSweepTests.obj
 0001:0000ab90       ??_GRaycastCallback@PxBVH@physx@@UEAAPEAXI@Z 000000018000bb90 f i GuQuerySystem.obj
 0001:0000ab90       ??_GRemapCallback@RTreeCooker@physx@@UEAAPEAXI@Z 000000018000bb90 f i GuCookingTriangleMesh.obj
 0001:0000abc0       ??_H@YAXPEAX_K1P6APEAX0@Z@Z 000000018000bbc0 f i GuCCTSweepTests.obj
 0001:0000ac10       ?ceilUp@HeightFieldTraceUtil@Gu@physx@@SAMM@Z 000000018000bc10 f i GuCCTSweepTests.obj
 0001:0000ac50       ?floorDown@HeightFieldTraceUtil@Gu@physx@@SAMM@Z 000000018000bc50 f i GuCCTSweepTests.obj
 0001:0000ac90       ?getHeightAtShapePoint@HeightFieldUtil@Gu@physx@@QEBAMMM@Z 000000018000bc90 f i GuCCTSweepTests.obj
 0001:0000acf0       ?getHeightInternal2@HeightField@Gu@physx@@QEBAMIMM@Z 000000018000bcf0 f i GuCCTSweepTests.obj
 0001:0000ae60       ?getNormalAtShapePoint@HeightFieldUtil@Gu@physx@@QEBA?AV?$PxVec3T@M@3@MM@Z 000000018000be60 f i GuCCTSweepTests.obj
 0001:0000af20       ?getNormal_2@HeightField@Gu@physx@@QEBA?AV?$PxVec3T@M@3@IMMMMM@Z 000000018000bf20 f i GuCCTSweepTests.obj
 0001:0000b040       ?getOneOverColumnScale@HeightFieldUtil@Gu@physx@@QEBAMXZ 000000018000c040 f i GuCCTSweepTests.obj
 0001:0000b050       ?getOneOverHeightScale@HeightFieldUtil@Gu@physx@@QEBAMXZ 000000018000c050 f i GuCCTSweepTests.obj
 0001:0000b060       ?getOneOverRowScale@HeightFieldUtil@Gu@physx@@QEBAMXZ 000000018000c060 f i GuCCTSweepTests.obj
 0001:0000b070       ?hf2shapen@HeightFieldUtil@Gu@physx@@QEBA?AV?$PxVec3T@M@3@AEBV43@@Z 000000018000c070 f i GuCCTSweepTests.obj
 0001:0000b070       ?shape2hfp@HeightFieldUtil@Gu@physx@@QEBA?AV?$PxVec3T@M@3@AEBV43@@Z 000000018000c070 f i GuCCTSweepTests.obj
 0001:0000b0b0       ?hf2shapep@HeightFieldUtil@Gu@physx@@QEBA?AV?$PxVec3T@M@3@AEBV43@@Z 000000018000c0b0 f i GuCCTSweepTests.obj
 0001:0000b0f0       ?hf2worldn@HeightFieldUtil@Gu@physx@@QEBA?AV?$PxVec3T@M@3@AEBV?$PxTransformT@M@3@AEBV43@@Z 000000018000c0f0 f i GuCCTSweepTests.obj
 0001:0000b260       ?hf2worldp@HeightFieldUtil@Gu@physx@@QEBA?AV?$PxVec3T@M@3@AEBV?$PxTransformT@M@3@AEBV43@@Z 000000018000c260 f i GuCCTSweepTests.obj
 0001:0000b3e0       ?overlapAABBTriangles0to1@HeightFieldUtil@Gu@physx@@QEBAXAEBV?$PxTransformT@M@3@AEBVPxBounds3@3@AEAVOverlapReport@23@I@Z 000000018000c3e0 f i GuCCTSweepTests.obj
 0001:0000b760       ?overlapAABBTriangles@HeightFieldUtil@Gu@physx@@QEBAXAEBV?$PxTransformT@M@3@0AEBVPxBounds3@3@AEAVOverlapReport@23@I@Z 000000018000c760 f i GuCCTSweepTests.obj
 0001:0000bd80       ?overlapAABBTriangles@HeightFieldUtil@Gu@physx@@QEBAXAEBV?$PxTransformT@M@3@AEBVPxBounds3@3@AEAVOverlapReport@23@I@Z 000000018000cd80 f i GuCCTSweepTests.obj
 0001:0000c430       ?sweepBoxTriangles_Precise@Gu@physx@@YA_NIPEBVPxTriangle@2@_NAEBVPxBoxGeometry@2@AEBV?$PxTransformT@M@2@AEBV?$PxVec3T@M@2@MAEAUPxGeomSweepHit@2@PEBIMV?$PxFlags@W4Enum@PxHitFlag@physx@@G@2@@Z 000000018000d430 f   GuCCTSweepTests.obj
 0001:0000d1c0       ?sweepBox_BoxGeom_Precise@@YA_NAEBVPxGeometry@physx@@AEBV?$PxTransformT@M@2@AEBVPxBoxGeometry@2@1AEBVBox@Gu@2@AEBV?$PxVec3T@M@2@MAEAUPxGeomSweepHit@2@V?$PxFlags@W4Enum@PxHitFlag@physx@@G@2@MPEAUPxQueryThreadContext@2@@Z 000000018000e1c0 f   GuCCTSweepTests.obj
 0001:0000d380       ?sweepBox_CapsuleGeom_Precise@@YA_NAEBVPxGeometry@physx@@AEBV?$PxTransformT@M@2@AEBVPxBoxGeometry@2@1AEBVBox@Gu@2@AEBV?$PxVec3T@M@2@MAEAUPxGeomSweepHit@2@V?$PxFlags@W4Enum@PxHitFlag@physx@@G@2@MPEAUPxQueryThreadContext@2@@Z 000000018000e380 f   GuCCTSweepTests.obj
 0001:0000d750       ?sweepBox_HeightFieldGeom_Precise@@YA_NAEBVPxGeometry@physx@@AEBV?$PxTransformT@M@2@AEBVPxBoxGeometry@2@1AEBVBox@Gu@2@AEBV?$PxVec3T@M@2@MAEAUPxGeomSweepHit@2@V?$PxFlags@W4Enum@PxHitFlag@physx@@G@2@MPEAUPxQueryThreadContext@2@@Z 000000018000e750 f   GuCCTSweepTests.obj
 0001:0000df50       ?sweepBox_SphereGeom_Precise@@YA_NAEBVPxGeometry@physx@@AEBV?$PxTransformT@M@2@AEBVPxBoxGeometry@2@1AEBVBox@Gu@2@AEBV?$PxVec3T@M@2@MAEAUPxGeomSweepHit@2@V?$PxFlags@W4Enum@PxHitFlag@physx@@G@2@MPEAUPxQueryThreadContext@2@@Z 000000018000ef50 f   GuCCTSweepTests.obj
 0001:0000e220       ?sweepCapsule_BoxGeom_Precise@@YA_NAEBVPxGeometry@physx@@AEBV?$PxTransformT@M@2@AEBVPxCapsuleGeometry@2@1AEBVCapsule@Gu@2@AEBV?$PxVec3T@M@2@MAEAUPxGeomSweepHit@2@V?$PxFlags@W4Enum@PxHitFlag@physx@@G@2@MPEAUPxQueryThreadContext@2@@Z 000000018000f220 f   GuCCTSweepTests.obj
 0001:0000e8b0       ??0?$CacheMap@UCachedEdge@Gu@physx@@$0IA@@Gu@physx@@QEAA@XZ 000000018000f8b0 f i GuGeometryQuery.obj
 0001:0000e970       ??0?$CacheMap@UCachedVertex@Gu@physx@@$0IA@@Gu@physx@@QEAA@XZ 000000018000f970 f i GuGeometryQuery.obj
 0001:0000ea30       ??0MultiplePersistentContactManifold@Gu@physx@@QEAA@XZ 000000018000fa30 f i GuGeometryQuery.obj
 0001:0000ea90       ??0PCMMeshContactGeneration@Gu@physx@@QEAA@AEBT__m128@@0AEBVPxTransformV@aos@2@1AEAVMultiplePersistentContactManifold@12@AEAVPxContactBuffer@2@PEAV?$PxInlineArray@I$0DMA@V?$PxReflectionAllocator@I@physx@@@2@PEAVPxRenderOutput@2@@Z 000000018000fa90 f i GuGeometryQuery.obj
 0001:0000f3c0       ??0PolygonalBox@Gu@physx@@QEAA@AEBV012@@Z 00000001800103c0 f i GuGeometryQuery.obj
 0001:0000f640       ??4MultiplePersistentContactManifold@Gu@physx@@QEAAAEAV012@$$QEAV012@@Z 0000000180010640 f i GuGeometryQuery.obj
 0001:0000f950       ??4MultiplePersistentContactManifold@Gu@physx@@QEAAAEAV012@AEBV012@@Z 0000000180010950 f i GuGeometryQuery.obj
 0001:0000f970       ??_E?$SupportLocalImpl@VBoxV@Gu@physx@@@Gu@physx@@UEAAPEAXI@Z 0000000180010970 f i GuGeometryQuery.obj
 0001:0000f970       ??_E?$SupportLocalImpl@VConvexHullNoScaleV@Gu@physx@@@Gu@physx@@UEAAPEAXI@Z 0000000180010970 f i GuMTD.obj
 0001:0000f970       ??_E?$SupportLocalImpl@VConvexHullV@Gu@physx@@@Gu@physx@@UEAAPEAXI@Z 0000000180010970 f i GuGeometryQuery.obj
 0001:0000f970       ??_E?$SupportLocalImpl@VTriangleV@Gu@physx@@@Gu@physx@@UEAAPEAXI@Z 0000000180010970 f i GuPCMContactConvexCommon.obj
 0001:0000f970       ??_G?$SupportLocalImpl@VBoxV@Gu@physx@@@Gu@physx@@UEAAPEAXI@Z 0000000180010970 f i GuGeometryQuery.obj
 0001:0000f970       ??_G?$SupportLocalImpl@VConvexHullNoScaleV@Gu@physx@@@Gu@physx@@UEAAPEAXI@Z 0000000180010970 f i GuMTD.obj
 0001:0000f970       ??_G?$SupportLocalImpl@VConvexHullV@Gu@physx@@@Gu@physx@@UEAAPEAXI@Z 0000000180010970 f i GuGeometryQuery.obj
 0001:0000f970       ??_G?$SupportLocalImpl@VTriangleV@Gu@physx@@@Gu@physx@@UEAAPEAXI@Z 0000000180010970 f i GuPCMContactConvexCommon.obj
 0001:0000f9a0       ??_ESupportLocal@Gu@physx@@UEAAPEAXI@Z 00000001800109a0 f i GuGeometryQuery.obj
 0001:0000f9a0       ??_GSupportLocal@Gu@physx@@UEAAPEAXI@Z 00000001800109a0 f i GuGeometryQuery.obj
 0001:0000f9d0       ?clearManifold@MultiplePersistentContactManifold@Gu@physx@@QEAAXXZ 00000001800109d0 f i GuGeometryQuery.obj
 0001:0000fa30       ?computeGeomBounds@PxGeometryQuery@physx@@SAXAEAVPxBounds3@2@AEBVPxGeometry@2@AEBV?$PxTransformT@M@2@MMV?$PxFlags@W4Enum@PxGeometryQueryFlag@physx@@I@2@@Z 0000000180010a30 f   GuGeometryQuery.obj
 0001:0000fb40       ?computePenetration@PxGeometryQuery@physx@@SA_NAEAV?$PxVec3T@M@2@AEAMAEBVPxGeometry@2@AEBV?$PxTransformT@M@2@23V?$PxFlags@W4Enum@PxGeometryQueryFlag@physx@@I@2@@Z 0000000180010b40 f   GuGeometryQuery.obj
 0001:0000fd50       ?doSupport@?$SupportLocalImpl@VBoxV@Gu@physx@@@Gu@physx@@UEBA?AT__m128@@AEBT4@@Z 0000000180010d50 f i GuGeometryQuery.obj
 0001:0000fd80       ?doSupport@?$SupportLocalImpl@VBoxV@Gu@physx@@@Gu@physx@@UEBAXAEBT__m128@@AEAT4@1@Z 0000000180010d80 f i GuGeometryQuery.obj
 0001:0000fdd0       ?doSupport@?$SupportLocalImpl@VConvexHullV@Gu@physx@@@Gu@physx@@UEBA?AT__m128@@AEBT4@@Z 0000000180010dd0 f i GuGeometryQuery.obj
 0001:0000feb0       ?doSupport@?$SupportLocalImpl@VConvexHullV@Gu@physx@@@Gu@physx@@UEBAXAEBT__m128@@AEAT4@1@Z 0000000180010eb0 f i GuGeometryQuery.obj
 0001:00010210       ?generateTriangleContacts@PxGeometryQuery@physx@@SA_NAEBVPxGeometry@2@AEBV?$PxTransformT@M@2@QEBV?$PxVec3T@M@2@IMMMAEAVPxContactBuffer@2@@Z 0000000180011210 f   GuGeometryQuery.obj
 0001:00011bd0       ?getEmptyManifold@MultiplePersistentContactManifold@Gu@physx@@QEAAPEAVSinglePersistentContactManifold@23@XZ 0000000180012bd0 f i GuGeometryQuery.obj
 0001:00011bf0       ?getManifold@MultiplePersistentContactManifold@Gu@physx@@QEAAPEAVSinglePersistentContactManifold@23@I@Z 0000000180012bf0 f i GuGeometryQuery.obj
 0001:00011bf0       ?getManifold@MultiplePersistentContactManifold@Gu@physx@@QEBAPEBVSinglePersistentContactManifold@23@I@Z 0000000180012bf0 f i GuGeometryQuery.obj
 0001:00011c10       ?getUniqueID@PxCustomGeometry@physx@@SAIXZ 0000000180012c10 f   GuGeometryQuery.obj
 0001:00011c30       ?hillClimbing@ConvexHullV@Gu@physx@@QEBAIAEBT__m128@@@Z 0000000180012c30 f i GuGeometryQuery.obj
 0001:00011e60       ?initialize@MultiplePersistentContactManifold@Gu@physx@@QEAAXXZ 0000000180012e60 f i GuGeometryQuery.obj
 0001:00011ec0       ?invalidate@MultiplePersistentContactManifold@Gu@physx@@QEBAIAEBVPxTransformV@aos@3@AEBT__m128@@1@Z 0000000180012ec0 f i GuGeometryQuery.obj
 0001:00011f30       ?invalidate@MultiplePersistentContactManifold@Gu@physx@@QEBAIAEBVPxTransformV@aos@3@AEBT__m128@@@Z 0000000180012f30 f i GuGeometryQuery.obj
 0001:00011fa0       ?isFinite@?$PxQuatT@M@physx@@QEBA_NXZ 0000000180012fa0 f i GuGeometryQuery.obj
 0001:00012010       ?isFinite@?$PxVec3T@M@physx@@QEBA_NXZ 0000000180013010 f i GuGeometryQuery.obj
 0001:00012070       ?isUnit@?$PxQuatT@M@physx@@QEBA_NXZ 0000000180013070 f i GuGeometryQuery.obj
 0001:000120e0       ?isValid@?$PxTransformT@M@physx@@QEBA_NXZ 00000001800130e0 f i GuGeometryQuery.obj
 0001:00012150       ?isValid@PxGeometryQuery@physx@@SA_NAEBVPxGeometry@2@@Z 0000000180013150 f   GuGeometryQuery.obj
 0001:00012440       ?maxTransformPositionDelta@MultiplePersistentContactManifold@Gu@physx@@QEBA?AT__m128@@AEBT4@@Z 0000000180013440 f i GuGeometryQuery.obj
 0001:00012480       ?maxTransformQuatDelta@MultiplePersistentContactManifold@Gu@physx@@QEBA?AT__m128@@AEBT4@@Z 0000000180013480 f i GuGeometryQuery.obj
 0001:000124c0       ?overlap@PxGeometryQuery@physx@@SA_NAEBVPxGeometry@2@AEBV?$PxTransformT@M@2@01V?$PxFlags@W4Enum@PxGeometryQueryFlag@physx@@I@2@PEAUPxQueryThreadContext@2@@Z 00000001800134c0 f   GuGeometryQuery.obj
 0001:00012610       ?pointDistance@PxGeometryQuery@physx@@SAMAEBV?$PxVec3T@M@2@AEBVPxGeometry@2@AEBV?$PxTransformT@M@2@PEAV32@PEAIV?$PxFlags@W4Enum@PxGeometryQueryFlag@physx@@I@2@@Z 0000000180013610 f   GuGeometryQuery.obj
 0001:00012e10       ?populateVerts@?$SupportLocalImpl@VBoxV@Gu@physx@@@Gu@physx@@UEBAXPEBEIPEBV?$PxVec3T@M@3@PEAT__m128@@@Z 0000000180013e10 f i GuGeometryQuery.obj
 0001:00012e50       ?populateVerts@?$SupportLocalImpl@VConvexHullV@Gu@physx@@@Gu@physx@@UEBAXPEBEIPEBV?$PxVec3T@M@3@PEAT__m128@@@Z 0000000180013e50 f i GuGeometryQuery.obj
 0001:00012eb0       ?raycast@PxGeometryQuery@physx@@SAIAEBV?$PxVec3T@M@2@0AEBVPxGeometry@2@AEBV?$PxTransformT@M@2@MV?$PxFlags@W4Enum@PxHitFlag@physx@@G@2@IPEIAUPxGeomRaycastHit@2@IV?$PxFlags@W4Enum@PxGeometryQueryFlag@physx@@I@2@PEAUPxQueryThreadContext@2@@Z 0000000180013eb0 f   GuGeometryQuery.obj
 0001:00013180       ?reduceManifoldContactsInDifferentPatches@MultiplePersistentContactManifold@Gu@physx@@QEBAIPEAPEAUPCMContactPatch@23@IPEAVMeshPersistentContact@23@IAEBT__m128@@@Z 0000000180014180 f i GuGeometryQuery.obj
 0001:000132f0       ?refineContactPatchConnective@MultiplePersistentContactManifold@Gu@physx@@QEBAXPEAPEAUPCMContactPatch@23@IPEAVMeshPersistentContact@23@AEBT__m128@@@Z 00000001800142f0 f i GuGeometryQuery.obj
 0001:000133e0       ?refreshManifold@MultiplePersistentContactManifold@Gu@physx@@QEAAXAEBVPxMatTransformV@aos@3@AEBT__m128@@1@Z 00000001800143e0 f i GuGeometryQuery.obj
 0001:000134e0       ?setRelativeTransform@MultiplePersistentContactManifold@Gu@physx@@QEAAXAEBVPxTransformV@aos@3@@Z 00000001800144e0 f i GuGeometryQuery.obj
 0001:000134f0       ?supportVertexIndex@ConvexHullV@Gu@physx@@QEBAIAEBT__m128@@@Z 00000001800144f0 f i GuGeometryQuery.obj
 0001:00013770       ?sweep@PxGeometryQuery@physx@@SA_NAEBV?$PxVec3T@M@2@MAEBVPxGeometry@2@AEBV?$PxTransformT@M@2@12AEAUPxGeomSweepHit@2@V?$PxFlags@W4Enum@PxHitFlag@physx@@G@2@MV?$PxFlags@W4Enum@PxGeometryQueryFlag@physx@@I@2@PEAUPxQueryThreadContext@2@@Z 0000000180014770 f   GuGeometryQuery.obj
 0001:00013d80       ?computeBoxPoints@Gu@physx@@YAXAEBVPxBounds3@2@PEIAV?$PxVec3T@M@2@@Z 0000000180014d80 f   GuInternal.obj
 0001:00013e20       ?computeSweptBox@Gu@physx@@YAXAEAVBox@12@AEBV?$PxVec3T@M@2@1AEBV?$PxMat33T@M@2@1M@Z 0000000180014e20 f   GuInternal.obj
 0001:00014360       ?getPlane@Gu@physx@@YA?AVPxPlane@2@AEBV?$PxTransformT@M@2@@Z 0000000180015360 f   GuInternal.obj
 0001:00014890       ??_ECallbackRaycast@RTree@Gu@physx@@UEAAPEAXI@Z 0000000180015890 f i GuMidphaseRTree.obj
 0001:00014890       ??_ECallbackRefit@RTree@Gu@physx@@UEAAPEAXI@Z 0000000180015890 f i GuTriangleMeshRTree.obj
 0001:00014890       ??_EPxInsertionCallback@physx@@MEAAPEAXI@Z 0000000180015890 f i GuMeshFactory.obj
 0001:00014890       ??_GCallbackRaycast@RTree@Gu@physx@@UEAAPEAXI@Z 0000000180015890 f i GuMidphaseRTree.obj
 0001:00014890       ??_GCallbackRefit@RTree@Gu@physx@@UEAAPEAXI@Z 0000000180015890 f i GuTriangleMeshRTree.obj
 0001:00014890       ??_GPxInsertionCallback@physx@@MEAAPEAXI@Z 0000000180015890 f i GuMeshFactory.obj
 0001:000148c0       ??$copy@V?$PxReflectionAllocator@USlab@NodeAllocator@Gu@physx@@@physx@@@?$PxArray@USlab@NodeAllocator@Gu@physx@@V?$PxReflectionAllocator@USlab@NodeAllocator@Gu@physx@@@4@@physx@@IEAAXAEBV01@@Z 00000001800158c0 f i GuMeshFactory.obj
 0001:00014980       ??0AABBTreeBounds@Gu@physx@@QEAA@XZ 0000000180015980 f i GuMeshFactory.obj
 0001:00014990       ??0AABBTreeBuildNode@Gu@physx@@QEAA@AEBV012@@Z 0000000180015990 f i GuMeshFactory.obj
 0001:00014990       ??4AABBTreeBuildNode@Gu@physx@@QEAAAEAV012@AEBV012@@Z 0000000180015990 f i GuMeshFactory.obj
 0001:000149d0       ??0AABBTreeBuildParams@Gu@physx@@QEAA@IIPEBVAABBTreeBounds@12@W4BVHBuildStrategy@12@@Z 00000001800159d0 f i GuMeshFactory.obj
 0001:000149f0       ??0MeshFactory@Gu@physx@@QEAA@XZ 00000001800159f0 f   GuMeshFactory.obj
 0001:00014bf0       ??0NodeAllocator@Gu@physx@@QEAA@AEBV012@@Z 0000000180015bf0 f i GuMeshFactory.obj
 0001:00014c30       ??0TriangleMeshData@Gu@physx@@QEAA@XZ 0000000180015c30 f i GuMeshFactory.obj
 0001:00014d40       ??1AABBTreeBounds@Gu@physx@@QEAA@XZ 0000000180015d40 f i GuMeshFactory.obj
 0001:00014d50       ??1AABBTreeBuildParams@Gu@physx@@QEAA@XZ 0000000180015d50 f i GuMeshFactory.obj
 0001:00014d50       ?reset@AABBTreeBuildParams@Gu@physx@@QEAAXXZ 0000000180015d50 f i GuMeshFactory.obj
 0001:00014da0       ??1CollisionMeshMappingData@Gu@physx@@UEAA@XZ 0000000180015da0 f i GuMeshFactory.obj
 0001:00014ef0       ??1MeshDataBase@Gu@physx@@UEAA@XZ 0000000180015ef0 f i GuMeshFactory.obj
 0001:00015030       ??1MeshFactory@Gu@physx@@MEAA@XZ 0000000180016030 f   GuMeshFactory.obj
 0001:00015170       ??1RTreeTriangleData@Gu@physx@@UEAA@XZ 0000000180016170 f i GuMeshFactory.obj
 0001:000151e0       ??1SoftBodyCollisionData@Gu@physx@@UEAA@XZ 00000001800161e0 f i GuMeshFactory.obj
 0001:00015320       ??1SoftBodySimulationData@Gu@physx@@UEAA@XZ 0000000180016320 f i GuMeshFactory.obj
 0001:00015440       ??1TetrahedronMeshData@Gu@physx@@QEAA@XZ 0000000180016440 f i GuMeshFactory.obj
 0001:000154d0       ??1TriangleMeshData@Gu@physx@@UEAA@XZ 00000001800164d0 f i GuMeshFactory.obj
 0001:00015600       ??4NodeAllocator@Gu@physx@@QEAAAEAV012@AEBV012@@Z 0000000180016600 f i GuMeshFactory.obj
 0001:000156b0       ??_EMeshFactory@Gu@physx@@MEAAPEAXI@Z 00000001800166b0 f i GuMeshFactory.obj
 0001:000157d0       ??_FAABBTreeBuildParams@Gu@physx@@QEAAXXZ 00000001800167d0 f i GuMeshFactory.obj
 0001:000157f0       ??_EBV4TriangleData@Gu@physx@@UEAAPEAXI@Z 00000001800167f0 f i GuMeshFactory.obj
 0001:000157f0       ??_GBV4TriangleData@Gu@physx@@UEAAPEAXI@Z 00000001800167f0 f i GuMeshFactory.obj
 0001:00015880       ??_ECollisionMeshMappingData@Gu@physx@@UEAAPEAXI@Z 0000000180016880 f i GuMeshFactory.obj
 0001:00015880       ??_GCollisionMeshMappingData@Gu@physx@@UEAAPEAXI@Z 0000000180016880 f i GuMeshFactory.obj
 0001:000158f0       ??_EMeshDataBase@Gu@physx@@UEAAPEAXI@Z 00000001800168f0 f i GuMeshFactory.obj
 0001:000158f0       ??_GMeshDataBase@Gu@physx@@UEAAPEAXI@Z 00000001800168f0 f i GuMeshFactory.obj
 0001:00015960       ??_EPxCollisionMeshMappingData@physx@@UEAAPEAXI@Z 0000000180016960 f i GuMeshFactory.obj
 0001:00015960       ??_GPxCollisionMeshMappingData@physx@@UEAAPEAXI@Z 0000000180016960 f i GuMeshFactory.obj
 0001:000159b0       ??_ERTreeTriangleData@Gu@physx@@UEAAPEAXI@Z 00000001800169b0 f i GuMeshFactory.obj
 0001:000159b0       ??_GRTreeTriangleData@Gu@physx@@UEAAPEAXI@Z 00000001800169b0 f i GuMeshFactory.obj
 0001:00015a60       ??_ESoftBodyCollisionData@Gu@physx@@UEAAPEAXI@Z 0000000180016a60 f i GuMeshFactory.obj
 0001:00015a60       ??_GSoftBodyCollisionData@Gu@physx@@UEAAPEAXI@Z 0000000180016a60 f i GuMeshFactory.obj
 0001:00015ad0       ??_ESoftBodySimulationData@Gu@physx@@UEAAPEAXI@Z 0000000180016ad0 f i GuMeshFactory.obj
 0001:00015ad0       ??_GSoftBodySimulationData@Gu@physx@@UEAAPEAXI@Z 0000000180016ad0 f i GuMeshFactory.obj
 0001:00015b40       ??_ETriangleMeshData@Gu@physx@@UEAAPEAXI@Z 0000000180016b40 f i GuMeshFactory.obj
 0001:00015b40       ??_GTriangleMeshData@Gu@physx@@UEAAPEAXI@Z 0000000180016b40 f i GuMeshFactory.obj
 0001:00015bb0       ??_V@YAXPEAX_K@Z           0000000180016bb0 f i LIBCMT:delete_array_size.obj
 0001:00015bb0       ?__global_delete@@YAXPEAX_K@Z 0000000180016bb0 f i GuMeshFactory.obj
 0001:00015bc0       ?addBVH@MeshFactory@Gu@physx@@QEAAXPEAVBVH@23@_N@Z 0000000180016bc0 f   GuMeshFactory.obj
 0001:00015c60       ?addConvexMesh@MeshFactory@Gu@physx@@QEAAXPEAVConvexMesh@23@_N@Z 0000000180016c60 f   GuMeshFactory.obj
 0001:00015d00       ?addFactoryListener@MeshFactory@Gu@physx@@QEAAXAEAVMeshFactoryListener@23@@Z 0000000180016d00 f   GuMeshFactory.obj
 0001:00015d70       ?addHeightField@MeshFactory@Gu@physx@@QEAAXPEAVHeightField@23@_N@Z 0000000180016d70 f   GuMeshFactory.obj
 0001:00015e10       ?addSoftBodyMesh@MeshFactory@Gu@physx@@QEAAXPEAVSoftBodyMesh@23@_N@Z 0000000180016e10 f   GuMeshFactory.obj
 0001:00015eb0       ?addTetrahedronMesh@MeshFactory@Gu@physx@@QEAAXPEAVTetrahedronMesh@23@_N@Z 0000000180016eb0 f   GuMeshFactory.obj
 0001:00015f50       ?addTriangleMesh@MeshFactory@Gu@physx@@QEAAXPEAVTriangleMesh@23@_N@Z 0000000180016f50 f   GuMeshFactory.obj
 0001:00015ff0       ?allocate@?$PxArray@USlab@NodeAllocator@Gu@physx@@V?$PxReflectionAllocator@USlab@NodeAllocator@Gu@physx@@@4@@physx@@IEAAPEAUSlab@NodeAllocator@Gu@2@I@Z 0000000180016ff0 f i GuMeshFactory.obj
 0001:000160a0       ?allocateAdjacencies@TriangleMeshData@Gu@physx@@QEAAPEAIXZ 00000001800170a0 f i GuMeshFactory.obj
 0001:00016110       ?allocateExtraTrigData@TriangleMeshData@Gu@physx@@QEAAPEAEXZ 0000000180017110 f i GuMeshFactory.obj
 0001:00016180       ?allocateFaceRemap@TriangleMeshData@Gu@physx@@QEAAPEAIXZ 0000000180017180 f i GuMeshFactory.obj
 0001:000161f0       ?allocateGridModelData@SoftBodySimulationData@Gu@physx@@QEAAXIIIIIII@Z 00000001800171f0 f i GuMeshFactory.obj
 0001:00016470       ?allocateMaterials@TetrahedronMeshData@Gu@physx@@QEAAPEAGXZ 0000000180017470 f i GuMeshFactory.obj
 0001:000164e0       ?allocateMaterials@TriangleMeshData@Gu@physx@@QEAAPEAGXZ 00000001800174e0 f i GuMeshFactory.obj
 0001:00016550       ?allocateTetrahedrons@TetrahedronMeshData@Gu@physx@@QEAAXII@Z 0000000180017550 f i GuMeshFactory.obj
 0001:000165e0       ?allocateTriangles@TriangleMeshData@Gu@physx@@QEAAPEAXI_NI@Z 00000001800175e0 f i GuMeshFactory.obj
 0001:000166d0       ?allocateVertices@MeshDataBase@Gu@physx@@QEAAPEAV?$PxVec3T@M@3@I@Z 00000001800176d0 f i GuMeshFactory.obj
 0001:00016740       ?allocateVertices@TetrahedronMeshData@Gu@physx@@QEAAPEAV?$PxVec3T@M@3@II@Z 0000000180017740 f i GuMeshFactory.obj
 0001:000167e0       ?allocatemappingData@CollisionMeshMappingData@Gu@physx@@QEAAXIIII@Z 00000001800177e0 f i GuMeshFactory.obj
 0001:000169c0       ?create@?$PxHashBase@PEAVBVH@Gu@physx@@PEAV123@U?$PxHash@PEAVBVH@Gu@physx@@@3@UGetKey@?$PxHashSetBase@PEAVBVH@Gu@physx@@U?$PxHash@PEAVBVH@Gu@physx@@@3@VPxAllocator@3@$00@3@VPxAllocator@3@$00@physx@@QEAAPEAPEAVBVH@Gu@2@AEBQEAV342@AEA_N@Z 00000001800179c0 f i GuMeshFactory.obj
 0001:000169c0       ?create@?$PxHashBase@PEAVConvexMesh@Gu@physx@@PEAV123@U?$PxHash@PEAVConvexMesh@Gu@physx@@@3@UGetKey@?$PxHashSetBase@PEAVConvexMesh@Gu@physx@@U?$PxHash@PEAVConvexMesh@Gu@physx@@@3@VPxAllocator@3@$00@3@VPxAllocator@3@$00@physx@@QEAAPEAPEAVConvexMesh@Gu@2@AEBQEAV342@AEA_N@Z 00000001800179c0 f i GuMeshFactory.obj
 0001:000169c0       ?create@?$PxHashBase@PEAVHeightField@Gu@physx@@PEAV123@U?$PxHash@PEAVHeightField@Gu@physx@@@3@UGetKey@?$PxHashSetBase@PEAVHeightField@Gu@physx@@U?$PxHash@PEAVHeightField@Gu@physx@@@3@VPxAllocator@3@$00@3@VPxAllocator@3@$00@physx@@QEAAPEAPEAVHeightField@Gu@2@AEBQEAV342@AEA_N@Z 00000001800179c0 f i GuMeshFactory.obj
 0001:000169c0       ?create@?$PxHashBase@PEAVSoftBodyMesh@Gu@physx@@PEAV123@U?$PxHash@PEAVSoftBodyMesh@Gu@physx@@@3@UGetKey@?$PxHashSetBase@PEAVSoftBodyMesh@Gu@physx@@U?$PxHash@PEAVSoftBodyMesh@Gu@physx@@@3@VPxAllocator@3@$00@3@VPxAllocator@3@$00@physx@@QEAAPEAPEAVSoftBodyMesh@Gu@2@AEBQEAV342@AEA_N@Z 00000001800179c0 f i GuMeshFactory.obj
 0001:000169c0       ?create@?$PxHashBase@PEAVTetrahedronMesh@Gu@physx@@PEAV123@U?$PxHash@PEAVTetrahedronMesh@Gu@physx@@@3@UGetKey@?$PxHashSetBase@PEAVTetrahedronMesh@Gu@physx@@U?$PxHash@PEAVTetrahedronMesh@Gu@physx@@@3@VPxAllocator@3@$00@3@VPxAllocator@3@$00@physx@@QEAAPEAPEAVTetrahedronMesh@Gu@2@AEBQEAV342@AEA_N@Z 00000001800179c0 f i GuMeshFactory.obj
 0001:000169c0       ?create@?$PxHashBase@PEAVTriangleMesh@Gu@physx@@PEAV123@U?$PxHash@PEAVTriangleMesh@Gu@physx@@@3@UGetKey@?$PxHashSetBase@PEAVTriangleMesh@Gu@physx@@U?$PxHash@PEAVTriangleMesh@Gu@physx@@@3@VPxAllocator@3@$00@3@VPxAllocator@3@$00@physx@@QEAAPEAPEAVTriangleMesh@Gu@2@AEBQEAV342@AEA_N@Z 00000001800179c0 f i GuMeshFactory.obj
 0001:00016b50       ?createBVH@MeshFactory@Gu@physx@@IEAAPEAVPxBVH@3@AEAVBVHData@23@@Z 0000000180017b50 f   GuMeshFactory.obj
 0001:00016cb0       ?createBVH@MeshFactory@Gu@physx@@QEAAPEAVPxBVH@3@AEAVPxInputStream@3@@Z 0000000180017cb0 f   GuMeshFactory.obj
 0001:00016e20       ?createBVH@MeshFactory@Gu@physx@@QEAAPEAVPxBVH@3@PEAX@Z 0000000180017e20 f   GuMeshFactory.obj
 0001:00016e30       ?createConvexMesh@MeshFactory@Gu@physx@@IEAAPEAVPxConvexMesh@3@AEAUConvexHullInitData@23@@Z 0000000180017e30 f   GuMeshFactory.obj
 0001:00016f70       ?createConvexMesh@MeshFactory@Gu@physx@@QEAAPEAVPxConvexMesh@3@AEAVPxInputStream@3@@Z 0000000180017f70 f   GuMeshFactory.obj
 0001:000170d0       ?createConvexMesh@MeshFactory@Gu@physx@@QEAAPEAVPxConvexMesh@3@PEAX@Z 00000001800180d0 f   GuMeshFactory.obj
 0001:000170e0       ?createHeightField@MeshFactory@Gu@physx@@QEAAPEAVPxHeightField@3@AEAVPxInputStream@3@@Z 00000001800180e0 f   GuMeshFactory.obj
 0001:00017250       ?createHeightField@MeshFactory@Gu@physx@@QEAAPEAVPxHeightField@3@PEAX@Z 0000000180018250 f   GuMeshFactory.obj
 0001:000173b0       ?createSoftBodyMesh@MeshFactory@Gu@physx@@IEAAPEAVPxSoftBodyMesh@3@AEAVSoftBodyMeshData@23@@Z 00000001800183b0 f   GuMeshFactory.obj
 0001:000174f0       ?createSoftBodyMesh@MeshFactory@Gu@physx@@QEAAPEAVPxSoftBodyMesh@3@AEAVPxInputStream@3@@Z 00000001800184f0 f   GuMeshFactory.obj
 0001:00017af0       ?createSoftBodyMesh@MeshFactory@Gu@physx@@QEAAPEAVPxSoftBodyMesh@3@PEAX@Z 0000000180018af0 f   GuMeshFactory.obj
 0001:00017b00       ?createTetrahedronMesh@MeshFactory@Gu@physx@@IEAAPEAVPxTetrahedronMesh@3@AEAVTetrahedronMeshData@23@@Z 0000000180018b00 f   GuMeshFactory.obj
 0001:00017c50       ?createTetrahedronMesh@MeshFactory@Gu@physx@@QEAAPEAVPxTetrahedronMesh@3@AEAVPxInputStream@3@@Z 0000000180018c50 f   GuMeshFactory.obj
 0001:00017cc0       ?createTetrahedronMesh@MeshFactory@Gu@physx@@QEAAPEAVPxTetrahedronMesh@3@PEAX@Z 0000000180018cc0 f   GuMeshFactory.obj
 0001:00017cd0       ?createTriangleMesh@MeshFactory@Gu@physx@@IEAAPEAVPxTriangleMesh@3@AEAVTriangleMeshData@23@@Z 0000000180018cd0 f   GuMeshFactory.obj
 0001:00017ec0       ?createTriangleMesh@MeshFactory@Gu@physx@@QEAAPEAVPxTriangleMesh@3@AEAVPxInputStream@3@@Z 0000000180018ec0 f   GuMeshFactory.obj
 0001:00017f20       ?createTriangleMesh@MeshFactory@Gu@physx@@QEAAPEAVPxTriangleMesh@3@PEAX@Z 0000000180018f20 f   GuMeshFactory.obj
 0001:00017f30       ?erase@?$PxHashBase@PEAVBVH@Gu@physx@@PEAV123@U?$PxHash@PEAVBVH@Gu@physx@@@3@UGetKey@?$PxHashSetBase@PEAVBVH@Gu@physx@@U?$PxHash@PEAVBVH@Gu@physx@@@3@VPxAllocator@3@$00@3@VPxAllocator@3@$00@physx@@QEAA_NAEBQEAVBVH@Gu@2@@Z 0000000180018f30 f i GuMeshFactory.obj
 0001:00017f30       ?erase@?$PxHashBase@PEAVConvexMesh@Gu@physx@@PEAV123@U?$PxHash@PEAVConvexMesh@Gu@physx@@@3@UGetKey@?$PxHashSetBase@PEAVConvexMesh@Gu@physx@@U?$PxHash@PEAVConvexMesh@Gu@physx@@@3@VPxAllocator@3@$00@3@VPxAllocator@3@$00@physx@@QEAA_NAEBQEAVConvexMesh@Gu@2@@Z 0000000180018f30 f i GuMeshFactory.obj
 0001:00017f30       ?erase@?$PxHashBase@PEAVHeightField@Gu@physx@@PEAV123@U?$PxHash@PEAVHeightField@Gu@physx@@@3@UGetKey@?$PxHashSetBase@PEAVHeightField@Gu@physx@@U?$PxHash@PEAVHeightField@Gu@physx@@@3@VPxAllocator@3@$00@3@VPxAllocator@3@$00@physx@@QEAA_NAEBQEAVHeightField@Gu@2@@Z 0000000180018f30 f i GuMeshFactory.obj
 0001:00017f30       ?erase@?$PxHashBase@PEAVSoftBodyMesh@Gu@physx@@PEAV123@U?$PxHash@PEAVSoftBodyMesh@Gu@physx@@@3@UGetKey@?$PxHashSetBase@PEAVSoftBodyMesh@Gu@physx@@U?$PxHash@PEAVSoftBodyMesh@Gu@physx@@@3@VPxAllocator@3@$00@3@VPxAllocator@3@$00@physx@@QEAA_NAEBQEAVSoftBodyMesh@Gu@2@@Z 0000000180018f30 f i GuMeshFactory.obj
 0001:00017f30       ?erase@?$PxHashBase@PEAVTetrahedronMesh@Gu@physx@@PEAV123@U?$PxHash@PEAVTetrahedronMesh@Gu@physx@@@3@UGetKey@?$PxHashSetBase@PEAVTetrahedronMesh@Gu@physx@@U?$PxHash@PEAVTetrahedronMesh@Gu@physx@@@3@VPxAllocator@3@$00@3@VPxAllocator@3@$00@physx@@QEAA_NAEBQEAVTetrahedronMesh@Gu@2@@Z 0000000180018f30 f i GuMeshFactory.obj
 0001:00017f30       ?erase@?$PxHashBase@PEAVTriangleMesh@Gu@physx@@PEAV123@U?$PxHash@PEAVTriangleMesh@Gu@physx@@@3@UGetKey@?$PxHashSetBase@PEAVTriangleMesh@Gu@physx@@U?$PxHash@PEAVTriangleMesh@Gu@physx@@@3@VPxAllocator@3@$00@3@VPxAllocator@3@$00@physx@@QEAA_NAEBQEAVTriangleMesh@Gu@2@@Z 0000000180018f30 f i GuMeshFactory.obj
 0001:000180b0       ?getBVHs@MeshFactory@Gu@physx@@QEBAIPEAPEAVPxBVH@3@II@Z 00000001800190b0 f   GuMeshFactory.obj
 0001:00018150       ?getBounds@AABBTreeBounds@Gu@physx@@QEAAPEAVPxBounds3@3@XZ 0000000180019150 f i GuMeshFactory.obj
 0001:00018150       ?getBounds@AABBTreeBounds@Gu@physx@@QEBAPEBVPxBounds3@3@XZ 0000000180019150 f i GuMeshFactory.obj
 0001:00018160       ?getConvexMeshes@MeshFactory@Gu@physx@@QEBAIPEAPEAVPxConvexMesh@3@II@Z 0000000180019160 f   GuMeshFactory.obj
 0001:00018200       ?getHeightFields@MeshFactory@Gu@physx@@QEBAIPEAPEAVPxHeightField@3@II@Z 0000000180019200 f   GuMeshFactory.obj
 0001:000182a0       ?getNbBVHs@MeshFactory@Gu@physx@@QEBAIXZ 00000001800192a0 f   GuMeshFactory.obj
 0001:000182e0       ?getNbConvexMeshes@MeshFactory@Gu@physx@@QEBAIXZ 00000001800192e0 f   GuMeshFactory.obj
 0001:00018320       ?getNbHeightFields@MeshFactory@Gu@physx@@QEBAIXZ 0000000180019320 f   GuMeshFactory.obj
 0001:00018360       ?getNbPrimitives@AABBTreeBuildNode@Gu@physx@@QEBAIXZ 0000000180019360 f i GuMeshFactory.obj
 0001:00018360       ?getNbRuntimePrimitives@AABBTreeBuildNode@Gu@physx@@QEBAIXZ 0000000180019360 f i GuMeshFactory.obj
 0001:00018370       ?getNbSoftBodyMeshes@MeshFactory@Gu@physx@@QEBAIXZ 0000000180019370 f   GuMeshFactory.obj
 0001:000183b0       ?getNbTetrahedronMeshes@MeshFactory@Gu@physx@@QEBAIXZ 00000001800193b0 f   GuMeshFactory.obj
 0001:000183f0       ?getNbTriangleMeshes@MeshFactory@Gu@physx@@QEBAIXZ 00000001800193f0 f   GuMeshFactory.obj
 0001:00018430       ?getNeg@AABBTreeBuildNode@Gu@physx@@QEBAPEBV123@XZ 0000000180019430 f i GuMeshFactory.obj
 0001:00018450       ?getPrimitives@AABBTreeBuildNode@Gu@physx@@QEAAPEAIPEAI@Z 0000000180019450 f i GuMeshFactory.obj
 0001:00018450       ?getPrimitives@AABBTreeBuildNode@Gu@physx@@QEBAPEBIPEBI@Z 0000000180019450 f i GuMeshFactory.obj
 0001:00018460       ?getSoftBodyMeshes@MeshFactory@Gu@physx@@QEBAIPEAPEAVPxSoftBodyMesh@3@II@Z 0000000180019460 f   GuMeshFactory.obj
 0001:00018500       ?getTetrahedronMeshes@MeshFactory@Gu@physx@@QEBAIPEAPEAVPxTetrahedronMesh@3@II@Z 0000000180019500 f   GuMeshFactory.obj
 0001:00018590       ?getTriangleMeshes@MeshFactory@Gu@physx@@QEBAIPEAPEAVPxTriangleMesh@3@II@Z 0000000180019590 f   GuMeshFactory.obj
 0001:00018620       ?growAndPushBack@?$PxArray@PEAVMeshFactoryListener@Gu@physx@@V?$PxReflectionAllocator@PEAVMeshFactoryListener@Gu@physx@@@3@@physx@@IEAAAEAPEAVMeshFactoryListener@Gu@2@AEBQEAV342@@Z 0000000180019620 f i GuMeshFactory.obj
 0001:00018750       ?isLeaf@AABBTreeBuildNode@Gu@physx@@QEBA_NXZ 0000000180019750 f i GuMeshFactory.obj
 0001:0001a210       ?moveFrom@AABBTreeBounds@Gu@physx@@QEAAXAEAV123@@Z 000000018001b210 f i GuMeshFactory.obj
 0001:0001a220       ?notifyFactoryListener@MeshFactory@Gu@physx@@QEAAXPEBVPxBase@3@G@Z 000000018001b220 f   GuMeshFactory.obj
 0001:0001a290       ?notifyListenersAdd@MeshFactory@Gu@physx@@IEAAXPEBVPxBase@3@@Z 000000018001b290 f   GuMeshFactory.obj
 0001:0001a2e0       ?notifyListenersRemove@MeshFactory@Gu@physx@@IEAAXPEBVPxBase@3@@Z 000000018001b2e0 f   GuMeshFactory.obj
 0001:0001a330       ?ownsMemory@AABBTreeBounds@Gu@physx@@QEBA_NXZ 000000018001b330 f i GuMeshFactory.obj
 0001:0001a610       ?recreate@?$PxArray@USlab@NodeAllocator@Gu@physx@@V?$PxReflectionAllocator@USlab@NodeAllocator@Gu@physx@@@4@@physx@@IEAAXI@Z 000000018001b610 f i GuMeshFactory.obj
 0001:0001a6c0       ?release@CollisionMeshMappingData@Gu@physx@@UEAAXXZ 000000018001b6c0 f i GuMeshFactory.obj
 0001:0001a6e0       ?release@MeshFactory@Gu@physx@@QEAAXXZ 000000018001b6e0 f   GuMeshFactory.obj
 0001:0001a7e0       ?remove@MeshFactory@Gu@physx@@QEAA_NAEAVPxBase@3@@Z 000000018001b7e0 f   GuMeshFactory.obj
 0001:0001a830       ?removeBVH@MeshFactory@Gu@physx@@QEAA_NAEAVPxBVH@3@@Z 000000018001b830 f   GuMeshFactory.obj
 0001:0001a8c0       ?removeConvexMesh@MeshFactory@Gu@physx@@QEAA_NAEAVPxConvexMesh@3@@Z 000000018001b8c0 f   GuMeshFactory.obj
 0001:0001a950       ?removeFactoryListener@MeshFactory@Gu@physx@@QEAAXAEAVMeshFactoryListener@23@@Z 000000018001b950 f   GuMeshFactory.obj
 0001:0001a9e0       ?removeHeightField@MeshFactory@Gu@physx@@QEAA_NAEAVPxHeightField@3@@Z 000000018001b9e0 f   GuMeshFactory.obj
 0001:0001aa70       ?removeSoftBodyMesh@MeshFactory@Gu@physx@@QEAA_NAEAVPxSoftBodyMesh@3@@Z 000000018001ba70 f   GuMeshFactory.obj
 0001:0001ab00       ?removeTetrahedronMesh@MeshFactory@Gu@physx@@QEAA_NAEAVPxTetrahedronMesh@3@@Z 000000018001bb00 f   GuMeshFactory.obj
 0001:0001ab90       ?removeTriangleMesh@MeshFactory@Gu@physx@@QEAA_NAEAVPxTriangleMesh@3@@Z 000000018001bb90 f   GuMeshFactory.obj
 0001:0001ac20       ?reserveInternal@?$PxHashBase@PEAVBVH@Gu@physx@@PEAV123@U?$PxHash@PEAVBVH@Gu@physx@@@3@UGetKey@?$PxHashSetBase@PEAVBVH@Gu@physx@@U?$PxHash@PEAVBVH@Gu@physx@@@3@VPxAllocator@3@$00@3@VPxAllocator@3@$00@physx@@AEAAXI@Z 000000018001bc20 f i GuMeshFactory.obj
 0001:0001ac20       ?reserveInternal@?$PxHashBase@PEAVConvexMesh@Gu@physx@@PEAV123@U?$PxHash@PEAVConvexMesh@Gu@physx@@@3@UGetKey@?$PxHashSetBase@PEAVConvexMesh@Gu@physx@@U?$PxHash@PEAVConvexMesh@Gu@physx@@@3@VPxAllocator@3@$00@3@VPxAllocator@3@$00@physx@@AEAAXI@Z 000000018001bc20 f i GuMeshFactory.obj
 0001:0001ac20       ?reserveInternal@?$PxHashBase@PEAVHeightField@Gu@physx@@PEAV123@U?$PxHash@PEAVHeightField@Gu@physx@@@3@UGetKey@?$PxHashSetBase@PEAVHeightField@Gu@physx@@U?$PxHash@PEAVHeightField@Gu@physx@@@3@VPxAllocator@3@$00@3@VPxAllocator@3@$00@physx@@AEAAXI@Z 000000018001bc20 f i GuMeshFactory.obj
 0001:0001ac20       ?reserveInternal@?$PxHashBase@PEAVSoftBodyMesh@Gu@physx@@PEAV123@U?$PxHash@PEAVSoftBodyMesh@Gu@physx@@@3@UGetKey@?$PxHashSetBase@PEAVSoftBodyMesh@Gu@physx@@U?$PxHash@PEAVSoftBodyMesh@Gu@physx@@@3@VPxAllocator@3@$00@3@VPxAllocator@3@$00@physx@@AEAAXI@Z 000000018001bc20 f i GuMeshFactory.obj
 0001:0001ac20       ?reserveInternal@?$PxHashBase@PEAVTetrahedronMesh@Gu@physx@@PEAV123@U?$PxHash@PEAVTetrahedronMesh@Gu@physx@@@3@UGetKey@?$PxHashSetBase@PEAVTetrahedronMesh@Gu@physx@@U?$PxHash@PEAVTetrahedronMesh@Gu@physx@@@3@VPxAllocator@3@$00@3@VPxAllocator@3@$00@physx@@AEAAXI@Z 000000018001bc20 f i GuMeshFactory.obj
 0001:0001ac20       ?reserveInternal@?$PxHashBase@PEAVTriangleMesh@Gu@physx@@PEAV123@U?$PxHash@PEAVTriangleMesh@Gu@physx@@@3@UGetKey@?$PxHashSetBase@PEAVTriangleMesh@Gu@physx@@U?$PxHash@PEAVTriangleMesh@Gu@physx@@@3@VPxAllocator@3@$00@3@VPxAllocator@3@$00@physx@@AEAAXI@Z 000000018001bc20 f i GuMeshFactory.obj
 0001:0001adf0       ?setBounds@AABBTreeBounds@Gu@physx@@QEAAXPEAVPxBounds3@3@@Z 000000018001bdf0 f i GuMeshFactory.obj
 0001:0001ae00       ?setNbRunTimePrimitives@AABBTreeBuildNode@Gu@physx@@QEAAXI@Z 000000018001be00 f i GuMeshFactory.obj
 0001:0001ae10       ?takeOwnership@AABBTreeBounds@Gu@physx@@QEAAXXZ 000000018001be10 f i GuMeshFactory.obj
 0001:0001ae20       getInsertionCallback       000000018001be20 f   GuMeshFactory.obj
 0001:0001ae30       ??4BigConvexData@physx@@QEAAAEAV01@AEBV01@@Z 000000018001be30 f i GuMetaData.obj
 0001:0001ae50       ?GetAdjacentVerts@BigConvexData@physx@@QEBAPEBEXZ 000000018001be50 f i GuMetaData.obj
 0001:0001ae50       ?getSoftBodyAuxData@SoftBodyMesh@Gu@physx@@UEAAPEAVPxSoftBodyAuxData@3@XZ 000000018001be50 f i GuTetrahedronMesh.obj
 0001:0001ae50       ?getSoftBodyAuxData@SoftBodyMesh@Gu@physx@@UEBAPEBVPxSoftBodyAuxData@3@XZ 000000018001be50 f i GuTetrahedronMesh.obj
 0001:0001ae50       ?getTransforms@PruningPool@Gu@physx@@QEAAPEAV?$PxTransformT@M@3@XZ 000000018001be50 f i GuIncrementalAABBPrunerCore.obj
 0001:0001ae50       ?getTransforms@PruningPool@Gu@physx@@QEBAPEBV?$PxTransformT@M@3@XZ 000000018001be50 f i GuIncrementalAABBPrunerCore.obj
 0001:0001ae50       ?getTriangles@TriangleMesh@Gu@physx@@UEBAPEBXXZ 000000018001be50 f i GuTriangleMesh.obj
 0001:0001ae60       ?GetNbNeighbors@BigConvexData@physx@@QEBAGI@Z 000000018001be60 f i GuMetaData.obj
 0001:0001ae60       ?GetValency@BigConvexData@physx@@QEBAGI@Z 000000018001be60 f i GuMetaData.obj
 0001:0001ae70       ?GetNbSamples@BigConvexData@physx@@QEBAIXZ 000000018001be70 f i GuMetaData.obj
 0001:0001ae80       ?GetNbVerts@BigConvexData@physx@@QEBAIXZ 000000018001be80 f i GuMetaData.obj
 0001:0001ae80       ?getNbVertices@TetrahedronMesh@Gu@physx@@UEBAIXZ 000000018001be80 f i GuTetrahedronMesh.obj
 0001:0001ae80       ?getNbVertices@TriangleMesh@Gu@physx@@UEBAIXZ 000000018001be80 f i GuTriangleMesh.obj
 0001:0001ae80       ?length@pcharNode@@UEBAHXZ 000000018001be80 f i libvcruntime:undname.obj
 0001:0001ae80       ?raw_length@pcharNode@@UEBAHXZ 000000018001be80 f i libvcruntime:undname.obj
 0001:0001ae90       ?GetNeighbors@BigConvexData@physx@@QEBAPEBEI@Z 000000018001be90 f i GuMetaData.obj
 0001:0001aea0       ?GetOffset@BigConvexData@physx@@QEBAGI@Z 000000018001bea0 f i GuMetaData.obj
 0001:0001aeb0       ?GetSubdiv@BigConvexData@physx@@QEBAIXZ 000000018001beb0 f i GuMetaData.obj
 0001:0001aec0       ?getBinaryMetaData@BV4Tree@Gu@physx@@SAXAEAVPxOutputStream@3@@Z 000000018001bec0 f   GuMetaData.obj
 0001:0001b460       ?getBinaryMetaData@BV4TriangleMesh@Gu@physx@@SAXAEAVPxOutputStream@3@@Z 000000018001c460 f   GuMetaData.obj
 0001:0001b7e0       ?getBinaryMetaData@BigConvexData@physx@@SAXAEAVPxOutputStream@2@@Z 000000018001c7e0 f   GuMetaData.obj
 0001:0001baa0       ?getBinaryMetaData@ConvexMesh@Gu@physx@@SAXAEAVPxOutputStream@3@@Z 000000018001caa0 f   GuMetaData.obj
 0001:0001c130       ?getBinaryMetaData@HeightField@Gu@physx@@SAXAEAVPxOutputStream@3@@Z 000000018001d130 f   GuMetaData.obj
 0001:0001c520       ?getBinaryMetaData@RTree@Gu@physx@@SAXAEAVPxOutputStream@3@@Z 000000018001d520 f   GuMetaData.obj
 0001:0001c850       ?getBinaryMetaData@RTreeTriangleMesh@Gu@physx@@SAXAEAVPxOutputStream@3@@Z 000000018001d850 f   GuMetaData.obj
 0001:0001c930       ?getBinaryMetaData@TriangleMesh@Gu@physx@@SAXAEAVPxOutputStream@3@@Z 000000018001d930 f   GuMetaData.obj
 0001:0001e470       ?doSupport@?$SupportLocalImpl@VConvexHullNoScaleV@Gu@physx@@@Gu@physx@@UEBA?AT__m128@@AEBT4@@Z 000000018001f470 f i GuMTD.obj
 0001:0001e4c0       ?doSupport@?$SupportLocalImpl@VConvexHullNoScaleV@Gu@physx@@@Gu@physx@@UEBAXAEBT__m128@@AEAT4@1@Z 000000018001f4c0 f i GuMTD.obj
 0001:0001e640       ?populateVerts@?$SupportLocalImpl@VConvexHullNoScaleV@Gu@physx@@@Gu@physx@@UEBAXPEBEIPEBV?$PxVec3T@M@3@PEAT__m128@@@Z 000000018001f640 f i GuMTD.obj
 0001:0001e680       ?getInternalData@TriangleMesh@Gu@physx@@UEBA_NAEAUPxTriangleMeshInternalData@3@_N@Z 000000018001f680 f   GuTriangleMesh.obj
 0001:0001e680       ?isDynamic@Pruner@Gu@physx@@UEBA_NXZ 000000018001f680 f   GuIncrementalAABBPruner.obj
 0001:000204c0       ??$gjk@U?$LocalConvex@VCapsuleV@Gu@physx@@@Gu@physx@@U?$LocalConvex@VConvexHullV@Gu@physx@@@23@@Gu@physx@@YA?AW4GjkStatus@01@AEBU?$LocalConvex@VCapsuleV@Gu@physx@@@01@AEBU?$LocalConvex@VConvexHullV@Gu@physx@@@01@AEBT__m128@@2AEAT5@333@Z 00000001800214c0 f i GuMTD.obj
 0001:00021220       ??0SeparatingAxes@Gu@physx@@QEAA@$$QEAV012@@Z 0000000180022220 f i GuMTD.obj
 0001:00021220       ??0SeparatingAxes@Gu@physx@@QEAA@AEBV012@@Z 0000000180022220 f i GuMTD.obj
 0001:00021330       ??0SeparatingAxes@Gu@physx@@QEAA@XZ 0000000180022330 f i GuMTD.obj
 0001:00021340       ??4SeparatingAxes@Gu@physx@@QEAAAEAV012@$$QEAV012@@Z 0000000180022340 f i GuMTD.obj
 0001:00021340       ??4SeparatingAxes@Gu@physx@@QEAAAEAV012@AEBV012@@Z 0000000180022340 f i GuMTD.obj
 0001:00021450       ??_E?$LocalConvex@UCustomConvexV@@@Gu@physx@@UEAAPEAXI@Z 0000000180022450 f i GuGjkQuery.obj
 0001:00021450       ??_E?$LocalConvex@UPointConvexV@@@Gu@physx@@UEAAPEAXI@Z 0000000180022450 f i GuGjkQuery.obj
 0001:00021450       ??_E?$LocalConvex@VBoxV@Gu@physx@@@Gu@physx@@UEAAPEAXI@Z 0000000180022450 f i GuSweepTests.obj
 0001:00021450       ??_E?$LocalConvex@VCapsuleV@Gu@physx@@@Gu@physx@@UEAAPEAXI@Z 0000000180022450 f i GuMTD.obj
 0001:00021450       ??_E?$LocalConvex@VConvexHullNoScaleV@Gu@physx@@@Gu@physx@@UEAAPEAXI@Z 0000000180022450 f i GuPCMContactBoxConvex.obj
 0001:00021450       ??_E?$LocalConvex@VConvexHullV@Gu@physx@@@Gu@physx@@UEAAPEAXI@Z 0000000180022450 f i GuMTD.obj
 0001:00021450       ??_E?$LocalConvex@VTetrahedronV@Gu@physx@@@Gu@physx@@UEAAPEAXI@Z 0000000180022450 f i GuCookingTetrahedronMesh.obj
 0001:00021450       ??_E?$LocalConvex@VTriangleV@Gu@physx@@@Gu@physx@@UEAAPEAXI@Z 0000000180022450 f i GuSweepTests.obj
 0001:00021450       ??_EGjkConvex@Gu@physx@@UEAAPEAXI@Z 0000000180022450 f i GuMTD.obj
 0001:00021450       ??_G?$LocalConvex@UCustomConvexV@@@Gu@physx@@UEAAPEAXI@Z 0000000180022450 f i GuGjkQuery.obj
 0001:00021450       ??_G?$LocalConvex@UPointConvexV@@@Gu@physx@@UEAAPEAXI@Z 0000000180022450 f i GuGjkQuery.obj
 0001:00021450       ??_G?$LocalConvex@VBoxV@Gu@physx@@@Gu@physx@@UEAAPEAXI@Z 0000000180022450 f i GuSweepTests.obj
 0001:00021450       ??_G?$LocalConvex@VCapsuleV@Gu@physx@@@Gu@physx@@UEAAPEAXI@Z 0000000180022450 f i GuMTD.obj
 0001:00021450       ??_G?$LocalConvex@VConvexHullNoScaleV@Gu@physx@@@Gu@physx@@UEAAPEAXI@Z 0000000180022450 f i GuPCMContactBoxConvex.obj
 0001:00021450       ??_G?$LocalConvex@VConvexHullV@Gu@physx@@@Gu@physx@@UEAAPEAXI@Z 0000000180022450 f i GuMTD.obj
 0001:00021450       ??_G?$LocalConvex@VTetrahedronV@Gu@physx@@@Gu@physx@@UEAAPEAXI@Z 0000000180022450 f i GuCookingTetrahedronMesh.obj
 0001:00021450       ??_G?$LocalConvex@VTriangleV@Gu@physx@@@Gu@physx@@UEAAPEAXI@Z 0000000180022450 f i GuSweepTests.obj
 0001:00021450       ??_GGjkConvex@Gu@physx@@UEAAPEAXI@Z 0000000180022450 f i GuMTD.obj
 0001:000255e0       ?getAxes@SeparatingAxes@Gu@physx@@QEBAPEBV?$PxVec3T@M@3@XZ 00000001800265e0 f i GuMTD.obj
 0001:000255f0       ?getCenter@?$LocalConvex@UCustomConvexV@@@Gu@physx@@UEBA?AT__m128@@XZ 00000001800265f0 f i GuGjkQuery.obj
 0001:000255f0       ?getCenter@?$LocalConvex@UPointConvexV@@@Gu@physx@@UEBA?AT__m128@@XZ 00000001800265f0 f i GuGjkQuery.obj
 0001:000255f0       ?getCenter@?$LocalConvex@VBoxV@Gu@physx@@@Gu@physx@@UEBA?AT__m128@@XZ 00000001800265f0 f i GuSweepTests.obj
 0001:000255f0       ?getCenter@?$LocalConvex@VCapsuleV@Gu@physx@@@Gu@physx@@UEBA?AT__m128@@XZ 00000001800265f0 f i GuMTD.obj
 0001:000255f0       ?getCenter@?$LocalConvex@VConvexHullNoScaleV@Gu@physx@@@Gu@physx@@UEBA?AT__m128@@XZ 00000001800265f0 f i GuPCMContactBoxConvex.obj
 0001:000255f0       ?getCenter@?$LocalConvex@VConvexHullV@Gu@physx@@@Gu@physx@@UEBA?AT__m128@@XZ 00000001800265f0 f i GuMTD.obj
 0001:000255f0       ?getCenter@?$LocalConvex@VTetrahedronV@Gu@physx@@@Gu@physx@@UEBA?AT__m128@@XZ 00000001800265f0 f i GuCookingTetrahedronMesh.obj
 0001:000255f0       ?getCenter@?$LocalConvex@VTriangleV@Gu@physx@@@Gu@physx@@UEBA?AT__m128@@XZ 00000001800265f0 f i GuSweepTests.obj
 0001:00025600       ?getCount@BuildStats@Gu@physx@@QEBAIXZ 0000000180026600 f i GuBV4Build.obj
 0001:00025600       ?getNbActiveObjects@PruningPool@Gu@physx@@QEBAIXZ 0000000180026600 f i GuIncrementalAABBPrunerCore.obj
 0001:00025600       ?getNumAxes@SeparatingAxes@Gu@physx@@QEBAIXZ 0000000180026600 f i GuMTD.obj
 0001:00025610       ?getSweepMargin@?$LocalConvex@VCapsuleV@Gu@physx@@@Gu@physx@@UEBA?AT__m128@@XZ 0000000180026610 f i GuMTD.obj
 0001:00025610       ?getSweepMargin@?$RelativeConvex@VCapsuleV@Gu@physx@@@Gu@physx@@UEBA?AT__m128@@XZ 0000000180026610 f i GuCCDSweepPrimitives.obj
 0001:00025620       ?getSweepMargin@?$LocalConvex@UCustomConvexV@@@Gu@physx@@UEBA?AT__m128@@XZ 0000000180026620 f i GuGjkQuery.obj
 0001:00025620       ?getSweepMargin@?$LocalConvex@UPointConvexV@@@Gu@physx@@UEBA?AT__m128@@XZ 0000000180026620 f i GuGjkQuery.obj
 0001:00025620       ?getSweepMargin@?$LocalConvex@VBoxV@Gu@physx@@@Gu@physx@@UEBA?AT__m128@@XZ 0000000180026620 f i GuSweepTests.obj
 0001:00025620       ?getSweepMargin@?$LocalConvex@VConvexHullNoScaleV@Gu@physx@@@Gu@physx@@UEBA?AT__m128@@XZ 0000000180026620 f i GuPCMContactBoxConvex.obj
 0001:00025620       ?getSweepMargin@?$LocalConvex@VConvexHullV@Gu@physx@@@Gu@physx@@UEBA?AT__m128@@XZ 0000000180026620 f i GuMTD.obj
 0001:00025620       ?getSweepMargin@?$RelativeConvex@UCustomConvexV@@@Gu@physx@@UEBA?AT__m128@@XZ 0000000180026620 f i GuGjkQuery.obj
 0001:00025620       ?getSweepMargin@?$RelativeConvex@VBoxV@Gu@physx@@@Gu@physx@@UEBA?AT__m128@@XZ 0000000180026620 f i GuOverlapTests.obj
 0001:00025620       ?getSweepMargin@?$RelativeConvex@VConvexHullNoScaleV@Gu@physx@@@Gu@physx@@UEBA?AT__m128@@XZ 0000000180026620 f i GuPCMContactConvexConvex.obj
 0001:00025620       ?getSweepMargin@?$RelativeConvex@VConvexHullV@Gu@physx@@@Gu@physx@@UEBA?AT__m128@@XZ 0000000180026620 f i GuOverlapTests.obj
 0001:00025640       ?getSweepMargin@GjkConvex@Gu@physx@@UEBA?AT__m128@@XZ 0000000180026640 f i GuMTD.obj
 0001:00025660       ?pointConvexDistance@@YA_NAEAV?$PxVec3T@M@physx@@0AEAMAEBV12@PEBVConvexMesh@Gu@2@AEBVPxMeshScale@2@AEBUPxTransformPadded@2@@Z 0000000180026660 f   GuMTD.obj
 0001:000263c0       ?reset@SeparatingAxes@Gu@physx@@QEAAXXZ 00000001800273c0 f i GuMTD.obj
 0001:000263d0       ?support@?$LocalConvex@VCapsuleV@Gu@physx@@@Gu@physx@@UEBA?AT__m128@@AEBT4@@Z 00000001800273d0 f i GuMTD.obj
 0001:00026430       ?support@?$LocalConvex@VCapsuleV@Gu@physx@@@Gu@physx@@UEBA?AT__m128@@AEBT4@AEAH@Z 0000000180027430 f i GuMTD.obj
 0001:000264a0       ?support@?$LocalConvex@VConvexHullV@Gu@physx@@@Gu@physx@@UEBA?AT__m128@@AEBT4@@Z 00000001800274a0 f i GuMTD.obj
 0001:00026580       ?support@?$LocalConvex@VConvexHullV@Gu@physx@@@Gu@physx@@UEBA?AT__m128@@AEBT4@AEAH@Z 0000000180027580 f i GuMTD.obj
 0001:00026650       ?support@GjkConvex@Gu@physx@@UEBA?AT__m128@@AEBT4@@Z 0000000180027650 f i GuMTD.obj
 0001:00026670       ?support@GjkConvex@Gu@physx@@UEBA?AT__m128@@AEBT4@AEAH@Z 0000000180027670 f i GuMTD.obj
 0001:00026690       ?supportPoint@?$LocalConvex@VCapsuleV@Gu@physx@@@Gu@physx@@UEBA?AT__m128@@H@Z 0000000180027690 f i GuMTD.obj
 0001:000266c0       ?supportPoint@?$LocalConvex@VConvexHullV@Gu@physx@@@Gu@physx@@UEBA?AT__m128@@H@Z 00000001800276c0 f i GuMTD.obj
 0001:00026710       ?supportPoint@GjkConvex@Gu@physx@@UEBA?AT__m128@@H@Z 0000000180027710 f i GuMTD.obj
 0001:00026730       ?supportPoint@?$RelativeConvex@VBoxV@Gu@physx@@@Gu@physx@@UEBA?AT__m128@@H@Z 0000000180027730 f i GuOverlapTests.obj
 0001:000267a0       ?support@?$RelativeConvex@VBoxV@Gu@physx@@@Gu@physx@@UEBA?AT__m128@@AEBT4@@Z 00000001800277a0 f i GuOverlapTests.obj
 0001:00026820       ?support@?$RelativeConvex@VBoxV@Gu@physx@@@Gu@physx@@UEBA?AT__m128@@AEBT4@AEAH@Z 0000000180027820 f i GuOverlapTests.obj
 0001:000268b0       ?getCenter@?$RelativeConvex@UCustomConvexV@@@Gu@physx@@UEBA?AT__m128@@XZ 00000001800278b0 f i GuGjkQuery.obj
 0001:000268b0       ?getCenter@?$RelativeConvex@VBoxV@Gu@physx@@@Gu@physx@@UEBA?AT__m128@@XZ 00000001800278b0 f i GuOverlapTests.obj
 0001:000268b0       ?getCenter@?$RelativeConvex@VCapsuleV@Gu@physx@@@Gu@physx@@UEBA?AT__m128@@XZ 00000001800278b0 f i GuCCDSweepPrimitives.obj
 0001:000268b0       ?getCenter@?$RelativeConvex@VConvexHullNoScaleV@Gu@physx@@@Gu@physx@@UEBA?AT__m128@@XZ 00000001800278b0 f i GuPCMContactConvexConvex.obj
 0001:000268b0       ?getCenter@?$RelativeConvex@VConvexHullV@Gu@physx@@@Gu@physx@@UEBA?AT__m128@@XZ 00000001800278b0 f i GuOverlapTests.obj
 0001:000268b0       ?getCenter@?$RelativeConvex@VTriangleV@Gu@physx@@@Gu@physx@@UEBA?AT__m128@@XZ 00000001800278b0 f i GuCCDSweepPrimitives.obj
 0001:000268f0       ??_E?$RelativeConvex@UCustomConvexV@@@Gu@physx@@UEAAPEAXI@Z 00000001800278f0 f i GuGjkQuery.obj
 0001:000268f0       ??_E?$RelativeConvex@VBoxV@Gu@physx@@@Gu@physx@@UEAAPEAXI@Z 00000001800278f0 f i GuOverlapTests.obj
 0001:000268f0       ??_E?$RelativeConvex@VCapsuleV@Gu@physx@@@Gu@physx@@UEAAPEAXI@Z 00000001800278f0 f i GuCCDSweepPrimitives.obj
 0001:000268f0       ??_E?$RelativeConvex@VConvexHullNoScaleV@Gu@physx@@@Gu@physx@@UEAAPEAXI@Z 00000001800278f0 f i GuPCMContactConvexConvex.obj
 0001:000268f0       ??_E?$RelativeConvex@VConvexHullV@Gu@physx@@@Gu@physx@@UEAAPEAXI@Z 00000001800278f0 f i GuOverlapTests.obj
 0001:000268f0       ??_E?$RelativeConvex@VTriangleV@Gu@physx@@@Gu@physx@@UEAAPEAXI@Z 00000001800278f0 f i GuCCDSweepPrimitives.obj
 0001:000268f0       ??_G?$RelativeConvex@UCustomConvexV@@@Gu@physx@@UEAAPEAXI@Z 00000001800278f0 f i GuGjkQuery.obj
 0001:000268f0       ??_G?$RelativeConvex@VBoxV@Gu@physx@@@Gu@physx@@UEAAPEAXI@Z 00000001800278f0 f i GuOverlapTests.obj
 0001:000268f0       ??_G?$RelativeConvex@VCapsuleV@Gu@physx@@@Gu@physx@@UEAAPEAXI@Z 00000001800278f0 f i GuCCDSweepPrimitives.obj
 0001:000268f0       ??_G?$RelativeConvex@VConvexHullNoScaleV@Gu@physx@@@Gu@physx@@UEAAPEAXI@Z 00000001800278f0 f i GuPCMContactConvexConvex.obj
 0001:000268f0       ??_G?$RelativeConvex@VConvexHullV@Gu@physx@@@Gu@physx@@UEAAPEAXI@Z 00000001800278f0 f i GuOverlapTests.obj
 0001:000268f0       ??_G?$RelativeConvex@VTriangleV@Gu@physx@@@Gu@physx@@UEAAPEAXI@Z 00000001800278f0 f i GuCCDSweepPrimitives.obj
 0001:00028aa0       ?supportPoint@?$RelativeConvex@VConvexHullV@Gu@physx@@@Gu@physx@@UEBA?AT__m128@@H@Z 0000000180029aa0 f i GuOverlapTests.obj
 0001:00028b20       ?support@?$RelativeConvex@VConvexHullV@Gu@physx@@@Gu@physx@@UEBA?AT__m128@@AEBT4@@Z 0000000180029b20 f i GuOverlapTests.obj
 0001:00028c50       ?support@?$RelativeConvex@VConvexHullV@Gu@physx@@@Gu@physx@@UEBA?AT__m128@@AEBT4@AEAH@Z 0000000180029c50 f i GuOverlapTests.obj
 0001:00028de0       ??$gjk@U?$RelativeConvex@VBoxV@Gu@physx@@@Gu@physx@@U?$LocalConvex@VConvexHullV@Gu@physx@@@23@@Gu@physx@@YA?AW4GjkStatus@01@AEBU?$RelativeConvex@VBoxV@Gu@physx@@@01@AEBU?$LocalConvex@VConvexHullV@Gu@physx@@@01@AEBT__m128@@2AEAT5@333@Z 0000000180029de0 f i GuOverlapTests.obj
 0001:00029b90       ??$gjk@U?$RelativeConvex@VConvexHullV@Gu@physx@@@Gu@physx@@U?$LocalConvex@VConvexHullV@Gu@physx@@@23@@Gu@physx@@YA?AW4GjkStatus@01@AEBU?$RelativeConvex@VConvexHullV@Gu@physx@@@01@AEBU?$LocalConvex@VConvexHullV@Gu@physx@@@01@AEBT__m128@@2AEAT5@333@Z 000000018002ab90 f i GuOverlapTests.obj
 0001:0002aa10       ?ComputeCubemapNearestOffset@physx@@YAIAEBV?$PxVec3T@M@1@I@Z 000000018002ba10 f i GuOverlapTests.obj
 0001:0002ab10       ?getOverlapFuncTable@Gu@physx@@YAPEAY0L@Q6A_NAEBVPxGeometry@2@AEBV?$PxTransformT@M@2@01PEAUTriggerCache@12@PEAUPxQueryThreadContext@2@@ZXZ 000000018002bb10 f   GuOverlapTests.obj
 0001:0002c6b0       ?raycast_box@@YAIAEBVPxGeometry@physx@@AEBV?$PxTransformT@M@2@AEBV?$PxVec3T@M@2@2MV?$PxFlags@W4Enum@PxHitFlag@physx@@G@2@IPEIAUPxGeomRaycastHit@2@IPEAUPxQueryThreadContext@2@@Z 000000018002d6b0 f   GuRaycastTests.obj
 0001:0002cce0       ?raycast_sphere@@YAIAEBVPxGeometry@physx@@AEBV?$PxTransformT@M@2@AEBV?$PxVec3T@M@2@2MV?$PxFlags@W4Enum@PxHitFlag@physx@@G@2@IPEIAUPxGeomRaycastHit@2@IPEAUPxQueryThreadContext@2@@Z 000000018002dce0 f   GuRaycastTests.obj
 0001:0002ce70       ?raycast_capsule@@YAIAEBVPxGeometry@physx@@AEBV?$PxTransformT@M@2@AEBV?$PxVec3T@M@2@2MV?$PxFlags@W4Enum@PxHitFlag@physx@@G@2@IPEIAUPxGeomRaycastHit@2@IPEAUPxQueryThreadContext@2@@Z 000000018002de70 f   GuRaycastTests.obj
 0001:0002d3d0       ?raycast_plane@@YAIAEBVPxGeometry@physx@@AEBV?$PxTransformT@M@2@AEBV?$PxVec3T@M@2@2MV?$PxFlags@W4Enum@PxHitFlag@physx@@G@2@IPEIAUPxGeomRaycastHit@2@IPEAUPxQueryThreadContext@2@@Z 000000018002e3d0 f   GuRaycastTests.obj
 0001:0002d540       ?raycast_convexMesh@@YAIAEBVPxGeometry@physx@@AEBV?$PxTransformT@M@2@AEBV?$PxVec3T@M@2@2MV?$PxFlags@W4Enum@PxHitFlag@physx@@G@2@IPEIAUPxGeomRaycastHit@2@IPEAUPxQueryThreadContext@2@@Z 000000018002e540 f   GuRaycastTests.obj
 0001:0002e040       ?getMidphaseID@RTreeTriangleMesh@Gu@physx@@UEBA?AW4Enum@PxMeshMidPhase@3@XZ 000000018002f040 f   GuTriangleMeshRTree.obj
 0001:0002e040       ?getMidphaseID@RTreeTriangleMeshBuilder@physx@@UEBA?AW4Enum@PxMeshMidPhase@2@XZ 000000018002f040 f   GuCookingTriangleMesh.obj
 0001:0002e040       ?getTetrahedraRemap@TetrahedronMesh@Gu@physx@@UEBAPEBIXZ 000000018002f040 f   GuTetrahedronMesh.obj
 0001:0002e040       ?raycast_hairsystem@@YAIAEBVPxGeometry@physx@@AEBV?$PxTransformT@M@2@AEBV?$PxVec3T@M@2@2MV?$PxFlags@W4Enum@PxHitFlag@physx@@G@2@IPEIAUPxGeomRaycastHit@2@IPEAUPxQueryThreadContext@2@@Z 000000018002f040 f   GuRaycastTests.obj
 0001:0002e040       ?raycast_particlesystem@@YAIAEBVPxGeometry@physx@@AEBV?$PxTransformT@M@2@AEBV?$PxVec3T@M@2@2MV?$PxFlags@W4Enum@PxHitFlag@physx@@G@2@IPEIAUPxGeomRaycastHit@2@IPEAUPxQueryThreadContext@2@@Z 000000018002f040 f   GuRaycastTests.obj
 0001:0002e040       ?raycast_softbody@@YAIAEBVPxGeometry@physx@@AEBV?$PxTransformT@M@2@AEBV?$PxVec3T@M@2@2MV?$PxFlags@W4Enum@PxHitFlag@physx@@G@2@IPEIAUPxGeomRaycastHit@2@IPEAUPxQueryThreadContext@2@@Z 000000018002f040 f   GuRaycastTests.obj
 0001:0002e050       ?raycast_triangleMesh@@YAIAEBVPxGeometry@physx@@AEBV?$PxTransformT@M@2@AEBV?$PxVec3T@M@2@2MV?$PxFlags@W4Enum@PxHitFlag@physx@@G@2@IPEIAUPxGeomRaycastHit@2@IPEAUPxQueryThreadContext@2@@Z 000000018002f050 f   GuRaycastTests.obj
 0001:0002e0e0       ?raycast_heightField@@YAIAEBVPxGeometry@physx@@AEBV?$PxTransformT@M@2@AEBV?$PxVec3T@M@2@2MV?$PxFlags@W4Enum@PxHitFlag@physx@@G@2@IPEIAUPxGeomRaycastHit@2@IPEAUPxQueryThreadContext@2@@Z 000000018002f0e0 f   GuRaycastTests.obj
 0001:0002fb30       ??Dphysx@@YA?AV?$PxMat34T@M@0@AEBVPxMeshScale@0@AEBV?$PxTransformT@M@0@@Z 0000000180030b30 f i GuRaycastTests.obj
 0001:00030610       ?getRaycastFuncTable@Gu@physx@@YAAEAY0L@Q6AIAEBVPxGeometry@2@AEBV?$PxTransformT@M@2@AEBV?$PxVec3T@M@2@2MV?$PxFlags@W4Enum@PxHitFlag@physx@@G@2@IPEIAUPxGeomRaycastHit@2@IPEAUPxQueryThreadContext@2@@ZXZ 0000000180031610 f   GuRaycastTests.obj
 0001:00030620       ??Dphysx@@YA?AV?$PxMat34T@M@0@AEBV?$PxTransformT@M@0@AEBVPxMeshScale@0@@Z 0000000180031620 f i GuSweepMTD.obj
 0001:00030b60       ??_E?$MeshHitCallback@UPxGeomRaycastHit@physx@@@Gu@physx@@UEAAPEAXI@Z 0000000180031b60 f i GuSweepMTD.obj
 0001:00030b60       ??_G?$MeshHitCallback@UPxGeomRaycastHit@physx@@@Gu@physx@@UEAAPEAXI@Z 0000000180031b60 f i GuSweepMTD.obj
 0001:00030b90       ??_EMeshMTDGenerationCallback@@UEAAPEAXI@Z 0000000180031b90 f i GuSweepMTD.obj
 0001:00030b90       ??_GMeshMTDGenerationCallback@@UEAAPEAXI@Z 0000000180031b90 f i GuSweepMTD.obj
 0001:00030bc0       ??_EMidPhaseQueryLocalReport@@UEAAPEAXI@Z 0000000180031bc0 f i GuSweepMTD.obj
 0001:00030bc0       ??_ERTreeCookerRemap@@UEAAPEAXI@Z 0000000180031bc0 f i GuCookingTriangleMesh.obj
 0001:00030bc0       ??_GMidPhaseQueryLocalReport@@UEAAPEAXI@Z 0000000180031bc0 f i GuSweepMTD.obj
 0001:00030bc0       ??_GRTreeCookerRemap@@UEAAPEAXI@Z 0000000180031bc0 f i GuCookingTriangleMesh.obj
 0001:00030bf0       ?allocate@?$PxArray@IV?$PxReflectionAllocator@I@physx@@@physx@@IEAAPEAII@Z 0000000180031bf0 f i GuSweepMTD.obj
 0001:00030ca0       ?computeBox_HeightFieldMTD@Gu@physx@@YA_NAEBVPxHeightFieldGeometry@2@AEBV?$PxTransformT@M@2@AEBVBox@12@1M_NAEAUPxGeomSweepHit@2@@Z 0000000180031ca0 f   GuSweepMTD.obj
 0001:00031a60       ?computeBox_TriangleMeshMTD@Gu@physx@@YA_NAEBVPxTriangleMeshGeometry@2@AEBV?$PxTransformT@M@2@AEBVBox@12@1M_NAEAUPxGeomSweepHit@2@@Z 0000000180032a60 f   GuSweepMTD.obj
 0001:00032aa0       ?computeCapsule_CapsuleMTD@Gu@physx@@YA_NAEBVCapsule@12@0AEAUPxGeomSweepHit@2@@Z 0000000180033aa0 f   GuSweepMTD.obj
 0001:00032ce0       ?computeCapsule_HeightFieldMTD@Gu@physx@@YA_NAEBVPxHeightFieldGeometry@2@AEBV?$PxTransformT@M@2@AEAVCapsuleV@12@M_NAEAUPxGeomSweepHit@2@@Z 0000000180033ce0 f   GuSweepMTD.obj
 0001:000334b0       ?computeCapsule_TriangleMeshMTD@Gu@physx@@YA_NAEBVPxTriangleMeshGeometry@2@AEBV?$PxTransformT@M@2@AEAVCapsuleV@12@M_NAEAUPxGeomSweepHit@2@@Z 00000001800344b0 f   GuSweepMTD.obj
 0001:00033d60       ?computeConvex_HeightFieldMTD@Gu@physx@@YA_NAEBVPxHeightFieldGeometry@2@AEBV?$PxTransformT@M@2@AEBVPxConvexMeshGeometry@2@1M_NAEAUPxGeomSweepHit@2@@Z 0000000180034d60 f   GuSweepMTD.obj
 0001:00035030       ?computeConvex_TriangleMeshMTD@Gu@physx@@YA_NAEBVPxTriangleMeshGeometry@2@AEBV?$PxTransformT@M@2@AEBVPxConvexMeshGeometry@2@1M_NAEAUPxGeomSweepHit@2@@Z 0000000180036030 f   GuSweepMTD.obj
 0001:00036600       ?computePlane_BoxMTD@Gu@physx@@YA_NAEBVPxPlane@2@AEBVBox@12@AEAUPxGeomSweepHit@2@@Z 0000000180037600 f   GuSweepMTD.obj
 0001:000368a0       ?computePlane_CapsuleMTD@Gu@physx@@YA_NAEBVPxPlane@2@AEBVCapsule@12@AEAUPxGeomSweepHit@2@@Z 00000001800378a0 f   GuSweepMTD.obj
 0001:000369c0       ?computePlane_ConvexMTD@Gu@physx@@YA_NAEBVPxPlane@2@AEBVPxConvexMeshGeometry@2@AEBV?$PxTransformT@M@2@AEAUPxGeomSweepHit@2@@Z 00000001800379c0 f   GuSweepMTD.obj
 0001:00037510       ?computeSphere_CapsuleMTD@Gu@physx@@YA_NAEBVSphere@12@AEBVCapsule@12@AEAUPxGeomSweepHit@2@@Z 0000000180038510 f   GuSweepMTD.obj
 0001:000376c0       ?computeSphere_SphereMTD@Gu@physx@@YA_NAEBVSphere@12@0AEAUPxGeomSweepHit@2@@Z 00000001800386c0 f   GuSweepMTD.obj
 0001:000377b0       ?getInverse@?$PxMat33T@M@physx@@QEBA?BV12@XZ 00000001800387b0 f i GuSweepMTD.obj
 0001:00037a00       ?growAndPushBack@?$PxArray@IV?$PxReflectionAllocator@I@physx@@@physx@@IEAAAEAIAEBI@Z 0000000180038a00 f i GuSweepMTD.obj
 0001:00037ac0       ?init@FastVertex2ShapeScaling@Cm@physx@@QEAAXAEBV?$PxVec3T@M@3@AEBV?$PxQuatT@M@3@@Z 0000000180038ac0 f i GuSweepMTD.obj
 0001:000383b0       ?processHit@MeshMTDGenerationCallback@@UEAA_NAEBUPxGeomRaycastHit@physx@@AEBV?$PxVec3T@M@3@11AEAMPEBI@Z 00000001800393b0 f i GuSweepMTD.obj
 0001:00038400       ?recreate@?$PxArray@IV?$PxReflectionAllocator@I@physx@@@physx@@IEAAXI@Z 0000000180039400 f i GuSweepMTD.obj
 0001:000384a0       ?reportTouchedTris@MidPhaseQueryLocalReport@@UEAA_NIPEBI@Z 00000001800394a0 f i GuSweepMTD.obj
 0001:00038510       ??$gjkPenetration@U?$LocalConvex@VCapsuleV@Gu@physx@@@Gu@physx@@U?$LocalConvex@VConvexHullV@Gu@physx@@@23@@Gu@physx@@YA?AW4GjkStatus@01@AEBU?$LocalConvex@VCapsuleV@Gu@physx@@@01@AEBU?$LocalConvex@VConvexHullV@Gu@physx@@@01@AEBT__m128@@2_NPEIAE4AEAEAEAUGjkOutput@01@@Z 0000000180039510 f i GuSweepSharedTests.obj
 0001:00038580       ??$gjkPenetration@U?$LocalConvex@VCapsuleV@Gu@physx@@@Gu@physx@@U?$LocalConvex@VConvexHullV@Gu@physx@@@23@@Gu@physx@@YA?AW4GjkStatus@01@AEBU?$LocalConvex@VCapsuleV@Gu@physx@@@01@AEBU?$LocalConvex@VConvexHullV@Gu@physx@@@01@AEBT__m128@@2_NPEIAE4PEIAT5@5AEAEAEAUGjkOutput@01@@Z 0000000180039580 f i GuSweepSharedTests.obj
 0001:00039ab0       ??$gjkPenetration@U?$RelativeConvex@VBoxV@Gu@physx@@@Gu@physx@@U?$LocalConvex@VConvexHullV@Gu@physx@@@23@@Gu@physx@@YA?AW4GjkStatus@01@AEBU?$RelativeConvex@VBoxV@Gu@physx@@@01@AEBU?$LocalConvex@VConvexHullV@Gu@physx@@@01@AEBT__m128@@2_NPEIAE4AEAEAEAUGjkOutput@01@@Z 000000018003aab0 f i GuSweepSharedTests.obj
 0001:00039b20       ??$gjkPenetration@U?$RelativeConvex@VBoxV@Gu@physx@@@Gu@physx@@U?$LocalConvex@VConvexHullV@Gu@physx@@@23@@Gu@physx@@YA?AW4GjkStatus@01@AEBU?$RelativeConvex@VBoxV@Gu@physx@@@01@AEBU?$LocalConvex@VConvexHullV@Gu@physx@@@01@AEBT__m128@@2_NPEIAE4PEIAT5@5AEAEAEAUGjkOutput@01@@Z 000000018003ab20 f i GuSweepSharedTests.obj
 0001:0003b090       ??$gjkPenetration@U?$RelativeConvex@VConvexHullV@Gu@physx@@@Gu@physx@@U?$LocalConvex@VConvexHullV@Gu@physx@@@23@@Gu@physx@@YA?AW4GjkStatus@01@AEBU?$RelativeConvex@VConvexHullV@Gu@physx@@@01@AEBU?$LocalConvex@VConvexHullV@Gu@physx@@@01@AEBT__m128@@2_NPEIAE4AEAEAEAUGjkOutput@01@@Z 000000018003c090 f i GuSweepSharedTests.obj
 0001:0003b100       ??$gjkPenetration@U?$RelativeConvex@VConvexHullV@Gu@physx@@@Gu@physx@@U?$LocalConvex@VConvexHullV@Gu@physx@@@23@@Gu@physx@@YA?AW4GjkStatus@01@AEBU?$RelativeConvex@VConvexHullV@Gu@physx@@@01@AEBU?$LocalConvex@VConvexHullV@Gu@physx@@@01@AEBT__m128@@2_NPEIAE4PEIAT5@5AEAEAEAUGjkOutput@01@@Z 000000018003c100 f i GuSweepSharedTests.obj
 0001:0003c720       ??$gjkRaycast@U?$LocalConvex@VCapsuleV@Gu@physx@@@Gu@physx@@U?$LocalConvex@VConvexHullV@Gu@physx@@@23@@Gu@physx@@YA_NAEBU?$LocalConvex@VCapsuleV@Gu@physx@@@01@AEBU?$LocalConvex@VConvexHullV@Gu@physx@@@01@AEBT__m128@@222AEAT4@33M@Z 000000018003d720 f i GuSweepSharedTests.obj
 0001:0003d470       ??$gjkRaycast@U?$RelativeConvex@VBoxV@Gu@physx@@@Gu@physx@@U?$LocalConvex@VConvexHullV@Gu@physx@@@23@@Gu@physx@@YA_NAEBU?$RelativeConvex@VBoxV@Gu@physx@@@01@AEBU?$LocalConvex@VConvexHullV@Gu@physx@@@01@AEBT__m128@@222AEAT4@33M@Z 000000018003e470 f i GuSweepSharedTests.obj
 0001:0003e260       ??$gjkRaycast@U?$RelativeConvex@VConvexHullV@Gu@physx@@@Gu@physx@@U?$LocalConvex@VConvexHullV@Gu@physx@@@23@@Gu@physx@@YA_NAEBU?$RelativeConvex@VConvexHullV@Gu@physx@@@01@AEBU?$LocalConvex@VConvexHullV@Gu@physx@@@01@AEBT__m128@@222AEAT4@33M@Z 000000018003f260 f i GuSweepSharedTests.obj
 0001:0003f040       ??$gjkRaycastPenetration@U?$RelativeConvex@VConvexHullV@Gu@physx@@@Gu@physx@@U?$LocalConvex@VConvexHullV@Gu@physx@@@23@@Gu@physx@@YA_NAEBU?$RelativeConvex@VConvexHullV@Gu@physx@@@01@AEBU?$LocalConvex@VConvexHullV@Gu@physx@@@01@AEBT__m128@@222AEAT4@33M_N@Z 0000000180040040 f i GuSweepSharedTests.obj
 0001:0003fc10       ?sweepBox_ConvexGeom@@YA_NAEBVPxGeometry@physx@@AEBV?$PxTransformT@M@2@AEBVPxBoxGeometry@2@1AEBVBox@Gu@2@AEBV?$PxVec3T@M@2@MAEAUPxGeomSweepHit@2@V?$PxFlags@W4Enum@PxHitFlag@physx@@G@2@MPEAUPxQueryThreadContext@2@@Z 0000000180040c10 f   GuSweepSharedTests.obj
 0001:00040a30       ?sweepBox_PlaneGeom@@YA_NAEBVPxGeometry@physx@@AEBV?$PxTransformT@M@2@AEBVPxBoxGeometry@2@1AEBVBox@Gu@2@AEBV?$PxVec3T@M@2@MAEAUPxGeomSweepHit@2@V?$PxFlags@W4Enum@PxHitFlag@physx@@G@2@MPEAUPxQueryThreadContext@2@@Z 0000000180041a30 f   GuSweepSharedTests.obj
 0001:00040e00       ?sweepCapsuleTriangles@Gu@physx@@YA_NIPEBVPxTriangle@2@_NAEBVPxCapsuleGeometry@2@AEBV?$PxTransformT@M@2@AEBV?$PxVec3T@M@2@MAEAUPxGeomSweepHit@2@PEBIMV?$PxFlags@W4Enum@PxHitFlag@physx@@G@2@@Z 0000000180041e00 f   GuSweepSharedTests.obj
 0001:00040ff0       ?sweepCapsule_CapsuleGeom@@YA_NAEBVPxGeometry@physx@@AEBV?$PxTransformT@M@2@AEBVPxCapsuleGeometry@2@1AEBVCapsule@Gu@2@AEBV?$PxVec3T@M@2@MAEAUPxGeomSweepHit@2@V?$PxFlags@W4Enum@PxHitFlag@physx@@G@2@MPEAUPxQueryThreadContext@2@@Z 0000000180041ff0 f   GuSweepSharedTests.obj
 0001:000411d0       ?sweepCapsule_ConvexGeom@@YA_NAEBVPxGeometry@physx@@AEBV?$PxTransformT@M@2@AEBVPxCapsuleGeometry@2@1AEBVCapsule@Gu@2@AEBV?$PxVec3T@M@2@MAEAUPxGeomSweepHit@2@V?$PxFlags@W4Enum@PxHitFlag@physx@@G@2@MPEAUPxQueryThreadContext@2@@Z 00000001800421d0 f   GuSweepSharedTests.obj
 0001:00041f00       ?sweepCapsule_PlaneGeom@@YA_NAEBVPxGeometry@physx@@AEBV?$PxTransformT@M@2@AEBVPxCapsuleGeometry@2@1AEBVCapsule@Gu@2@AEBV?$PxVec3T@M@2@MAEAUPxGeomSweepHit@2@V?$PxFlags@W4Enum@PxHitFlag@physx@@G@2@MPEAUPxQueryThreadContext@2@@Z 0000000180042f00 f   GuSweepSharedTests.obj
 0001:000421e0       ?sweepCapsule_SphereGeom@@YA_NAEBVPxGeometry@physx@@AEBV?$PxTransformT@M@2@AEBVPxCapsuleGeometry@2@1AEBVCapsule@Gu@2@AEBV?$PxVec3T@M@2@MAEAUPxGeomSweepHit@2@V?$PxFlags@W4Enum@PxHitFlag@physx@@G@2@MPEAUPxQueryThreadContext@2@@Z 00000001800431e0 f   GuSweepSharedTests.obj
 0001:00042380       ?sweepConvex_BoxGeom@@YA_NAEBVPxGeometry@physx@@AEBV?$PxTransformT@M@2@AEBVPxConvexMeshGeometry@2@1AEBV?$PxVec3T@M@2@MAEAUPxGeomSweepHit@2@V?$PxFlags@W4Enum@PxHitFlag@physx@@G@2@MPEAUPxQueryThreadContext@2@@Z 0000000180043380 f   GuSweepSharedTests.obj
 0001:000425a0       ?sweepConvex_CapsuleGeom@@YA_NAEBVPxGeometry@physx@@AEBV?$PxTransformT@M@2@AEBVPxConvexMeshGeometry@2@1AEBV?$PxVec3T@M@2@MAEAUPxGeomSweepHit@2@V?$PxFlags@W4Enum@PxHitFlag@physx@@G@2@MPEAUPxQueryThreadContext@2@@Z 00000001800435a0 f   GuSweepSharedTests.obj
 0001:000427d0       ?sweepConvex_ConvexGeom@@YA_NAEBVPxGeometry@physx@@AEBV?$PxTransformT@M@2@AEBVPxConvexMeshGeometry@2@1AEBV?$PxVec3T@M@2@MAEAUPxGeomSweepHit@2@V?$PxFlags@W4Enum@PxHitFlag@physx@@G@2@MPEAUPxQueryThreadContext@2@@Z 00000001800437d0 f   GuSweepSharedTests.obj
 0001:000437a0       ?sweepConvex_PlaneGeom@@YA_NAEBVPxGeometry@physx@@AEBV?$PxTransformT@M@2@AEBVPxConvexMeshGeometry@2@1AEBV?$PxVec3T@M@2@MAEAUPxGeomSweepHit@2@V?$PxFlags@W4Enum@PxHitFlag@physx@@G@2@MPEAUPxQueryThreadContext@2@@Z 00000001800447a0 f   GuSweepSharedTests.obj
 0001:00043be0       ?sweepConvex_SphereGeom@@YA_NAEBVPxGeometry@physx@@AEBV?$PxTransformT@M@2@AEBVPxConvexMeshGeometry@2@1AEBV?$PxVec3T@M@2@MAEAUPxGeomSweepHit@2@V?$PxFlags@W4Enum@PxHitFlag@physx@@G@2@MPEAUPxQueryThreadContext@2@@Z 0000000180044be0 f   GuSweepSharedTests.obj
 0001:000447e0       ?sweepCapsule_BoxGeom@@YA_NAEBVPxGeometry@physx@@AEBV?$PxTransformT@M@2@AEBVPxCapsuleGeometry@2@1AEBVCapsule@Gu@2@AEBV?$PxVec3T@M@2@MAEAUPxGeomSweepHit@2@V?$PxFlags@W4Enum@PxHitFlag@physx@@G@2@MPEAUPxQueryThreadContext@2@@Z 00000001800457e0 f   GuSweepTests.obj
 0001:00045090       ?sweepBox_SphereGeom@@YA_NAEBVPxGeometry@physx@@AEBV?$PxTransformT@M@2@AEBVPxBoxGeometry@2@1AEBVBox@Gu@2@AEBV?$PxVec3T@M@2@MAEAUPxGeomSweepHit@2@V?$PxFlags@W4Enum@PxHitFlag@physx@@G@2@MPEAUPxQueryThreadContext@2@@Z 0000000180046090 f   GuSweepTests.obj
 0001:00045770       ?sweepBox_CapsuleGeom@@YA_NAEBVPxGeometry@physx@@AEBV?$PxTransformT@M@2@AEBVPxBoxGeometry@2@1AEBVBox@Gu@2@AEBV?$PxVec3T@M@2@MAEAUPxGeomSweepHit@2@V?$PxFlags@W4Enum@PxHitFlag@physx@@G@2@MPEAUPxQueryThreadContext@2@@Z 0000000180046770 f   GuSweepTests.obj
 0001:00046040       ?sweepBox_BoxGeom@@YA_NAEBVPxGeometry@physx@@AEBV?$PxTransformT@M@2@AEBVPxBoxGeometry@2@1AEBVBox@Gu@2@AEBV?$PxVec3T@M@2@MAEAUPxGeomSweepHit@2@V?$PxFlags@W4Enum@PxHitFlag@physx@@G@2@MPEAUPxQueryThreadContext@2@@Z 0000000180047040 f   GuSweepTests.obj
 0001:00046a40       ??$gjkPenetration@U?$LocalConvex@VCapsuleV@Gu@physx@@@Gu@physx@@U?$LocalConvex@VBoxV@Gu@physx@@@23@@Gu@physx@@YA?AW4GjkStatus@01@AEBU?$LocalConvex@VCapsuleV@Gu@physx@@@01@AEBU?$LocalConvex@VBoxV@Gu@physx@@@01@AEBT__m128@@2_NPEIAE4AEAEAEAUGjkOutput@01@@Z 0000000180047a40 f i GuSweepTests.obj
 0001:00046ab0       ??$gjkPenetration@U?$LocalConvex@VCapsuleV@Gu@physx@@@Gu@physx@@U?$LocalConvex@VBoxV@Gu@physx@@@23@@Gu@physx@@YA?AW4GjkStatus@01@AEBU?$LocalConvex@VCapsuleV@Gu@physx@@@01@AEBU?$LocalConvex@VBoxV@Gu@physx@@@01@AEBT__m128@@2_NPEIAE4PEIAT5@5AEAEAEAUGjkOutput@01@@Z 0000000180047ab0 f i GuSweepTests.obj
 0001:00047f30       ??$gjkPenetration@U?$RelativeConvex@VBoxV@Gu@physx@@@Gu@physx@@U?$LocalConvex@VBoxV@Gu@physx@@@23@@Gu@physx@@YA?AW4GjkStatus@01@AEBU?$RelativeConvex@VBoxV@Gu@physx@@@01@AEBU?$LocalConvex@VBoxV@Gu@physx@@@01@AEBT__m128@@2_NPEIAE4AEAEAEAUGjkOutput@01@@Z 0000000180048f30 f i GuSweepTests.obj
 0001:00047fa0       ??$gjkPenetration@U?$RelativeConvex@VBoxV@Gu@physx@@@Gu@physx@@U?$LocalConvex@VBoxV@Gu@physx@@@23@@Gu@physx@@YA?AW4GjkStatus@01@AEBU?$RelativeConvex@VBoxV@Gu@physx@@@01@AEBU?$LocalConvex@VBoxV@Gu@physx@@@01@AEBT__m128@@2_NPEIAE4PEIAT5@5AEAEAEAUGjkOutput@01@@Z 0000000180048fa0 f i GuSweepTests.obj
 0001:00049450       ??$gjkRaycast@U?$LocalConvex@VCapsuleV@Gu@physx@@@Gu@physx@@U?$LocalConvex@VBoxV@Gu@physx@@@23@@Gu@physx@@YA_NAEBU?$LocalConvex@VCapsuleV@Gu@physx@@@01@AEBU?$LocalConvex@VBoxV@Gu@physx@@@01@AEBT__m128@@222AEAT4@33M@Z 000000018004a450 f i GuSweepTests.obj
 0001:0004a020       ??$gjkRaycast@U?$LocalConvex@VTriangleV@Gu@physx@@@Gu@physx@@U?$LocalConvex@VBoxV@Gu@physx@@@23@@Gu@physx@@YA_NAEBU?$LocalConvex@VTriangleV@Gu@physx@@@01@AEBU?$LocalConvex@VBoxV@Gu@physx@@@01@AEBT__m128@@222AEAT4@33M@Z 000000018004b020 f i GuSweepTests.obj
 0001:0004ac70       ??$gjkRaycast@U?$RelativeConvex@VBoxV@Gu@physx@@@Gu@physx@@U?$LocalConvex@VBoxV@Gu@physx@@@23@@Gu@physx@@YA_NAEBU?$RelativeConvex@VBoxV@Gu@physx@@@01@AEBU?$LocalConvex@VBoxV@Gu@physx@@@01@AEBT__m128@@222AEAT4@33M@Z 000000018004bc70 f i GuSweepTests.obj
 0001:0004b8a0       ?getSweepFuncTable@Gu@physx@@YAAEBUGeomSweepFuncs@12@XZ 000000018004c8a0 f   GuSweepTests.obj
 0001:0004b8b0       ?getSweepMargin@?$LocalConvex@VTetrahedronV@Gu@physx@@@Gu@physx@@UEBA?AT__m128@@XZ 000000018004c8b0 f i GuCookingTetrahedronMesh.obj
 0001:0004b8b0       ?getSweepMargin@?$LocalConvex@VTriangleV@Gu@physx@@@Gu@physx@@UEBA?AT__m128@@XZ 000000018004c8b0 f i GuSweepTests.obj
 0001:0004b8b0       ?getSweepMargin@?$RelativeConvex@VTriangleV@Gu@physx@@@Gu@physx@@UEBA?AT__m128@@XZ 000000018004c8b0 f i GuCCDSweepPrimitives.obj
 0001:0004b8c0       ?support@?$LocalConvex@VBoxV@Gu@physx@@@Gu@physx@@UEBA?AT__m128@@AEBT4@@Z 000000018004c8c0 f i GuSweepTests.obj
 0001:0004b8f0       ?support@?$LocalConvex@VBoxV@Gu@physx@@@Gu@physx@@UEBA?AT__m128@@AEBT4@AEAH@Z 000000018004c8f0 f i GuSweepTests.obj
 0001:0004b930       ?support@?$LocalConvex@VTriangleV@Gu@physx@@@Gu@physx@@UEBA?AT__m128@@AEBT4@@Z 000000018004c930 f i GuSweepTests.obj
 0001:0004b9c0       ?support@?$LocalConvex@VTriangleV@Gu@physx@@@Gu@physx@@UEBA?AT__m128@@AEBT4@AEAH@Z 000000018004c9c0 f i GuSweepTests.obj
 0001:0004baa0       ?supportPoint@?$LocalConvex@VBoxV@Gu@physx@@@Gu@physx@@UEBA?AT__m128@@H@Z 000000018004caa0 f i GuSweepTests.obj
 0001:0004bae0       ?supportPoint@?$LocalConvex@VTetrahedronV@Gu@physx@@@Gu@physx@@UEBA?AT__m128@@H@Z 000000018004cae0 f i GuCookingTetrahedronMesh.obj
 0001:0004bae0       ?supportPoint@?$LocalConvex@VTriangleV@Gu@physx@@@Gu@physx@@UEBA?AT__m128@@H@Z 000000018004cae0 f i GuSweepTests.obj
 0001:0004bb00       ?sweepBoxTriangles@Gu@physx@@YA_NIPEBVPxTriangle@2@_NAEBVPxBoxGeometry@2@AEBV?$PxTransformT@M@2@AEBV?$PxVec3T@M@2@MAEAUPxGeomSweepHit@2@PEBIMV?$PxFlags@W4Enum@PxHitFlag@physx@@G@2@@Z 000000018004cb00 f   GuSweepTests.obj
 0001:0004c570       ??$PxSmallSort@H$$CBU?$Comparer@V?$PxVec3T@M@physx@@@MeshAnalyzer@Gu@physx@@@physx@@YAXPEAHHHAEBU?$Comparer@V?$PxVec3T@M@physx@@@MeshAnalyzer@Gu@0@@Z 000000018004d570 f i GuSDF.obj
 0001:0004c790       ??$PxSort@HU?$Comparer@V?$PxVec3T@M@physx@@@MeshAnalyzer@Gu@physx@@V?$PxReflectionAllocator@H@4@@physx@@YAXPEAHIAEBU?$Comparer@V?$PxVec3T@M@physx@@@MeshAnalyzer@Gu@0@AEBV?$PxReflectionAllocator@H@0@I@Z 000000018004d790 f i GuSDF.obj
 0001:0004cc10       ??$PxSort@HU?$PxLess@H@physx@@V?$PxReflectionAllocator@H@2@@physx@@YAXPEAHIAEBU?$PxLess@H@0@AEBV?$PxReflectionAllocator@H@0@I@Z 000000018004dc10 f i GuSDF.obj
 0001:0004d060       ??$mapDuplicatePoints@V?$PxVec3T@M@physx@@M@MeshAnalyzer@Gu@physx@@SAXPEBV?$PxVec3T@M@2@IAEAV?$PxArray@HV?$PxReflectionAllocator@H@physx@@@2@M@Z 000000018004e060 f i GuSDF.obj
 0001:0004d3e0       ??$splitRanges@V?$PxVec3T@M@physx@@M@MeshAnalyzer@Gu@physx@@CAXAEAV?$PxArray@URange@MeshAnalyzer@Gu@physx@@V?$PxReflectionAllocator@URange@MeshAnalyzer@Gu@physx@@@4@@2@AEBV?$PxArray@HV?$PxReflectionAllocator@H@physx@@@2@PEBV?$PxVec3T@M@2@HM@Z 000000018004e3e0 f i GuSDF.obj
 0001:0004d650       ??$traverseBVH@VClosestDistanceToTrimeshTraversalController@Gu@physx@@@Gu@physx@@YAXPEBUBVHNode@01@AEAVClosestDistanceToTrimeshTraversalController@01@H@Z 000000018004e650 f i GuSDF.obj
 0001:0004da60       ??$traverseBVH@VLineSegmentTrimeshIntersectionTraversalController@Gu@physx@@@Gu@physx@@YAXPEBUBVHNode@01@AEAVLineSegmentTrimeshIntersectionTraversalController@01@H@Z 000000018004ea60 f i GuSDF.obj
 0001:0004df80       ??1SDF@Gu@physx@@QEAA@XZ   000000018004ef80 f   GuSDF.obj
 0001:0004e010       ??_E?$PxThreadT@V?$PxReflectionAllocator@VPxThreadImpl@physx@@@physx@@@physx@@UEAAPEAXI@Z 000000018004f010 f i GuSDF.obj
 0001:0004e010       ??_G?$PxThreadT@V?$PxReflectionAllocator@VPxThreadImpl@physx@@@physx@@@physx@@UEAAPEAXI@Z 000000018004f010 f i GuSDF.obj
 0001:0004e0c0       ??_EPxRunnable@physx@@UEAAPEAXI@Z 000000018004f0c0 f i GuSDF.obj
 0001:0004e0c0       ??_GPxRunnable@physx@@UEAAPEAXI@Z 000000018004f0c0 f i GuSDF.obj
 0001:0004e0f0       ?PxCreatePointOntoTriangleMeshProjector@Gu@physx@@YAPEAVPxPointOntoTriangleMeshProjector@12@PEBV?$PxVec3T@M@2@PEBII@Z 000000018004f0f0 f   GuSDF.obj
 0001:0004e1f0       ?SDFUsingWindingNumbers@Gu@physx@@YAXAEAV?$PxArray@UBVHNode@Gu@physx@@V?$PxReflectionAllocator@UBVHNode@Gu@physx@@@3@@2@AEAV?$PxHashMap@IU?$ClusterApproximationT@MV?$PxVec3T@M@physx@@@Gu@physx@@U?$PxHash@I@3@VPxAllocator@3@@2@PEBV?$PxVec3T@M@2@PEBIIIIIPEAMAEAUGridQueryPointSampler@12@PEAV52@I_N7@Z 000000018004f1f0 f   GuSDF.obj
 0001:0004e710       ?SDFUsingWindingNumbers@Gu@physx@@YAXPEBV?$PxVec3T@M@2@PEBIIIIIPEAMV32@3PEAV32@_NIPEAVPxSDFBuilder@2@@Z 000000018004f710 f   GuSDF.obj
 0001:0004ebe0       ?SDFUsingWindingNumbersSparse@Gu@physx@@YAXPEBV?$PxVec3T@M@2@PEBIIIIIAEBV32@2MIAEAV?$PxArray@MV?$PxReflectionAllocator@M@physx@@@2@AEAV?$PxArray@IV?$PxReflectionAllocator@I@physx@@@2@33AEAM5IPEAVPxSDFBuilder@2@@Z 000000018004fbe0 f   GuSDF.obj
 0001:0004f670       ?allocate@?$PxArray@HV?$PxInlineAllocator@$0EAA@V?$PxReflectionAllocator@H@physx@@@physx@@@physx@@IEAAPEAHI@Z 0000000180050670 f i GuSDF.obj
 0001:0004f730       ?allocate@?$PxArray@MV?$PxReflectionAllocator@M@physx@@@physx@@IEAAPEAMI@Z 0000000180050730 f i GuSDF.obj
 0001:0004f7e0       ?allocateSdfs@SDF@Gu@physx@@QEAAPEAMAEBV?$PxVec3T@M@3@AEBMIIIIIIIMMI@Z 00000001800507e0 f   GuSDF.obj
 0001:0004f9f0       ?analyzeAndFixMesh@Gu@physx@@YAXPEBV?$PxVec3T@M@2@PEBIIAEAV?$PxArray@IV?$PxReflectionAllocator@I@physx@@@2@@Z 00000001800509f0 f   GuSDF.obj
 0001:00050240       ?buildTree@Gu@physx@@YAXPEBIIPEBV?$PxVec3T@M@2@AEAV?$PxArray@UBVHNode@Gu@physx@@V?$PxReflectionAllocator@UBVHNode@Gu@physx@@@3@@2@M@Z 0000000180051240 f   GuSDF.obj
 0001:00050470       ?computeSDFThreadJob@Gu@physx@@YAPEAXPEAX@Z 0000000180051470 f   GuSDF.obj
 0001:00050f20       ?convertSparseSDFTo3DTextureLayout@Gu@physx@@YAXIIIIPEAIPEBMIAEAV?$PxArray@MV?$PxReflectionAllocator@M@physx@@@2@AEAI33@Z 0000000180051f20 f   GuSDF.obj
 0001:000512d0       ?create@?$PxHashBase@V?$PxPair@$$CBUSortedTriangle@Gu@physx@@H@physx@@USortedTriangle@Gu@2@UTriangleHash@42@UGetKey@?$PxHashMapBase@USortedTriangle@Gu@physx@@HUTriangleHash@23@VPxAllocator@3@@2@VPxAllocator@2@$00@physx@@QEAAPEAV?$PxPair@$$CBUSortedTriangle@Gu@physx@@H@2@AEBUSortedTriangle@Gu@2@AEA_N@Z 00000001800522d0 f i GuSDF.obj
 0001:00051400       ?create@?$PxHashBase@V?$PxPair@$$CB_KH@physx@@_KU?$PxHash@_K@2@UGetKey@?$PxHashMapBase@_KHU?$PxHash@_K@physx@@VPxAllocator@2@@2@VPxAllocator@2@$00@physx@@QEAAPEAV?$PxPair@$$CB_KH@2@AEB_KAEA_N@Z 0000000180052400 f i GuMeshAnalysis.obj
 0001:00051400       ?create@?$PxHashBase@V?$PxPair@$$CB_KI@physx@@_KU?$PxHash@_K@2@UGetKey@?$PxHashMapBase@_KIU?$PxHash@_K@physx@@VPxAllocator@2@@2@VPxAllocator@2@$00@physx@@QEAAPEAV?$PxPair@$$CB_KI@2@AEB_KAEA_N@Z 0000000180052400 f i GuSDF.obj
 0001:00051590       ?createTriangles@Gu@physx@@YAXHHHMQEAMAEBV?$PxHashMap@_KIU?$PxHash@_K@physx@@VPxAllocator@2@@2@AEBV?$PxArray@V?$PxVec3T@M@physx@@V?$PxReflectionAllocator@V?$PxVec3T@M@physx@@@2@@2@AEAV?$PxArray@IV?$PxReflectionAllocator@I@physx@@@2@@Z 0000000180052590 f   GuSDF.obj
 0001:00051e40       ?decodeDense@SDF@Gu@physx@@QEBAMHHH@Z 0000000180052e40 f   GuSDF.obj
 0001:00051e90       ?decodeSparse@SDF@Gu@physx@@QEBAMHHH@Z 0000000180052e90 f   GuSDF.obj
 0001:00052130       ?extractIsosurfaceFromSDF@Gu@physx@@YAXAEBVSDF@12@AEAV?$PxArray@V?$PxVec3T@M@physx@@V?$PxReflectionAllocator@V?$PxVec3T@M@physx@@@2@@2@AEAV?$PxArray@IV?$PxReflectionAllocator@I@physx@@@2@@Z 0000000180053130 f   GuSDF.obj
 0001:00052e90       ?fixSdfForNonClosedGeometry@Gu@physx@@YAXIIIPEAMAEBV?$PxVec3T@M@2@@Z 0000000180053e90 f   GuSDF.obj
 0001:00053f70       ?generatePointInCell@Gu@physx@@YA_NAEBVSDF@12@HHHAEAV?$PxVec3T@M@2@QEAY111M@Z 0000000180054f70 f   GuSDF.obj
 0001:000543c0       ?growAndPushBack@?$PxArray@HV?$PxInlineAllocator@$0EAA@V?$PxReflectionAllocator@H@physx@@@physx@@@physx@@IEAAAEAHAEBH@Z 00000001800553c0 f i GuSDF.obj
 0001:000544b0       ?growAndPushBack@?$PxArray@MV?$PxReflectionAllocator@M@physx@@@physx@@IEAAAEAMAEBM@Z 00000001800554b0 f i GuSDF.obj
 0001:00054590       ?growAndPushBack@?$PxArray@PEAV?$PxThreadT@V?$PxReflectionAllocator@VPxThreadImpl@physx@@@physx@@@physx@@V?$PxReflectionAllocator@PEAV?$PxThreadT@V?$PxReflectionAllocator@VPxThreadImpl@physx@@@physx@@@physx@@@2@@physx@@IEAAAEAPEAV?$PxThreadT@V?$PxReflectionAllocator@VPxThreadImpl@physx@@@physx@@@2@AEBQEAV32@@Z 0000000180055590 f i GuSDF.obj
 0001:000546c0       ?growAndPushBack@?$PxArray@UMutation@Gu@physx@@V?$PxReflectionAllocator@UMutation@Gu@physx@@@3@@physx@@IEAAAEAUMutation@Gu@2@AEBU342@@Z 00000001800556c0 f i GuSDF.obj
 0001:000547f0       ?growAndPushBack@?$PxArray@URange@Gu@physx@@V?$PxReflectionAllocator@URange@Gu@physx@@@3@@physx@@IEAAAEAURange@Gu@2@AEBU342@@Z 00000001800557f0 f i GuSDF.obj
 0001:00054940       ?growAndPushBack@?$PxArray@URange@MeshAnalyzer@Gu@physx@@V?$PxReflectionAllocator@URange@MeshAnalyzer@Gu@physx@@@4@@physx@@IEAAAEAURange@MeshAnalyzer@Gu@2@AEBU3452@@Z 0000000180055940 f i GuSDF.obj
 0001:00054a70       ?growAndPushBack@?$PxArray@USDFCalculationData@Gu@physx@@V?$PxReflectionAllocator@USDFCalculationData@Gu@physx@@@3@@physx@@IEAAAEAUSDFCalculationData@Gu@2@AEBU342@@Z 0000000180055a70 f i GuSDF.obj
 0001:00054c10       ?growAndPushBack@?$PxArray@V?$PxVec3T@M@physx@@V?$PxReflectionAllocator@V?$PxVec3T@M@physx@@@2@@physx@@IEAAAEAV?$PxVec3T@M@2@AEBV32@@Z 0000000180055c10 f i GuSDF.obj
 0001:00054e00       ?projectPoint@PointOntoTriangleMeshProjector@Gu@physx@@UEAA?AV?$PxVec3T@M@3@AEBV43@@Z 0000000180055e00 f i GuSDF.obj
 0001:00054e70       ?projectPoint@PointOntoTriangleMeshProjector@Gu@physx@@UEAA?AV?$PxVec3T@M@3@AEBV43@AEAI@Z 0000000180055e70 f i GuSDF.obj
 0001:00054ef0       ?recreate@?$PxArray@HV?$PxReflectionAllocator@H@physx@@@physx@@IEAAXI@Z 0000000180055ef0 f i GuSDF.obj
 0001:00055000       ?recreate@?$PxArray@MV?$PxReflectionAllocator@M@physx@@@physx@@IEAAXI@Z 0000000180056000 f i GuSDF.obj
 0001:000550e0       ?recreate@?$PxArray@UBVHNode@Gu@physx@@V?$PxReflectionAllocator@UBVHNode@Gu@physx@@@3@@physx@@IEAAXI@Z 00000001800560e0 f i GuSDF.obj
 0001:00055330       ?release@PointOntoTriangleMeshProjector@Gu@physx@@UEAAXXZ 0000000180056330 f i GuSDF.obj
 0001:00055380       ?reserveInternal@?$PxHashBase@V?$PxPair@$$CBIU?$ClusterApproximationT@MV?$PxVec3T@M@physx@@@Gu@physx@@@physx@@IU?$PxHash@I@2@UGetKey@?$PxHashMapBase@IU?$ClusterApproximationT@MV?$PxVec3T@M@physx@@@Gu@physx@@U?$PxHash@I@3@VPxAllocator@3@@2@VPxAllocator@2@$00@physx@@AEAAXI@Z 0000000180056380 f i GuSDF.obj
 0001:00055580       ?reserveInternal@?$PxHashBase@V?$PxPair@$$CBUSortedTriangle@Gu@physx@@H@physx@@USortedTriangle@Gu@2@UTriangleHash@42@UGetKey@?$PxHashMapBase@USortedTriangle@Gu@physx@@HUTriangleHash@23@VPxAllocator@3@@2@VPxAllocator@2@$00@physx@@AEAAXI@Z 0000000180056580 f i GuSDF.obj
 0001:00055720       ?reserveInternal@?$PxHashBase@V?$PxPair@$$CB_KH@physx@@_KU?$PxHash@_K@2@UGetKey@?$PxHashMapBase@_KHU?$PxHash@_K@physx@@VPxAllocator@2@@2@VPxAllocator@2@$00@physx@@AEAAXI@Z 0000000180056720 f i GuSDF.obj
 0001:00055720       ?reserveInternal@?$PxHashBase@V?$PxPair@$$CB_KI@physx@@_KU?$PxHash@_K@2@UGetKey@?$PxHashMapBase@_KIU?$PxHash@_K@physx@@VPxAllocator@2@@2@VPxAllocator@2@$00@physx@@AEAAXI@Z 0000000180056720 f i GuSDF.obj
 0001:00055900       ?resize@?$PxArray@IV?$PxReflectionAllocator@I@physx@@@physx@@QEAAXIAEBI@Z 0000000180056900 f i GuSDF.obj
 0001:000559c0       ?resize@?$PxArray@MV?$PxReflectionAllocator@M@physx@@@physx@@QEAAXIAEBM@Z 00000001800569c0 f i GuSDF.obj
 0001:00055ac0       ?resize@?$PxArray@UBVHNode@Gu@physx@@V?$PxReflectionAllocator@UBVHNode@Gu@physx@@@3@@physx@@QEAAXIAEBUBVHNode@Gu@2@@Z 0000000180056ac0 f i GuSDF.obj
 0001:00055c40       ?sampleSDFDirect@DenseSDF@Gu@physx@@QEAAMAEBV?$PxVec3T@M@3@@Z 0000000180056c40 f i GuSDF.obj
 0001:00055de0       ?signedVolume@Gu@physx@@YAMPEBV?$PxVec3T@M@2@PEBII1I@Z 0000000180056de0 f   GuSDF.obj
 0001:00056320       ?windingNumbers@Gu@physx@@YAXPEBV?$PxVec3T@M@2@PEBIIIIIPEAMV32@3PEAV32@@Z 0000000180057320 f   GuSDF.obj
 0001:00056770       ?windingNumbersInsideCheck@Gu@physx@@YAXPEBV?$PxVec3T@M@2@PEBIIIIIPEA_NV32@3PEAV32@@Z 0000000180057770 f   GuSDF.obj
 0001:00057130       ??0MeshData@physx@@QEAA@AEBVPxTriangleMeshDesc@1@@Z 0000000180058130 f i GuCookingSDF.obj
 0001:00057210       ?GetBounds@MeshData@physx@@QEBAXAEAV?$PxVec3T@M@2@0@Z 0000000180058210 f i GuCookingSDF.obj
 0001:000574b0       ?buildSDF@physx@@YA_NAEAVPxTriangleMeshDesc@1@AEAV?$PxArray@MV?$PxReflectionAllocator@M@physx@@@1@AEAV?$PxArray@EV?$PxReflectionAllocator@E@physx@@@1@AEAV?$PxArray@IV?$PxReflectionAllocator@I@physx@@@1@@Z 00000001800584b0 f   GuCookingSDF.obj
 0001:000574f0       ?convert16To32Bits@physx@@YAXVPxSimpleTriangleMesh@1@AEAV?$PxArray@IV?$PxReflectionAllocator@I@physx@@@1@@Z 00000001800584f0 f   GuCookingSDF.obj
 0001:00058510       ?quantizeSparseSDF@physx@@YAXW4Enum@PxSdfBitsPerSubgridPixel@1@AEBV?$PxArray@MV?$PxReflectionAllocator@M@physx@@@1@AEAV?$PxArray@EV?$PxReflectionAllocator@E@physx@@@1@MM@Z 0000000180059510 f   GuCookingSDF.obj
 0001:000585f0       ?recreate@?$PxArray@EV?$PxReflectionAllocator@E@physx@@@physx@@IEAAXI@Z 00000001800595f0 f i GuCookingSDF.obj
 0001:000586e0       ?recreate@?$PxArray@V?$PxVec3T@M@physx@@V?$PxReflectionAllocator@V?$PxVec3T@M@physx@@@2@@physx@@IEAAXI@Z 00000001800596e0 f i GuCookingSDF.obj
 0001:000588a0       ?resize@?$PxArray@EV?$PxReflectionAllocator@E@physx@@@physx@@QEAAXIAEBE@Z 00000001800598a0 f i GuCookingSDF.obj
 0001:00058960       ?resize@?$PxArray@V?$PxVec3T@M@physx@@V?$PxReflectionAllocator@V?$PxVec3T@M@physx@@@2@@physx@@QEAAXIAEBV?$PxVec3T@M@2@@Z 0000000180059960 f i GuCookingSDF.obj
 0001:00058a50       ??$gjk@U?$RelativeConvex@UCustomConvexV@@@Gu@physx@@U?$LocalConvex@UCustomConvexV@@@23@@Gu@physx@@YA?AW4GjkStatus@01@AEBU?$RelativeConvex@UCustomConvexV@@@01@AEBU?$LocalConvex@UCustomConvexV@@@01@AEBT__m128@@2AEAT5@333@Z 0000000180059a50 f i GuGjkQuery.obj
 0001:000597e0       ??$gjkPenetration@U?$RelativeConvex@UCustomConvexV@@@Gu@physx@@U?$LocalConvex@UCustomConvexV@@@23@@Gu@physx@@YA?AW4GjkStatus@01@AEBU?$RelativeConvex@UCustomConvexV@@@01@AEBU?$LocalConvex@UCustomConvexV@@@01@AEBT__m128@@2_NPEIAE4PEIAT5@5AEAEAEAUGjkOutput@01@@Z 000000018005a7e0 f i GuGjkQuery.obj
 0001:0005ad50       ??$gjkPenetration@U?$RelativeConvex@UCustomConvexV@@@Gu@physx@@U?$LocalConvex@UCustomConvexV@@@23@@Gu@physx@@YA?AW4GjkStatus@01@AEBU?$RelativeConvex@UCustomConvexV@@@01@AEBU?$LocalConvex@UCustomConvexV@@@01@AEBT__m128@@2_NPEIAT5@4AEAEAEAUGjkOutput@01@@Z 000000018005bd50 f i GuGjkQuery.obj
 0001:0005adb0       ??$gjkRaycast@U?$RelativeConvex@UCustomConvexV@@@Gu@physx@@U?$LocalConvex@UCustomConvexV@@@23@@Gu@physx@@YA_NAEBU?$RelativeConvex@UCustomConvexV@@@01@AEBU?$LocalConvex@UCustomConvexV@@@01@AEBT__m128@@222AEAT4@33M@Z 000000018005bdb0 f i GuGjkQuery.obj
 0001:0005bb10       ??$gjkRaycast@U?$RelativeConvex@UCustomConvexV@@@Gu@physx@@U?$LocalConvex@UPointConvexV@@@23@@Gu@physx@@YA_NAEBU?$RelativeConvex@UCustomConvexV@@@01@AEBU?$LocalConvex@UPointConvexV@@@01@AEBT__m128@@222AEAT4@33M@Z 000000018005cb10 f i GuGjkQuery.obj
 0001:0005c750       ?overlap@PxGjkQuery@physx@@SA_NAEBUSupport@12@0AEBV?$PxTransformT@M@2@1@Z 000000018005d750 f   GuGjkQuery.obj
 0001:0005cae0       ?proximityInfo@PxGjkQuery@physx@@SA_NAEBUSupport@12@0AEBV?$PxTransformT@M@2@1MMAEAV?$PxVec3T@M@2@22AEAM@Z 000000018005dae0 f   GuGjkQuery.obj
 0001:0005d8a0       ?raycast@PxGjkQuery@physx@@SA_NAEBUSupport@12@AEBV?$PxTransformT@M@2@AEBV?$PxVec3T@M@2@2MAEAMAEAV52@4@Z 000000018005e8a0 f   GuGjkQuery.obj
 0001:0005dd90       ?support@?$LocalConvex@UCustomConvexV@@@Gu@physx@@UEBA?AT__m128@@AEBT4@@Z 000000018005ed90 f i GuGjkQuery.obj
 0001:0005de10       ?support@?$LocalConvex@UCustomConvexV@@@Gu@physx@@UEBA?AT__m128@@AEBT4@AEAH@Z 000000018005ee10 f i GuGjkQuery.obj
 0001:0005de90       ?support@?$LocalConvex@UPointConvexV@@@Gu@physx@@UEBA?AT__m128@@AEBT4@@Z 000000018005ee90 f i GuGjkQuery.obj
 0001:0005de90       ?supportPoint@?$LocalConvex@UPointConvexV@@@Gu@physx@@UEBA?AT__m128@@H@Z 000000018005ee90 f i GuGjkQuery.obj
 0001:0005dea0       ?support@?$LocalConvex@UPointConvexV@@@Gu@physx@@UEBA?AT__m128@@AEBT4@AEAH@Z 000000018005eea0 f i GuGjkQuery.obj
 0001:0005dec0       ?support@?$RelativeConvex@UCustomConvexV@@@Gu@physx@@UEBA?AT__m128@@AEBT4@@Z 000000018005eec0 f i GuGjkQuery.obj
 0001:0005df90       ?support@?$RelativeConvex@UCustomConvexV@@@Gu@physx@@UEBA?AT__m128@@AEBT4@AEAH@Z 000000018005ef90 f i GuGjkQuery.obj
 0001:0005e070       ?supportPoint@?$LocalConvex@UCustomConvexV@@@Gu@physx@@UEBA?AT__m128@@H@Z 000000018005f070 f i GuGjkQuery.obj
 0001:0005e0e0       ?supportPoint@?$RelativeConvex@UCustomConvexV@@@Gu@physx@@UEBA?AT__m128@@H@Z 000000018005f0e0 f i GuGjkQuery.obj
 0001:0005e180       ?sweep@PxGjkQuery@physx@@SA_NAEBUSupport@12@0AEBV?$PxTransformT@M@2@1AEBV?$PxVec3T@M@2@MAEAMAEAV52@4@Z 000000018005f180 f   GuGjkQuery.obj
 0001:0005e940       ??$approximateCluster@MV?$PxVec3T@M@physx@@@Gu@physx@@YAXAEBV?$PxArray@HV?$PxReflectionAllocator@H@physx@@@1@IIPEBIPEBV?$PxVec3T@M@1@AEBV?$PxArray@MV?$PxReflectionAllocator@M@physx@@@1@AEBV?$PxArray@V?$PxVec3T@M@physx@@V?$PxReflectionAllocator@V?$PxVec3T@M@physx@@@2@@1@4AEAU?$ClusterApproximationT@MV?$PxVec3T@M@physx@@@01@@Z 000000018005f940 f i GuWindingNumber.obj
 0001:0005ef80       ??$copy@V?$PxReflectionAllocator@M@physx@@@?$PxArray@MV?$PxReflectionAllocator@M@physx@@@physx@@IEAAXAEBV01@@Z 000000018005ff80 f i GuWindingNumber.obj
 0001:0005efe0       ??$precomputeClusterInformation@MV?$PxVec3T@M@physx@@@Gu@physx@@YAXHPEBUBVHNode@01@PEBIIPEBV?$PxVec3T@M@1@AEAV?$PxHashMap@IU?$ClusterApproximationT@MV?$PxVec3T@M@physx@@@Gu@physx@@U?$PxHash@I@3@VPxAllocator@3@@1@V?$PxArray@MV?$PxReflectionAllocator@M@physx@@@1@AEBV?$PxArray@V?$PxVec3T@M@physx@@V?$PxReflectionAllocator@V?$PxVec3T@M@physx@@@2@@1@5@Z 000000018005ffe0 f i GuWindingNumber.obj
 0001:0005f3b0       ??$precomputeClusterInformation@MV?$PxVec3T@M@physx@@@Gu@physx@@YAXPEBUBVHNode@01@PEBIIPEBV?$PxVec3T@M@1@AEAV?$PxHashMap@IU?$ClusterApproximationT@MV?$PxVec3T@M@physx@@@Gu@physx@@U?$PxHash@I@3@VPxAllocator@3@@1@H@Z 00000001800603b0 f i GuWindingNumber.obj
 0001:0005f7c0       ??$traverseBVH@V?$WindingNumberTraversalController@MV?$PxVec3T@M@physx@@@Gu@physx@@@Gu@physx@@YAXPEBUBVHNode@01@AEAV?$WindingNumberTraversalController@MV?$PxVec3T@M@physx@@@01@H@Z 00000001800607c0 f i GuWindingNumber.obj
 0001:0005fd60       ?allocate@?$PxArray@HV?$PxReflectionAllocator@H@physx@@@physx@@IEAAPEAHI@Z 0000000180060d60 f i GuWindingNumber.obj
 0001:0005fe10       ?computeWindingNumber@Gu@physx@@YAMAEBV?$PxVec3T@M@2@PEBIIPEBV32@@Z 0000000180060e10 f   GuWindingNumber.obj
 0001:00060140       ?computeWindingNumber@Gu@physx@@YAMPEBUBVHNode@12@AEBV?$PxVec3T@M@2@AEBV?$PxHashMap@IU?$ClusterApproximationT@MV?$PxVec3T@M@physx@@@Gu@physx@@U?$PxHash@I@3@VPxAllocator@3@@2@PEBIPEBV42@@Z 0000000180061140 f   GuWindingNumber.obj
 0001:000601b0       ?computeWindingNumber@Gu@physx@@YAMPEBUBVHNode@12@AEBV?$PxVec3T@M@2@MAEBV?$PxHashMap@IU?$ClusterApproximationT@MV?$PxVec3T@M@physx@@@Gu@physx@@U?$PxHash@I@3@VPxAllocator@3@@2@PEBIPEBV42@@Z 00000001800611b0 f   GuWindingNumber.obj
 0001:00060220       ?copy@?$PxArray@MV?$PxReflectionAllocator@M@physx@@@physx@@KAXPEAM0PEBM@Z 0000000180061220 f i GuWindingNumber.obj
 0001:00060280       ?create@?$PxHashBase@V?$PxPair@$$CBIU?$ClusterApproximationT@MV?$PxVec3T@M@physx@@@Gu@physx@@@physx@@IU?$PxHash@I@2@UGetKey@?$PxHashMapBase@IU?$ClusterApproximationT@MV?$PxVec3T@M@physx@@@Gu@physx@@U?$PxHash@I@3@VPxAllocator@3@@2@VPxAllocator@2@$00@physx@@QEAAPEAV?$PxPair@$$CBIU?$ClusterApproximationT@MV?$PxVec3T@M@physx@@@Gu@physx@@@2@AEBIAEA_N@Z 0000000180061280 f i GuWindingNumber.obj
 0001:000603d0       ?growAndPushBack@?$PxArray@HV?$PxReflectionAllocator@H@physx@@@physx@@IEAAAEAHAEBH@Z 00000001800613d0 f i GuWindingNumber.obj
 0001:00060490       ?growAndPushBack@?$PxArray@USection@Gu@physx@@V?$PxReflectionAllocator@USection@Gu@physx@@@3@@physx@@IEAAAEAUSection@Gu@2@AEBU342@@Z 0000000180061490 f i GuWindingNumber.obj
 0001:000605c0       ?precomputeClusterInformation@Gu@physx@@YAXPEBUBVHNode@12@PEBIIPEBV?$PxVec3T@M@2@AEAV?$PxHashMap@IU?$ClusterApproximationT@MV?$PxVec3T@M@physx@@@Gu@physx@@U?$PxHash@I@3@VPxAllocator@3@@2@H@Z 00000001800615c0 f   GuWindingNumber.obj
 0001:00060660       ?SweepAnyShapeHeightfield@Gu@physx@@YAMAEBUCCDShape@12@0AEBUPxTransformPadded@2@111MAEAV?$PxVec3T@M@2@2MAEAIM@Z 0000000180061660 f   GuCCDSweepConvexMesh.obj
 0001:00061be0       ?SweepAnyShapeMesh@Gu@physx@@YAMAEBUCCDShape@12@0AEBUPxTransformPadded@2@111MAEAV?$PxVec3T@M@2@2MAEAIM@Z 0000000180062be0 f   GuCCDSweepConvexMesh.obj
 0001:00063220       ?SweepEstimateAnyShapeHeightfield@Gu@physx@@YAMAEBUCCDShape@12@0MM@Z 0000000180064220 f   GuCCDSweepConvexMesh.obj
 0001:00063ea0       ?SweepEstimateAnyShapeMesh@Gu@physx@@YAMAEBUCCDShape@12@0MM@Z 0000000180064ea0 f   GuCCDSweepConvexMesh.obj
 0001:00064140       ?allocate@?$PxArray@IV?$PxInlineAllocator@$0BAA@V?$PxReflectionAllocator@I@physx@@@physx@@@physx@@IEAAPEAII@Z 0000000180065140 f i GuCCDSweepConvexMesh.obj
 0001:00064c20       ?growAndPushBack@?$PxArray@IV?$PxInlineAllocator@$0BAA@V?$PxReflectionAllocator@I@physx@@@physx@@@physx@@IEAAAEAIAEBI@Z 0000000180065c20 f i GuCCDSweepConvexMesh.obj
 0001:00065260       ?recreate@?$PxArray@IV?$PxInlineAllocator@$0BAA@V?$PxReflectionAllocator@I@physx@@@physx@@@physx@@IEAAXI@Z 0000000180066260 f i GuCCDSweepConvexMesh.obj
 0001:000653a0       ?resize@?$PxArray@IV?$PxInlineAllocator@$0BAA@V?$PxReflectionAllocator@I@physx@@@physx@@@physx@@QEAAXIAEBI@Z 00000001800663a0 f i GuCCDSweepConvexMesh.obj
 0001:00065470       ?transformBoxOrthonormal@physx@@YA?AVBox@Gu@1@AEBV231@AEBV?$PxTransformT@M@1@@Z 0000000180066470 f i GuCCDSweepConvexMesh.obj
 0001:00065900       ?UnimplementedSweep@Gu@physx@@YAMAEBUCCDShape@12@0AEBUPxTransformPadded@2@111MAEAV?$PxVec3T@M@2@2MAEAIM@Z 0000000180066900 f   GuCCDSweepPrimitives.obj
 0001:00069630       ?UnimplementedTriangleSweep@Gu@physx@@YAMAEBVPxGeometry@2@0AEBUPxTransformPadded@2@111MAEAV?$PxVec3T@M@2@2AEBVFastVertex2ShapeScaling@Cm@2@AEAVTriangleV@12@M@Z 000000018006a630 f   GuCCDSweepPrimitives.obj
 0001:00069640       ??$SweepGeomTriangles@VCapsuleV@Gu@physx@@@Gu@physx@@YAMAEBVPxGeometry@1@0AEBUPxTransformPadded@1@111MAEAV?$PxVec3T@M@1@2AEBVFastVertex2ShapeScaling@Cm@1@AEAVTriangleV@01@M@Z 000000018006a640 f i GuCCDSweepPrimitives.obj
 0001:00069d70       ??$SweepGeomTriangles@VBoxV@Gu@physx@@@Gu@physx@@YAMAEBVPxGeometry@1@0AEBUPxTransformPadded@1@111MAEAV?$PxVec3T@M@1@2AEBVFastVertex2ShapeScaling@Cm@1@AEAVTriangleV@01@M@Z 000000018006ad70 f i GuCCDSweepPrimitives.obj
 0001:0006a4c0       ??$SweepGeomTriangles@VConvexHullV@Gu@physx@@@Gu@physx@@YAMAEBVPxGeometry@1@0AEBUPxTransformPadded@1@111MAEAV?$PxVec3T@M@1@2AEBVFastVertex2ShapeScaling@Cm@1@AEAVTriangleV@01@M@Z 000000018006b4c0 f i GuCCDSweepPrimitives.obj
 0001:0006afa0       ?supportPoint@?$RelativeConvex@VCapsuleV@Gu@physx@@@Gu@physx@@UEBA?AT__m128@@H@Z 000000018006bfa0 f i GuCCDSweepPrimitives.obj
 0001:0006b000       ?support@?$RelativeConvex@VCapsuleV@Gu@physx@@@Gu@physx@@UEBA?AT__m128@@AEBT4@@Z 000000018006c000 f i GuCCDSweepPrimitives.obj
 0001:0006b0b0       ?support@?$RelativeConvex@VCapsuleV@Gu@physx@@@Gu@physx@@UEBA?AT__m128@@AEBT4@AEAH@Z 000000018006c0b0 f i GuCCDSweepPrimitives.obj
 0001:0006b170       ?supportPoint@?$RelativeConvex@VTriangleV@Gu@physx@@@Gu@physx@@UEBA?AT__m128@@H@Z 000000018006c170 f i GuCCDSweepPrimitives.obj
 0001:0006b1c0       ?support@?$RelativeConvex@VTriangleV@Gu@physx@@@Gu@physx@@UEBA?AT__m128@@AEBT4@@Z 000000018006c1c0 f i GuCCDSweepPrimitives.obj
 0001:0006b2c0       ?support@?$RelativeConvex@VTriangleV@Gu@physx@@@Gu@physx@@UEBA?AT__m128@@AEBT4@AEAH@Z 000000018006c2c0 f i GuCCDSweepPrimitives.obj
 0001:0006b400       ??$gjkPenetration@U?$RelativeConvex@VCapsuleV@Gu@physx@@@Gu@physx@@U?$LocalConvex@VBoxV@Gu@physx@@@23@@Gu@physx@@YA?AW4GjkStatus@01@AEBU?$RelativeConvex@VCapsuleV@Gu@physx@@@01@AEBU?$LocalConvex@VBoxV@Gu@physx@@@01@AEBT__m128@@2_NPEIAE4AEAEAEAUGjkOutput@01@@Z 000000018006c400 f i GuCCDSweepPrimitives.obj
 0001:0006b470       ??$gjkPenetration@U?$RelativeConvex@VCapsuleV@Gu@physx@@@Gu@physx@@U?$LocalConvex@VBoxV@Gu@physx@@@23@@Gu@physx@@YA?AW4GjkStatus@01@AEBU?$RelativeConvex@VCapsuleV@Gu@physx@@@01@AEBU?$LocalConvex@VBoxV@Gu@physx@@@01@AEBT__m128@@2_NPEIAE4PEIAT5@5AEAEAEAUGjkOutput@01@@Z 000000018006c470 f i GuCCDSweepPrimitives.obj
 0001:0006c970       ??$gjkPenetration@U?$RelativeConvex@VCapsuleV@Gu@physx@@@Gu@physx@@U?$LocalConvex@VCapsuleV@Gu@physx@@@23@@Gu@physx@@YA?AW4GjkStatus@01@AEBU?$RelativeConvex@VCapsuleV@Gu@physx@@@01@AEBU?$LocalConvex@VCapsuleV@Gu@physx@@@01@AEBT__m128@@2_NPEIAE4AEAEAEAUGjkOutput@01@@Z 000000018006d970 f i GuCCDSweepPrimitives.obj
 0001:0006c9e0       ??$gjkPenetration@U?$RelativeConvex@VCapsuleV@Gu@physx@@@Gu@physx@@U?$LocalConvex@VCapsuleV@Gu@physx@@@23@@Gu@physx@@YA?AW4GjkStatus@01@AEBU?$RelativeConvex@VCapsuleV@Gu@physx@@@01@AEBU?$LocalConvex@VCapsuleV@Gu@physx@@@01@AEBT__m128@@2_NPEIAE4PEIAT5@5AEAEAEAUGjkOutput@01@@Z 000000018006d9e0 f i GuCCDSweepPrimitives.obj
 0001:0006ded0       ??$gjkPenetration@U?$RelativeConvex@VCapsuleV@Gu@physx@@@Gu@physx@@U?$LocalConvex@VConvexHullV@Gu@physx@@@23@@Gu@physx@@YA?AW4GjkStatus@01@AEBU?$RelativeConvex@VCapsuleV@Gu@physx@@@01@AEBU?$LocalConvex@VConvexHullV@Gu@physx@@@01@AEBT__m128@@2_NPEIAE4AEAEAEAUGjkOutput@01@@Z 000000018006eed0 f i GuCCDSweepPrimitives.obj
 0001:0006df40       ??$gjkPenetration@U?$RelativeConvex@VCapsuleV@Gu@physx@@@Gu@physx@@U?$LocalConvex@VConvexHullV@Gu@physx@@@23@@Gu@physx@@YA?AW4GjkStatus@01@AEBU?$RelativeConvex@VCapsuleV@Gu@physx@@@01@AEBU?$LocalConvex@VConvexHullV@Gu@physx@@@01@AEBT__m128@@2_NPEIAE4PEIAT5@5AEAEAEAUGjkOutput@01@@Z 000000018006ef40 f i GuCCDSweepPrimitives.obj
 0001:0006f4e0       ??$gjkPenetration@U?$RelativeConvex@VTriangleV@Gu@physx@@@Gu@physx@@U?$LocalConvex@VBoxV@Gu@physx@@@23@@Gu@physx@@YA?AW4GjkStatus@01@AEBU?$RelativeConvex@VTriangleV@Gu@physx@@@01@AEBU?$LocalConvex@VBoxV@Gu@physx@@@01@AEBT__m128@@2_NPEIAE4AEAEAEAUGjkOutput@01@@Z 00000001800704e0 f i GuCCDSweepPrimitives.obj
 0001:0006f550       ??$gjkPenetration@U?$RelativeConvex@VTriangleV@Gu@physx@@@Gu@physx@@U?$LocalConvex@VBoxV@Gu@physx@@@23@@Gu@physx@@YA?AW4GjkStatus@01@AEBU?$RelativeConvex@VTriangleV@Gu@physx@@@01@AEBU?$LocalConvex@VBoxV@Gu@physx@@@01@AEBT__m128@@2_NPEIAE4PEIAT5@5AEAEAEAUGjkOutput@01@@Z 0000000180070550 f i GuCCDSweepPrimitives.obj
 0001:00070a70       ??$gjkPenetration@U?$RelativeConvex@VTriangleV@Gu@physx@@@Gu@physx@@U?$LocalConvex@VCapsuleV@Gu@physx@@@23@@Gu@physx@@YA?AW4GjkStatus@01@AEBU?$RelativeConvex@VTriangleV@Gu@physx@@@01@AEBU?$LocalConvex@VCapsuleV@Gu@physx@@@01@AEBT__m128@@2_NPEIAE4AEAEAEAUGjkOutput@01@@Z 0000000180071a70 f i GuCCDSweepPrimitives.obj
 0001:00070ae0       ??$gjkPenetration@U?$RelativeConvex@VTriangleV@Gu@physx@@@Gu@physx@@U?$LocalConvex@VCapsuleV@Gu@physx@@@23@@Gu@physx@@YA?AW4GjkStatus@01@AEBU?$RelativeConvex@VTriangleV@Gu@physx@@@01@AEBU?$LocalConvex@VCapsuleV@Gu@physx@@@01@AEBT__m128@@2_NPEIAE4PEIAT5@5AEAEAEAUGjkOutput@01@@Z 0000000180071ae0 f i GuCCDSweepPrimitives.obj
 0001:00071ff0       ??$gjkPenetration@U?$RelativeConvex@VTriangleV@Gu@physx@@@Gu@physx@@U?$LocalConvex@VConvexHullV@Gu@physx@@@23@@Gu@physx@@YA?AW4GjkStatus@01@AEBU?$RelativeConvex@VTriangleV@Gu@physx@@@01@AEBU?$LocalConvex@VConvexHullV@Gu@physx@@@01@AEBT__m128@@2_NPEIAE4AEAEAEAUGjkOutput@01@@Z 0000000180072ff0 f i GuCCDSweepPrimitives.obj
 0001:00072060       ??$gjkPenetration@U?$RelativeConvex@VTriangleV@Gu@physx@@@Gu@physx@@U?$LocalConvex@VConvexHullV@Gu@physx@@@23@@Gu@physx@@YA?AW4GjkStatus@01@AEBU?$RelativeConvex@VTriangleV@Gu@physx@@@01@AEBU?$LocalConvex@VConvexHullV@Gu@physx@@@01@AEBT__m128@@2_NPEIAE4PEIAT5@5AEAEAEAUGjkOutput@01@@Z 0000000180073060 f i GuCCDSweepPrimitives.obj
 0001:00073610       ??$gjkRaycast@U?$RelativeConvex@VCapsuleV@Gu@physx@@@Gu@physx@@U?$LocalConvex@VBoxV@Gu@physx@@@23@@Gu@physx@@YA_NAEBU?$RelativeConvex@VCapsuleV@Gu@physx@@@01@AEBU?$LocalConvex@VBoxV@Gu@physx@@@01@AEBT__m128@@222AEAT4@33M@Z 0000000180074610 f i GuCCDSweepPrimitives.obj
 0001:00074280       ??$gjkRaycast@U?$RelativeConvex@VCapsuleV@Gu@physx@@@Gu@physx@@U?$LocalConvex@VCapsuleV@Gu@physx@@@23@@Gu@physx@@YA_NAEBU?$RelativeConvex@VCapsuleV@Gu@physx@@@01@AEBU?$LocalConvex@VCapsuleV@Gu@physx@@@01@AEBT__m128@@222AEAT4@33M@Z 0000000180075280 f i GuCCDSweepPrimitives.obj
 0001:00074f70       ??$gjkRaycast@U?$RelativeConvex@VCapsuleV@Gu@physx@@@Gu@physx@@U?$LocalConvex@VConvexHullV@Gu@physx@@@23@@Gu@physx@@YA_NAEBU?$RelativeConvex@VCapsuleV@Gu@physx@@@01@AEBU?$LocalConvex@VConvexHullV@Gu@physx@@@01@AEBT__m128@@222AEAT4@33M@Z 0000000180075f70 f i GuCCDSweepPrimitives.obj
 0001:00075d70       ??$gjkRaycast@U?$RelativeConvex@VTriangleV@Gu@physx@@@Gu@physx@@U?$LocalConvex@VBoxV@Gu@physx@@@23@@Gu@physx@@YA_NAEBU?$RelativeConvex@VTriangleV@Gu@physx@@@01@AEBU?$LocalConvex@VBoxV@Gu@physx@@@01@AEBT__m128@@222AEAT4@33M@Z 0000000180076d70 f i GuCCDSweepPrimitives.obj
 0001:00076a80       ??$gjkRaycast@U?$RelativeConvex@VTriangleV@Gu@physx@@@Gu@physx@@U?$LocalConvex@VCapsuleV@Gu@physx@@@23@@Gu@physx@@YA_NAEBU?$RelativeConvex@VTriangleV@Gu@physx@@@01@AEBU?$LocalConvex@VCapsuleV@Gu@physx@@@01@AEBT__m128@@222AEAT4@33M@Z 0000000180077a80 f i GuCCDSweepPrimitives.obj
 0001:00077800       ??$gjkRaycast@U?$RelativeConvex@VTriangleV@Gu@physx@@@Gu@physx@@U?$LocalConvex@VConvexHullV@Gu@physx@@@23@@Gu@physx@@YA_NAEBU?$RelativeConvex@VTriangleV@Gu@physx@@@01@AEBU?$LocalConvex@VConvexHullV@Gu@physx@@@01@AEBT__m128@@222AEAT4@33M@Z 0000000180078800 f i GuCCDSweepPrimitives.obj
 0001:000786c0       ?SweepShapeShape@Gu@physx@@YAMAEBUCCDShape@12@0AEBUPxTransformPadded@2@111MAEAV?$PxVec3T@M@2@2MAEAIM@Z 00000001800796c0 f   GuCCDSweepPrimitives.obj
 0001:000786e0       ?SweepShapeTriangle@Gu@physx@@YAMAEBVPxGeometry@2@0AEBUPxTransformPadded@2@111MAEAV?$PxVec3T@M@2@2AEBVFastVertex2ShapeScaling@Cm@2@AEAVTriangleV@12@M@Z 00000001800796e0 f   GuCCDSweepPrimitives.obj
 0001:00078700       ?barycentricCoordinates@Gu@physx@@YAXAEBT__m128@@000AEAT3@1@Z 0000000180079700 f   GuBarycentricCoordinates.obj
 0001:00078840       ?barycentricCoordinates@Gu@physx@@YAXAEBT__m128@@00AEAT3@@Z 0000000180079840 f   GuBarycentricCoordinates.obj
 0001:000788b0       ??$?_UV?$PxReflectionAllocator@VAdjTriangle@Gu@physx@@@physx@@@PxUserAllocated@physx@@SAPEAX_KV?$PxReflectionAllocator@VAdjTriangle@Gu@physx@@@1@PEBDH@Z 00000001800798b0 f i GuAdjacencies.obj
 0001:00078990       ??0AdjacenciesBuilder@Gu@physx@@QEAA@XZ 0000000180079990 f   GuAdjacencies.obj
 0001:000789a0       ??1AdjacenciesBuilder@Gu@physx@@QEAA@XZ 00000001800799a0 f   GuAdjacencies.obj
 0001:00078af0       ?ComputeNbBoundaryEdges@Adjacencies@Gu@physx@@QEBAIXZ 0000000180079af0 f   GuAdjacencies.obj
 0001:00078d80       ?Init@AdjacenciesBuilder@Gu@physx@@QEAA_NAEBUADJACENCIESCREATE@23@@Z 0000000180079d80 f   GuAdjacencies.obj
 0001:000792e0       ??0EdgeList@Gu@physx@@QEAA@XZ 000000018007a2e0 f   GuEdgeList.obj
 0001:00079300       ??1EdgeList@Gu@physx@@QEAA@XZ 000000018007a300 f   GuEdgeList.obj
 0001:000793b0       ?computeActiveEdges@EdgeList@Gu@physx@@AEAA_NIPEBIPEBGPEBV?$PxVec3T@M@3@M@Z 000000018007a3b0 f   GuEdgeList.obj
 0001:0007a730       ?createEdgesToFaces@EdgeList@Gu@physx@@AEAA_NIPEBIPEBG@Z 000000018007b730 f   GuEdgeList.obj
 0001:0007a990       ?createFacesToEdges@EdgeList@Gu@physx@@AEAA_NIPEBIPEBG@Z 000000018007b990 f   GuEdgeList.obj
 0001:0007ad60       ?init@EdgeList@Gu@physx@@QEAA_NAEBUEDGELISTCREATE@23@@Z 000000018007bd60 f   GuEdgeList.obj
 0001:0007ae90       ?addAxis@SeparatingAxes@Gu@physx@@QEAA_NAEBV?$PxVec3T@M@3@@Z 000000018007be90 f   GuSeparatingAxes.obj
 0001:0007af50       ??$kmeans_cluster@V?$PxVec3T@M@physx@@M@@YAIPEBV?$PxVec3T@M@physx@@IIPEAV01@PEAIMM@Z 000000018007bf50 f i GuQuantizer.obj
 0001:0007b910       ??_EQuantizer@Gu@physx@@MEAAPEAXI@Z 000000018007c910 f i GuQuantizer.obj
 0001:0007b910       ??_GQuantizer@Gu@physx@@MEAAPEAXI@Z 000000018007c910 f i GuQuantizer.obj
 0001:0007b940       ??_EQuantizerImpl@@EEAAPEAXI@Z 000000018007c940 f i GuQuantizer.obj
 0001:0007b940       ??_GQuantizerImpl@@EEAAPEAXI@Z 000000018007c940 f i GuQuantizer.obj
 0001:0007ba10       ?createQuantizer@Gu@physx@@YAPEAVQuantizer@12@XZ 000000018007ca10 f   GuQuantizer.obj
 0001:0007bac0       ?getDenormalizeCenter@QuantizerImpl@@UEBAAEBV?$PxVec3T@M@physx@@XZ 000000018007cac0 f i GuQuantizer.obj
 0001:0007bad0       ?getCurrentAABBTreeBounds@PruningPool@Gu@physx@@QEBAAEBVAABBTreeBounds@23@XZ 000000018007cad0 f i GuIncrementalAABBPrunerCore.obj
 0001:0007bad0       ?getDenormalizeScale@QuantizerImpl@@UEBAAEBV?$PxVec3T@M@physx@@XZ 000000018007cad0 f i GuQuantizer.obj
 0001:0007bae0       ?kmeansQuantize3D@QuantizerImpl@@UEAAPEBV?$PxVec3T@M@physx@@IPEBV23@I_NIAEAI@Z 000000018007cae0 f i GuQuantizer.obj
 0001:0007bd50       ?normalizeInput@QuantizerImpl@@AEAAXIPEBV?$PxVec3T@M@physx@@I@Z 000000018007cd50 f i GuQuantizer.obj
 0001:0007c1a0       ?release@QuantizerImpl@@UEAAXXZ 000000018007d1a0 f i GuQuantizer.obj
 0001:0007c1c0       ??0MeshCleaner@Gu@physx@@QEAA@IPEBV?$PxVec3T@M@2@IPEBIMM@Z 000000018007d1c0 f   GuMeshCleaner.obj
 0001:0007cb90       ??1MeshCleaner@Gu@physx@@QEAA@XZ 000000018007db90 f   GuMeshCleaner.obj
 0001:0007cc20       ??0ReducedVertexCloud@Gu@physx@@QEAA@PEBV?$PxVec3T@M@2@I@Z 000000018007dc20 f   GuVertexReducer.obj
 0001:0007cc40       ??1ReducedVertexCloud@Gu@physx@@QEAA@XZ 000000018007dc40 f   GuVertexReducer.obj
 0001:0007cc50       ?clean@ReducedVertexCloud@Gu@physx@@QEAAAEAV123@XZ 000000018007dc50 f   GuVertexReducer.obj
 0001:0007ccc0       ?reduce@ReducedVertexCloud@Gu@physx@@QEAA_NPEAUREDUCEDCLOUD@23@@Z 000000018007dcc0 f   GuVertexReducer.obj
 0001:0007cf60       ??$copy@V?$PxReflectionAllocator@I@physx@@@?$PxArray@IV?$PxReflectionAllocator@I@physx@@@physx@@IEAAXAEBV01@@Z 000000018007df60 f i GuMeshAnalysis.obj
 0001:0007cfd0       ?buildConsistentTriangleOrientationMap@MeshAnalyzer@Gu@physx@@SA_NPEBU?$IndexedTriangleT@H@23@IAEAV?$PxArray@_NV?$PxReflectionAllocator@_N@physx@@@3@AEAV?$PxHashMap@_KHU?$PxHash@_K@physx@@VPxAllocator@2@@3@AEAV?$PxArray@V?$PxArray@IV?$PxReflectionAllocator@I@physx@@@physx@@V?$PxReflectionAllocator@V?$PxArray@IV?$PxReflectionAllocator@I@physx@@@physx@@@2@@3@@Z 000000018007dfd0 f   GuMeshAnalysis.obj
 0001:0007d510       ?buildTriangleAdjacency@MeshAnalyzer@Gu@physx@@SA_NPEBU?$IndexedTriangleT@H@23@IAEAV?$PxArray@HV?$PxReflectionAllocator@H@physx@@@3@AEAV?$PxHashMap@_KHU?$PxHash@_K@physx@@VPxAllocator@2@@3@@Z 000000018007e510 f   GuMeshAnalysis.obj
 0001:0007d810       ?checkConsistentTriangleOrientation@MeshAnalyzer@Gu@physx@@SA_NPEBU?$IndexedTriangleT@H@23@I@Z 000000018007e810 f   GuMeshAnalysis.obj
 0001:0007d960       ?checkMeshWatertightness@MeshAnalyzer@Gu@physx@@SA_NPEBU?$IndexedTriangleT@H@23@I_N@Z 000000018007e960 f   GuMeshAnalysis.obj
 0001:0007db30       ?destroy@?$PxArray@V?$PxArray@IV?$PxReflectionAllocator@I@physx@@@physx@@V?$PxReflectionAllocator@V?$PxArray@IV?$PxReflectionAllocator@I@physx@@@physx@@@2@@physx@@KAXPEAV?$PxArray@IV?$PxReflectionAllocator@I@physx@@@2@0@Z 000000018007eb30 f i GuMeshAnalysis.obj
 0001:0007dba0       ?erase@?$PxHashBase@V?$PxPair@$$CB_KH@physx@@_KU?$PxHash@_K@2@UGetKey@?$PxHashMapBase@_KHU?$PxHash@_K@physx@@VPxAllocator@2@@2@VPxAllocator@2@$00@physx@@QEAA_NAEB_K@Z 000000018007eba0 f i GuMeshAnalysis.obj
 0001:0007dd50       ?growAndPushBack@?$PxArray@V?$PxArray@IV?$PxReflectionAllocator@I@physx@@@physx@@V?$PxReflectionAllocator@V?$PxArray@IV?$PxReflectionAllocator@I@physx@@@physx@@@2@@physx@@IEAAAEAV?$PxArray@IV?$PxReflectionAllocator@I@physx@@@2@AEBV32@@Z 000000018007ed50 f i GuMeshAnalysis.obj
 0001:0007dec0       ?makeTriOrientationConsistent@MeshAnalyzer@Gu@physx@@SA_NPEAU?$IndexedTriangleT@H@23@I_N@Z 000000018007eec0 f   GuMeshAnalysis.obj
 0001:0007e030       ?recreate@?$PxArray@_NV?$PxReflectionAllocator@_N@physx@@@physx@@IEAAXI@Z 000000018007f030 f i GuMeshAnalysis.obj
 0001:0007e120       ?resize@?$PxArray@HV?$PxReflectionAllocator@H@physx@@@physx@@QEAAXIAEBH@Z 000000018007f120 f i GuMeshAnalysis.obj
 0001:0007e1e0       ?resize@?$PxArray@_NV?$PxReflectionAllocator@_N@physx@@@physx@@QEAAXIAEB_N@Z 000000018007f1e0 f i GuMeshAnalysis.obj
 0001:0007e2a0       ?contactBoxBox@Gu@physx@@YA_NAEBVPxGeometry@2@0AEBUPxTransformPadded@2@1AEBUNarrowPhaseParams@12@AEAUCache@12@AEAVPxContactBuffer@2@PEAVPxRenderOutput@2@@Z 000000018007f2a0 f   GuContactBoxBox.obj
 0001:00082430       ?contactCapsuleBox@Gu@physx@@YA_NAEBVPxGeometry@2@0AEBUPxTransformPadded@2@1AEBUNarrowPhaseParams@12@AEAUCache@12@AEAVPxContactBuffer@2@PEAVPxRenderOutput@2@@Z 0000000180083430 f   GuContactCapsuleBox.obj
 0001:00082c40       ?contactCapsuleCapsule@Gu@physx@@YA_NAEBVPxGeometry@2@0AEBUPxTransformPadded@2@1AEBUNarrowPhaseParams@12@AEAUCache@12@AEAVPxContactBuffer@2@PEAVPxRenderOutput@2@@Z 0000000180083c40 f   GuContactCapsuleCapsule.obj
 0001:00085630       ?contactCapsuleConvex@Gu@physx@@YA_NAEBVPxGeometry@2@0AEBUPxTransformPadded@2@1AEBUNarrowPhaseParams@12@AEAUCache@12@AEAVPxContactBuffer@2@PEAVPxRenderOutput@2@@Z 0000000180086630 f   GuContactCapsuleConvex.obj
 0001:00087b70       ?contactCapsuleHeightfield@Gu@physx@@YA_NAEBVPxGeometry@2@0AEBUPxTransformPadded@2@1AEBUNarrowPhaseParams@12@AEAUCache@12@AEAVPxContactBuffer@2@PEAVPxRenderOutput@2@@Z 0000000180088b70 f   GuContactCapsuleMesh.obj
 0001:00088380       ?contactCapsuleMesh@Gu@physx@@YA_NAEBVPxGeometry@2@0AEBUPxTransformPadded@2@1AEBUNarrowPhaseParams@12@AEAUCache@12@AEAVPxContactBuffer@2@PEAVPxRenderOutput@2@@Z 0000000180089380 f   GuContactCapsuleMesh.obj
 0001:00089760       ?transformQueryBounds@FastVertex2ShapeScaling@Cm@physx@@QEBAXAEAV?$PxVec3T@M@3@0AEAV?$PxMat33T@M@3@@Z 000000018008a760 f i GuContactCapsuleMesh.obj
 0001:0008da00       ?contactBoxConvex@Gu@physx@@YA_NAEBVPxGeometry@2@0AEBUPxTransformPadded@2@1AEBUNarrowPhaseParams@12@AEAUCache@12@AEAVPxContactBuffer@2@PEAVPxRenderOutput@2@@Z 000000018008ea00 f   GuContactConvexConvex.obj
 0001:0008dbd0       ?contactConvexConvex@Gu@physx@@YA_NAEBVPxGeometry@2@0AEBUPxTransformPadded@2@1AEBUNarrowPhaseParams@12@AEAUCache@12@AEAVPxContactBuffer@2@PEAVPxRenderOutput@2@@Z 000000018008ebd0 f   GuContactConvexConvex.obj
 0001:0008e050       ?transformPlaneToShapeSpace@FastVertex2ShapeScaling@Cm@physx@@QEBAXAEBV?$PxVec3T@M@3@MAEAV43@AEAM@Z 000000018008f050 f i GuContactConvexConvex.obj
 0001:0008e500       ??_EConvexMeshContactGenerationCallback@@UEAAPEAXI@Z 000000018008f500 f i GuContactConvexMesh.obj
 0001:0008e500       ??_GConvexMeshContactGenerationCallback@@UEAAPEAXI@Z 000000018008f500 f i GuContactConvexMesh.obj
 0001:0008e560       ?addData@?$CacheMap@UCachedEdge@Gu@physx@@$0IA@@Gu@physx@@QEAA_NAEBUCachedEdge@23@@Z 000000018008f560 f i GuContactConvexMesh.obj
 0001:0008e640       ?addData@?$CacheMap@UCachedVertex@Gu@physx@@$0IA@@Gu@physx@@QEAA_NAEBUCachedVertex@23@@Z 000000018008f640 f i GuContactConvexMesh.obj
 0001:0008e6d0       ?allocate@?$PxArray@IV?$PxInlineAllocator@$0BBAA@V?$PxReflectionAllocator@I@physx@@@physx@@@physx@@IEAAPEAII@Z 000000018008f6d0 f i GuContactConvexMesh.obj
 0001:0008ead0       ?contactBoxHeightfield@Gu@physx@@YA_NAEBVPxGeometry@2@0AEBUPxTransformPadded@2@1AEBUNarrowPhaseParams@12@AEAUCache@12@AEAVPxContactBuffer@2@PEAVPxRenderOutput@2@@Z 000000018008fad0 f   GuContactConvexMesh.obj
 0001:0008ec50       ?contactBoxMesh@Gu@physx@@YA_NAEBVPxGeometry@2@0AEBUPxTransformPadded@2@1AEBUNarrowPhaseParams@12@AEAUCache@12@AEAVPxContactBuffer@2@PEAVPxRenderOutput@2@@Z 000000018008fc50 f   GuContactConvexMesh.obj
 0001:0008ee20       ?contactConvexHeightfield@Gu@physx@@YA_NAEBVPxGeometry@2@0AEBUPxTransformPadded@2@1AEBUNarrowPhaseParams@12@AEAUCache@12@AEAVPxContactBuffer@2@PEAVPxRenderOutput@2@@Z 000000018008fe20 f   GuContactConvexMesh.obj
 0001:0008ef70       ?contactConvexMesh@Gu@physx@@YA_NAEBVPxGeometry@2@0AEBUPxTransformPadded@2@1AEBUNarrowPhaseParams@12@AEAUCache@12@AEAVPxContactBuffer@2@PEAVPxRenderOutput@2@@Z 000000018008ff70 f   GuContactConvexMesh.obj
 0001:00092680       ?processHit@ConvexMeshContactGenerationCallback@@UEAA_NAEBUPxGeomRaycastHit@physx@@AEBV?$PxVec3T@M@3@11AEAMPEBI@Z 0000000180093680 f i GuContactConvexMesh.obj
 0001:00093040       ?recreate@?$PxArray@IV?$PxInlineAllocator@$0BBAA@V?$PxReflectionAllocator@I@physx@@@physx@@@physx@@IEAAXI@Z 0000000180094040 f i GuContactConvexMesh.obj
 0001:00094720       ?contactPlaneBox@Gu@physx@@YA_NAEBVPxGeometry@2@0AEBUPxTransformPadded@2@1AEBUNarrowPhaseParams@12@AEAUCache@12@AEAVPxContactBuffer@2@PEAVPxRenderOutput@2@@Z 0000000180095720 f   GuContactPlaneBox.obj
 0001:000953e0       ?contactPlaneCapsule@Gu@physx@@YA_NAEBVPxGeometry@2@0AEBUPxTransformPadded@2@1AEBUNarrowPhaseParams@12@AEAUCache@12@AEAVPxContactBuffer@2@PEAVPxRenderOutput@2@@Z 00000001800963e0 f   GuContactPlaneCapsule.obj
 0001:00095ab0       ?contactPlaneConvex@Gu@physx@@YA_NAEBVPxGeometry@2@0AEBUPxTransformPadded@2@1AEBUNarrowPhaseParams@12@AEAUCache@12@AEAVPxContactBuffer@2@PEAVPxRenderOutput@2@@Z 0000000180096ab0 f   GuContactPlaneConvex.obj
 0001:000977f0       ?contactPolygonPolygonExt@Gu@physx@@YA_NIPEBV?$PxVec3T@M@2@PEBEAEBV?$PxMat34T@M@2@AEBVPxPlane@2@AEBV?$PxMat33T@M@2@I01234AEBV32@22IIAEAVPxContactBuffer@2@_N5M@Z 00000001800987f0 f   GuContactPolygonPolygon.obj
 0001:00098f60       ?findRotationMatrixFromZ@Gu@physx@@YA?AV?$PxMat33T@M@2@AEBV?$PxVec3T@M@2@@Z 0000000180099f60 f   GuContactPolygonPolygon.obj
 0001:00099980       ?contactSphereBox@Gu@physx@@YA_NAEBVPxGeometry@2@0AEBUPxTransformPadded@2@1AEBUNarrowPhaseParams@12@AEAUCache@12@AEAVPxContactBuffer@2@PEAVPxRenderOutput@2@@Z 000000018009a980 f   GuContactSphereBox.obj
 0001:00099f50       ?contactSphereCapsule@Gu@physx@@YA_NAEBVPxGeometry@2@0AEBUPxTransformPadded@2@1AEBUNarrowPhaseParams@12@AEAUCache@12@AEAVPxContactBuffer@2@PEAVPxRenderOutput@2@@Z 000000018009af50 f   GuContactSphereCapsule.obj
 0001:0009ad30       ?contactSphereHeightfield@Gu@physx@@YA_NAEBVPxGeometry@2@0AEBUPxTransformPadded@2@1AEBUNarrowPhaseParams@12@AEAUCache@12@AEAVPxContactBuffer@2@PEAVPxRenderOutput@2@@Z 000000018009bd30 f   GuContactSphereMesh.obj
 0001:0009b750       ?contactSphereMesh@Gu@physx@@YA_NAEBVPxGeometry@2@0AEBUPxTransformPadded@2@1AEBUNarrowPhaseParams@12@AEAUCache@12@AEAVPxContactBuffer@2@PEAVPxRenderOutput@2@@Z 000000018009c750 f   GuContactSphereMesh.obj
 0001:0009dc00       ?contactSpherePlane@Gu@physx@@YA_NAEBVPxGeometry@2@0AEBUPxTransformPadded@2@1AEBUNarrowPhaseParams@12@AEAUCache@12@AEAVPxContactBuffer@2@PEAVPxRenderOutput@2@@Z 000000018009ec00 f   GuContactSpherePlane.obj
 0001:0009de10       ?contactSphereSphere@Gu@physx@@YA_NAEBVPxGeometry@2@0AEBUPxTransformPadded@2@1AEBUNarrowPhaseParams@12@AEAUCache@12@AEAVPxContactBuffer@2@PEAVPxRenderOutput@2@@Z 000000018009ee10 f   GuContactSphereSphere.obj
 0001:0009df90       ?contactCustomGeometryGeometry@Gu@physx@@YA_NAEBVPxGeometry@2@0AEBUPxTransformPadded@2@1AEBUNarrowPhaseParams@12@AEAUCache@12@AEAVPxContactBuffer@2@PEAVPxRenderOutput@2@@Z 000000018009ef90 f   GuContactCustomGeometry.obj
 0001:0009dff0       ?contactGeometryCustomGeometry@Gu@physx@@YA_NAEBVPxGeometry@2@0AEBUPxTransformPadded@2@1AEBUNarrowPhaseParams@12@AEAUCache@12@AEAVPxContactBuffer@2@PEAVPxRenderOutput@2@@Z 000000018009eff0 f   GuContactCustomGeometry.obj
 0001:0009e0b0       ?selectNormal@Gu@physx@@YA_NEMM@Z 000000018009f0b0 f   GuFeatureCode.obj
 0001:0009e130       ??0BigConvexData@physx@@QEAA@XZ 000000018009f130 f   GuBigConvexData.obj
 0001:0009e150       ??1BigConvexData@physx@@QEAA@XZ 000000018009f150 f   GuBigConvexData.obj
 0001:0009e210       ?ComputeNearestOffset@BigConvexData@physx@@QEBAIAEBV?$PxVec3T@M@2@@Z 000000018009f210 f   GuBigConvexData.obj
 0001:0009e310       ?ComputeOffset@BigConvexData@physx@@QEBAIAEBV?$PxVec3T@M@2@@Z 000000018009f310 f   GuBigConvexData.obj
 0001:0009e410       ?CreateOffsets@BigConvexData@physx@@IEAAXXZ 000000018009f410 f   GuBigConvexData.obj
 0001:0009e460       ?Load@BigConvexData@physx@@QEAA_NAEAVPxInputStream@2@@Z 000000018009f460 f   GuBigConvexData.obj
 0001:0009e570       ?VLoad@BigConvexData@physx@@IEAA_NAEAVPxInputStream@2@@Z 000000018009f570 f   GuBigConvexData.obj
 0001:0009e710       ?exportExtraData@BigConvexData@physx@@QEAAXAEAVPxSerializationContext@2@@Z 000000018009f710 f   GuBigConvexData.obj
 0001:0009e790       ?importExtraData@BigConvexData@physx@@QEAAXAEAVPxDeserializationContext@2@@Z 000000018009f790 f   GuBigConvexData.obj
 0001:0009e800       ?findUniqueConvexEdges@Gu@physx@@YAIIPEIAUConvexEdge@12@IPEIBUHullPolygonData@12@PEIBE@Z 000000018009f800 f   GuConvexHelper.obj
 0001:0009e940       ?getConvexData@Gu@physx@@YA_NAEBVPxConvexMeshGeometry@2@AEAVFastVertex2ShapeScaling@Cm@2@AEAVPxBounds3@2@AEAUPolygonalData@12@@Z 000000018009f940 f   GuConvexHelper.obj
 0001:0009ebc0       ?getScaledConvex@Gu@physx@@YAXAEAPEAV?$PxVec3T@M@2@AEAPEAEPEAV32@PEAE_NPEBV32@PEBEIAEBVFastVertex2ShapeScaling@Cm@2@@Z 000000018009fbc0 f   GuConvexHelper.obj
 0001:0009ecf0       ??0ConvexMesh@Gu@physx@@QEAA@PEAVMeshFactory@12@@Z 000000018009fcf0 f   GuConvexMesh.obj
 0001:0009ed80       ??0ConvexMesh@Gu@physx@@QEAA@PEAVMeshFactory@12@AEAUConvexHullInitData@12@@Z 000000018009fd80 f   GuConvexMesh.obj
 0001:0009eea0       ??_EConvexMesh@Gu@physx@@UEAAPEAXI@Z 000000018009fea0 f i GuConvexMesh.obj
 0001:0009eea0       ??_GConvexMesh@Gu@physx@@UEAAPEAXI@Z 000000018009fea0 f i GuConvexMesh.obj
 0001:0009efb0       ??_EPxBVH@physx@@MEAAPEAXI@Z 000000018009ffb0 f i GuBVH.obj
 0001:0009efb0       ??_EPxBase@physx@@MEAAPEAXI@Z 000000018009ffb0 f i GuConvexMesh.obj
 0001:0009efb0       ??_GPxBVH@physx@@MEAAPEAXI@Z 000000018009ffb0 f i GuBVH.obj
 0001:0009efb0       ??_GPxBase@physx@@MEAAPEAXI@Z 000000018009ffb0 f i GuConvexMesh.obj
 0001:0009efe0       ?acquireReference@ConvexMesh@Gu@physx@@UEAAXXZ 000000018009ffe0 f   GuConvexMesh.obj
 0001:0009efe0       ?acquireReference@HeightField@Gu@physx@@UEAAXXZ 000000018009ffe0 f   GuHeightField.obj
 0001:0009efe0       ?acquireReference@SoftBodyAuxData@Gu@physx@@UEAAXXZ 000000018009ffe0 f   GuTetrahedronMesh.obj
 0001:0009efe0       ?acquireReference@SoftBodyMesh@Gu@physx@@UEAAXXZ 000000018009ffe0 f   GuTetrahedronMesh.obj
 0001:0009efe0       ?acquireReference@TetrahedronMesh@Gu@physx@@UEAAXXZ 000000018009ffe0 f   GuTetrahedronMesh.obj
 0001:0009efe0       ?acquireReference@TriangleMesh@Gu@physx@@UEAAXXZ 000000018009ffe0 f   GuTriangleMesh.obj
 0001:0009f4a0       ?createObject@ConvexMesh@Gu@physx@@SAPEAV123@AEAPEAEAEAVPxDeserializationContext@3@@Z 00000001800a04a0 f   GuConvexMesh.obj
 0001:0009f580       ?exportExtraData@ConvexMesh@Gu@physx@@UEAAXAEAVPxSerializationContext@3@@Z 00000001800a0580 f   GuConvexMesh.obj
 0001:0009f650       ?getConcreteTypeName@PxConvexMesh@physx@@UEBAPEBDXZ 00000001800a0650 f i GuConvexMesh.obj
 0001:0009f660       ?getIndexBuffer@ConvexMesh@Gu@physx@@UEBAPEBEXZ 00000001800a0660 f i GuConvexMesh.obj
 0001:0009f6a0       ?getLocalBounds@ConvexMesh@Gu@physx@@UEBA?AVPxBounds3@3@XZ 00000001800a06a0 f   GuConvexMesh.obj
 0001:0009f730       ?getMassInformation@ConvexMesh@Gu@physx@@UEBAXAEAMAEAV?$PxMat33T@M@3@AEAV?$PxVec3T@M@3@@Z 00000001800a0730 f   GuConvexMesh.obj
 0001:0009f7a0       ?getNbPolygons@ConvexMesh@Gu@physx@@UEBAIXZ 00000001800a07a0 f i GuConvexMesh.obj
 0001:0009f7b0       ?getNbVertices@ConvexMesh@Gu@physx@@UEBAIXZ 00000001800a07b0 f i GuConvexMesh.obj
 0001:0009f7c0       ?getPolygonData@ConvexMesh@Gu@physx@@UEBA_NIAEAUPxHullPolygon@3@@Z 00000001800a07c0 f   GuConvexMesh.obj
 0001:0009f810       ?getReferenceCount@ConvexMesh@Gu@physx@@UEBAIXZ 00000001800a0810 f   GuConvexMesh.obj
 0001:0009f810       ?getReferenceCount@HeightField@Gu@physx@@UEBAIXZ 00000001800a0810 f   GuHeightField.obj
 0001:0009f810       ?getReferenceCount@SoftBodyAuxData@Gu@physx@@UEBAIXZ 00000001800a0810 f   GuTetrahedronMesh.obj
 0001:0009f810       ?getReferenceCount@SoftBodyMesh@Gu@physx@@UEBAIXZ 00000001800a0810 f   GuTetrahedronMesh.obj
 0001:0009f810       ?getReferenceCount@TetrahedronMesh@Gu@physx@@UEBAIXZ 00000001800a0810 f   GuTetrahedronMesh.obj
 0001:0009f810       ?getReferenceCount@TriangleMesh@Gu@physx@@UEBAIXZ 00000001800a0810 f   GuTriangleMesh.obj
 0001:0009f810       ?length@DNameStatusNode@@UEBAHXZ 00000001800a0810 f   libvcruntime:undname.obj
 0001:0009f810       ?raw_length@DNameStatusNode@@UEBAHXZ 00000001800a0810 f   libvcruntime:undname.obj
 0001:0009f820       ?getSDF@ConvexMesh@Gu@physx@@UEBAPEBMXZ 00000001800a0820 f   GuConvexMesh.obj
 0001:0009f830       ?getVertices@ConvexMesh@Gu@physx@@UEBAPEBV?$PxVec3T@M@3@XZ 00000001800a0830 f i GuConvexMesh.obj
 0001:0009f850       ?isGpuCompatible@ConvexMesh@Gu@physx@@UEBA_NXZ 00000001800a0850 f   GuConvexMesh.obj
 0001:0009f890       ?isKindOf@PxBase@physx@@MEBA_NPEBD@Z 00000001800a0890 f i GuConvexMesh.obj
 0001:0009f8b0       ?isKindOf@PxConvexMesh@physx@@MEBA_NPEBD@Z 00000001800a08b0 f i GuConvexMesh.obj
 0001:0009f940       ?isReleasable@PxBase@physx@@UEBA_NXZ 00000001800a0940 f i GuConvexMesh.obj
 0001:0009f950       ?load@ConvexMesh@Gu@physx@@QEAA_NAEAVPxInputStream@3@@Z 00000001800a0950 f   GuConvexMesh.obj
 0001:0009fee0       ?onRefCountZero@ConvexMesh@Gu@physx@@UEAAXXZ 00000001800a0ee0 f   GuConvexMesh.obj
 0001:000a0010       ?release@ConvexMesh@Gu@physx@@UEAAXXZ 00000001800a1010 f   GuConvexMesh.obj
 0001:000a0010       ?release@HeightField@Gu@physx@@UEAAXXZ 00000001800a1010 f   GuHeightField.obj
 0001:000a0010       ?release@SoftBodyAuxData@Gu@physx@@UEAAXXZ 00000001800a1010 f   GuTetrahedronMesh.obj
 0001:000a0010       ?release@SoftBodyMesh@Gu@physx@@UEAAXXZ 00000001800a1010 f   GuTetrahedronMesh.obj
 0001:000a0010       ?release@TetrahedronMesh@Gu@physx@@UEAAXXZ 00000001800a1010 f   GuTetrahedronMesh.obj
 0001:000a0010       ?release@TriangleMesh@Gu@physx@@UEAAXXZ 00000001800a1010 f   GuTriangleMesh.obj
 0001:000a0040       ??Dphysx@@YA?AV?$PxMat34T@M@0@AEBVPxMeshScale@0@AEBV10@@Z 00000001800a1040 f i GuConvexUtilsInternal.obj
 0001:000a05b0       ?computeHullOBB@Gu@physx@@YAXAEAVBox@12@AEBVPxBounds3@2@MAEBV?$PxMat34T@M@2@2AEBVFastVertex2ShapeScaling@Cm@2@_N@Z 00000001800a15b0 f   GuConvexUtilsInternal.obj
 0001:000a0a60       ?computeOBBAroundConvex@Gu@physx@@YAXAEAVBox@12@AEBVPxConvexMeshGeometry@2@PEBVPxConvexMesh@2@AEBV?$PxTransformT@M@2@@Z 00000001800a1a60 f   GuConvexUtilsInternal.obj
 0001:000a12b0       ?computeVertexSpaceOBB@Gu@physx@@YAXAEAVBox@12@AEBV312@AEBV?$PxTransformT@M@2@AEBVPxMeshScale@2@@Z 00000001800a22b0 f   GuConvexUtilsInternal.obj
 0001:000a15e0       ?transform@physx@@YA?AVBox@Gu@1@AEBV?$PxMat34T@M@1@AEBV231@@Z 00000001800a25e0 f i GuConvexUtilsInternal.obj
 0001:000a1830       ?localSearch@physx@@YAXAEAIAEBV?$PxVec3T@M@1@PEBV21@PEBUBigConvexRawData@Gu@1@@Z 00000001800a2830 f   GuHillClimbing.obj
 0001:000a1970       ??0PCMPolygonalBox@Gu@physx@@QEAA@AEBV?$PxVec3T@M@2@@Z 00000001800a2970 f   GuPCMShapeConvex.obj
 0001:000a1970       ??0PolygonalBox@Gu@physx@@QEAA@AEBV?$PxVec3T@M@2@@Z 00000001800a2970 f   GuShapeConvex.obj
 0001:000a2e30       ?getPolygonalData@PolygonalBox@Gu@physx@@QEBAXPEIAUPolygonalData@23@@Z 00000001800a3e30 f   GuShapeConvex.obj
 0001:000a2ea0       ?getPolygonalData_Convex@Gu@physx@@YAXPEIAUPolygonalData@12@PEIBUConvexHullData@12@AEBVFastVertex2ShapeScaling@Cm@2@@Z 00000001800a3ea0 f   GuShapeConvex.obj
 0001:000a3000       ?distancePointBoxSquared@Gu@physx@@YAMAEBV?$PxVec3T@M@2@00AEBV?$PxMat33T@M@2@PEAV32@@Z 00000001800a4000 f   GuDistancePointBox.obj
 0001:000a3150       ?closestPtPointTriangle@Gu@physx@@YA?AV?$PxVec3T@M@2@AEBV32@000AEAM1@Z 00000001800a4150 f   GuDistancePointTriangle.obj
 0001:000a3670       ?distancePointTriangleSquared2UnitBox@Gu@physx@@YA?AT__m128@@AEBT3@000AEAT3@11@Z 00000001800a4670 f   GuDistancePointTriangle.obj
 0001:000a3790       ?distancePointTriangleSquared@Gu@physx@@YA?AT__m128@@AEBT3@000AEAT3@11@Z 00000001800a4790 f   GuDistancePointTriangle.obj
 0001:000a44e0       ?distanceSegmentBoxSquared@Gu@physx@@YAMAEBV?$PxVec3T@M@2@000AEBV?$PxMat33T@M@2@PEAMPEAV32@@Z 00000001800a54e0 f   GuDistanceSegmentBox.obj
 0001:000a4d60       ?distanceSegmentSegmentSquared4@Gu@physx@@YA?AT__m128@@AEBT3@000000000AEAT3@1@Z 00000001800a5d60 f   GuDistanceSegmentSegment.obj
 0001:000a5070       ?distanceSegmentSegmentSquared@Gu@physx@@YA?AT__m128@@AEBT3@000AEAT3@1@Z 00000001800a6070 f   GuDistanceSegmentSegment.obj
 0001:000a5230       ?distanceSegmentSegmentSquared@Gu@physx@@YAMAEBV?$PxVec3T@M@2@000PEAM1@Z 00000001800a6230 f   GuDistanceSegmentSegment.obj
 0001:000a54c0       ?distanceSegmentSegmentSquared@Gu@physx@@YAMAEBV?$PxVec3T@M@2@0M00MPEAM1@Z 00000001800a64c0 f   GuDistanceSegmentSegment.obj
 0001:000a5c00       ?distanceSegmentTriangleSquared@Gu@physx@@YA?AT__m128@@AEBT3@0000AEAT3@1@Z 00000001800a6c00 f   GuDistanceSegmentTriangle.obj
 0001:000a6340       ?distanceSegmentTriangleSquared@Gu@physx@@YAMAEBV?$PxVec3T@M@2@0000PEAM11@Z 00000001800a7340 f   GuDistanceSegmentTriangle.obj
 0001:000a79b0       ?distanceTriangleTriangleSquared@Gu@physx@@YAMAEAV?$PxVec3T@M@2@0QEBVPxVec3Padded@2@1@Z 00000001800a89b0 f   GuDistanceTriangleTriangle.obj
 0001:000a84e0       ?PointOutsideOfPlane4@Gu@physx@@YA?AV?$PxVec4T@M@2@AEBV?$PxVec3T@M@2@0000@Z 00000001800a94e0 f   GuDistancePointTetrahedron.obj
 0001:000a8950       ?closestPtPointTetrahedron@Gu@physx@@YA?AV?$PxVec3T@M@2@AEBV32@0000AEBV?$PxVec4T@M@2@@Z 00000001800a9950 f   GuDistancePointTetrahedron.obj
 0001:000a9a40       ?PenetrationDepth@EPA@Gu@physx@@QEAA?AW4GjkStatus@23@AEBUGjkConvex@23@0PEIBT__m128@@1E_NT6@AEAUGjkOutput@23@@Z 00000001800aaa40 f   GuEPA.obj
 0001:000aa500       ?addFacet@EPA@Gu@physx@@QEAAPEAVFacet@23@IIIAEBT__m128@@@Z 00000001800ab500 f   GuEPA.obj
 0001:000aa930       ?epaPenetration@Gu@physx@@YA?AW4GjkStatus@12@AEBUGjkConvex@12@0PEIBE1E_NT__m128@@AEAUGjkOutput@12@@Z 00000001800ab930 f   GuEPA.obj
 0001:000aaaa0       ?epaPenetration@Gu@physx@@YA?AW4GjkStatus@12@AEBUGjkConvex@12@0PEIBT__m128@@1E_NT5@AEAUGjkOutput@12@@Z 00000001800abaa0 f   GuEPA.obj
 0001:000aab50       ?silhouette@Facet@Gu@physx@@QEAAXAEBT__m128@@PEIBT4@1AEAVEdgeBuffer@23@AEAV?$InlineDeferredIDPool@$0EA@@Cm@3@@Z 00000001800abb50 f   GuEPA.obj
 0001:000aad20       ?closestPtPointTetrahedron@Gu@physx@@YA?AT__m128@@PEIAT3@00AEAI@Z 00000001800abd20 f   GuGJKSimplex.obj
 0001:000ab490       ?closestPtPointTetrahedron@Gu@physx@@YA?AT__m128@@PEIAT3@00PEIAH1AEAI@Z 00000001800ac490 f   GuGJKSimplex.obj
 0001:000acf10       ??$gjk@UGjkConvex@Gu@physx@@U123@@Gu@physx@@YA?AW4GjkStatus@01@AEBUGjkConvex@01@0AEBT__m128@@1AEAT4@222@Z 00000001800adf10 f i GuGJKTest.obj
 0001:000adb30       ??$gjkPenetration@UGjkConvex@Gu@physx@@U123@@Gu@physx@@YA?AW4GjkStatus@01@AEBUGjkConvex@01@0AEBT__m128@@1_NPEIAE3AEAEAEAUGjkOutput@01@@Z 00000001800aeb30 f i GuGJKTest.obj
 0001:000adba0       ??$gjkPenetration@UGjkConvex@Gu@physx@@U123@@Gu@physx@@YA?AW4GjkStatus@01@AEBUGjkConvex@01@0AEBT__m128@@1_NPEIAE3PEIAT4@4AEAEAEAUGjkOutput@01@@Z 00000001800aeba0 f i GuGJKTest.obj
 0001:000aeff0       ?testEpaPenetration@Gu@physx@@YA?AW4GjkStatus@12@AEBUGjkConvex@12@0PEBE1EAEAUGjkOutput@12@@Z 00000001800afff0 f   GuGJKTest.obj
 0001:000af040       ?testGjk@Gu@physx@@YA?AW4GjkStatus@12@AEBUGjkConvex@12@0AEBT__m128@@1AEAT5@222@Z 00000001800b0040 f   GuGJKTest.obj
 0001:000af050       ?testGjkPenetration@Gu@physx@@YA?AW4GjkStatus@12@AEBUGjkConvex@12@0AEBT__m128@@1PEAE2AEAEAEAUGjkOutput@12@@Z 00000001800b0050 f   GuGJKTest.obj
 0001:000af0a0       ??0HeightField@Gu@physx@@QEAA@PEAVMeshFactory@12@@Z 00000001800b00a0 f   GuHeightField.obj
 0001:000af0f0       ??0HeightField@Gu@physx@@QEAA@PEAVMeshFactory@12@AEAUHeightFieldData@12@@Z 00000001800b00f0 f   GuHeightField.obj
 0001:000af1a0       ??1HeightField@Gu@physx@@UEAA@XZ 00000001800b01a0 f   GuHeightField.obj
 0001:000af220       ??_EHeightField@Gu@physx@@UEAAPEAXI@Z 00000001800b0220 f i GuHeightField.obj
 0001:000af220       ??_GHeightField@Gu@physx@@UEAAPEAXI@Z 00000001800b0220 f i GuHeightField.obj
 0001:000af2d0       ?computeCellCoordinates@HeightField@Gu@physx@@QEBAIMMAEAM0@Z 00000001800b02d0 f   GuHeightField.obj
 0001:000af3f0       ?createObject@HeightField@Gu@physx@@SAPEAV123@AEAPEAEAEAVPxDeserializationContext@3@@Z 00000001800b03f0 f   GuHeightField.obj
 0001:000af440       ?exportExtraData@HeightField@Gu@physx@@UEAAXAEAVPxSerializationContext@3@@Z 00000001800b0440 f   GuHeightField.obj
 0001:000af490       ?getConcreteTypeName@PxHeightField@physx@@UEBAPEBDXZ 00000001800b0490 f i GuHeightField.obj
 0001:000af4a0       ?getConvexEdgeThreshold@HeightField@Gu@physx@@UEBAMXZ 00000001800b04a0 f i GuHeightField.obj
 0001:000af4b0       ?getFlags@HeightField@Gu@physx@@UEBA?AV?$PxFlags@W4Enum@PxHeightFieldFlag@physx@@G@3@XZ 00000001800b04b0 f i GuHeightField.obj
 0001:000af4c0       ?getFormat@HeightField@Gu@physx@@UEBA?AW4Enum@PxHeightFieldFormat@3@XZ 00000001800b04c0 f i GuHeightField.obj
 0001:000af4d0       ?getHeight@HeightField@Gu@physx@@UEBAMMM@Z 00000001800b04d0 f i GuHeightField.obj
 0001:000af5f0       ?getNbColumns@HeightField@Gu@physx@@UEBAIXZ 00000001800b05f0 f i GuHeightField.obj
 0001:000af600       ?getNbBounds@BVH@Gu@physx@@UEBAIXZ 00000001800b0600 f i GuBVH.obj
 0001:000af600       ?getNbPrimitives@SourceMesh@Gu@physx@@UEBAIXZ 00000001800b0600 f i GuBV4.obj
 0001:000af600       ?getNbPrimitives@TetrahedronSourceMesh@Gu@physx@@UEBAIXZ 00000001800b0600 f i GuBV4.obj
 0001:000af600       ?getNbRows@HeightField@Gu@physx@@UEBAIXZ 00000001800b0600 f i GuHeightField.obj
 0001:000af610       ?getSample@HeightField@Gu@physx@@UEBAAEBUPxHeightFieldSample@3@II@Z 00000001800b0610 f i GuHeightField.obj
 0001:000af620       ?getSampleStride@HeightField@Gu@physx@@UEBAIXZ 00000001800b0620 f i GuHeightField.obj
 0001:000af630       ?getTimestamp@HeightField@Gu@physx@@UEBAIXZ 00000001800b0630 f i GuHeightField.obj
 0001:000af640       ?getTriangleMaterialIndex@HeightField@Gu@physx@@UEBAGI@Z 00000001800b0640 f i GuHeightField.obj
 0001:000af670       ?getTriangleNormal@HeightField@Gu@physx@@UEBA?AV?$PxVec3T@M@3@I@Z 00000001800b0670 f i GuHeightField.obj
 0001:000af690       ?getTriangleNormalInternal@HeightField@Gu@physx@@QEBA?AV?$PxVec3T@M@3@I@Z 00000001800b0690 f i GuHeightField.obj
 0001:000af9c0       ?isCollisionVertexPreca@HeightField@Gu@physx@@QEBA_NIIIG@Z 00000001800b09c0 f   GuHeightField.obj
 0001:000afa60       ?isConvexVertex@HeightField@Gu@physx@@QEBA_NIII@Z 00000001800b0a60 f i GuHeightField.obj
 0001:000afb30       ?isKindOf@PxHeightField@physx@@MEBA_NPEBD@Z 00000001800b0b30 f i GuHeightField.obj
 0001:000afbc0       ?isSolidVertex@HeightField@Gu@physx@@QEBA_NIIIGAEA_N@Z 00000001800b0bc0 f   GuHeightField.obj
 0001:000afe60       ?load@HeightField@Gu@physx@@QEAA_NAEAVPxInputStream@3@@Z 00000001800b0e60 f   GuHeightField.obj
 0001:000b01c0       ?loadFromDesc@HeightField@Gu@physx@@QEAA_NAEBVPxHeightFieldDesc@3@@Z 00000001800b11c0 f   GuHeightField.obj
 0001:000b0440       ?modifySamples@HeightField@Gu@physx@@UEAA_NHHAEBVPxHeightFieldDesc@3@_N@Z 00000001800b1440 f   GuHeightField.obj
 0001:000b07f0       ?onRefCountZero@HeightField@Gu@physx@@UEAAXXZ 00000001800b17f0 f   GuHeightField.obj
 0001:000b08c0       ?parseTrianglesForCollisionVertices@HeightField@Gu@physx@@QEAAXG@Z 00000001800b18c0 f   GuHeightField.obj
 0001:000b0dd0       ?releaseMemory@HeightField@Gu@physx@@QEAAXXZ 00000001800b1dd0 f   GuHeightField.obj
 0001:000b0e20       ?resizeAndClear@?$PxBitMapBase@VPxAllocator@physx@@@physx@@QEAAXI@Z 00000001800b1e20 f i GuHeightField.obj
 0001:000b0ed0       ?save@HeightField@Gu@physx@@QEAA_NAEAVPxOutputStream@3@_N@Z 00000001800b1ed0 f   GuHeightField.obj
 0001:000b1110       ?saveCells@HeightField@Gu@physx@@UEBAIPEAXI@Z 00000001800b2110 f   GuHeightField.obj
 0001:000b1150       ?computeLocalBounds@HeightFieldUtil@Gu@physx@@QEBAXAEAVPxBounds3@3@@Z 00000001800b2150 f   GuHeightFieldUtil.obj
 0001:000b1610       ?getTriangle@HeightFieldUtil@Gu@physx@@QEBAIAEBV?$PxTransformT@M@3@AEAVPxTriangle@3@PEAI2I_N3@Z 00000001800b2610 f   GuHeightFieldUtil.obj
 0001:000b1f10       ?getTriangleAdjacencyIndices@HeightField@Gu@physx@@QEBAXIIIIAEAI00@Z 00000001800b2f10 f i GuHeightFieldUtil.obj
 0001:000b20c0       ?getTriangleVertexIndices@HeightField@Gu@physx@@QEBAXIAEAI00@Z 00000001800b30c0 f i GuHeightFieldUtil.obj
 0001:000b2180       ?overlapAABBTriangles@HeightFieldUtil@Gu@physx@@QEBAXAEBVPxBounds3@3@AEAVOverlapReport@23@I@Z 00000001800b3180 f   GuHeightFieldUtil.obj
 0001:000b25e0       ??$gjk@U?$RelativeConvex@VTriangleV@Gu@physx@@@Gu@physx@@U?$LocalConvex@VConvexHullV@Gu@physx@@@23@@Gu@physx@@YA?AW4GjkStatus@01@AEBU?$RelativeConvex@VTriangleV@Gu@physx@@@01@AEBU?$LocalConvex@VConvexHullV@Gu@physx@@@01@AEBT__m128@@2AEAT5@333@Z 00000001800b35e0 f i GuOverlapTestsHF.obj
 0001:000b3520       ?GeomOverlapCallback_BoxHeightfield@@YA_NAEBVPxGeometry@physx@@AEBV?$PxTransformT@M@2@01PEAUTriggerCache@Gu@2@PEAUPxQueryThreadContext@2@@Z 00000001800b4520 f   GuOverlapTestsHF.obj
 0001:000b3a80       ?GeomOverlapCallback_CapsuleHeightfield@@YA_NAEBVPxGeometry@physx@@AEBV?$PxTransformT@M@2@01PEAUTriggerCache@Gu@2@PEAUPxQueryThreadContext@2@@Z 00000001800b4a80 f   GuOverlapTestsHF.obj
 0001:000b4080       ?GeomOverlapCallback_ConvexHeightfield@@YA_NAEBVPxGeometry@physx@@AEBV?$PxTransformT@M@2@01PEAUTriggerCache@Gu@2@PEAUPxQueryThreadContext@2@@Z 00000001800b5080 f   GuOverlapTestsHF.obj
 0001:000b4ac0       ?GeomOverlapCallback_SphereHeightfield@@YA_NAEBVPxGeometry@physx@@AEBV?$PxTransformT@M@2@01PEAUTriggerCache@Gu@2@PEAUPxQueryThreadContext@2@@Z 00000001800b5ac0 f   GuOverlapTestsHF.obj
 0001:000b5680       ??$gjkRaycast@U?$LocalConvex@VTriangleV@Gu@physx@@@Gu@physx@@U?$LocalConvex@VConvexHullV@Gu@physx@@@23@@Gu@physx@@YA_NAEBU?$LocalConvex@VTriangleV@Gu@physx@@@01@AEBU?$LocalConvex@VConvexHullV@Gu@physx@@@01@AEBT__m128@@222AEAT4@33M@Z 00000001800b6680 f i GuSweepsHF.obj
 0001:000b6480       ??$traceSegment@VBoxTraceSegmentReport@@$0A@$00@HeightFieldTraceUtil@Gu@physx@@QEBAXAEBV?$PxVec3T@M@2@0MPEAVBoxTraceSegmentReport@@AEBVPxBounds3@2@_NPEBV32@@Z 00000001800b7480 f i GuSweepsHF.obj
 0001:000b6480       ??$traceSegment@VCapsuleTraceSegmentReport@@$0A@$00@HeightFieldTraceUtil@Gu@physx@@QEBAXAEBV?$PxVec3T@M@2@0MPEAVCapsuleTraceSegmentReport@@AEBVPxBounds3@2@_NPEBV32@@Z 00000001800b7480 f i GuSweepsHF.obj
 0001:000b6480       ??$traceSegment@VConvexTraceSegmentReport@@$0A@$00@HeightFieldTraceUtil@Gu@physx@@QEBAXAEBV?$PxVec3T@M@2@0MPEAVConvexTraceSegmentReport@@AEBVPxBounds3@2@_NPEBV32@@Z 00000001800b7480 f i GuSweepsHF.obj
 0001:000b6c50       ??0ConvexTraceSegmentReport@@QEAA@AEBVHeightFieldUtil@Gu@physx@@AEBUConvexHullData@23@AEBVPxMeshScale@3@AEBV?$PxTransformT@M@3@3AEBV?$PxVec3T@M@3@MV?$PxFlags@W4Enum@PxHitFlag@physx@@G@3@M@Z 00000001800b7c50 f i GuSweepsHF.obj
 0001:000b75d0       ??_EBoxTraceSegmentReport@@UEAAPEAXI@Z 00000001800b85d0 f i GuSweepsHF.obj
 0001:000b75d0       ??_GBoxTraceSegmentReport@@UEAAPEAXI@Z 00000001800b85d0 f i GuSweepsHF.obj
 0001:000b7600       ??_ECapsuleTraceSegmentReport@@UEAAPEAXI@Z 00000001800b8600 f i GuSweepsHF.obj
 0001:000b7600       ??_GCapsuleTraceSegmentReport@@UEAAPEAXI@Z 00000001800b8600 f i GuSweepsHF.obj
 0001:000b7630       ??_EConvexTraceSegmentReport@@UEAAPEAXI@Z 00000001800b8630 f i GuSweepsHF.obj
 0001:000b7630       ??_GConvexTraceSegmentReport@@UEAAPEAXI@Z 00000001800b8630 f i GuSweepsHF.obj
 0001:000b7660       ??_EHeightFieldTraceSegmentReport@@UEAAPEAXI@Z 00000001800b8660 f i GuSweepsHF.obj
 0001:000b7660       ??_GHeightFieldTraceSegmentReport@@UEAAPEAXI@Z 00000001800b8660 f i GuSweepsHF.obj
 0001:000b7690       ?finalizeHit@ConvexTraceSegmentReport@@QEAA_NAEAUPxGeomSweepHit@physx@@AEBVPxHeightFieldGeometry@3@AEBV?$PxTransformT@M@3@AEBVPxConvexMeshGeometry@3@2AEBV?$PxVec3T@M@3@M@Z 00000001800b8690 f i GuSweepsHF.obj
 0001:000b78b0       ?onEvent@BoxTraceSegmentReport@@UEAA_NIPEBI@Z 00000001800b88b0 f i GuSweepsHF.obj
 0001:000b7d00       ?onEvent@CapsuleTraceSegmentReport@@UEAA_NIPEBI@Z 00000001800b8d00 f i GuSweepsHF.obj
 0001:000b7f20       ?onEvent@ConvexTraceSegmentReport@@UEAA_NIPEBI@Z 00000001800b8f20 f i GuSweepsHF.obj
 0001:000b84e0       ?prepare@?$OverlapTraceSegment@VBoxTraceSegmentReport@@@HeightFieldTraceUtil@Gu@physx@@QEAAXAEBV?$PxVec3T@M@4@00AEAM1@Z 00000001800b94e0 f i GuSweepsHF.obj
 0001:000b84e0       ?prepare@?$OverlapTraceSegment@VCapsuleTraceSegmentReport@@@HeightFieldTraceUtil@Gu@physx@@QEAAXAEBV?$PxVec3T@M@4@00AEAM1@Z 00000001800b94e0 f i GuSweepsHF.obj
 0001:000b84e0       ?prepare@?$OverlapTraceSegment@VConvexTraceSegmentReport@@@HeightFieldTraceUtil@Gu@physx@@QEAAXAEBV?$PxVec3T@M@4@00AEAM1@Z 00000001800b94e0 f i GuSweepsHF.obj
 0001:000b87a0       ?sweepBox_HeightFieldGeom@@YA_NAEBVPxGeometry@physx@@AEBV?$PxTransformT@M@2@AEBVPxBoxGeometry@2@1AEBVBox@Gu@2@AEBV?$PxVec3T@M@2@MAEAUPxGeomSweepHit@2@V?$PxFlags@W4Enum@PxHitFlag@physx@@G@2@MPEAUPxQueryThreadContext@2@@Z 00000001800b97a0 f   GuSweepsHF.obj
 0001:000b95e0       ?sweepCapsule_HeightFieldGeom@@YA_NAEBVPxGeometry@physx@@AEBV?$PxTransformT@M@2@AEBVPxCapsuleGeometry@2@1AEBVCapsule@Gu@2@AEBV?$PxVec3T@M@2@MAEAUPxGeomSweepHit@2@V?$PxFlags@W4Enum@PxHitFlag@physx@@G@2@MPEAUPxQueryThreadContext@2@@Z 00000001800ba5e0 f   GuSweepsHF.obj
 0001:000b9f30       ?sweepConvex_HeightFieldGeom@@YA_NAEBVPxGeometry@physx@@AEBV?$PxTransformT@M@2@AEBVPxConvexMeshGeometry@2@1AEBV?$PxVec3T@M@2@MAEAUPxGeomSweepHit@2@V?$PxFlags@W4Enum@PxHitFlag@physx@@G@2@MPEAUPxQueryThreadContext@2@@Z 00000001800baf30 f   GuSweepsHF.obj
 0001:000ba8f0       ?testVertexIndex@?$OverlapTraceSegment@VBoxTraceSegmentReport@@@HeightFieldTraceUtil@Gu@physx@@QEAA_NI@Z 00000001800bb8f0 f i GuSweepsHF.obj
 0001:000ba8f0       ?testVertexIndex@?$OverlapTraceSegment@VCapsuleTraceSegmentReport@@@HeightFieldTraceUtil@Gu@physx@@QEAA_NI@Z 00000001800bb8f0 f i GuSweepsHF.obj
 0001:000ba8f0       ?testVertexIndex@?$OverlapTraceSegment@VConvexTraceSegmentReport@@@HeightFieldTraceUtil@Gu@physx@@QEAA_NI@Z 00000001800bb8f0 f i GuSweepsHF.obj
 0001:000baa50       ?transformFast@PxBounds3@physx@@SA?AV12@AEBV?$PxTransformT@M@2@AEBV12@@Z 00000001800bba50 f i GuSweepsHF.obj
 0001:000bae30       ?visitCells@?$OverlapTraceSegment@VBoxTraceSegmentReport@@@HeightFieldTraceUtil@Gu@physx@@QEAA_NAEBUOverlapRectangle@1234@@Z 00000001800bbe30 f i GuSweepsHF.obj
 0001:000bae30       ?visitCells@?$OverlapTraceSegment@VCapsuleTraceSegmentReport@@@HeightFieldTraceUtil@Gu@physx@@QEAA_NAEBUOverlapRectangle@1234@@Z 00000001800bbe30 f i GuSweepsHF.obj
 0001:000bae30       ?visitCells@?$OverlapTraceSegment@VConvexTraceSegmentReport@@@HeightFieldTraceUtil@Gu@physx@@QEAA_NAEBUOverlapRectangle@1234@@Z 00000001800bbe30 f i GuSweepsHF.obj
 0001:000bb020       ?intersectOBBOBB@Gu@physx@@YA_NAEBV?$PxVec3T@M@2@0AEBV?$PxMat33T@M@2@001_N@Z 00000001800bc020 f   GuIntersectionBoxBox.obj
 0001:000bb670       ?intersectCapsuleTriangle@Gu@physx@@YA_NAEBV?$PxVec3T@M@2@000AEBVCapsule@12@AEBUCapsuleTriangleOverlapData@12@@Z 00000001800bc670 f   GuIntersectionCapsuleTriangle.obj
 0001:000bc260       ?intersectEdgeEdge@Gu@physx@@YA_NAEBV?$PxVec3T@M@2@0000AEAMAEAV32@@Z 00000001800bd260 f   GuIntersectionEdgeEdge.obj
 0001:000bc590       ?intersectRayAABB2@Gu@physx@@YA_NAEBT__m128@@0000AEAT3@1@Z 00000001800bd590 f   GuIntersectionRayBox.obj
 0001:000bc650       ?intersectRayAABB2@Gu@physx@@YA_NAEBV?$PxVec3T@M@2@000MAEAM1@Z 00000001800bd650 f   GuIntersectionRayBox.obj
 0001:000bc800       ?intersectRayAABB@Gu@physx@@YAHAEBV?$PxVec3T@M@2@000AEAM1@Z 00000001800bd800 f   GuIntersectionRayBox.obj
 0001:000bc910       ?rayAABBIntersect2@Gu@physx@@YAIAEBV?$PxVec3T@M@2@000AEAV32@AEAM@Z 00000001800bd910 f   GuIntersectionRayBox.obj
 0001:000bcb10       ?intersectRayCapsuleInternal@Gu@physx@@YAIAEBV?$PxVec3T@M@2@000MQEAM@Z 00000001800bdb10 f   GuIntersectionRayCapsule.obj
 0001:000bcfd0       ?intersectRaySphere@Gu@physx@@YA_NAEBV?$PxVec3T@M@2@0M0MAEAMPEAV32@@Z 00000001800bdfd0 f   GuIntersectionRaySphere.obj
 0001:000bd0c0       ?intersectRaySphereBasic@Gu@physx@@YA_NAEBV?$PxVec3T@M@2@0M0MAEAMPEAV32@@Z 00000001800be0c0 f   GuIntersectionRaySphere.obj
 0001:000bd220       ?intersectSphereBox@Gu@physx@@YA_NAEBVSphere@12@AEBVBox@12@@Z 00000001800be220 f   GuIntersectionSphereBox.obj
 0001:000bd450       ?intersectTetrahedronBox@Gu@physx@@YA_NAEBV?$PxVec3T@M@2@000AEBVPxBounds3@2@@Z 00000001800be450 f   GuIntersectionTetrahedronBox.obj
 0001:000bd820       ?intersectTriangleBox@Gu@physx@@YAHAEBVBoxPadded@12@AEBV?$PxVec3T@M@2@11@Z 00000001800be820 f   GuIntersectionTriangleBox.obj
 0001:000bddf0       ?intersectTriangleBoxBV4@@YAHAEBV?$PxVec3T@M@physx@@00AEBV?$PxMat33T@M@2@00@Z 00000001800bedf0 f   GuIntersectionTriangleBox.obj
 0001:000be230       ?intersectTriangleBox_ReferenceCode@Gu@physx@@YAHAEBV?$PxVec3T@M@2@0000@Z 00000001800bf230 f   GuIntersectionTriangleBox.obj
 0001:000bea00       ?intersectTriangleBox_Unsafe@Gu@physx@@YAHAEBV?$PxVec3T@M@2@0000@Z 00000001800bfa00 f   GuIntersectionTriangleBox.obj
 0001:000bedc0       ?trianglesIntersect@Gu@physx@@YA_NAEBV?$PxVec3T@M@2@00000_N@Z 00000001800bfdc0 f   GuIntersectionTriangleTriangle.obj
 0001:000c01e0       ??0BV4Tree@Gu@physx@@QEAA@W4PxEMPTY@2@@Z 00000001800c11e0 f   GuBV4.obj
 0001:000c01f0       ??0BV4Tree@Gu@physx@@QEAA@XZ 00000001800c11f0 f   GuBV4.obj
 0001:000c0220       ??0SourceMesh@Gu@physx@@QEAA@XZ 00000001800c1220 f   GuBV4.obj
 0001:000c0250       ??0TetrahedronSourceMesh@Gu@physx@@QEAA@XZ 00000001800c1250 f   GuBV4.obj
 0001:000c0280       ??1BV4Tree@Gu@physx@@QEAA@XZ 00000001800c1280 f   GuBV4.obj
 0001:000c02e0       ??1SourceMesh@Gu@physx@@UEAA@XZ 00000001800c12e0 f   GuBV4.obj
 0001:000c02e0       ??1TetrahedronSourceMesh@Gu@physx@@UEAA@XZ 00000001800c12e0 f   GuBV4.obj
 0001:000c0330       ??4BV4Tree@Gu@physx@@QEAAXAEAV012@@Z 00000001800c1330 f   GuBV4.obj
 0001:000c03c0       ??4SourceMesh@Gu@physx@@QEAAXAEAV012@@Z 00000001800c13c0 f   GuBV4.obj
 0001:000c0410       ??_ESourceMesh@Gu@physx@@UEAAPEAXI@Z 00000001800c1410 f i GuBV4.obj
 0001:000c0410       ??_ETetrahedronSourceMesh@Gu@physx@@UEAAPEAXI@Z 00000001800c1410 f i GuBV4.obj
 0001:000c0410       ??_GSourceMesh@Gu@physx@@UEAAPEAXI@Z 00000001800c1410 f i GuBV4.obj
 0001:000c0410       ??_GTetrahedronSourceMesh@Gu@physx@@UEAAPEAXI@Z 00000001800c1410 f i GuBV4.obj
 0001:000c04b0       ??_ESourceMeshBase@Gu@physx@@UEAAPEAXI@Z 00000001800c14b0 f i GuBV4.obj
 0001:000c04b0       ??_GSourceMeshBase@Gu@physx@@UEAAPEAXI@Z 00000001800c14b0 f i GuBV4.obj
 0001:000c0550       ?exportExtraData@BV4Tree@Gu@physx@@QEAAXAEAVPxSerializationContext@3@@Z 00000001800c1550 f   GuBV4.obj
 0001:000c05b0       ?getPrimitiveBox@SourceMesh@Gu@physx@@UEAAXIAEAT__m128@@0@Z 00000001800c15b0 f   GuBV4.obj
 0001:000c0650       ?getPrimitiveBox@TetrahedronSourceMesh@Gu@physx@@UEAAXIAEAT__m128@@0@Z 00000001800c1650 f   GuBV4.obj
 0001:000c0710       ?importExtraData@BV4Tree@Gu@physx@@QEAAXAEAVPxDeserializationContext@3@@Z 00000001800c1710 f   GuBV4.obj
 0001:000c0760       ?init@BV32Tree@Gu@physx@@QEAA_NPEAVSourceMeshBase@23@AEBVPxBounds3@3@@Z 00000001800c1760 f   GuBV32.obj
 0001:000c0760       ?init@BV4Tree@Gu@physx@@QEAA_NPEAVSourceMeshBase@23@AEBVPxBounds3@3@@Z 00000001800c1760 f   GuBV4.obj
 0001:000c0800       ?load@BV4Tree@Gu@physx@@QEAA_NAEAVPxInputStream@3@_N@Z 00000001800c1800 f   GuBV4.obj
 0001:000c0a40       ?refit@BV4Tree@Gu@physx@@QEAA_NAEAVPxBounds3@3@M@Z 00000001800c1a40 f   GuBV4.obj
 0001:000c10c0       ?refit@SourceMesh@Gu@physx@@UEAAXIAEAVPxBounds3@3@@Z 00000001800c20c0 f   GuBV4.obj
 0001:000c1260       ?refit@TetrahedronSourceMesh@Gu@physx@@UEAAXIAEAVPxBounds3@3@@Z 00000001800c2260 f   GuBV4.obj
 0001:000c1480       ?remapTopology@SourceMesh@Gu@physx@@UEAAXPEBI@Z 00000001800c2480 f   GuBV4.obj
 0001:000c1710       ?remapTopology@TetrahedronSourceMesh@Gu@physx@@UEAAXPEBI@Z 00000001800c2710 f   GuBV4.obj
 0001:000c1990       ??0BV4_AABBTree@Gu@physx@@QEAA@XZ 00000001800c2990 f   GuBV4Build.obj
 0001:000c19a0       ??0BVData@@QEAA@XZ         00000001800c29a0 f   GuBV4Build.obj
 0001:000c19d0       ??0BuildStats@Gu@physx@@QEAA@XZ 00000001800c29d0 f i GuBV4Build.obj
 0001:000c19e0       ??1BV4_AABBTree@Gu@physx@@QEAA@XZ 00000001800c29e0 f   GuBV4Build.obj
 0001:000c19f0       ??4BuildStats@Gu@physx@@QEAAAEAU012@$$QEAU012@@Z 00000001800c29f0 f i GuBV4Build.obj
 0001:000c1a00       ??4BuildStats@Gu@physx@@QEAAAEAU012@AEBU012@@Z 00000001800c2a00 f i GuBV4Build.obj
 0001:000c1a10       ?BuildBV4Ex@Gu@physx@@YA_NAEAVBV4Tree@12@AEAVSourceMeshBase@12@MI_NW4BV4_BuildStrategy@12@@Z 00000001800c2a10 f   GuBV4Build.obj
 0001:000c28e0       ?allocateNode@BV4BuildParams@@QEAAPEAUBV4Node@@XZ 00000001800c38e0 f   GuBV4Build.obj
 0001:000c2d50       ?buildFromMesh@BV4_AABBTree@Gu@physx@@QEAA_NAEAVSourceMeshBase@23@IW4BV4_BuildStrategy@23@@Z 00000001800c3d50 f   GuBV4Build.obj
 0001:000c3c80       ?increaseCount@BuildStats@Gu@physx@@QEAAXI@Z 00000001800c4c80 f i GuBV4Build.obj
 0001:000c46d0       ?release@BV4_AABBTree@Gu@physx@@QEAAXXZ 00000001800c56d0 f   GuBV4Build.obj
 0001:000c4780       ?releaseNodes@BV4BuildParams@@QEAAXXZ 00000001800c5780 f   GuBV4Build.obj
 0001:000c47f0       ?reset@BuildStats@Gu@physx@@QEAAXXZ 00000001800c57f0 f i GuBV4Build.obj
 0001:000c4800       ?setCount@BuildStats@Gu@physx@@QEAAXI@Z 00000001800c5800 f i GuBV4Build.obj
 0001:000c4e60       ?walk@BV4_AABBTree@Gu@physx@@QEBAIP6A_NPEBVAABBTreeNode@23@IPEAX@Z1@Z 00000001800c5e60 f   GuBV4Build.obj
 0001:000c4f20       ?walkDistance@BV4_AABBTree@Gu@physx@@QEBAIP6A_NPEBVAABBTreeNode@23@IPEAX@ZP6A_N01@Z1@Z 00000001800c5f20 f   GuBV4Build.obj
 0001:000c8f50       ?GenericSweep_AABB_CB@@YAXAEBVBox@Gu@physx@@AEBV?$PxVec3T@M@3@MAEBVBV4Tree@23@P6A_NPEAX111IAEAM@Z3I@Z 00000001800c9f50 f   GuBV4_AABBSweep.obj
 0001:000c90b0       ?Sweep_AABB_BV4@@YAHAEBVBox@Gu@physx@@AEBV?$PxVec3T@M@3@MAEBVBV4Tree@23@PEIAVSweepHit@23@I@Z 00000001800ca0b0 f   GuBV4_AABBSweep.obj
 0001:000d1e30       ?BV4_OverlapBoxAll@@YAIAEBVBox@Gu@physx@@AEBVBV4Tree@23@PEIBV?$PxMat44T@M@3@PEAIIAEA_N@Z 00000001800d2e30 f   GuBV4_BoxOverlap.obj
 0001:000d2640       ?BV4_OverlapBoxAny@@YAHAEBVBox@Gu@physx@@AEBVBV4Tree@23@PEIBV?$PxMat44T@M@3@@Z 00000001800d3640 f   GuBV4_BoxOverlap.obj
 0001:000d2e40       ?BV4_OverlapBoxCB@@YAXAEBVBox@Gu@physx@@AEBVBV4Tree@23@P6A_NPEAXAEBV?$PxVec3T@M@3@333IPEBI@Z2@Z 00000001800d3e40 f   GuBV4_BoxOverlap.obj
 0001:000d34f0       ?BV4_OverlapBoxCB@@YAXAEBVBox@Gu@physx@@AEBVBV4Tree@23@P6A_NPEAXAEBV?$PxVec3T@M@3@33IPEBI@Z2@Z 00000001800d44f0 f   GuBV4_BoxOverlap.obj
 0001:000d39a0       ?BV4_OverlapCapsuleAll@@YAIAEBVCapsule@Gu@physx@@AEBVBV4Tree@23@PEIBV?$PxMat44T@M@3@PEAIIAEA_N@Z 00000001800d49a0 f   GuBV4_BoxOverlap.obj
 0001:000d40c0       ?BV4_OverlapCapsuleAny@@YAHAEBVCapsule@Gu@physx@@AEBVBV4Tree@23@PEIBV?$PxMat44T@M@3@@Z 00000001800d50c0 f   GuBV4_BoxOverlap.obj
 0001:000d6f70       ?BV4_CapsuleSweepSingle@@YAHAEBVCapsule@Gu@physx@@AEBV?$PxVec3T@M@3@MAEBVBV4Tree@23@PEIAVSweepHit@23@I@Z 00000001800d7f70 f   GuBV4_CapsuleSweep.obj
 0001:000db010       ?BV4_CapsuleSweepSingleAA@@YAHAEBVCapsule@Gu@physx@@AEBV?$PxVec3T@M@3@MAEBVBV4Tree@23@PEIAVSweepHit@23@I@Z 00000001800dc010 f   GuBV4_CapsuleSweepAA.obj
 0001:000eb3d0       ?BV4_OverlapMeshVsMesh@@YA_NAEAV?$PxReportCallback@UPxGeomIndexPair@physx@@@physx@@AEBVBV4Tree@Gu@2@1PEBV?$PxMat44T@M@2@2AEBV?$PxTransformT@M@2@3AEBVPxMeshScale@2@4V?$PxFlags@W4Enum@PxMeshMeshQueryFlag@physx@@I@2@M@Z 00000001800ec3d0 f   GuBV4_MeshMeshOverlap.obj
 0001:000eb610       ?BV4_OverlapMeshVsMesh@@YA_NAEAV?$PxReportCallback@UPxGeomIndexPair@physx@@@physx@@AEBVBV4Tree@Gu@2@1PEBV?$PxMat44T@M@2@2V?$PxFlags@W4Enum@PxMeshMeshQueryFlag@physx@@I@2@M@Z 00000001800ec610 f   GuBV4_MeshMeshOverlap.obj
 0001:000f4dc0       ??D?$PxMat33T@M@physx@@QEBA?BV?$PxVec3T@M@1@AEBV21@@Z 00000001800f5dc0 f i GuBV4_OBBSweep.obj
 0001:000f4e50       ?BV4_BoxSweepSingle@@YAHAEBVBox@Gu@physx@@AEBV?$PxVec3T@M@3@MAEBVBV4Tree@23@PEIBV?$PxMat44T@M@3@PEIAVSweepHit@23@I@Z 00000001800f5e50 f   GuBV4_OBBSweep.obj
 0001:000f5580       ?BV4_GenericSweepCB@@YAXAEBVBox@Gu@physx@@AEBV?$PxVec3T@M@3@MAEBVBV4Tree@23@P6A_NPEAX111IAEAM@Z3_N@Z 00000001800f6580 f   GuBV4_OBBSweep.obj
 0001:000f57b0       ?Sweep_OBB_BV4@@YAHAEBVBox@Gu@physx@@AEBV?$PxVec3T@M@3@MAEBVBV4Tree@23@PEIAVSweepHit@23@I@Z 00000001800f67b0 f   GuBV4_OBBSweep.obj
 0001:000f8310       ?BV4_RaycastCB@@YAXAEBV?$PxVec3T@M@physx@@0AEBVBV4Tree@Gu@2@PEIBV?$PxMat44T@M@2@MMIP6A?AW4HitCode@42@PEAX000IMMM@Z3@Z 00000001800f9310 f   GuBV4_Raycast.obj
 0001:000f8750       ?BV4_RaycastSingle@@YAHAEBV?$PxVec3T@M@physx@@0AEBVBV4Tree@Gu@2@PEIBV?$PxMat44T@M@2@PEIAUPxGeomRaycastHit@2@MMIV?$PxFlags@W4Enum@PxHitFlag@physx@@G@2@@Z 00000001800f9750 f   GuBV4_Raycast.obj
 0001:000fac80       ?BV4_OverlapSphereAll@@YAIAEBVSphere@Gu@physx@@AEBVBV4Tree@23@PEIBV?$PxMat44T@M@3@PEAIIAEA_N@Z 00000001800fbc80 f   GuBV4_SphereOverlap.obj
 0001:000fafa0       ?BV4_OverlapSphereAny@@YAHAEBVSphere@Gu@physx@@AEBVBV4Tree@23@PEIBV?$PxMat44T@M@3@@Z 00000001800fbfa0 f   GuBV4_SphereOverlap.obj
 0001:000fb280       ?BV4_PointDistance@@YAXAEBV?$PxVec3T@M@physx@@AEBVBV4Tree@Gu@2@MAEAIAEAMAEAV12@@Z 00000001800fc280 f   GuBV4_SphereOverlap.obj
 0001:00101c30       ?BV4_GenericSweepCB_Old@@YAXAEBV?$PxVec3T@M@physx@@00MAEBVBV4Tree@Gu@2@PEIBV?$PxMat44T@M@2@P6A_NPEAX000IAEAM@Z3@Z 0000000180102c30 f   GuBV4_SphereSweep.obj
 0001:00102030       ?BV4_SphereSweepSingle@@YAHAEBVSphere@Gu@physx@@AEBV?$PxVec3T@M@3@MAEBVBV4Tree@23@PEIBV?$PxMat44T@M@3@PEIAVSweepHit@23@I@Z 0000000180103030 f   GuBV4_SphereSweep.obj
 0001:00103330       ?computeSweepData@physx@@YAMAEBVPxTriangleMeshGeometry@1@AEAV?$PxVec3T@M@1@11M@Z 0000000180104330 f i GuMidphaseBV4.obj
 0001:00104750       ?intersectBoxVsMesh_BV4@Gu@physx@@YA_NAEBVBox@12@AEBVTriangleMesh@12@AEBV?$PxTransformT@M@2@AEBVPxMeshScale@2@PEAULimitedResults@12@@Z 0000000180105750 f   GuMidphaseBV4.obj
 0001:00105250       ?intersectCapsuleVsMesh_BV4@Gu@physx@@YA_NAEBVCapsule@12@AEBVTriangleMesh@12@AEBV?$PxTransformT@M@2@AEBVPxMeshScale@2@PEAULimitedResults@12@@Z 0000000180106250 f   GuMidphaseBV4.obj
 0001:00105a90       ?intersectMeshVsMesh_BV4@Gu@physx@@YA_NAEAV?$PxReportCallback@UPxGeomIndexPair@physx@@@2@AEBVTriangleMesh@12@AEBV?$PxTransformT@M@2@AEBVPxMeshScale@2@123V?$PxFlags@W4Enum@PxMeshMeshQueryFlag@physx@@I@2@M@Z 0000000180106a90 f   GuMidphaseBV4.obj
 0001:00106390       ?intersectOBB_BV4@Gu@physx@@YAXPEBVTetrahedronMesh@12@AEBVBox@12@AEAU?$TetMeshHitCallback@UPxGeomRaycastHit@physx@@@12@@Z 0000000180107390 f   GuMidphaseBV4.obj
 0001:001063b0       ?intersectOBB_BV4@Gu@physx@@YAXPEBVTriangleMesh@12@AEBVBox@12@AEAU?$MeshHitCallback@UPxGeomRaycastHit@physx@@@12@_N3@Z 00000001801073b0 f   GuMidphaseBV4.obj
 0001:001063d0       ?intersectSphereVsMesh_BV4@Gu@physx@@YA_NAEBVSphere@12@AEBVTriangleMesh@12@AEBV?$PxTransformT@M@2@AEBVPxMeshScale@2@PEAULimitedResults@12@@Z 00000001801073d0 f   GuMidphaseBV4.obj
 0001:00106b00       ?pointMeshDistance_BV4@Gu@physx@@YAXPEBVTriangleMesh@12@AEBVPxTriangleMeshGeometry@2@AEBV?$PxTransformT@M@2@AEBV?$PxVec3T@M@2@MAEAIAEAMAEAV62@@Z 0000000180107b00 f   GuMidphaseBV4.obj
 0001:001071b0       ?raycast_triangleMesh_BV4@Gu@physx@@YAIPEBVTriangleMesh@12@AEBVPxTriangleMeshGeometry@2@AEBV?$PxTransformT@M@2@AEBV?$PxVec3T@M@2@3MV?$PxFlags@W4Enum@PxHitFlag@physx@@G@2@IPEIAUPxGeomRaycastHit@2@I@Z 00000001801081b0 f   GuMidphaseBV4.obj
 0001:00107fc0       ?sweepBox_MeshGeom_BV4@Gu@physx@@YA_NPEBVTriangleMesh@12@AEBVPxTriangleMeshGeometry@2@AEBV?$PxTransformT@M@2@AEBVBox@12@AEBV?$PxVec3T@M@2@MAEAUPxGeomSweepHit@2@V?$PxFlags@W4Enum@PxHitFlag@physx@@G@2@M@Z 0000000180108fc0 f   GuMidphaseBV4.obj
 0001:00109620       ?sweepCapsule_MeshGeom_BV4@Gu@physx@@YA_NPEBVTriangleMesh@12@AEBVPxTriangleMeshGeometry@2@AEBV?$PxTransformT@M@2@AEBVCapsule@12@AEBV?$PxVec3T@M@2@MAEAUPxGeomSweepHit@2@V?$PxFlags@W4Enum@PxHitFlag@physx@@G@2@M@Z 000000018010a620 f   GuMidphaseBV4.obj
 0001:0010a130       ?sweepConvex_MeshGeom_BV4@Gu@physx@@YAXPEBVTriangleMesh@12@AEBVBox@12@AEBV?$PxVec3T@M@2@MAEAUSweepConvexMeshHitCallback@12@_N@Z 000000018010b130 f   GuMidphaseBV4.obj
 0001:0010a170       ?transform@PxMeshScale@physx@@QEBA?AV?$PxVec3T@M@2@AEBV32@@Z 000000018010b170 f i GuMidphaseBV4.obj
 0001:0010a3b0       ?findOverlapHeightField@PxMeshQuery@physx@@SAIAEBVPxGeometry@2@AEBV?$PxTransformT@M@2@AEBVPxHeightFieldGeometry@2@1PEAIIIAEA_NV?$PxFlags@W4Enum@PxGeometryQueryFlag@physx@@I@2@@Z 000000018010b3b0 f   GuMeshQuery.obj
 0001:0010ab20       ?findOverlapTriangleMesh@PxMeshQuery@physx@@SAIAEBVPxGeometry@2@AEBV?$PxTransformT@M@2@AEBVPxTriangleMeshGeometry@2@1PEAIIIAEA_NV?$PxFlags@W4Enum@PxGeometryQueryFlag@physx@@I@2@@Z 000000018010bb20 f   GuMeshQuery.obj
 0001:0010ae70       ?findOverlapTriangleMesh@PxMeshQuery@physx@@SA_NAEAV?$PxReportCallback@UPxGeomIndexPair@physx@@@2@AEBVPxTriangleMeshGeometry@2@AEBV?$PxTransformT@M@2@12V?$PxFlags@W4Enum@PxGeometryQueryFlag@physx@@I@2@V?$PxFlags@W4Enum@PxMeshMeshQueryFlag@physx@@I@2@M@Z 000000018010be70 f   GuMeshQuery.obj
 0001:0010afa0       ?getTriangle@PxMeshQuery@physx@@SAXAEBVPxHeightFieldGeometry@2@AEBV?$PxTransformT@M@2@IAEAVPxTriangle@2@PEAI3@Z 000000018010bfa0 f   GuMeshQuery.obj
 0001:0010b020       ?getTriangle@PxMeshQuery@physx@@SAXAEBVPxTriangleMeshGeometry@2@AEBV?$PxTransformT@M@2@IAEAVPxTriangle@2@PEAI3@Z 000000018010c020 f   GuMeshQuery.obj
 0001:0010b590       ?sweep@PxMeshQuery@physx@@SA_NAEBV?$PxVec3T@M@2@MAEBVPxGeometry@2@AEBV?$PxTransformT@M@2@IPEBVPxTriangle@2@AEAUPxGeomSweepHit@2@V?$PxFlags@W4Enum@PxHitFlag@physx@@G@2@PEBIM_NV?$PxFlags@W4Enum@PxGeometryQueryFlag@physx@@I@2@@Z 000000018010c590 f   GuMeshQuery.obj
 0001:0010b9f0       ??$collide@$00$00@MeshRayCollider@@SAXAEBV?$PxVec3T@M@physx@@0M_NPEBVRTreeTriangleMesh@Gu@2@AEAU?$MeshHitCallback@UPxGeomRaycastHit@physx@@@42@PEBV12@@Z 000000018010c9f0 f i GuMidphaseRTree.obj
 0001:0010bd60       ??$collide@$00$0A@@MeshRayCollider@@SAXAEBV?$PxVec3T@M@physx@@0M_NPEBVRTreeTriangleMesh@Gu@2@AEAU?$MeshHitCallback@UPxGeomRaycastHit@physx@@@42@PEBV12@@Z 000000018010cd60 f i GuMidphaseRTree.obj
 0001:0010bfa0       ??$collide@$0A@$00@MeshRayCollider@@SAXAEBV?$PxVec3T@M@physx@@0M_NPEBVRTreeTriangleMesh@Gu@2@AEAU?$MeshHitCallback@UPxGeomRaycastHit@physx@@@42@PEBV12@@Z 000000018010cfa0 f i GuMidphaseRTree.obj
 0001:0010e300       ??0?$RayRTreeCallback@$00$0A@@@QEAA@MAEAU?$MeshHitCallback@UPxGeomRaycastHit@physx@@@Gu@physx@@HPEBXPEBV?$PxVec3T@M@3@AEBV43@3M_N2@Z 000000018010f300 f i GuMidphaseRTree.obj
 0001:0010e420       ??1?$RayRTreeCallback@$00$00@@UEAA@XZ 000000018010f420 f i GuMidphaseRTree.obj
 0001:0010e4b0       ??1?$RayRTreeCallback@$00$0A@@@UEAA@XZ 000000018010f4b0 f i GuMidphaseRTree.obj
 0001:0010e4b0       ??1?$RayRTreeCallback@$0A@$0A@@@UEAA@XZ 000000018010f4b0 f i GuMidphaseRTree.obj
 0001:0010e540       ??1?$RayRTreeCallback@$0A@$00@@UEAA@XZ 000000018010f540 f i GuMidphaseRTree.obj
 0001:0010e5c8       ??_E?$RayRTreeCallback@$00$00@@W7EAAPEAXI@Z 000000018010f5c8 f i GuMidphaseRTree.obj
 0001:0010e5d4       ??_E?$RayRTreeCallback@$00$0A@@@W7EAAPEAXI@Z 000000018010f5d4 f i GuMidphaseRTree.obj
 0001:0010e5d4       ??_E?$RayRTreeCallback@$0A@$0A@@@W7EAAPEAXI@Z 000000018010f5d4 f i GuMidphaseRTree.obj
 0001:0010e5e0       ??_E?$RayRTreeCallback@$0A@$00@@W7EAAPEAXI@Z 000000018010f5e0 f i GuMidphaseRTree.obj
 0001:0010e650       ??_E?$RayRTreeCallback@$00$00@@UEAAPEAXI@Z 000000018010f650 f i GuMidphaseRTree.obj
 0001:0010e650       ??_G?$RayRTreeCallback@$00$00@@UEAAPEAXI@Z 000000018010f650 f i GuMidphaseRTree.obj
 0001:0010e690       ??_E?$RayRTreeCallback@$00$0A@@@UEAAPEAXI@Z 000000018010f690 f i GuMidphaseRTree.obj
 0001:0010e690       ??_E?$RayRTreeCallback@$0A@$0A@@@UEAAPEAXI@Z 000000018010f690 f i GuMidphaseRTree.obj
 0001:0010e690       ??_G?$RayRTreeCallback@$00$0A@@@UEAAPEAXI@Z 000000018010f690 f i GuMidphaseRTree.obj
 0001:0010e690       ??_G?$RayRTreeCallback@$0A@$0A@@@UEAAPEAXI@Z 000000018010f690 f i GuMidphaseRTree.obj
 0001:0010e6d0       ??_E?$RayRTreeCallback@$0A@$00@@UEAAPEAXI@Z 000000018010f6d0 f i GuMidphaseRTree.obj
 0001:0010e6d0       ??_G?$RayRTreeCallback@$0A@$00@@UEAAPEAXI@Z 000000018010f6d0 f i GuMidphaseRTree.obj
 0001:0010e710       ??_ECallback@RTree@Gu@physx@@UEAAPEAXI@Z 000000018010f710 f i GuMidphaseRTree.obj
 0001:0010e710       ??_GCallback@RTree@Gu@physx@@UEAAPEAXI@Z 000000018010f710 f i GuMidphaseRTree.obj
 0001:0010e740       ??_ERayMeshColliderCallback@@UEAAPEAXI@Z 000000018010f740 f i GuMidphaseRTree.obj
 0001:0010e740       ??_ESweepCapsuleMeshHitCallback@Gu@physx@@UEAAPEAXI@Z 000000018010f740 f i GuSweepsMesh.obj
 0001:0010e740       ??_GRayMeshColliderCallback@@UEAAPEAXI@Z 000000018010f740 f i GuMidphaseRTree.obj
 0001:0010e740       ??_GSweepCapsuleMeshHitCallback@Gu@physx@@UEAAPEAXI@Z 000000018010f740 f i GuSweepsMesh.obj
 0001:0010e770       ?collideOBB@MeshRayCollider@@SAXAEBVBox@Gu@physx@@_NPEBVRTreeTriangleMesh@34@AEAU?$MeshHitCallback@UPxGeomRaycastHit@physx@@@34@1@Z 000000018010f770 f   GuMidphaseRTree.obj
 0001:0010ec40       ?intersectBoxVsMesh_RTREE@Gu@physx@@YA_NAEBVBox@12@AEBVTriangleMesh@12@AEBV?$PxTransformT@M@2@AEBVPxMeshScale@2@PEAULimitedResults@12@@Z 000000018010fc40 f   GuMidphaseRTree.obj
 0001:0010ecb0       ?intersectCapsuleVsMesh_RTREE@Gu@physx@@YA_NAEBVCapsule@12@AEBVTriangleMesh@12@AEBV?$PxTransformT@M@2@AEBVPxMeshScale@2@PEAULimitedResults@12@@Z 000000018010fcb0 f   GuMidphaseRTree.obj
 0001:0010ed30       ?intersectOBB_RTREE@Gu@physx@@YAXPEBVTriangleMesh@12@AEBVBox@12@AEAU?$MeshHitCallback@UPxGeomRaycastHit@physx@@@12@_N3@Z 000000018010fd30 f   GuMidphaseRTree.obj
 0001:0010ed60       ?intersectSphereVsMesh_RTREE@Gu@physx@@YA_NAEBVSphere@12@AEBVTriangleMesh@12@AEBV?$PxTransformT@M@2@AEBVPxMeshScale@2@PEAULimitedResults@12@@Z 000000018010fd60 f   GuMidphaseRTree.obj
 0001:0010ed90       ?pointMeshDistance_RTREE@Gu@physx@@YAXPEBVTriangleMesh@12@AEBVPxTriangleMeshGeometry@2@AEBV?$PxTransformT@M@2@AEBV?$PxVec3T@M@2@MAEAIAEAMAEAV62@@Z 000000018010fd90 f   GuMidphaseRTree.obj
 0001:0010fb80       ?processHit@RayMeshColliderCallback@@UEAA_NAEBUPxGeomRaycastHit@physx@@AEBV?$PxVec3T@M@3@11AEAMPEBI@Z 0000000180110b80 f i GuMidphaseRTree.obj
 0001:00110320       ?processResults@?$RayRTreeCallback@$00$00@@UEAA_NIPEAI@Z 0000000180111320 f i GuMidphaseRTree.obj
 0001:001106a0       ?processResults@?$RayRTreeCallback@$00$00@@UEAA_NIPEAIAEAM@Z 00000001801116a0 f i GuMidphaseRTree.obj
 0001:00110a40       ?processResults@?$RayRTreeCallback@$00$0A@@@UEAA_NIPEAI@Z 0000000180111a40 f i GuMidphaseRTree.obj
 0001:00110a40       ?processResults@?$RayRTreeCallback@$0A@$0A@@@UEAA_NIPEAI@Z 0000000180111a40 f i GuMidphaseRTree.obj
 0001:00110ca0       ?processResults@?$RayRTreeCallback@$00$0A@@@UEAA_NIPEAIAEAM@Z 0000000180111ca0 f i GuMidphaseRTree.obj
 0001:00110ca0       ?processResults@?$RayRTreeCallback@$0A@$0A@@@UEAA_NIPEAIAEAM@Z 0000000180111ca0 f i GuMidphaseRTree.obj
 0001:00110f30       ?processResults@?$RayRTreeCallback@$0A@$00@@UEAA_NIPEAI@Z 0000000180111f30 f i GuMidphaseRTree.obj
 0001:00111570       ?processResults@?$RayRTreeCallback@$0A@$00@@UEAA_NIPEAIAEAM@Z 0000000180112570 f i GuMidphaseRTree.obj
 0001:00111bc0       ?raycast_triangleMesh_RTREE@Gu@physx@@YAIPEBVTriangleMesh@12@AEBVPxTriangleMeshGeometry@2@AEBV?$PxTransformT@M@2@AEBV?$PxVec3T@M@2@3MV?$PxFlags@W4Enum@PxHitFlag@physx@@G@2@IPEIAUPxGeomRaycastHit@2@I@Z 0000000180112bc0 f   GuMidphaseRTree.obj
 0001:00112340       ?sweepBox_MeshGeom_RTREE@Gu@physx@@YA_NPEBVTriangleMesh@12@AEBVPxTriangleMeshGeometry@2@AEBV?$PxTransformT@M@2@AEBVBox@12@AEBV?$PxVec3T@M@2@MAEAUPxGeomSweepHit@2@V?$PxFlags@W4Enum@PxHitFlag@physx@@G@2@M@Z 0000000180113340 f   GuMidphaseRTree.obj
 0001:001137d0       ?sweepCapsule_MeshGeom_RTREE@Gu@physx@@YA_NPEBVTriangleMesh@12@AEBVPxTriangleMeshGeometry@2@AEBV?$PxTransformT@M@2@AEBVCapsule@12@AEBV?$PxVec3T@M@2@MAEAUPxGeomSweepHit@2@V?$PxFlags@W4Enum@PxHitFlag@physx@@G@2@M@Z 00000001801147d0 f   GuMidphaseRTree.obj
 0001:00113f80       ?sweepConvex_MeshGeom_RTREE@Gu@physx@@YAXPEBVTriangleMesh@12@AEBVBox@12@AEBV?$PxVec3T@M@2@MAEAUSweepConvexMeshHitCallback@12@_N@Z 0000000180114f80 f   GuMidphaseRTree.obj
 0001:00114930       ??_E?$PxReportCallback@UPxGeomIndexPair@physx@@@physx@@UEAAPEAXI@Z 0000000180115930 f i GuOverlapTestsMesh.obj
 0001:00114930       ??_G?$PxReportCallback@UPxGeomIndexPair@physx@@@physx@@UEAAPEAXI@Z 0000000180115930 f i GuOverlapTestsMesh.obj
 0001:001149c0       ?GeomOverlapCallback_BoxMesh@@YA_NAEBVPxGeometry@physx@@AEBV?$PxTransformT@M@2@01PEAUTriggerCache@Gu@2@PEAUPxQueryThreadContext@2@@Z 00000001801159c0 f   GuOverlapTestsMesh.obj
 0001:00114ad0       ?GeomOverlapCallback_CapsuleMesh@@YA_NAEBVPxGeometry@physx@@AEBV?$PxTransformT@M@2@01PEAUTriggerCache@Gu@2@PEAUPxQueryThreadContext@2@@Z 0000000180115ad0 f   GuOverlapTestsMesh.obj
 0001:00114be0       ?GeomOverlapCallback_ConvexMesh@@YA_NAEBVPxGeometry@physx@@AEBV?$PxTransformT@M@2@01PEAUTriggerCache@Gu@2@PEAUPxQueryThreadContext@2@@Z 0000000180115be0 f   GuOverlapTestsMesh.obj
 0001:001150e0       ?GeomOverlapCallback_MeshMesh@@YA_NAEBVPxGeometry@physx@@AEBV?$PxTransformT@M@2@01PEAUTriggerCache@Gu@2@PEAUPxQueryThreadContext@2@@Z 00000001801160e0 f   GuOverlapTestsMesh.obj
 0001:001151b0       ?GeomOverlapCallback_SphereMesh@@YA_NAEBVPxGeometry@physx@@AEBV?$PxTransformT@M@2@01PEAUTriggerCache@Gu@2@PEAUPxQueryThreadContext@2@@Z 00000001801161b0 f   GuOverlapTestsMesh.obj
 0001:001155a0       ??0RTree@Gu@physx@@QEAA@W4PxEMPTY@2@@Z 00000001801165a0 f   GuRTree.obj
 0001:001155b0       ?exportExtraData@RTree@Gu@physx@@QEAAXAEAVPxSerializationContext@3@@Z 00000001801165b0 f   GuRTree.obj
 0001:001155f0       ?importExtraData@RTree@Gu@physx@@QEAAXAEAVPxDeserializationContext@3@@Z 00000001801165f0 f   GuRTree.obj
 0001:00115620       ?load@RTree@Gu@physx@@QEAA_NAEAVPxInputStream@3@I_N@Z 0000000180116620 f   GuRTree.obj
 0001:00115930       ?refitAllStaticTree@RTree@Gu@physx@@QEAAXAEAUCallbackRefit@123@PEAVPxBounds3@3@@Z 0000000180116930 f   GuRTree.obj
 0001:00115e90       ?validate@RTree@Gu@physx@@QEAAXPEAUCallbackRefit@123@@Z 0000000180116e90 f   GuRTree.obj
 0001:001160d0       ?validateRecursive@RTree@Gu@physx@@IEAAXIURTreeNodeQ@23@PEAURTreePage@23@PEAUCallbackRefit@123@@Z 00000001801170d0 f   GuRTree.obj
 0001:00116290       ??$traverseRay@$00@RTree@Gu@physx@@QEBAXAEBV?$PxVec3T@M@2@0IPEAIPEAUCallbackRaycast@012@PEBV32@M@Z 0000000180117290 f i GuRTreeQueries.obj
 0001:00116630       ??$traverseRay@$0A@@RTree@Gu@physx@@QEBAXAEBV?$PxVec3T@M@2@0IPEAIPEAUCallbackRaycast@012@PEBV32@M@Z 0000000180117630 f i GuRTreeQueries.obj
 0001:00116970       ?traverseAABB@RTree@Gu@physx@@QEBAXAEBV?$PxVec3T@M@3@0IPEAIPEAUCallback@123@@Z 0000000180117970 f   GuRTreeQueries.obj
 0001:00116b30       ?traverseOBB@RTree@Gu@physx@@QEBAXAEBVBox@23@IPEAIPEAUCallback@123@@Z 0000000180117b30 f   GuRTreeQueries.obj
 0001:00117400       ??0SweepBoxMeshHitCallback@Gu@physx@@QEAA@W4Enum@CallbackMode@12@AEBVPxMat34Padded@2@M_NAEBVBox@12@AEBV?$PxVec3T@M@2@44AEBV?$PxFlags@W4Enum@PxHitFlag@physx@@G@2@M2M@Z 0000000180118400 f   GuSweepsMesh.obj
 0001:00117510       ??0SweepCapsuleMeshHitCallback@Gu@physx@@QEAA@AEAUPxGeomSweepHit@2@AEBV?$PxMat34T@M@2@M_NAEBVCapsule@12@AEBV?$PxVec3T@M@2@AEBV?$PxFlags@W4Enum@PxHitFlag@physx@@G@2@2M@Z 0000000180118510 f   GuSweepsMesh.obj
 0001:001175e0       ??0SweepConvexMeshHitCallback@Gu@physx@@QEAA@AEBUConvexHullData@12@AEBVPxMeshScale@2@AEBVFastVertex2ShapeScaling@Cm@2@AEBV?$PxTransformT@M@2@3AEBV?$PxVec3T@M@2@MV?$PxFlags@W4Enum@PxHitFlag@physx@@G@2@_NM6M@Z 00000001801185e0 f   GuSweepsMesh.obj
 0001:00117f40       ??_ESweepBoxMeshHitCallback@Gu@physx@@UEAAPEAXI@Z 0000000180118f40 f i GuSweepsMesh.obj
 0001:00117f40       ??_GSweepBoxMeshHitCallback@Gu@physx@@UEAAPEAXI@Z 0000000180118f40 f i GuSweepsMesh.obj
 0001:00117f70       ??_ESweepConvexMeshHitCallback@Gu@physx@@UEAAPEAXI@Z 0000000180118f70 f i GuSweepsMesh.obj
 0001:00117f70       ??_GSweepConvexMeshHitCallback@Gu@physx@@UEAAPEAXI@Z 0000000180118f70 f i GuSweepsMesh.obj
 0001:00117fa0       ??_ESweepShapeMeshHitCallback@Gu@physx@@UEAAPEAXI@Z 0000000180118fa0 f i GuSweepsMesh.obj
 0001:00117fa0       ??_GSweepShapeMeshHitCallback@Gu@physx@@UEAAPEAXI@Z 0000000180118fa0 f i GuSweepsMesh.obj
 0001:00117fd0       ?finalizeHit@SweepBoxMeshHitCallback@Gu@physx@@QEBA_NAEAUPxGeomSweepHit@3@AEBVPxTriangleMeshGeometry@3@AEBV?$PxTransformT@M@3@2AEBV?$PxVec3T@M@3@_N4@Z 0000000180118fd0 f   GuSweepsMesh.obj
 0001:00118690       ?finalizeHit@SweepCapsuleMeshHitCallback@Gu@physx@@QEBA_NAEAUPxGeomSweepHit@3@AEBVCapsule@23@AEBVPxTriangleMeshGeometry@3@AEBV?$PxTransformT@M@3@_N@Z 0000000180119690 f   GuSweepsMesh.obj
 0001:00118840       ?finalizeHit@SweepConvexMeshHitCallback@Gu@physx@@QEAA_NAEAUPxGeomSweepHit@3@AEBVPxTriangleMeshGeometry@3@AEBV?$PxTransformT@M@3@AEBVPxConvexMeshGeometry@3@2AEBV?$PxVec3T@M@3@M_N555@Z 0000000180119840 f   GuSweepsMesh.obj
 0001:00118d10       ?processHit@SweepBoxMeshHitCallback@Gu@physx@@UEAA_NAEBUPxGeomRaycastHit@3@AEBV?$PxVec3T@M@3@11AEAMPEBI@Z 0000000180119d10 f   GuSweepsMesh.obj
 0001:001194f0       ?processHit@SweepCapsuleMeshHitCallback@Gu@physx@@UEAA_NAEBUPxGeomRaycastHit@3@AEBV?$PxVec3T@M@3@11AEAMPEBI@Z 000000018011a4f0 f   GuSweepsMesh.obj
 0001:00119a50       ?processHit@SweepConvexMeshHitCallback@Gu@physx@@UEAA_NAEBUPxGeomRaycastHit@3@AEBV?$PxVec3T@M@3@11AEAMPEBI@Z 000000018011aa50 f   GuSweepsMesh.obj
 0001:0011a1a0       ?sweepBox_MeshGeom@@YA_NAEBVPxGeometry@physx@@AEBV?$PxTransformT@M@2@AEBVPxBoxGeometry@2@1AEBVBox@Gu@2@AEBV?$PxVec3T@M@2@MAEAUPxGeomSweepHit@2@V?$PxFlags@W4Enum@PxHitFlag@physx@@G@2@MPEAUPxQueryThreadContext@2@@Z 000000018011b1a0 f   GuSweepsMesh.obj
 0001:0011a230       ?sweepCapsule_MeshGeom@@YA_NAEBVPxGeometry@physx@@AEBV?$PxTransformT@M@2@AEBVPxCapsuleGeometry@2@1AEBVCapsule@Gu@2@AEBV?$PxVec3T@M@2@MAEAUPxGeomSweepHit@2@V?$PxFlags@W4Enum@PxHitFlag@physx@@G@2@MPEAUPxQueryThreadContext@2@@Z 000000018011b230 f   GuSweepsMesh.obj
 0001:0011a2c0       ?sweepConvex_MeshGeom@@YA_NAEBVPxGeometry@physx@@AEBV?$PxTransformT@M@2@AEBVPxConvexMeshGeometry@2@1AEBV?$PxVec3T@M@2@MAEAUPxGeomSweepHit@2@V?$PxFlags@W4Enum@PxHitFlag@physx@@G@2@MPEAUPxQueryThreadContext@2@@Z 000000018011b2c0 f   GuSweepsMesh.obj
 0001:0011ae00       ??0TriangleMesh@Gu@physx@@QEAA@AEBUPxTriangleMeshInternalData@2@@Z 000000018011be00 f   GuTriangleMesh.obj
 0001:0011aee0       ??0TriangleMesh@Gu@physx@@QEAA@PEAVMeshFactory@12@AEAVTriangleMeshData@12@@Z 000000018011bee0 f   GuTriangleMesh.obj
 0001:0011b260       ??1TriangleMesh@Gu@physx@@UEAA@XZ 000000018011c260 f   GuTriangleMesh.obj
 0001:0011b4d0       ??_ETriangleMesh@Gu@physx@@UEAAPEAXI@Z 000000018011c4d0 f i GuTriangleMesh.obj
 0001:0011b4d0       ??_GTriangleMesh@Gu@physx@@UEAAPEAXI@Z 000000018011c4d0 f i GuTriangleMesh.obj
 0001:0011b540       ?exportExtraData@TriangleMesh@Gu@physx@@UEAAXAEAVPxSerializationContext@3@@Z 000000018011c540 f   GuTriangleMesh.obj
 0001:0011b710       ?getLocalBounds@TriangleMesh@Gu@physx@@UEBA?AVPxBounds3@3@XZ 000000018011c710 f i GuTriangleMesh.obj
 0001:0011b7a0       ?getMassInformation@TriangleMesh@Gu@physx@@UEBAXAEAMAEAV?$PxMat33T@M@3@AEAV?$PxVec3T@M@3@@Z 000000018011c7a0 f i GuTriangleMesh.obj
 0001:0011b820       ?getNbTriangles@TriangleMesh@Gu@physx@@UEBAIXZ 000000018011c820 f i GuTriangleMesh.obj
 0001:0011b830       ?getPreferSDFProjection@TriangleMesh@Gu@physx@@UEBA_NXZ 000000018011c830 f i GuTriangleMesh.obj
 0001:0011b840       ?getSDF@TriangleMesh@Gu@physx@@UEBAPEBMXZ 000000018011c840 f i GuTriangleMesh.obj
 0001:0011b850       ?getSDFDimensions@TriangleMesh@Gu@physx@@UEBAXAEAI00@Z 000000018011c850 f i GuTriangleMesh.obj
 0001:0011b880       ?getTriangleMaterialIndex@TriangleMesh@Gu@physx@@UEBAGI@Z 000000018011c880 f i GuTriangleMesh.obj
 0001:0011b8a0       ?getTriangleMeshFlags@TriangleMesh@Gu@physx@@UEBA?AV?$PxFlags@W4Enum@PxTriangleMeshFlag@physx@@E@3@XZ 000000018011c8a0 f i GuTriangleMesh.obj
 0001:0011b8b0       ?getTrianglesRemap@TriangleMesh@Gu@physx@@UEBAPEBIXZ 000000018011c8b0 f i GuTriangleMesh.obj
 0001:0011b8c0       ?getVerticesForModification@TriangleMesh@Gu@physx@@UEAAPEAV?$PxVec3T@M@3@XZ 000000018011c8c0 f   GuTriangleMesh.obj
 0001:0011b900       ?importExtraData@TriangleMesh@Gu@physx@@QEAAXAEAVPxDeserializationContext@3@@Z 000000018011c900 f   GuTriangleMesh.obj
 0001:0011ba90       ?isKindOf@PxTriangleMesh@physx@@MEBA_NPEBD@Z 000000018011ca90 f i GuTriangleMesh.obj
 0001:0011bb20       ?onRefCountZero@TriangleMesh@Gu@physx@@UEAAXXZ 000000018011cb20 f   GuTriangleMesh.obj
 0001:0011bbf0       ?refitBVH@TriangleMesh@Gu@physx@@UEAA?AVPxBounds3@3@XZ 000000018011cbf0 f   GuTriangleMesh.obj
 0001:0011bcc0       ?requestEdgeList@TriangleMesh@Gu@physx@@QEBAPEBVEdgeList@23@XZ 000000018011ccc0 f   GuTriangleMesh.obj
 0001:0011bda0       ?setAllEdgesActive@TriangleMesh@Gu@physx@@QEAAXXZ 000000018011cda0 f   GuTriangleMesh.obj
 0001:0011be90       ?setPreferSDFProjection@TriangleMesh@Gu@physx@@UEAAX_N@Z 000000018011ce90 f i GuTriangleMesh.obj
 0001:0011bec0       ??0BV4TriangleMesh@Gu@physx@@QEAA@AEBUPxTriangleMeshInternalData@2@@Z 000000018011cec0 f   GuTriangleMeshBV4.obj
 0001:0011c020       ??0BV4TriangleMesh@Gu@physx@@QEAA@PEAVMeshFactory@12@AEAVTriangleMeshData@12@@Z 000000018011d020 f   GuTriangleMeshBV4.obj
 0001:0011c0b0       ??_EBV4TriangleMesh@Gu@physx@@UEAAPEAXI@Z 000000018011d0b0 f i GuTriangleMeshBV4.obj
 0001:0011c0b0       ??_GBV4TriangleMesh@Gu@physx@@UEAAPEAXI@Z 000000018011d0b0 f i GuTriangleMeshBV4.obj
 0001:0011c140       ?createObject@BV4TriangleMesh@Gu@physx@@SAPEAVTriangleMesh@23@AEAPEAEAEAVPxDeserializationContext@3@@Z 000000018011d140 f   GuTriangleMeshBV4.obj
 0001:0011c220       ?exportExtraData@BV4TriangleMesh@Gu@physx@@UEAAXAEAVPxSerializationContext@3@@Z 000000018011d220 f   GuTriangleMeshBV4.obj
 0001:0011c260       ?getConcreteTypeName@BV4TriangleMesh@Gu@physx@@UEBAPEBDXZ 000000018011d260 f i GuTriangleMeshBV4.obj
 0001:0011c270       ?getInternalData@BV4TriangleMesh@Gu@physx@@UEBA_NAEAUPxTriangleMeshInternalData@3@_N@Z 000000018011d270 f   GuTriangleMeshBV4.obj
 0001:0011c360       ?getMidphaseID@BV4TriangleMesh@Gu@physx@@UEBA?AW4Enum@PxMeshMidPhase@3@XZ 000000018011d360 f i GuTriangleMeshBV4.obj
 0001:0011c360       ?getMidphaseID@BV4TriangleMeshBuilder@physx@@UEBA?AW4Enum@PxMeshMidPhase@2@XZ 000000018011d360 f i GuCookingTriangleMesh.obj
 0001:0011c360       ?length@charNode@@UEBAHXZ  000000018011d360 f i libvcruntime:undname.obj
 0001:0011c360       ?raw_length@charNode@@UEBAHXZ 000000018011d360 f i libvcruntime:undname.obj
 0001:0011c360       DllMain                    000000018011d360 f i LIBCMT:dll_dllmain_stub.obj
 0001:0011c360       _get_startup_argv_mode     000000018011d360 f i LIBCMT:argv_mode.obj
 0001:0011c370       ?getVerticesForModification@BV4TriangleMesh@Gu@physx@@UEAAPEAV?$PxVec3T@M@3@XZ 000000018011d370 f   GuTriangleMeshBV4.obj
 0001:0011c370       ?getVerticesForModification@RTreeTriangleMesh@Gu@physx@@UEAAPEAV?$PxVec3T@M@3@XZ 000000018011d370 f   GuTriangleMeshRTree.obj
 0001:0011c380       ?refitBVH@BV4TriangleMesh@Gu@physx@@UEAA?AVPxBounds3@3@XZ 000000018011d380 f   GuTriangleMeshBV4.obj
 0001:0011c4f0       PxGetTriangleMeshInternalData 000000018011d4f0 f   GuTriangleMeshBV4.obj
 0001:0011c510       ??0RTreeTriangleMesh@Gu@physx@@QEAA@PEAVMeshFactory@12@AEAVTriangleMeshData@12@@Z 000000018011d510 f   GuTriangleMeshRTree.obj
 0001:0011c680       ??_E?$RefitCallback@G@physx@@UEAAPEAXI@Z 000000018011d680 f i GuTriangleMeshRTree.obj
 0001:0011c680       ??_E?$RefitCallback@I@physx@@UEAAPEAXI@Z 000000018011d680 f i GuTriangleMeshRTree.obj
 0001:0011c680       ??_G?$RefitCallback@G@physx@@UEAAPEAXI@Z 000000018011d680 f i GuTriangleMeshRTree.obj
 0001:0011c680       ??_G?$RefitCallback@I@physx@@UEAAPEAXI@Z 000000018011d680 f i GuTriangleMeshRTree.obj
 0001:0011c6b0       ??_ERTreeTriangleMesh@Gu@physx@@UEAAPEAXI@Z 000000018011d6b0 f i GuTriangleMeshRTree.obj
 0001:0011c6b0       ??_GRTreeTriangleMesh@Gu@physx@@UEAAPEAXI@Z 000000018011d6b0 f i GuTriangleMeshRTree.obj
 0001:0011c760       ?createObject@RTreeTriangleMesh@Gu@physx@@SAPEAVTriangleMesh@23@AEAPEAEAEAVPxDeserializationContext@3@@Z 000000018011d760 f   GuTriangleMeshRTree.obj
 0001:0011c7f0       ?exportExtraData@RTreeTriangleMesh@Gu@physx@@UEAAXAEAVPxSerializationContext@3@@Z 000000018011d7f0 f   GuTriangleMeshRTree.obj
 0001:0011c830       ?getConcreteTypeName@RTreeTriangleMesh@Gu@physx@@UEBAPEBDXZ 000000018011d830 f i GuTriangleMeshRTree.obj
 0001:0011c840       ?recomputeBounds@?$RefitCallback@G@physx@@UEAAXIAEAT__m128@@0@Z 000000018011d840 f i GuTriangleMeshRTree.obj
 0001:0011cb70       ?recomputeBounds@?$RefitCallback@I@physx@@UEAAXIAEAT__m128@@0@Z 000000018011db70 f i GuTriangleMeshRTree.obj
 0001:0011ce90       ?refitBVH@RTreeTriangleMesh@Gu@physx@@UEAA?AVPxBounds3@3@XZ 000000018011de90 f   GuTriangleMeshRTree.obj
 0001:0011cfb0       ??0BV32Tree@Gu@physx@@QEAA@XZ 000000018011dfb0 f   GuBV32.obj
 0001:0011cfe0       ??1BV32Tree@Gu@physx@@QEAA@XZ 000000018011dfe0 f   GuBV32.obj
 0001:0011cff0       ?createSOAformatNode@BV32Tree@Gu@physx@@QEAAXAEAUBV32DataPacked@23@AEBUBV32Data@23@IAEAI2@Z 000000018011dff0 f   GuBV32.obj
 0001:0011d450       ?load@BV32Tree@Gu@physx@@QEAA_NAEAVPxInputStream@3@_N@Z 000000018011e450 f   GuBV32.obj
 0001:0011d7a0       ?release@BV32Tree@Gu@physx@@QEAAXXZ 000000018011e7a0 f   GuBV32.obj
 0001:0011d860       ??0BV32Node@@QEAA@XZ       000000018011e860 f i GuBV32Build.obj
 0001:0011dce0       ?BuildBV32Ex@Gu@physx@@YA_NAEAVBV32Tree@12@AEAVSourceMeshBase@12@MI@Z 000000018011ece0 f   GuBV32Build.obj
 0001:0011ecd0       ??0BVTetrahedronMesh@Gu@physx@@QEAA@AEAVTetrahedronMeshData@12@AEAVSoftBodyCollisionData@12@PEAVMeshFactory@12@@Z 000000018011fcd0 f   GuTetrahedronMesh.obj
 0001:0011ef30       ??0SoftBodyMesh@Gu@physx@@QEAA@PEAVMeshFactory@12@AEAVSoftBodyMeshData@12@@Z 000000018011ff30 f   GuTetrahedronMesh.obj
 0001:0011f2d0       ??0TetrahedronMesh@Gu@physx@@QEAA@PEAVMeshFactory@12@AEAVTetrahedronMeshData@12@@Z 00000001801202d0 f   GuTetrahedronMesh.obj
 0001:0011f3c0       ??1SoftBodyAuxData@Gu@physx@@UEAA@XZ 00000001801203c0 f   GuTetrahedronMesh.obj
 0001:0011f640       ??1TetrahedronMesh@Gu@physx@@UEAA@XZ 0000000180120640 f   GuTetrahedronMesh.obj
 0001:0011f6e0       ??_EBVTetrahedronMesh@Gu@physx@@UEAAPEAXI@Z 00000001801206e0 f i GuTetrahedronMesh.obj
 0001:0011f6e0       ??_GBVTetrahedronMesh@Gu@physx@@UEAAPEAXI@Z 00000001801206e0 f i GuTetrahedronMesh.obj
 0001:0011f860       ??_ESoftBodyAuxData@Gu@physx@@UEAAPEAXI@Z 0000000180120860 f i GuTetrahedronMesh.obj
 0001:0011f860       ??_GSoftBodyAuxData@Gu@physx@@UEAAPEAXI@Z 0000000180120860 f i GuTetrahedronMesh.obj
 0001:0011f8d0       ??_ESoftBodyMesh@Gu@physx@@UEAAPEAXI@Z 00000001801208d0 f i GuTetrahedronMesh.obj
 0001:0011f8d0       ??_GSoftBodyMesh@Gu@physx@@UEAAPEAXI@Z 00000001801208d0 f i GuTetrahedronMesh.obj
 0001:0011f9a0       ??_ETetrahedronMesh@Gu@physx@@UEAAPEAXI@Z 00000001801209a0 f i GuTetrahedronMesh.obj
 0001:0011f9a0       ??_GTetrahedronMesh@Gu@physx@@UEAAPEAXI@Z 00000001801209a0 f i GuTetrahedronMesh.obj
 0001:0011fa10       ?exportExtraData@SoftBodyMesh@Gu@physx@@UEAAXAEAVPxSerializationContext@3@@Z 0000000180120a10 f   GuTetrahedronMesh.obj
 0001:0011fb00       ?getConcreteTypeName@SoftBodyAuxData@Gu@physx@@UEBAPEBDXZ 0000000180120b00 f i GuTetrahedronMesh.obj
 0001:0011fb10       ?getConcreteTypeName@SoftBodyMesh@Gu@physx@@UEBAPEBDXZ 0000000180120b10 f i GuTetrahedronMesh.obj
 0001:0011fb20       ?getConcreteTypeName@TetrahedronMesh@Gu@physx@@UEBAPEBDXZ 0000000180120b20 f i GuTetrahedronMesh.obj
 0001:0011fb30       ?getLocalBounds@TetrahedronMesh@Gu@physx@@UEBA?AVPxBounds3@3@XZ 0000000180120b30 f i GuTetrahedronMesh.obj
 0001:0011fbc0       ?getNbTetrahedrons@TetrahedronMesh@Gu@physx@@UEBAIXZ 0000000180120bc0 f i GuTetrahedronMesh.obj
 0001:0011fbd0       ?getBounds@BVH@Gu@physx@@UEBAPEBVPxBounds3@3@XZ 0000000180120bd0 f i GuBVH.obj
 0001:0011fbd0       ?getTetrahedraRemap@BVTetrahedronMesh@Gu@physx@@UEBAPEBIXZ 0000000180120bd0 f i GuTetrahedronMesh.obj
 0001:0011fbe0       ?getTetrahedronMeshFlags@TetrahedronMesh@Gu@physx@@UEBA?AV?$PxFlags@W4Enum@PxTetrahedronMeshFlag@physx@@E@3@XZ 0000000180120be0 f i GuTetrahedronMesh.obj
 0001:0011fbf0       ?getTetrahedrons@TetrahedronMesh@Gu@physx@@UEBAPEBXXZ 0000000180120bf0 f i GuTetrahedronMesh.obj
 0001:0011fc00       ?isKindOf@PxSoftBodyAuxData@physx@@MEBA_NPEBD@Z 0000000180120c00 f i GuTetrahedronMesh.obj
 0001:0011fc90       ?isKindOf@PxSoftBodyMesh@physx@@MEBA_NPEBD@Z 0000000180120c90 f i GuTetrahedronMesh.obj
 0001:0011fd20       ?isKindOf@PxTetrahedronMesh@physx@@MEBA_NPEBD@Z 0000000180120d20 f i GuTetrahedronMesh.obj
 0001:0011fdb0       ?onRefCountZero@SoftBodyAuxData@Gu@physx@@UEAAXXZ 0000000180120db0 f i GuTetrahedronMesh.obj
 0001:0011fdb0       ?release@SimulationTetrahedronMeshData@Gu@physx@@UEAAXXZ 0000000180120db0 f i GuCookingTetrahedronMesh.obj
 0001:0011fdd0       ?onRefCountZero@SoftBodyMesh@Gu@physx@@UEAAXXZ 0000000180120dd0 f   GuTetrahedronMesh.obj
 0001:0011fe70       ?onRefCountZero@TetrahedronMesh@Gu@physx@@UEAAXXZ 0000000180120e70 f   GuTetrahedronMesh.obj
 0001:0011ff10       ?addAxisToSimMeshBarycentric@Gu@physx@@YA?AV?$PxVec4T@M@2@AEBVPxTetrahedronMesh@2@IAEBV32@AEBV?$PxVec3T@M@2@@Z 0000000180120f10 f   GuTetrahedronMeshUtils.obj
 0001:001201d0       ?closestPtPointTetrahedron@Gu@physx@@YA?AV?$PxVec3T@M@2@AEBV32@0000@Z 00000001801211d0 f i GuTetrahedronMeshUtils.obj
 0001:00121310       ?computeBarycentric@physx@@YAXAEBV?$PxVec3T@M@1@0000AEAV?$PxVec4T@M@1@@Z 0000000180122310 f i GuTetrahedronMeshUtils.obj
 0001:001215c0       ?convertSoftbodyCollisionToSimMeshTets@Gu@physx@@YAXAEBVPxTetrahedronMesh@2@AEBVSoftBodyAuxData@12@AEBVBVTetrahedronMesh@12@IAEBV?$PxVec4T@M@2@AEAIAEAV62@@Z 00000001801225c0 f   GuTetrahedronMeshUtils.obj
 0001:001241a0       ?pcmContactBoxBox@Gu@physx@@YA_NAEBVPxGeometry@2@0AEBUPxTransformPadded@2@1AEBUNarrowPhaseParams@12@AEAUCache@12@AEAVPxContactBuffer@2@PEAVPxRenderOutput@2@@Z 00000001801251a0 f   GuPCMContactBoxBox.obj
 0001:00125040       ??$gjkPenetration@U?$RelativeConvex@VBoxV@Gu@physx@@@Gu@physx@@U?$LocalConvex@VConvexHullNoScaleV@Gu@physx@@@23@@Gu@physx@@YA?AW4GjkStatus@01@AEBU?$RelativeConvex@VBoxV@Gu@physx@@@01@AEBU?$LocalConvex@VConvexHullNoScaleV@Gu@physx@@@01@AEBT__m128@@2_NPEIAE4AEAEAEAUGjkOutput@01@@Z 0000000180126040 f i GuPCMContactBoxConvex.obj
 0001:001250b0       ??$gjkPenetration@U?$RelativeConvex@VBoxV@Gu@physx@@@Gu@physx@@U?$LocalConvex@VConvexHullNoScaleV@Gu@physx@@@23@@Gu@physx@@YA?AW4GjkStatus@01@AEBU?$RelativeConvex@VBoxV@Gu@physx@@@01@AEBU?$LocalConvex@VConvexHullNoScaleV@Gu@physx@@@01@AEBT__m128@@2_NPEIAE4PEIAT5@5AEAEAEAUGjkOutput@01@@Z 00000001801260b0 f i GuPCMContactBoxConvex.obj
 0001:00126c90       ?pcmContactBoxConvex@Gu@physx@@YA_NAEBVPxGeometry@2@0AEBUPxTransformPadded@2@1AEBUNarrowPhaseParams@12@AEAUCache@12@AEAVPxContactBuffer@2@PEAVPxRenderOutput@2@@Z 0000000180127c90 f   GuPCMContactBoxConvex.obj
 0001:00127a90       ?support@?$LocalConvex@VConvexHullNoScaleV@Gu@physx@@@Gu@physx@@UEBA?AT__m128@@AEBT4@@Z 0000000180128a90 f i GuPCMContactBoxConvex.obj
 0001:00127ae0       ?support@?$LocalConvex@VConvexHullNoScaleV@Gu@physx@@@Gu@physx@@UEBA?AT__m128@@AEBT4@AEAH@Z 0000000180128ae0 f i GuPCMContactBoxConvex.obj
 0001:00127b40       ?supportPoint@?$LocalConvex@VConvexHullNoScaleV@Gu@physx@@@Gu@physx@@UEBA?AT__m128@@H@Z 0000000180128b40 f i GuPCMContactBoxConvex.obj
 0001:00127b70       ?pcmContactCapsuleBox@Gu@physx@@YA_NAEBVPxGeometry@2@0AEBUPxTransformPadded@2@1AEBUNarrowPhaseParams@12@AEAUCache@12@AEAVPxContactBuffer@2@PEAVPxRenderOutput@2@@Z 0000000180128b70 f   GuPCMContactCapsuleBox.obj
 0001:00128ad0       ?pcmContactCapsuleCapsule@Gu@physx@@YA_NAEBVPxGeometry@2@0AEBUPxTransformPadded@2@1AEBUNarrowPhaseParams@12@AEAUCache@12@AEAVPxContactBuffer@2@PEAVPxRenderOutput@2@@Z 0000000180129ad0 f   GuPCMContactCapsuleCapsule.obj
 0001:00129270       ??$gjkPenetration@U?$LocalConvex@VCapsuleV@Gu@physx@@@Gu@physx@@U?$LocalConvex@VConvexHullNoScaleV@Gu@physx@@@23@@Gu@physx@@YA?AW4GjkStatus@01@AEBU?$LocalConvex@VCapsuleV@Gu@physx@@@01@AEBU?$LocalConvex@VConvexHullNoScaleV@Gu@physx@@@01@AEBT__m128@@2_NPEIAE4AEAEAEAUGjkOutput@01@@Z 000000018012a270 f i GuPCMContactCapsuleConvex.obj
 0001:001292e0       ??$gjkPenetration@U?$LocalConvex@VCapsuleV@Gu@physx@@@Gu@physx@@U?$LocalConvex@VConvexHullNoScaleV@Gu@physx@@@23@@Gu@physx@@YA?AW4GjkStatus@01@AEBU?$LocalConvex@VCapsuleV@Gu@physx@@@01@AEBU?$LocalConvex@VConvexHullNoScaleV@Gu@physx@@@01@AEBT__m128@@2_NPEIAE4PEIAT5@5AEAEAEAUGjkOutput@01@@Z 000000018012a2e0 f i GuPCMContactCapsuleConvex.obj
 0001:0012a9a0       ?pcmContactCapsuleConvex@Gu@physx@@YA_NAEBVPxGeometry@2@0AEBUPxTransformPadded@2@1AEBUNarrowPhaseParams@12@AEAUCache@12@AEAVPxContactBuffer@2@PEAVPxRenderOutput@2@@Z 000000018012b9a0 f   GuPCMContactCapsuleConvex.obj
 0001:0012bb90       ??_EPCMCapsuleVsHeightfieldContactGenerationCallback@@UEAAPEAXI@Z 000000018012cb90 f i GuPCMContactCapsuleHeightField.obj
 0001:0012bb90       ??_GPCMCapsuleVsHeightfieldContactGenerationCallback@@UEAAPEAXI@Z 000000018012cb90 f i GuPCMContactCapsuleHeightField.obj
 0001:0012bbc0       ?pcmContactCapsuleHeightField@Gu@physx@@YA_NAEBVPxGeometry@2@0AEBUPxTransformPadded@2@1AEBUNarrowPhaseParams@12@AEAUCache@12@AEAVPxContactBuffer@2@PEAVPxRenderOutput@2@@Z 000000018012cbc0 f   GuPCMContactCapsuleHeightField.obj
 0001:0012cad0       ?reportTouchedTris@?$PCMHeightfieldContactGenerationCallback@UPCMCapsuleVsHeightfieldContactGenerationCallback@@@Gu@physx@@UEAA_NIPEBI@Z 000000018012dad0 f i GuPCMContactCapsuleHeightField.obj
 0001:0012d140       ?generateContacts@PCMCapsuleVsMeshContactGeneration@Gu@physx@@SAXAEBT__m128@@0000I000PEAVMeshPersistentContact@23@AEAI@Z 000000018012e140 f   GuPCMContactCapsuleMesh.obj
 0001:0012d560       ?generateEE@PCMCapsuleVsMeshContactGeneration@Gu@physx@@QEAAXAEBT__m128@@000I00PEAVMeshPersistentContact@23@AEAI@Z 000000018012e560 f   GuPCMContactCapsuleMesh.obj
 0001:0012d7d0       ?generateEEMTD@PCMCapsuleVsMeshContactGeneration@Gu@physx@@SAXAEBT__m128@@000I00PEAVMeshPersistentContact@23@AEAI@Z 000000018012e7d0 f   GuPCMContactCapsuleMesh.obj
 0001:0012da00       ?pcmContactCapsuleMesh@Gu@physx@@YA_NAEBVPxGeometry@2@0AEBUPxTransformPadded@2@1AEBUNarrowPhaseParams@12@AEAUCache@12@AEAVPxContactBuffer@2@PEAVPxRenderOutput@2@@Z 000000018012ea00 f   GuPCMContactCapsuleMesh.obj
 0001:0012f270       ?pcmDistanceSegmentTriangleSquaredExported@@YA?AT__m128@@AEBT1@0000AEAT1@11@Z 0000000180130270 f   GuPCMContactCapsuleMesh.obj
 0001:0012f6d0       ?processTriangle@PCMCapsuleVsMeshContactGeneration@Gu@physx@@QEAA_NPEBV?$PxVec3T@M@3@IEPEBI@Z 00000001801306d0 f   GuPCMContactCapsuleMesh.obj
 0001:001302d0       ?processTriangle@PCMCapsuleVsMeshContactGeneration@Gu@physx@@SA_NAEBVTriangleV@23@IAEBVCapsuleV@23@AEBT__m128@@EPEAVMeshPersistentContact@23@AEAI@Z 00000001801312d0 f   GuPCMContactCapsuleMesh.obj
 0001:00130600       ?addContactsToPatch@PCMConvexVsMeshContactGeneration@Gu@physx@@QEAAXAEBT__m128@@I@Z 0000000180131600 f   GuPCMContactConvexCommon.obj
 0001:00130f40       ?doSupport@?$SupportLocalImpl@VTriangleV@Gu@physx@@@Gu@physx@@UEBA?AT__m128@@AEBT4@@Z 0000000180131f40 f i GuPCMContactConvexCommon.obj
 0001:00130fd0       ?doSupport@?$SupportLocalImpl@VTriangleV@Gu@physx@@@Gu@physx@@UEBAXAEBT__m128@@AEAT4@1@Z 0000000180131fd0 f i GuPCMContactConvexCommon.obj
 0001:00131040       ?generateLastContacts@PCMConvexVsMeshContactGeneration@Gu@physx@@QEAAXXZ 0000000180132040 f   GuPCMContactConvexCommon.obj
 0001:001315a0       ?populateVerts@?$SupportLocalImpl@VTriangleV@Gu@physx@@@Gu@physx@@UEBAXPEBEIPEBV?$PxVec3T@M@3@PEAT__m128@@@Z 00000001801325a0 f i GuPCMContactConvexCommon.obj
 0001:001316e0       ?processTriangle@PCMConvexVsMeshContactGeneration@Gu@physx@@QEAA_NPEBV?$PxVec3T@M@3@IEPEBI@Z 00000001801326e0 f   GuPCMContactConvexCommon.obj
 0001:00131c30       ?processTriangle@PCMConvexVsMeshContactGeneration@Gu@physx@@SA_NAEBUPolygonalData@23@PEBVSupportLocal@23@PEBV?$PxVec3T@M@3@IEAEBT__m128@@_NAEBVPxTransformV@aos@3@AEBVPxMatTransformV@93@PEAVMeshPersistentContact@23@AEAI@Z 0000000180132c30 f   GuPCMContactConvexCommon.obj
 0001:00131eb0       ??$gjkPenetration@U?$RelativeConvex@VConvexHullNoScaleV@Gu@physx@@@Gu@physx@@U?$LocalConvex@VConvexHullNoScaleV@Gu@physx@@@23@@Gu@physx@@YA?AW4GjkStatus@01@AEBU?$RelativeConvex@VConvexHullNoScaleV@Gu@physx@@@01@AEBU?$LocalConvex@VConvexHullNoScaleV@Gu@physx@@@01@AEBT__m128@@2_NPEIAE4AEAEAEAUGjkOutput@01@@Z 0000000180132eb0 f i GuPCMContactConvexConvex.obj
 0001:00131f20       ??$gjkPenetration@U?$RelativeConvex@VConvexHullNoScaleV@Gu@physx@@@Gu@physx@@U?$LocalConvex@VConvexHullNoScaleV@Gu@physx@@@23@@Gu@physx@@YA?AW4GjkStatus@01@AEBU?$RelativeConvex@VConvexHullNoScaleV@Gu@physx@@@01@AEBU?$LocalConvex@VConvexHullNoScaleV@Gu@physx@@@01@AEBT__m128@@2_NPEIAE4PEIAT5@5AEAEAEAUGjkOutput@01@@Z 0000000180132f20 f i GuPCMContactConvexConvex.obj
 0001:00133430       ??$gjkPenetration@U?$RelativeConvex@VConvexHullNoScaleV@Gu@physx@@@Gu@physx@@U?$LocalConvex@VConvexHullV@Gu@physx@@@23@@Gu@physx@@YA?AW4GjkStatus@01@AEBU?$RelativeConvex@VConvexHullNoScaleV@Gu@physx@@@01@AEBU?$LocalConvex@VConvexHullV@Gu@physx@@@01@AEBT__m128@@2_NPEIAE4AEAEAEAUGjkOutput@01@@Z 0000000180134430 f i GuPCMContactConvexConvex.obj
 0001:001334a0       ??$gjkPenetration@U?$RelativeConvex@VConvexHullNoScaleV@Gu@physx@@@Gu@physx@@U?$LocalConvex@VConvexHullV@Gu@physx@@@23@@Gu@physx@@YA?AW4GjkStatus@01@AEBU?$RelativeConvex@VConvexHullNoScaleV@Gu@physx@@@01@AEBU?$LocalConvex@VConvexHullV@Gu@physx@@@01@AEBT__m128@@2_NPEIAE4PEIAT5@5AEAEAEAUGjkOutput@01@@Z 00000001801344a0 f i GuPCMContactConvexConvex.obj
 0001:00134a40       ??$gjkPenetration@U?$RelativeConvex@VConvexHullV@Gu@physx@@@Gu@physx@@U?$LocalConvex@VConvexHullNoScaleV@Gu@physx@@@23@@Gu@physx@@YA?AW4GjkStatus@01@AEBU?$RelativeConvex@VConvexHullV@Gu@physx@@@01@AEBU?$LocalConvex@VConvexHullNoScaleV@Gu@physx@@@01@AEBT__m128@@2_NPEIAE4AEAEAEAUGjkOutput@01@@Z 0000000180135a40 f i GuPCMContactConvexConvex.obj
 0001:00134ab0       ??$gjkPenetration@U?$RelativeConvex@VConvexHullV@Gu@physx@@@Gu@physx@@U?$LocalConvex@VConvexHullNoScaleV@Gu@physx@@@23@@Gu@physx@@YA?AW4GjkStatus@01@AEBU?$RelativeConvex@VConvexHullV@Gu@physx@@@01@AEBU?$LocalConvex@VConvexHullNoScaleV@Gu@physx@@@01@AEBT__m128@@2_NPEIAE4PEIAT5@5AEAEAEAUGjkOutput@01@@Z 0000000180135ab0 f i GuPCMContactConvexConvex.obj
 0001:00136aa0       ?pcmContactConvexConvex@Gu@physx@@YA_NAEBVPxGeometry@2@0AEBUPxTransformPadded@2@1AEBUNarrowPhaseParams@12@AEAUCache@12@AEAVPxContactBuffer@2@PEAVPxRenderOutput@2@@Z 0000000180137aa0 f   GuPCMContactConvexConvex.obj
 0001:00137bb0       ?support@?$RelativeConvex@VConvexHullNoScaleV@Gu@physx@@@Gu@physx@@UEBA?AT__m128@@AEBT4@@Z 0000000180138bb0 f i GuPCMContactConvexConvex.obj
 0001:00137c60       ?support@?$RelativeConvex@VConvexHullNoScaleV@Gu@physx@@@Gu@physx@@UEBA?AT__m128@@AEBT4@AEAH@Z 0000000180138c60 f i GuPCMContactConvexConvex.obj
 0001:00137d20       ?supportPoint@?$RelativeConvex@VConvexHullNoScaleV@Gu@physx@@@Gu@physx@@UEBA?AT__m128@@H@Z 0000000180138d20 f i GuPCMContactConvexConvex.obj
 0001:00137db0       ?PCMContactConvexHeightfield@Gu@physx@@YA_NAEBUPolygonalData@12@PEBVSupportLocal@12@AEBT__m128@@AEBVPxBounds3@2@AEBVPxHeightFieldGeometry@2@AEBV?$PxTransformT@M@2@5MAEAVPxContactBuffer@2@AEBVFastVertex2ShapeScaling@Cm@2@_NAEAVMultiplePersistentContactManifold@12@PEAVPxRenderOutput@2@@Z 0000000180138db0 f   GuPCMContactConvexHeightField.obj
 0001:00138c40       ?pcmContactBoxHeightField@Gu@physx@@YA_NAEBVPxGeometry@2@0AEBUPxTransformPadded@2@1AEBUNarrowPhaseParams@12@AEAUCache@12@AEAVPxContactBuffer@2@PEAVPxRenderOutput@2@@Z 0000000180139c40 f   GuPCMContactConvexHeightField.obj
 0001:00138ee0       ?pcmContactConvexHeightField@Gu@physx@@YA_NAEBVPxGeometry@2@0AEBUPxTransformPadded@2@1AEBUNarrowPhaseParams@12@AEAUCache@12@AEAVPxContactBuffer@2@PEAVPxRenderOutput@2@@Z 0000000180139ee0 f   GuPCMContactConvexHeightField.obj
 0001:00139c30       ?PCMContactConvexMesh@Gu@physx@@YA_NAEBUPolygonalData@12@PEBVSupportLocal@12@AEBT__m128@@AEBVPxBounds3@2@AEBVPxTriangleMeshGeometry@2@AEBV?$PxTransformT@M@2@5MAEAVPxContactBuffer@2@AEBVFastVertex2ShapeScaling@Cm@2@7_N8AEAVMultiplePersistentContactManifold@12@PEAVPxRenderOutput@2@@Z 000000018013ac30 f   GuPCMContactConvexMesh.obj
 0001:0013a750       ?pcmContactBoxMesh@Gu@physx@@YA_NAEBVPxGeometry@2@0AEBUPxTransformPadded@2@1AEBUNarrowPhaseParams@12@AEAUCache@12@AEAVPxContactBuffer@2@PEAVPxRenderOutput@2@@Z 000000018013b750 f   GuPCMContactConvexMesh.obj
 0001:0013aa90       ?pcmContactConvexMesh@Gu@physx@@YA_NAEBVPxGeometry@2@0AEBUPxTransformPadded@2@1AEBUNarrowPhaseParams@12@AEAUCache@12@AEAVPxContactBuffer@2@PEAVPxRenderOutput@2@@Z 000000018013ba90 f   GuPCMContactConvexMesh.obj
 0001:0013b6a0       ?addGJKEPAContacts@Gu@physx@@YA_NPEBUGjkConvex@12@0AEBVPxMatTransformV@aos@2@W4GjkStatus@12@PEAVPersistentContact@12@T__m128@@4AEAUGjkOutput@12@AEAVPersistentContactManifold@12@@Z 000000018013c6a0 f   GuPCMContactGenBoxConvex.obj
 0001:0013bb50       ?computeMTD@Gu@physx@@YA_NAEBUPolygonalData@12@0PEBVSupportLocal@12@1AEAT__m128@@2@Z 000000018013cb50 f   GuPCMContactGenBoxConvex.obj
 0001:0013c180       ?generateFullContactManifold@Gu@physx@@YA_NAEBUPolygonalData@12@0PEBVSupportLocal@12@1PEAVPersistentContact@12@AEAIAEBT__m128@@444MM_NPEAVPxRenderOutput@2@M@Z 000000018013d180 f   GuPCMContactGenBoxConvex.obj
 0001:0013e0f0       ?computeMTD@Gu@physx@@YA_NAEBVCapsuleV@12@AEBUPolygonalData@12@PEBVSupportLocal@12@AEAT__m128@@3@Z 000000018013f0f0 f   GuPCMContactGenSphereCapsule.obj
 0001:0013e1e0       ?generateCapsuleBoxFullContactManifold@Gu@physx@@YA_NAEBVCapsuleV@12@AEBUPolygonalData@12@PEBVSupportLocal@12@AEBVPxMatTransformV@aos@2@PEAVPersistentContact@12@AEAIAEBT__m128@@AEAT9@6M_NMPEAVPxRenderOutput@2@@Z 000000018013f1e0 f   GuPCMContactGenSphereCapsule.obj
 0001:0013e380       ?generateFullContactManifold@Gu@physx@@YA_NAEBVCapsuleV@12@AEBUPolygonalData@12@PEBVSupportLocal@12@AEBVPxMatTransformV@aos@2@PEAVPersistentContact@12@AEAIAEBT__m128@@AEAT9@6M_NM@Z 000000018013f380 f   GuPCMContactGenSphereCapsule.obj
 0001:0013e570       ?generateSphereFullContactManifold@Gu@physx@@YA_NAEBVCapsuleV@12@AEBUPolygonalData@12@PEBVSupportLocal@12@PEAVPersistentContact@12@AEAIAEBT__m128@@AEAT7@_N@Z 000000018013f570 f   GuPCMContactGenSphereCapsule.obj
 0001:0013fa70       ?pcmContactPlaneBox@Gu@physx@@YA_NAEBVPxGeometry@2@0AEBUPxTransformPadded@2@1AEBUNarrowPhaseParams@12@AEAUCache@12@AEAVPxContactBuffer@2@PEAVPxRenderOutput@2@@Z 0000000180140a70 f   GuPCMContactPlaneBox.obj
 0001:00140630       ?pcmContactPlaneCapsule@Gu@physx@@YA_NAEBVPxGeometry@2@0AEBUPxTransformPadded@2@1AEBUNarrowPhaseParams@12@AEAUCache@12@AEAVPxContactBuffer@2@PEAVPxRenderOutput@2@@Z 0000000180141630 f   GuPCMContactPlaneCapsule.obj
 0001:00140db0       ?pcmContactPlaneConvex@Gu@physx@@YA_NAEBVPxGeometry@2@0AEBUPxTransformPadded@2@1AEBUNarrowPhaseParams@12@AEAUCache@12@AEAVPxContactBuffer@2@PEAVPxRenderOutput@2@@Z 0000000180141db0 f   GuPCMContactPlaneConvex.obj
 0001:00141a30       ?pcmContactSphereBox@Gu@physx@@YA_NAEBVPxGeometry@2@0AEBUPxTransformPadded@2@1AEBUNarrowPhaseParams@12@AEAUCache@12@AEAVPxContactBuffer@2@PEAVPxRenderOutput@2@@Z 0000000180142a30 f   GuPCMContactSphereBox.obj
 0001:00141e90       ?pcmContactSphereCapsule@Gu@physx@@YA_NAEBVPxGeometry@2@0AEBUPxTransformPadded@2@1AEBUNarrowPhaseParams@12@AEAUCache@12@AEAVPxContactBuffer@2@PEAVPxRenderOutput@2@@Z 0000000180142e90 f   GuPCMContactSphereCapsule.obj
 0001:00142300       ?pcmContactSphereConvex@Gu@physx@@YA_NAEBVPxGeometry@2@0AEBUPxTransformPadded@2@1AEBUNarrowPhaseParams@12@AEAUCache@12@AEAVPxContactBuffer@2@PEAVPxRenderOutput@2@@Z 0000000180143300 f   GuPCMContactSphereConvex.obj
 0001:00142fd0       ??1?$PxArray@USortedTriangle@Gu@physx@@V?$PxInlineAllocator@$0IAA@V?$PxReflectionAllocator@USortedTriangle@Gu@physx@@@physx@@@3@@physx@@QEAA@XZ 0000000180143fd0 f i GuPCMContactSphereHeightField.obj
 0001:00143090       ?pcmContactSphereHeightField@Gu@physx@@YA_NAEBVPxGeometry@2@0AEBUPxTransformPadded@2@1AEBUNarrowPhaseParams@12@AEAUCache@12@AEAVPxContactBuffer@2@PEAVPxRenderOutput@2@@Z 0000000180144090 f   GuPCMContactSphereHeightField.obj
 0001:00144130       ??$PxSort@USortedTriangle@Gu@physx@@U?$PxLess@USortedTriangle@Gu@physx@@@3@V?$PxReflectionAllocator@USortedTriangle@Gu@physx@@@3@@physx@@YAXPEAUSortedTriangle@Gu@0@IAEBU?$PxLess@USortedTriangle@Gu@physx@@@0@AEBV?$PxReflectionAllocator@USortedTriangle@Gu@physx@@@0@I@Z 0000000180145130 f i GuPCMContactSphereMesh.obj
 0001:00144650       ??$processTriangleCache@$0BA@VPCMSphereVsMeshContactGeneration@Gu@physx@@@PCMMeshContactGeneration@Gu@physx@@QEAA_NAEAU?$TriangleCache@$0BA@@12@@Z 0000000180145650 f i GuPCMContactSphereMesh.obj
 0001:00144b20       ?addToPatch@PCMSphereVsMeshContactGeneration@Gu@physx@@QEAAXAEBT__m128@@0T4@I@Z 0000000180145b20 f   GuPCMContactSphereMesh.obj
 0001:001451e0       ?allocate@?$PxArray@IV?$PxInlineAllocator@$0PAA@V?$PxReflectionAllocator@I@physx@@@physx@@@physx@@IEAAPEAII@Z 00000001801461e0 f i GuPCMContactSphereMesh.obj
 0001:001452a0       ?allocate@?$PxArray@USortedTriangle@Gu@physx@@V?$PxInlineAllocator@$0IAA@V?$PxReflectionAllocator@USortedTriangle@Gu@physx@@@physx@@@3@@physx@@IEAAPEAUSortedTriangle@Gu@2@I@Z 00000001801462a0 f i GuPCMContactSphereMesh.obj
 0001:00145360       ?generateLastContacts@PCMSphereVsMeshContactGeneration@Gu@physx@@QEAAXXZ 0000000180146360 f   GuPCMContactSphereMesh.obj
 0001:00145990       ?growAndPushBack@?$PxArray@USortedTriangle@Gu@physx@@V?$PxInlineAllocator@$0IAA@V?$PxReflectionAllocator@USortedTriangle@Gu@physx@@@physx@@@3@@physx@@IEAAAEAUSortedTriangle@Gu@2@AEBU342@@Z 0000000180146990 f i GuPCMContactSphereMesh.obj
 0001:00145aa0       ?pcmContactSphereMesh@Gu@physx@@YA_NAEBVPxGeometry@2@0AEBUPxTransformPadded@2@1AEBUNarrowPhaseParams@12@AEAUCache@12@AEAVPxContactBuffer@2@PEAVPxRenderOutput@2@@Z 0000000180146aa0 f   GuPCMContactSphereMesh.obj
 0001:00147040       ?processTriangle@PCMSphereVsMeshContactGeneration@Gu@physx@@QEAA_NPEBV?$PxVec3T@M@3@IEPEBI@Z 0000000180148040 f   GuPCMContactSphereMesh.obj
 0001:00147430       ?recreate@?$PxArray@IV?$PxInlineAllocator@$0PAA@V?$PxReflectionAllocator@I@physx@@@physx@@@physx@@IEAAXI@Z 0000000180148430 f i GuPCMContactSphereMesh.obj
 0001:001474f0       ?pcmContactSpherePlane@Gu@physx@@YA_NAEBVPxGeometry@2@0AEBUPxTransformPadded@2@1AEBUNarrowPhaseParams@12@AEAUCache@12@AEAVPxContactBuffer@2@PEAVPxRenderOutput@2@@Z 00000001801484f0 f   GuPCMContactSpherePlane.obj
 0001:00147670       ?pcmContactSphereSphere@Gu@physx@@YA_NAEBVPxGeometry@2@0AEBUPxTransformPadded@2@1AEBUNarrowPhaseParams@12@AEAUCache@12@AEAVPxContactBuffer@2@PEAVPxRenderOutput@2@@Z 0000000180148670 f   GuPCMContactSphereSphere.obj
 0001:00147f40       ?pcmContactGeometryCustomGeometry@Gu@physx@@YA_NAEBVPxGeometry@2@0AEBUPxTransformPadded@2@1AEBUNarrowPhaseParams@12@AEAUCache@12@AEAVPxContactBuffer@2@PEAVPxRenderOutput@2@@Z 0000000180148f40 f   GuPCMContactCustomGeometry.obj
 0001:00147ff0       ?getPCMConvexData@Gu@physx@@YAXAEBVConvexHullV@12@_NAEAUPolygonalData@12@@Z 0000000180148ff0 f   GuPCMShapeConvex.obj
 0001:00148030       ?getPCMConvexData@Gu@physx@@YA_NAEBVPxConvexMeshGeometry@2@AEAVFastVertex2ShapeScaling@Cm@2@AEAVPxBounds3@2@AEAUPolygonalData@12@@Z 0000000180149030 f   GuPCMShapeConvex.obj
 0001:00148580       ?getPolygonalData@PCMPolygonalBox@Gu@physx@@QEBAXPEIAUPolygonalData@23@@Z 0000000180149580 f   GuPCMShapeConvex.obj
 0001:00148600       ?generatePolyDataContactManifold@PCMConvexVsMeshContactGeneration@Gu@physx@@QEAA_NAEBVTriangleV@23@IIEPEAVMeshPersistentContact@23@AEAIAEBT__m128@@AEAT6@@Z 0000000180149600 f   GuPCMTriangleContactGen.obj
 0001:00148720       ?generateTriangleFullContactManifold@PCMConvexVsMeshContactGeneration@Gu@physx@@QEAA_NAEBVTriangleV@23@IPEBIEAEBUPolygonalData@23@PEBV?$SupportLocalImpl@VTriangleV@Gu@physx@@@23@PEBVSupportLocal@23@PEAVMeshPersistentContact@23@AEAIAEBT__m128@@AEAT9@@Z 0000000180149720 f   GuPCMTriangleContactGen.obj
 0001:00148c50       ?generateTriangleFullContactManifold@PCMConvexVsMeshContactGeneration@Gu@physx@@SA_NAEBVTriangleV@23@IEAEBUPolygonalData@23@PEBV?$SupportLocalImpl@VTriangleV@Gu@physx@@@23@PEBVSupportLocal@23@PEAVMeshPersistentContact@23@AEAIAEBT__m128@@AEAT9@PEAVPxRenderOutput@3@@Z 0000000180149c50 f   GuPCMTriangleContactGen.obj
 0001:0014acd0       ?addBatchManifoldContacts2@PersistentContactManifold@Gu@physx@@QEAAXPEBVPersistentContact@23@I@Z 000000018014bcd0 f   GuPersistentContactManifold.obj
 0001:0014ad40       ?addBatchManifoldContacts@PersistentContactManifold@Gu@physx@@QEAAXPEBVPersistentContact@23@IM@Z 000000018014bd40 f   GuPersistentContactManifold.obj
 0001:0014adc0       ?addBatchManifoldContactsCluster@PersistentContactManifold@Gu@physx@@QEAAXPEBVPersistentContact@23@I@Z 000000018014bdc0 f   GuPersistentContactManifold.obj
 0001:0014b040       ?addManifoldContactPoints@MultiplePersistentContactManifold@Gu@physx@@QEAAXPEAVMeshPersistentContact@23@IPEAPEAUPCMContactPatch@23@IAEBT__m128@@2E@Z 000000018014c040 f   GuPersistentContactManifold.obj
 0001:0014b430       ?addManifoldContactsToContactBuffer@MultiplePersistentContactManifold@Gu@physx@@QEAA_NAEAVPxContactBuffer@3@AEBVPxTransformV@aos@3@1AEBT__m128@@@Z 000000018014c430 f   GuPersistentContactManifold.obj
 0001:0014b6f0       ?addManifoldContactsToContactBuffer@MultiplePersistentContactManifold@Gu@physx@@QEAA_NAEAVPxContactBuffer@3@AEBVPxTransformV@aos@3@@Z 000000018014c6f0 f   GuPersistentContactManifold.obj
 0001:0014b980       ?addManifoldContactsToContactBuffer@PersistentContactManifold@Gu@physx@@QEAAXAEAVPxContactBuffer@3@AEBT__m128@@1AEBVPxTransformV@aos@3@11@Z 000000018014c980 f   GuPersistentContactManifold.obj
 0001:0014bb10       ?addManifoldContactsToContactBuffer@PersistentContactManifold@Gu@physx@@QEAAXAEAVPxContactBuffer@3@AEBT__m128@@AEBVPxMatTransformV@aos@3@@Z 000000018014cb10 f   GuPersistentContactManifold.obj
 0001:0014bbc0       ?addManifoldContactsToContactBuffer@PersistentContactManifold@Gu@physx@@QEAAXAEAVPxContactBuffer@3@AEBT__m128@@AEBVPxTransformV@aos@3@1@Z 000000018014cbc0 f   GuPersistentContactManifold.obj
 0001:0014bd20       ?addManifoldPoint2@PersistentContactManifold@Gu@physx@@QEAAIAEBT__m128@@000@Z 000000018014cd20 f   GuPersistentContactManifold.obj
 0001:0014be50       ?addManifoldPoint@Gu@physx@@YAXPEAVPersistentContact@12@AEAVPersistentContactManifold@12@AEAUGjkOutput@12@AEBVPxMatTransformV@aos@2@T__m128@@@Z 000000018014ce50 f   GuPersistentContactManifold.obj
 0001:0014c000       ?addManifoldPoint@PersistentContactManifold@Gu@physx@@QEAAIAEBT__m128@@000@Z 000000018014d000 f   GuPersistentContactManifold.obj
 0001:0014c440       ?drawLine@MultiplePersistentContactManifold@Gu@physx@@SAXAEAVPxRenderOutput@3@AEBT__m128@@1I@Z 000000018014d440 f   GuPersistentContactManifold.obj
 0001:0014c4f0       ?drawLine@MultiplePersistentContactManifold@Gu@physx@@SAXAEAVPxRenderOutput@3@V?$PxVec3T@M@3@1I@Z 000000018014d4f0 f   GuPersistentContactManifold.obj
 0001:0014c560       ?drawManifold@MultiplePersistentContactManifold@Gu@physx@@QEBAXAEAVPxRenderOutput@3@AEBVPxTransformV@aos@3@1@Z 000000018014d560 f   GuPersistentContactManifold.obj
 0001:0014cbf0       ?drawPoint@MultiplePersistentContactManifold@Gu@physx@@SAXAEAVPxRenderOutput@3@AEBT__m128@@MI@Z 000000018014dbf0 f   GuPersistentContactManifold.obj
 0001:0014ce00       ?drawPolygon@MultiplePersistentContactManifold@Gu@physx@@SAXAEAVPxRenderOutput@3@AEBVPxTransformV@aos@3@PEAT__m128@@II@Z 000000018014de00 f   GuPersistentContactManifold.obj
 0001:0014d080       ?findRotationMatrixFromZAxis@Gu@physx@@YA?AUMat33V@aos@2@AEBT__m128@@@Z 000000018014e080 f   GuPersistentContactManifold.obj
 0001:0014d300       ?fromBuffer@MultiplePersistentContactManifold@Gu@physx@@QEAAXPEIAE@Z 000000018014e300 f   GuPersistentContactManifold.obj
 0001:0014d460       ?reduceBatchContacts2@PersistentContactManifold@Gu@physx@@QEAAXPEBVPersistentContact@23@I@Z 000000018014e460 f   GuPersistentContactManifold.obj
 0001:0014d660       ?reduceBatchContacts@PersistentContactManifold@Gu@physx@@QEAAXPEBVPersistentContact@23@IM@Z 000000018014e660 f   GuPersistentContactManifold.obj
 0001:0014db20       ?reduceBatchContactsCapsule@SinglePersistentContactManifold@Gu@physx@@QEAA?AT__m128@@PEBVMeshPersistentContact@23@IAEAUPCMContactPatch@23@@Z 000000018014eb20 f   GuPersistentContactManifold.obj
 0001:0014ddb0       ?reduceBatchContactsCluster@PersistentContactManifold@Gu@physx@@QEAAXPEBVPersistentContact@23@I@Z 000000018014edb0 f   GuPersistentContactManifold.obj
 0001:0014e240       ?reduceBatchContactsConvex@SinglePersistentContactManifold@Gu@physx@@QEAA?AT__m128@@PEBVMeshPersistentContact@23@IAEAUPCMContactPatch@23@@Z 000000018014f240 f   GuPersistentContactManifold.obj
 0001:0014e830       ?reduceContacts@SinglePersistentContactManifold@Gu@physx@@SAIPEAVMeshPersistentContact@23@I@Z 000000018014f830 f   GuPersistentContactManifold.obj
 0001:0014edb0       ?reduceContactsForPCM@PersistentContactManifold@Gu@physx@@QEAAIAEBT__m128@@00@Z 000000018014fdb0 f   GuPersistentContactManifold.obj
 0001:0014f350       ?refreshContactPoints@SinglePersistentContactManifold@Gu@physx@@QEAA?AT__m128@@AEBVPxMatTransformV@aos@3@AEBT4@1@Z 0000000180150350 f   GuPersistentContactManifold.obj
 0001:0014f4a0       ?replaceManifoldPoint@PersistentContactManifold@Gu@physx@@QEAA_NAEBT__m128@@000@Z 00000001801504a0 f   GuPersistentContactManifold.obj
 0001:0014f560       ?toBuffer@MultiplePersistentContactManifold@Gu@physx@@QEBAXPEIAE@Z 0000000180150560 f   GuPersistentContactManifold.obj
 0001:0014f640       ?contains@Gu@physx@@YA_NPEAT__m128@@IAEBT3@11@Z 0000000180150640 f   GuPCMContactGenUtil.obj
 0001:0014f800       ?getPolygonIndex@Gu@physx@@YAHAEBUPolygonalData@12@PEBVSupportLocal@12@AEBT__m128@@AEAH@Z 0000000180150800 f   GuPCMContactGenUtil.obj
 0001:0014faa0       ?getWitnessPolygonIndex@Gu@physx@@YAIAEBUPolygonalData@12@PEBVSupportLocal@12@AEBT__m128@@2M@Z 0000000180150aa0 f   GuPCMContactGenUtil.obj
 0001:0014fff0       ?sweepBoxBox@Gu@physx@@YA_NAEBVBox@12@0AEBV?$PxVec3T@M@2@MV?$PxFlags@W4Enum@PxHitFlag@physx@@G@2@AEAUPxGeomSweepHit@2@@Z 0000000180150ff0 f   GuSweepBoxBox.obj
 0001:00151630       ?sweepBoxSphere@Gu@physx@@YA_NAEBVBox@12@MAEBV?$PxVec3T@M@2@1MAEAMAEAV42@V?$PxFlags@W4Enum@PxHitFlag@physx@@G@2@@Z 0000000180152630 f   GuSweepBoxSphere.obj
 0001:001522e0       ?sweepBoxTriangle@Gu@physx@@YA_NAEBVPxTriangle@2@AEBVPxBounds3@2@AEBV?$PxVec3T@M@2@2AEAV52@3AEAM_N@Z 00000001801532e0 f   GuSweepBoxTriangle_FeatureBased.obj
 0001:00153a00       ?triBoxSweepTestBoxSpace@Gu@physx@@YAHAEBVPxTriangle@2@AEBV?$PxVec3T@M@2@11MAEAM_N@Z 0000000180154a00 f   GuSweepBoxTriangle_SAT.obj
 0001:00155320       ?sweepCapsuleBox@Gu@physx@@YA_NAEBVCapsule@12@AEBV?$PxTransformT@M@2@AEBV?$PxVec3T@M@2@2MAEAV52@AEAM3V?$PxFlags@W4Enum@PxHitFlag@physx@@G@2@@Z 0000000180156320 f   GuSweepCapsuleBox.obj
 0001:00155670       ?distancePointSegmentSquared@Gu@physx@@YAMAEBVSegment@12@AEBV?$PxVec3T@M@2@PEAM@Z 0000000180156670 f i GuSweepCapsuleCapsule.obj
 0001:00155780       ?edgeEdgeDist@@YAXAEAV?$PxVec3T@M@physx@@0AEBV12@111@Z 0000000180156780 f   GuSweepCapsuleCapsule.obj
 0001:001559f0       ?sweepCapsuleCapsule@Gu@physx@@YA_NAEBVCapsule@12@0AEBV?$PxVec3T@M@2@MAEAMAEAV42@3IAEAG@Z 00000001801569f0 f   GuSweepCapsuleCapsule.obj
 0001:00156800       ?sweepCapsuleTriangles_Precise@Gu@physx@@YA_NIPEIBVPxTriangle@2@AEBVCapsule@12@AEBV?$PxVec3T@M@2@MPEIBIAEAUPxGeomSweepHit@2@AEAV52@V?$PxFlags@W4Enum@PxHitFlag@physx@@G@2@_NPEBVBoxPadded@12@@Z 0000000180157800 f   GuSweepCapsuleTriangle.obj
 0001:00158960       ?sweepSphereCapsule@Gu@physx@@YA_NAEBVSphere@12@AEBVCapsule@12@AEBV?$PxVec3T@M@2@MAEAMAEAV52@4V?$PxFlags@W4Enum@PxHitFlag@physx@@G@2@@Z 0000000180159960 f   GuSweepSphereCapsule.obj
 0001:00159000       ?sweepSphereSphere@Gu@physx@@YA_NAEBV?$PxVec3T@M@2@M0M0AEAMAEAV32@@Z 000000018015a000 f   GuSweepSphereSphere.obj
 0001:00159270       ?sweepSphereTriangles@Gu@physx@@YA_NIPEIBVPxTriangle@2@AEBV?$PxVec3T@M@2@M1MPEIBIAEAUPxGeomSweepHit@2@AEAV42@_N555@Z 000000018015a270 f   GuSweepSphereTriangle.obj
 0001:00159b40       ?sweepSphereVSQuad@Gu@physx@@YA_NPEIBV?$PxVec3T@M@2@AEBV32@1M1AEAM@Z 000000018015ab40 f   GuSweepSphereTriangle.obj
 0001:0015ab20       ?sweepSphereVSTri@Gu@physx@@YA_NPEIBV?$PxVec3T@M@2@AEBV32@1M1AEAMAEA_N_N@Z 000000018015bb20 f   GuSweepSphereTriangle.obj
 0001:0015b830       ??$gjk@U?$LocalConvex@VTriangleV@Gu@physx@@@Gu@physx@@U?$LocalConvex@VBoxV@Gu@physx@@@23@@Gu@physx@@YA?AW4GjkStatus@01@AEBU?$LocalConvex@VTriangleV@Gu@physx@@@01@AEBU?$LocalConvex@VBoxV@Gu@physx@@@01@AEBT__m128@@2AEAT5@333@Z 000000018015c830 f i GuSweepTriangleUtils.obj
 0001:0015c510       ?computeBoxTriImpactData@Gu@physx@@YAXAEAV?$PxVec3T@M@2@0AEBV32@1AEBVPxTriangle@2@M@Z 000000018015d510 f   GuSweepTriangleUtils.obj
 0001:0015c790       ?computeEdgeEdgeNormal@Gu@physx@@YAXAEAV?$PxVec3T@M@2@AEBV32@1111M@Z 000000018015d790 f   GuSweepTriangleUtils.obj
 0001:0015ca40       ?computeSphereTriImpactData@Gu@physx@@YAXAEAV?$PxVec3T@M@2@0AEBV32@1MAEBVPxTriangle@2@@Z 000000018015da40 f   GuSweepTriangleUtils.obj
 0001:0015cf20       ??0ShapeData@Gu@physx@@QEAA@AEBVPxGeometry@2@AEBV?$PxTransformT@M@2@M@Z 000000018015df20 f   GuBounds.obj
 0001:0015d490       ?computeBounds@Gu@physx@@YAXAEAVPxBounds3@2@AEBVPxGeometry@2@AEBV?$PxTransformT@M@2@MM@Z 000000018015e490 f   GuBounds.obj
 0001:0015e020       ?computeBoundsAroundVertices@Gu@physx@@YAXAEAVPxBounds3@2@IPEIBV?$PxVec3T@M@2@@Z 000000018015f020 f   GuBounds.obj
 0001:0015e0b0       ?computeGlobalBox@Gu@physx@@YAXAEAVPxBounds3@2@IPEIBV32@PEIBI@Z 000000018015f0b0 f   GuBounds.obj
 0001:0015e120       ?computeLocalBoundsAndGeomEpsilon@Gu@physx@@YAXPEBV?$PxVec3T@M@2@IAEAVPxBounds3@2@AEAM@Z 000000018015f120 f   GuBounds.obj
 0001:0015f250       ?computeTightBounds@Gu@physx@@YAXAEAVPxBounds3@2@IPEIBV?$PxVec3T@M@2@AEBV?$PxTransformT@M@2@AEBVPxMeshScale@2@MM@Z 0000000180160250 f   GuBounds.obj
 0001:0015f610       ??0AABBTree@Gu@physx@@QEAA@XZ 0000000180160610 f   GuAABBTree.obj
 0001:0015f640       ??0BVHPartialRefitData@Gu@physx@@QEAA@XZ 0000000180160640 f   GuAABBTree.obj
 0001:0015f670       ??0NodeAllocator@Gu@physx@@QEAA@XZ 0000000180160670 f   GuAABBTree.obj
 0001:0015f690       ??1AABBTree@Gu@physx@@QEAA@XZ 0000000180160690 f   GuAABBTree.obj
 0001:0015f6b0       ??1BVHPartialRefitData@Gu@physx@@QEAA@XZ 00000001801606b0 f   GuAABBTree.obj
 0001:0015f750       ??1NodeAllocator@Gu@physx@@QEAA@XZ 0000000180160750 f   GuAABBTree.obj
 0001:0015f7a0       ?_buildHierarchy@AABBTreeBuildNode@Gu@physx@@QEAAXAEBVAABBTreeBuildParams@23@AEAUBuildStats@23@AEAVNodeAllocator@23@QEAI@Z 00000001801607a0 f   GuAABBTree.obj
 0001:0015f830       ?_buildHierarchySAH@AABBTreeBuildNode@Gu@physx@@QEAAXAEBVAABBTreeBuildParams@23@AEAUSAH_Buffers@23@AEAUBuildStats@23@AEAVNodeAllocator@23@QEAI@Z 0000000180160830 f   GuAABBTree.obj
 0001:0015f8e0       ?addRuntimeChilds@AABBTree@Gu@physx@@AEAAXAEAIAEBVAABBTreeMergeData@23@@Z 00000001801608e0 f   GuAABBTree.obj
 0001:0015f9e0       ?build@AABBTree@Gu@physx@@QEAA_NAEBVAABBTreeBuildParams@23@AEAVNodeAllocator@23@@Z 00000001801609e0 f   GuAABBTree.obj
 0001:0015fc00       ?buildAABBTree@Gu@physx@@YAPEAIAEBVAABBTreeBuildParams@12@AEAVNodeAllocator@12@AEAUBuildStats@12@@Z 0000000180160c00 f   GuAABBTree.obj
 0001:0015fca0       ?buildAABBTree@Gu@physx@@YAXIAEBVAABBTreeBounds@12@AEAV?$PxArray@UBVHNode@Gu@physx@@V?$PxReflectionAllocator@UBVHNode@Gu@physx@@@3@@2@@Z 0000000180160ca0 f   GuAABBTree.obj
 0001:00160070       ?buildEnd@AABBTree@Gu@physx@@AEAAXAEBVAABBTreeBuildParams@23@AEAVNodeAllocator@23@AEBUBuildStats@23@@Z 0000000180161070 f   GuAABBTree.obj
 0001:00160290       ?createUpdateMap@BVHPartialRefitData@Gu@physx@@QEAAXI@Z 0000000180161290 f   GuAABBTree.obj
 0001:001603b0       ?flattenTree@Gu@physx@@YAXAEBVNodeAllocator@12@PEAUBVHNode@12@PEBI@Z 00000001801613b0 f   GuAABBTree.obj
 0001:001605a0       ?fullRefit@BVHCoreData@Gu@physx@@QEAAXPEBVPxBounds3@3@@Z 00000001801615a0 f   GuAABBTree.obj
 0001:00160760       ?getBiNode@NodeAllocator@Gu@physx@@QEAAPEAVAABBTreeBuildNode@23@XZ 0000000180161760 f   GuAABBTree.obj
 0001:00160890       ?getParentIndices@BVHPartialRefitData@Gu@physx@@IEAAPEAIXZ 0000000180161890 f   GuAABBTree.obj
 0001:00160920       ?growAndPushBack@?$PxArray@PEAVAABBTreeBuildNode@Gu@physx@@V?$PxReflectionAllocator@PEAVAABBTreeBuildNode@Gu@physx@@@3@@physx@@IEAAAEAPEAVAABBTreeBuildNode@Gu@2@AEBQEAV342@@Z 0000000180161920 f i GuAABBTree.obj
 0001:00160a50       ?growAndPushBack@?$PxArray@USlab@NodeAllocator@Gu@physx@@V?$PxReflectionAllocator@USlab@NodeAllocator@Gu@physx@@@4@@physx@@IEAAAEAUSlab@NodeAllocator@Gu@2@AEBU3452@@Z 0000000180161a50 f i GuAABBTree.obj
 0001:00160b10       ?init@AABBTreeBounds@Gu@physx@@QEAAXIPEBVPxBounds3@3@@Z 0000000180161b10 f   GuAABBTree.obj
 0001:00160bd0       ?init@NodeAllocator@Gu@physx@@QEAAXII@Z 0000000180161bd0 f   GuAABBTree.obj
 0001:00160f10       ?initTree@AABBTree@Gu@physx@@QEAAXAEBVAABBTreeMergeData@23@@Z 0000000180161f10 f   GuAABBTree.obj
 0001:00161040       ?markNodeForRefit@BVHPartialRefitData@Gu@physx@@QEAAXI@Z 0000000180162040 f   GuAABBTree.obj
 0001:00161150       ?mergeRuntimeLeaf@AABBTree@Gu@physx@@AEAAXAEAUBVHNode@23@AEBVAABBTreeMergeData@23@I@Z 0000000180162150 f   GuAABBTree.obj
 0001:001613a0       ?mergeRuntimeNode@AABBTree@Gu@physx@@AEAAXAEAUBVHNode@23@AEBVAABBTreeMergeData@23@I@Z 00000001801623a0 f   GuAABBTree.obj
 0001:001616c0       ?mergeTree@AABBTree@Gu@physx@@QEAAXAEBVAABBTreeMergeData@23@@Z 00000001801626c0 f   GuAABBTree.obj
 0001:00161950       ?progressiveBuild@AABBTree@Gu@physx@@QEAAIAEBVAABBTreeBuildParams@23@AEAVNodeAllocator@23@AEAUBuildStats@23@II@Z 0000000180162950 f   GuAABBTree.obj
 0001:00161c00       ?refitMarkedNodes@BVHPartialRefitData@Gu@physx@@QEAAXPEBVPxBounds3@3@@Z 0000000180162c00 f   GuAABBTree.obj
 0001:00161d70       ?release@AABBTree@Gu@physx@@QEAAX_N@Z 0000000180162d70 f   GuAABBTree.obj
 0001:00161e60       ?release@AABBTreeBounds@Gu@physx@@QEAAXXZ 0000000180162e60 f   GuAABBTree.obj
 0001:00161eb0       ?release@NodeAllocator@Gu@physx@@QEAAXXZ 0000000180162eb0 f   GuAABBTree.obj
 0001:00161f60       ?releasePartialRefitData@BVHPartialRefitData@Gu@physx@@QEAAX_N@Z 0000000180162f60 f   GuAABBTree.obj
 0001:00161ff0       ?reshuffle@Gu@physx@@YAIIQEIAIPEIBV?$PxVec3T@M@2@MI@Z 0000000180162ff0 f   GuAABBTree.obj
 0001:00162130       ?resize@?$PxArray@USlab@NodeAllocator@Gu@physx@@V?$PxReflectionAllocator@USlab@NodeAllocator@Gu@physx@@@4@@physx@@QEAAXIAEBUSlab@NodeAllocator@Gu@2@@Z 0000000180163130 f i GuAABBTree.obj
 0001:001621b0       ?resize@AABBTreeBounds@Gu@physx@@QEAAXII@Z 00000001801631b0 f   GuAABBTree.obj
 0001:00162250       ?shiftIndices@AABBTree@Gu@physx@@QEAAXI@Z 0000000180163250 f   GuAABBTree.obj
 0001:00162270       ?shiftOrigin@AABBTree@Gu@physx@@QEAAXAEBV?$PxVec3T@M@3@@Z 0000000180163270 f   GuAABBTree.obj
 0001:00162500       ?subdivide@AABBTreeBuildNode@Gu@physx@@QEAAXAEBVAABBTreeBuildParams@23@AEAUBuildStats@23@AEAVNodeAllocator@23@QEAI@Z 0000000180163500 f   GuAABBTree.obj
 0001:001626f0       ?subdivideSAH@AABBTreeBuildNode@Gu@physx@@QEAAXAEBVAABBTreeBuildParams@23@AEAUSAH_Buffers@23@AEAUBuildStats@23@AEAVNodeAllocator@23@QEAI@Z 00000001801636f0 f   GuAABBTree.obj
 0001:001627e0       ?traverseRuntimeNode@AABBTree@Gu@physx@@AEAAXAEAUBVHNode@23@AEBVAABBTreeMergeData@23@I@Z 00000001801637e0 f   GuAABBTree.obj
 0001:00162920       ?initMap@AABBTreeUpdateMap@Gu@physx@@QEAAXIAEBVAABBTree@23@@Z 0000000180163920 f   GuAABBTreeUpdateMap.obj
 0001:00162ab0       ?invalidate@AABBTreeUpdateMap@Gu@physx@@QEAAXIIAEAVAABBTree@23@@Z 0000000180163ab0 f   GuAABBTreeUpdateMap.obj
 0001:00162d50       ?visualizeTree@@YAXAEAVPxRenderOutput@physx@@IPEBVAABBTree@Gu@2@@Z 0000000180163d50 f   GuSqInternal.obj
 0001:00162dc0       ?visualizeTree@@YAXAEAVPxRenderOutput@physx@@IPEBVBVH@Gu@2@@Z 0000000180163dc0 f   GuSqInternal.obj
 0001:00162e30       ?visualizeTree@@YAXAEAVPxRenderOutput@physx@@IPEBVIncrementalAABBTree@Gu@2@PEAVDebugVizCallback@2@@Z 0000000180163e30 f   GuSqInternal.obj
 0001:00162eb0       ??$PxSort@PEAXU?$PxLess@PEAX@physx@@V?$PxReflectionAllocator@UAABBTreeIndices@Gu@physx@@@2@@physx@@YAXPEAPEAXIAEBU?$PxLess@PEAX@0@AEBV?$PxReflectionAllocator@UAABBTreeIndices@Gu@physx@@@0@I@Z 0000000180163eb0 f i GuIncrementalAABBTree.obj
 0001:00163310       ??$PxSort@PEAXU?$PxLess@PEAX@physx@@V?$PxReflectionAllocator@UIncrementalAABBTreeNodePair@Gu@physx@@@2@@physx@@YAXPEAPEAXIAEBU?$PxLess@PEAX@0@AEBV?$PxReflectionAllocator@UIncrementalAABBTreeNodePair@Gu@physx@@@0@I@Z 0000000180164310 f i GuIncrementalAABBTree.obj
 0001:00163770       ??0IncrementalAABBTree@Gu@physx@@QEAA@XZ 0000000180164770 f   GuIncrementalAABBTree.obj
 0001:001637f0       ??1?$PxPoolBase@UAABBTreeIndices@Gu@physx@@V?$PxReflectionAllocator@UAABBTreeIndices@Gu@physx@@@3@@physx@@QEAA@XZ 00000001801647f0 f i GuIncrementalAABBTree.obj
 0001:00163950       ??1?$PxPoolBase@UIncrementalAABBTreeNodePair@Gu@physx@@V?$PxReflectionAllocator@UIncrementalAABBTreeNodePair@Gu@physx@@@3@@physx@@QEAA@XZ 0000000180164950 f i GuIncrementalAABBTree.obj
 0001:00163ab0       ??1IncrementalAABBTree@Gu@physx@@QEAA@XZ 0000000180164ab0 f   GuIncrementalAABBTree.obj
 0001:00163af0       ?allocate@?$PxArray@PEAXV?$PxReflectionAllocator@UAABBTreeIndices@Gu@physx@@@physx@@@physx@@IEAAPEAPEAXI@Z 0000000180164af0 f i GuIncrementalAABBTree.obj
 0001:00163ba0       ?allocate@?$PxArray@PEAXV?$PxReflectionAllocator@UIncrementalAABBTreeNodePair@Gu@physx@@@physx@@@physx@@IEAAPEAPEAXI@Z 0000000180164ba0 f i GuIncrementalAABBTree.obj
 0001:00163c50       ?allocate@?$PxPoolBase@UAABBTreeIndices@Gu@physx@@V?$PxReflectionAllocator@UAABBTreeIndices@Gu@physx@@@3@@physx@@QEAAPEAUAABBTreeIndices@Gu@2@XZ 0000000180164c50 f i GuIncrementalAABBTree.obj
 0001:00163d50       ?allocate@?$PxPoolBase@UIncrementalAABBTreeNodePair@Gu@physx@@V?$PxReflectionAllocator@UIncrementalAABBTreeNodePair@Gu@physx@@@3@@physx@@QEAAPEAUIncrementalAABBTreeNodePair@Gu@2@XZ 0000000180164d50 f i GuIncrementalAABBTree.obj
 0001:00163e70       ?build@IncrementalAABBTree@Gu@physx@@QEAA_NAEBVAABBTreeBuildParams@23@AEAV?$PxArray@PEAVIncrementalAABBTreeNode@Gu@physx@@V?$PxReflectionAllocator@PEAVIncrementalAABBTreeNode@Gu@physx@@@3@@3@@Z 0000000180164e70 f   GuIncrementalAABBTree.obj
 0001:00164050       ?clone@IncrementalAABBTree@Gu@physx@@AEAAXAEAV?$PxArray@PEAVIncrementalAABBTreeNode@Gu@physx@@V?$PxReflectionAllocator@PEAVIncrementalAABBTreeNode@Gu@physx@@@3@@3@PEBIPEAPEAVIncrementalAABBTreeNode@23@@Z 0000000180165050 f   GuIncrementalAABBTree.obj
 0001:00164590       ?copy@IncrementalAABBTree@Gu@physx@@QEAAXAEBVBVH@23@AEAV?$PxArray@PEAVIncrementalAABBTreeNode@Gu@physx@@V?$PxReflectionAllocator@PEAVIncrementalAABBTreeNode@Gu@physx@@@3@@3@@Z 0000000180165590 f   GuIncrementalAABBTree.obj
 0001:00164640       ?copyNode@IncrementalAABBTree@Gu@physx@@AEAAXAEAVIncrementalAABBTreeNode@23@AEBUBVHNode@23@PEBU523@PEAV423@PEBIAEAV?$PxArray@PEAVIncrementalAABBTreeNode@Gu@physx@@V?$PxReflectionAllocator@PEAVIncrementalAABBTreeNode@Gu@physx@@@3@@3@@Z 0000000180165640 f   GuIncrementalAABBTree.obj
 0001:00164800       ?fixupTreeIndices@IncrementalAABBTree@Gu@physx@@QEAAXPEAVIncrementalAABBTreeNode@23@II@Z 0000000180165800 f   GuIncrementalAABBTree.obj
 0001:00164830       ?getTreeLeafDepth@IncrementalAABBTree@Gu@physx@@QEAAIPEAVIncrementalAABBTreeNode@23@@Z 0000000180165830 f   GuIncrementalAABBTree.obj
 0001:00164850       ?growAndPushBack@?$PxArray@PEAVIncrementalAABBTreeNode@Gu@physx@@V?$PxReflectionAllocator@PEAVIncrementalAABBTreeNode@Gu@physx@@@3@@physx@@IEAAAEAPEAVIncrementalAABBTreeNode@Gu@2@AEBQEAV342@@Z 0000000180165850 f i GuIncrementalAABBTree.obj
 0001:00164980       ?growAndPushBack@?$PxArray@PEAXV?$PxReflectionAllocator@UAABBTreeIndices@Gu@physx@@@physx@@@physx@@IEAAAEAPEAXAEBQEAX@Z 0000000180165980 f i GuIncrementalAABBTree.obj
 0001:00164a40       ?growAndPushBack@?$PxArray@PEAXV?$PxReflectionAllocator@UIncrementalAABBTreeNodePair@Gu@physx@@@physx@@@physx@@IEAAAEAPEAXAEBQEAX@Z 0000000180165a40 f i GuIncrementalAABBTree.obj
 0001:00164b00       ?hierarchyCheck@IncrementalAABBTree@Gu@physx@@QEAAXIPEBVPxBounds3@3@@Z 0000000180165b00 f   GuIncrementalAABBTree.obj
 0001:00164c50       ?hierarchyCheck@IncrementalAABBTree@Gu@physx@@QEAAXPEBVPxBounds3@3@@Z 0000000180165c50 f   GuIncrementalAABBTree.obj
 0001:00164dc0       ?insert@IncrementalAABBTree@Gu@physx@@QEAAPEAVIncrementalAABBTreeNode@23@IPEBVPxBounds3@3@AEAV?$PxArray@PEAVIncrementalAABBTreeNode@Gu@physx@@V?$PxReflectionAllocator@PEAVIncrementalAABBTreeNode@Gu@physx@@@3@@3@@Z 0000000180165dc0 f   GuIncrementalAABBTree.obj
 0001:001654a0       ?recreate@?$PxArray@PEAXV?$PxReflectionAllocator@UAABBTreeIndices@Gu@physx@@@physx@@@physx@@IEAAXI@Z 00000001801664a0 f i GuIncrementalAABBTree.obj
 0001:00165540       ?recreate@?$PxArray@PEAXV?$PxReflectionAllocator@UIncrementalAABBTreeNodePair@Gu@physx@@@physx@@@physx@@IEAAXI@Z 0000000180166540 f i GuIncrementalAABBTree.obj
 0001:001655e0       ?release@IncrementalAABBTree@Gu@physx@@QEAAXXZ 00000001801665e0 f   GuIncrementalAABBTree.obj
 0001:00165610       ?releaseNode@IncrementalAABBTree@Gu@physx@@AEAAXPEAVIncrementalAABBTreeNode@23@@Z 0000000180166610 f   GuIncrementalAABBTree.obj
 0001:001656a0       ?remove@IncrementalAABBTree@Gu@physx@@QEAAPEAVIncrementalAABBTreeNode@23@PEAV423@IPEBVPxBounds3@3@@Z 00000001801666a0 f   GuIncrementalAABBTree.obj
 0001:001659c0       ?rotateTree@IncrementalAABBTree@Gu@physx@@AEAAXPEAVIncrementalAABBTreeNode@23@AEAV?$PxArray@PEAVIncrementalAABBTreeNode@Gu@physx@@V?$PxReflectionAllocator@PEAVIncrementalAABBTreeNode@Gu@physx@@@3@@3@IPEBVPxBounds3@3@_N@Z 00000001801669c0 f   GuIncrementalAABBTree.obj
 0001:00166320       ?shiftOrigin@IncrementalAABBTree@Gu@physx@@QEAAXAEBV?$PxVec3T@M@3@@Z 0000000180167320 f   GuIncrementalAABBTree.obj
 0001:00166380       ?splitLeafNode@IncrementalAABBTree@Gu@physx@@AEAAPEAVIncrementalAABBTreeNode@23@PEAV423@IAEBT__m128@@1PEBVPxBounds3@3@@Z 0000000180167380 f   GuIncrementalAABBTree.obj
 0001:00166670       ?update@IncrementalAABBTree@Gu@physx@@QEAAPEAVIncrementalAABBTreeNode@23@PEAV423@IPEBVPxBounds3@3@AEAV?$PxArray@PEAVIncrementalAABBTreeNode@Gu@physx@@V?$PxReflectionAllocator@PEAVIncrementalAABBTreeNode@Gu@physx@@@3@@3@@Z 0000000180167670 f   GuIncrementalAABBTree.obj
 0001:00166730       ?updateFast@IncrementalAABBTree@Gu@physx@@QEAAPEAVIncrementalAABBTreeNode@23@PEAV423@IPEBVPxBounds3@3@AEAV?$PxArray@PEAVIncrementalAABBTreeNode@Gu@physx@@V?$PxReflectionAllocator@PEAVIncrementalAABBTreeNode@Gu@physx@@@3@@3@@Z 0000000180167730 f   GuIncrementalAABBTree.obj
 0001:00166950       ??0SAH_Buffers@Gu@physx@@QEAA@I@Z 0000000180167950 f   GuSAH.obj
 0001:00166a50       ??1SAH_Buffers@Gu@physx@@QEAA@XZ 0000000180167a50 f   GuSAH.obj
 0001:00166b10       ?split@SAH_Buffers@Gu@physx@@QEAA_NAEAIIPEIBIPEIBVPxBounds3@3@PEIBV?$PxVec3T@M@3@@Z 0000000180167b10 f   GuSAH.obj
 0001:00167200       ??0BVH@Gu@physx@@QEAA@AEBUPxBVHInternalData@2@@Z 0000000180168200 f   GuBVH.obj
 0001:001672c0       ??0BVH@Gu@physx@@QEAA@PEAVMeshFactory@12@@Z 00000001801682c0 f   GuBVH.obj
 0001:00167330       ??0BVH@Gu@physx@@QEAA@PEAVMeshFactory@12@AEAVBVHData@12@@Z 0000000180168330 f   GuBVH.obj
 0001:001673e0       ??1BVHData@Gu@physx@@QEAA@XZ 00000001801683e0 f i GuBVH.obj
 0001:0016acc4       ??_EBVH@Gu@physx@@WBA@EAAPEAXI@Z 000000018016bcc4 f i GuBVH.obj
 0001:0016acd0       ??_EBVH@Gu@physx@@UEAAPEAXI@Z 000000018016bcd0 f i GuBVH.obj
 0001:0016acd0       ??_GBVH@Gu@physx@@UEAAPEAXI@Z 000000018016bcd0 f i GuBVH.obj
 0001:0016ad60       ??_ERefCountable@Cm@physx@@UEAAPEAXI@Z 000000018016bd60 f i GuBVH.obj
 0001:0016ad60       ??_GRefCountable@Cm@physx@@UEAAPEAXI@Z 000000018016bd60 f i GuBVH.obj
 0001:0016af90       ?allocate@?$PxArray@PEBUBVHNode@Gu@physx@@V?$PxInlineAllocator@$0IAA@V?$PxReflectionAllocator@PEBUBVHNode@Gu@physx@@@physx@@@3@@physx@@IEAAPEAPEBUBVHNode@Gu@2@I@Z 000000018016bf90 f i GuBVH.obj
 0001:0016b050       ?build@BVHData@Gu@physx@@QEAA_NIPEBXIMIW4BVHBuildStrategy@23@@Z 000000018016c050 f   GuBVH.obj
 0001:0016b450       ?cull@BVH@Gu@physx@@UEBA_NIPEBVPxPlane@3@AEAUOverlapCallback@PxBVH@3@V?$PxFlags@W4Enum@PxGeometryQueryFlag@physx@@I@3@@Z 000000018016c450 f   GuBVH.obj
 0001:0016bdb0       ?getConcreteTypeName@PxBVH@physx@@UEBAPEBDXZ 000000018016cdb0 f i GuBVH.obj
 0001:0016bdc0       ?init@BVH@Gu@physx@@QEAA_NIPEAVAABBTreeBounds@23@PEBXIW4BVHBuildStrategy@23@IM@Z 000000018016cdc0 f   GuBVH.obj
 0001:0016c1d0       ?isKindOf@PxBVH@physx@@MEBA_NPEBD@Z 000000018016d1d0 f i GuBVH.obj
 0001:0016c240       ?load@BVH@Gu@physx@@QEAA_NAEAVPxInputStream@3@@Z 000000018016d240 f   GuBVH.obj
 0001:0016c3d0       ?onRefCountZero@BVH@Gu@physx@@UEAAXXZ 000000018016d3d0 f   GuBVH.obj
 0001:0016c4b0       ?onRefCountZero@RefCountable@Cm@physx@@UEAAXXZ 000000018016d4b0 f i GuBVH.obj
 0001:0016c4d0       ?overlap@BVH@Gu@physx@@QEBA_NAEBVShapeData@23@AEAUOverlapCallback@PxBVH@3@V?$PxFlags@W4Enum@PxGeometryQueryFlag@physx@@I@3@@Z 000000018016d4d0 f   GuBVH.obj
 0001:0016cd00       ?overlap@BVH@Gu@physx@@UEBA_NAEBVPxGeometry@3@AEBV?$PxTransformT@M@3@AEAUOverlapCallback@PxBVH@3@V?$PxFlags@W4Enum@PxGeometryQueryFlag@physx@@I@3@@Z 000000018016dd00 f   GuBVH.obj
 0001:0016cd60       ?partialRefit@BVH@Gu@physx@@UEAAXXZ 000000018016dd60 f   GuBVH.obj
 0001:0016cd70       ?raycast@BVH@Gu@physx@@UEBA_NAEBV?$PxVec3T@M@3@0MAEAURaycastCallback@PxBVH@3@V?$PxFlags@W4Enum@PxGeometryQueryFlag@physx@@I@3@@Z 000000018016dd70 f   GuBVH.obj
 0001:0016cea0       ?recreate@?$PxArray@PEBUBVHNode@Gu@physx@@V?$PxInlineAllocator@$0IAA@V?$PxReflectionAllocator@PEBUBVHNode@Gu@physx@@@physx@@@3@@physx@@IEAAXI@Z 000000018016dea0 f i GuBVH.obj
 0001:0016cf60       ?refit@BVH@Gu@physx@@UEAAXXZ 000000018016df60 f   GuBVH.obj
 0001:0016cf70       ?release@BVH@Gu@physx@@UEAAXXZ 000000018016df70 f   GuBVH.obj
 0001:0016cfa0       ?resizeUninitialized@?$PxArray@PEBUBVHNode@Gu@physx@@V?$PxInlineAllocator@$0IAA@V?$PxReflectionAllocator@PEBUBVHNode@Gu@physx@@@physx@@@3@@physx@@QEAAXI@Z 000000018016dfa0 f i GuBVH.obj
 0001:0016cff0       ?save@BVHData@Gu@physx@@QEBA_NAEAVPxOutputStream@3@_N@Z 000000018016dff0 f   GuBVH.obj
 0001:0016d160       ?sweep@BVH@Gu@physx@@QEBA_NAEBVShapeData@23@AEBV?$PxVec3T@M@3@MAEAURaycastCallback@PxBVH@3@V?$PxFlags@W4Enum@PxGeometryQueryFlag@physx@@I@3@@Z 000000018016e160 f   GuBVH.obj
 0001:0016d350       ?sweep@BVH@Gu@physx@@UEBA_NAEBVPxGeometry@3@AEBV?$PxTransformT@M@3@AEBV?$PxVec3T@M@3@MAEAURaycastCallback@PxBVH@3@V?$PxFlags@W4Enum@PxGeometryQueryFlag@physx@@I@3@@Z 000000018016e350 f   GuBVH.obj
 0001:0016d3d0       ?traverse@BVH@Gu@physx@@UEBA_NAEAUTraversalCallback@PxBVH@3@@Z 000000018016e3d0 f   GuBVH.obj
 0001:0016d560       ?updateBounds@BVH@Gu@physx@@UEAA_NIAEBVPxBounds3@3@@Z 000000018016e560 f   GuBVH.obj
 0001:0016d610       ?updateBoundsInternal@BVH@Gu@physx@@QEAA_NIAEBVPxBounds3@3@@Z 000000018016e610 f   GuBVH.obj
 0001:0016d6c0       PxFindOverlap              000000018016e6c0 f   GuBVH.obj
 0001:0016d7b0       PxGetBVHInternalData       000000018016e7b0 f   GuBVH.obj
 0001:0016d7f0       ??0IncrementalAABBPrunerCore@Gu@physx@@QEAA@PEBVPruningPool@12@@Z 000000018016e7f0 f   GuIncrementalAABBPrunerCore.obj
 0001:0016d900       ??1IncrementalAABBPrunerCore@Gu@physx@@QEAA@XZ 000000018016e900 f   GuIncrementalAABBPrunerCore.obj
 0001:0016da70       ??R?$AABBTreeOverlap@$00U?$OBBAABBTests@$00@Gu@physx@@VIncrementalAABBTree@23@VIncrementalAABBTreeNode@23@UOverlapCallbackAdapter@23@@Gu@physx@@QEAA_NAEBVAABBTreeBounds@12@AEBVIncrementalAABBTree@12@AEBU?$OBBAABBTests@$00@12@AEAUOverlapCallbackAdapter@12@@Z 000000018016ea70 f i GuIncrementalAABBPrunerCore.obj
 0001:0016e020       ??R?$AABBTreeOverlap@$00UAABBAABBTest@Gu@physx@@VIncrementalAABBTree@23@VIncrementalAABBTreeNode@23@UOverlapCallbackAdapter@23@@Gu@physx@@QEAA_NAEBVAABBTreeBounds@12@AEBVIncrementalAABBTree@12@AEBUAABBAABBTest@12@AEAUOverlapCallbackAdapter@12@@Z 000000018016f020 f i GuIncrementalAABBPrunerCore.obj
 0001:0016e2a0       ??R?$AABBTreeOverlap@$00UCapsuleAABBTest@Gu@physx@@VIncrementalAABBTree@23@VIncrementalAABBTreeNode@23@UOverlapCallbackAdapter@23@@Gu@physx@@QEAA_NAEBVAABBTreeBounds@12@AEBVIncrementalAABBTree@12@AEBUCapsuleAABBTest@12@AEAUOverlapCallbackAdapter@12@@Z 000000018016f2a0 f i GuIncrementalAABBPrunerCore.obj
 0001:0016e600       ??R?$AABBTreeRaycast@$00$00VIncrementalAABBTree@Gu@physx@@VIncrementalAABBTreeNode@23@URaycastCallbackAdapter@23@@Gu@physx@@QEAA_NAEBVAABBTreeBounds@12@AEBVIncrementalAABBTree@12@AEBV?$PxVec3T@M@2@2AEAM2AEAURaycastCallbackAdapter@12@@Z 000000018016f600 f i GuIncrementalAABBPrunerCore.obj
 0001:0016ecd0       ??R?$AABBTreeRaycast@$0A@$00VIncrementalAABBTree@Gu@physx@@VIncrementalAABBTreeNode@23@URaycastCallbackAdapter@23@@Gu@physx@@QEAA_NAEBVAABBTreeBounds@12@AEBVIncrementalAABBTree@12@AEBV?$PxVec3T@M@2@2AEAM2AEAURaycastCallbackAdapter@12@@Z 000000018016fcd0 f i GuIncrementalAABBPrunerCore.obj
 0001:0016f320       ?addObject@IncrementalAABBPrunerCore@Gu@physx@@QEAA_NII@Z 0000000180170320 f   GuIncrementalAABBPrunerCore.obj
 0001:0016f410       ?allocate@?$PxArray@PEBVIncrementalAABBTreeNode@Gu@physx@@V?$PxInlineAllocator@$0IAA@V?$PxReflectionAllocator@PEBVIncrementalAABBTreeNode@Gu@physx@@@physx@@@3@@physx@@IEAAPEAPEBVIncrementalAABBTreeNode@Gu@2@I@Z 0000000180170410 f i GuIncrementalAABBPrunerCore.obj
 0001:0016f4d0       ?clear@?$PxHashMapBase@IPEAVIncrementalAABBTreeNode@Gu@physx@@U?$PxHash@I@3@VPxAllocator@3@@physx@@QEAAXXZ 00000001801704d0 f i GuIncrementalAABBPrunerCore.obj
 0001:0016f4d0       ?clear@?$PxHashMapBase@UPrunerPayload@Gu@physx@@UExtendedBucketPrunerData@23@UExtendedBucketPrunerHash@23@VPxAllocator@3@@physx@@QEAAXXZ 00000001801704d0 f i GuExtendedBucketPruner.obj
 0001:0016f560       ?create@?$PxHashBase@V?$PxPair@$$CBIPEAVIncrementalAABBTreeNode@Gu@physx@@@physx@@IU?$PxHash@I@2@UGetKey@?$PxHashMapBase@IPEAVIncrementalAABBTreeNode@Gu@physx@@U?$PxHash@I@3@VPxAllocator@3@@2@VPxAllocator@2@$00@physx@@QEAAPEAV?$PxPair@$$CBIPEAVIncrementalAABBTreeNode@Gu@physx@@@2@AEBIAEA_N@Z 0000000180170560 f i GuIncrementalAABBPrunerCore.obj
 0001:0016f6b0       ?erase@?$PxHashBase@V?$PxPair@$$CBIPEAVIncrementalAABBTreeNode@Gu@physx@@@physx@@IU?$PxHash@I@2@UGetKey@?$PxHashMapBase@IPEAVIncrementalAABBTreeNode@Gu@physx@@U?$PxHash@I@3@VPxAllocator@3@@2@VPxAllocator@2@$00@physx@@QEAA_NAEBIAEAV?$PxPair@$$CBIPEAVIncrementalAABBTreeNode@Gu@physx@@@2@@Z 00000001801706b0 f i GuIncrementalAABBPrunerCore.obj
 0001:0016f820       ?getCurrentWorldBoxes@PruningPool@Gu@physx@@QEAAPEAVPxBounds3@3@XZ 0000000180170820 f i GuIncrementalAABBPrunerCore.obj
 0001:0016f820       ?getCurrentWorldBoxes@PruningPool@Gu@physx@@QEBAPEBVPxBounds3@3@XZ 0000000180170820 f i GuIncrementalAABBPrunerCore.obj
 0001:0016f820       ?getMesh@CollisionTetrahedronMeshData@Gu@physx@@UEAAPEAVPxTetrahedronMeshData@3@XZ 0000000180170820 f i GuCookingTetrahedronMesh.obj
 0001:0016f820       ?getMesh@CollisionTetrahedronMeshData@Gu@physx@@UEBAPEBVPxTetrahedronMeshData@3@XZ 0000000180170820 f i GuCookingTetrahedronMesh.obj
 0001:0016f820       ?getMesh@SimulationTetrahedronMeshData@Gu@physx@@UEAAPEAVPxTetrahedronMeshData@3@XZ 0000000180170820 f i GuCookingTetrahedronMesh.obj
 0001:0016f830       ?getGlobalBounds@IncrementalAABBPrunerCore@Gu@physx@@QEBAXAEAVPxBounds3@3@@Z 0000000180170830 f   GuIncrementalAABBPrunerCore.obj
 0001:0016f960       ?getIndex@PruningPool@Gu@physx@@QEBAII@Z 0000000180170960 f i GuIncrementalAABBPrunerCore.obj
 0001:0016f970       ?getPayloadData@PruningPool@Gu@physx@@QEBAAEBUPrunerPayload@23@IPEAUPrunerPayloadData@23@@Z 0000000180170970 f i GuIncrementalAABBPrunerCore.obj
 0001:0016f9c0       ?overlap@IncrementalAABBPrunerCore@Gu@physx@@QEBA_NAEBVShapeData@23@AEAUPrunerOverlapCallback@23@@Z 00000001801709c0 f   GuIncrementalAABBPrunerCore.obj
 0001:00170510       ?raycast@IncrementalAABBPrunerCore@Gu@physx@@QEBA_NAEBV?$PxVec3T@M@3@0AEAMAEAUPrunerRaycastCallback@23@@Z 0000000180171510 f   GuIncrementalAABBPrunerCore.obj
 0001:00170620       ?recreate@?$PxArray@PEAVIncrementalAABBTreeNode@Gu@physx@@V?$PxReflectionAllocator@PEAVIncrementalAABBTreeNode@Gu@physx@@@3@@physx@@IEAAXI@Z 0000000180171620 f i GuIncrementalAABBPrunerCore.obj
 0001:00170730       ?recreate@?$PxArray@PEBVIncrementalAABBTreeNode@Gu@physx@@V?$PxInlineAllocator@$0IAA@V?$PxReflectionAllocator@PEBVIncrementalAABBTreeNode@Gu@physx@@@physx@@@3@@physx@@IEAAXI@Z 0000000180171730 f i GuIncrementalAABBPrunerCore.obj
 0001:001707f0       ?release@IncrementalAABBPrunerCore@Gu@physx@@QEAAXXZ 00000001801717f0 f   GuIncrementalAABBPrunerCore.obj
 0001:001708f0       ?removeMarkedObjects@IncrementalAABBPrunerCore@Gu@physx@@QEAAII@Z 00000001801718f0 f   GuIncrementalAABBPrunerCore.obj
 0001:00170950       ?removeObject@IncrementalAABBPrunerCore@Gu@physx@@QEAA_NIIAEAI@Z 0000000180171950 f   GuIncrementalAABBPrunerCore.obj
 0001:00170b60       ?reserveInternal@?$PxHashBase@V?$PxPair@$$CBIPEAVIncrementalAABBTreeNode@Gu@physx@@@physx@@IU?$PxHash@I@2@UGetKey@?$PxHashMapBase@IPEAVIncrementalAABBTreeNode@Gu@physx@@U?$PxHash@I@3@VPxAllocator@3@@2@VPxAllocator@2@$00@physx@@AEAAXI@Z 0000000180171b60 f i GuIncrementalAABBPrunerCore.obj
 0001:00170d20       ?resizeUninitialized@?$PxArray@PEBVIncrementalAABBTreeNode@Gu@physx@@V?$PxInlineAllocator@$0IAA@V?$PxReflectionAllocator@PEBVIncrementalAABBTreeNode@Gu@physx@@@physx@@@3@@physx@@QEAAXI@Z 0000000180171d20 f i GuIncrementalAABBPrunerCore.obj
 0001:00170d70       ?setTransform@PruningPool@Gu@physx@@QEAA_NIAEBV?$PxTransformT@M@3@@Z 0000000180171d70 f i GuIncrementalAABBPrunerCore.obj
 0001:00170dd0       ?shiftOrigin@IncrementalAABBPrunerCore@Gu@physx@@QEAAXAEBV?$PxVec3T@M@3@@Z 0000000180171dd0 f   GuIncrementalAABBPrunerCore.obj
 0001:00170e10       ?swapIndex@IncrementalAABBPrunerCore@Gu@physx@@QEAAXII@Z 0000000180171e10 f   GuIncrementalAABBPrunerCore.obj
 0001:00170ef0       ?sweep@IncrementalAABBPrunerCore@Gu@physx@@QEBA_NAEBVShapeData@23@AEBV?$PxVec3T@M@3@AEAMAEAUPrunerRaycastCallback@23@@Z 0000000180171ef0 f   GuIncrementalAABBPrunerCore.obj
 0001:00171110       ?updateMapping@IncrementalAABBPrunerCore@Gu@physx@@AEAAXAEAV?$PxHashMap@IPEAVIncrementalAABBTreeNode@Gu@physx@@U?$PxHash@I@3@VPxAllocator@3@@3@IPEAVIncrementalAABBTreeNode@23@@Z 0000000180172110 f   GuIncrementalAABBPrunerCore.obj
 0001:00171260       ?updateObject@IncrementalAABBPrunerCore@Gu@physx@@QEAA_NI@Z 0000000180172260 f   GuIncrementalAABBPrunerCore.obj
 0001:00171400       ?visualize@IncrementalAABBPrunerCore@Gu@physx@@QEBAXAEAVPxRenderOutput@3@I@Z 0000000180172400 f   GuIncrementalAABBPrunerCore.obj
 0001:00171460       ??0IncrementalAABBPruner@Gu@physx@@QEAA@I_K@Z 0000000180172460 f   GuIncrementalAABBPruner.obj
 0001:00171510       ??R?$AABBTreeOverlap@$00USphereAABBTest@Gu@physx@@VIncrementalAABBTree@23@VIncrementalAABBTreeNode@23@UOverlapCallbackAdapter@23@@Gu@physx@@QEAA_NAEBVAABBTreeBounds@12@AEBVIncrementalAABBTree@12@AEBUSphereAABBTest@12@AEAUOverlapCallbackAdapter@12@@Z 0000000180172510 f i GuIncrementalAABBPruner.obj
 0001:00171800       ??_EBasePruner@Gu@physx@@UEAAPEAXI@Z 0000000180172800 f i GuIncrementalAABBPruner.obj
 0001:00171800       ??_GBasePruner@Gu@physx@@UEAAPEAXI@Z 0000000180172800 f i GuIncrementalAABBPruner.obj
 0001:00171850       ??_EIncrementalAABBPruner@Gu@physx@@UEAAPEAXI@Z 0000000180172850 f i GuIncrementalAABBPruner.obj
 0001:00171850       ??_GIncrementalAABBPruner@Gu@physx@@UEAAPEAXI@Z 0000000180172850 f i GuIncrementalAABBPruner.obj
 0001:00171960       ?addObjects@IncrementalAABBPruner@Gu@physx@@UEAA_NPEAIPEBVPxBounds3@3@PEBUPrunerPayload@23@PEBV?$PxTransformT@M@3@I_N@Z 0000000180172960 f   GuIncrementalAABBPruner.obj
 0001:00171ad0       ?commit@IncrementalAABBPruner@Gu@physx@@UEAAXXZ 0000000180172ad0 f   GuIncrementalAABBPruner.obj
 0001:00171ca0       ?getGlobalBounds@IncrementalAABBPruner@Gu@physx@@UEBAXAEAVPxBounds3@3@@Z 0000000180172ca0 f   GuIncrementalAABBPruner.obj
 0001:00171d10       ?getPayloadData@IncrementalAABBPruner@Gu@physx@@UEBAAEBUPrunerPayload@23@IPEAUPrunerPayloadData@23@@Z 0000000180172d10 f i GuIncrementalAABBPruner.obj
 0001:00171d60       ?overlap@IncrementalAABBPruner@Gu@physx@@UEBA_NAEBVShapeData@23@AEAUPrunerOverlapCallback@23@@Z 0000000180172d60 f   GuIncrementalAABBPruner.obj
 0001:00172470       ?preallocate@IncrementalAABBPruner@Gu@physx@@UEAAXI@Z 0000000180173470 f i GuIncrementalAABBPruner.obj
 0001:00172480       ?purge@IncrementalAABBPruner@Gu@physx@@UEAAXXZ 0000000180173480 f   GuIncrementalAABBPruner.obj
 0001:001724d0       ?raycast@IncrementalAABBPruner@Gu@physx@@UEBA_NAEBV?$PxVec3T@M@3@0AEAMAEAUPrunerRaycastCallback@23@@Z 00000001801734d0 f   GuIncrementalAABBPruner.obj
 0001:00172550       ?removeObjects@IncrementalAABBPruner@Gu@physx@@UEAAXPEBIIPEAUPrunerPayloadRemovalCallback@23@@Z 0000000180173550 f   GuIncrementalAABBPruner.obj
 0001:00172740       ?resize@?$PxArray@PEAVIncrementalAABBTreeNode@Gu@physx@@V?$PxReflectionAllocator@PEAVIncrementalAABBTreeNode@Gu@physx@@@3@@physx@@QEAAXIAEBQEAVIncrementalAABBTreeNode@Gu@2@@Z 0000000180173740 f i GuIncrementalAABBPruner.obj
 0001:00172800       ?resizeUninitialized@?$PxArray@PEAVIncrementalAABBTreeNode@Gu@physx@@V?$PxReflectionAllocator@PEAVIncrementalAABBTreeNode@Gu@physx@@@3@@physx@@QEAAXI@Z 0000000180173800 f i GuIncrementalAABBPruner.obj
 0001:00172840       ?setTransform@IncrementalAABBPruner@Gu@physx@@UEAA_NIAEBV?$PxTransformT@M@3@@Z 0000000180173840 f i GuIncrementalAABBPruner.obj
 0001:001728a0       ?shiftOrigin@IncrementalAABBPruner@Gu@physx@@UEAAXAEBV?$PxVec3T@M@3@@Z 00000001801738a0 f   GuIncrementalAABBPruner.obj
 0001:001728e0       ?sweep@IncrementalAABBPruner@Gu@physx@@UEBA_NAEBVShapeData@23@AEBV?$PxVec3T@M@3@AEAMAEAUPrunerRaycastCallback@23@@Z 00000001801738e0 f   GuIncrementalAABBPruner.obj
 0001:00172a00       ?updateMapping@IncrementalAABBPruner@Gu@physx@@AEAAXIPEAVIncrementalAABBTreeNode@23@@Z 0000000180173a00 f   GuIncrementalAABBPruner.obj
 0001:00172af0       ?updateObjects@IncrementalAABBPruner@Gu@physx@@UEAAXPEBIIM0PEBVPxBounds3@3@PEBUPxTransformPadded@3@@Z 0000000180173af0 f   GuIncrementalAABBPruner.obj
 0001:00172ca0       ?visualize@IncrementalAABBPruner@Gu@physx@@UEBAXAEAVPxRenderOutput@3@II@Z 0000000180173ca0 f   GuIncrementalAABBPruner.obj
 0001:00172e90       ??0PruningPool@Gu@physx@@QEAA@_KW4TransformCacheMode@12@@Z 0000000180173e90 f   GuPruningPool.obj
 0001:00172ec0       ??1PruningPool@Gu@physx@@QEAA@XZ 0000000180173ec0 f   GuPruningPool.obj
 0001:00172f90       ?addObjects@PruningPool@Gu@physx@@QEAAIPEAIPEBVPxBounds3@3@PEBUPrunerPayload@23@PEBV?$PxTransformT@M@3@I@Z 0000000180173f90 f   GuPruningPool.obj
 0001:00173200       ?preallocate@PruningPool@Gu@physx@@QEAAXI@Z 0000000180174200 f   GuPruningPool.obj
 0001:00173210       ?removeObject@PruningPool@Gu@physx@@QEAAIIPEAUPrunerPayloadRemovalCallback@23@@Z 0000000180174210 f   GuPruningPool.obj
 0001:001733e0       ?resize@PruningPool@Gu@physx@@QEAA_NI@Z 00000001801743e0 f   GuPruningPool.obj
 0001:00173780       ?shiftOrigin@PruningPool@Gu@physx@@QEAAXAEBV?$PxVec3T@M@3@@Z 0000000180174780 f   GuPruningPool.obj
 0001:00173bd0       ?updateAndInflateBounds@PruningPool@Gu@physx@@QEAAXPEBI0PEBVPxBounds3@3@PEBUPxTransformPadded@3@IM@Z 0000000180174bd0 f   GuPruningPool.obj
 0001:001756f0       ??0BucketPruner@Gu@physx@@QEAA@_K@Z 00000001801766f0 f   GuBucketPruner.obj
 0001:00175740       ??0BucketPrunerCore@Gu@physx@@QEAA@_N@Z 0000000180176740 f   GuBucketPruner.obj
 0001:00175ac0       ??1BucketPrunerCore@Gu@physx@@QEAA@XZ 0000000180176ac0 f   GuBucketPruner.obj
 0001:00175ae0       ??R?$BucketPrunerOverlapTraversal@UBucketPrunerAABBAABBTest@@$00@@QEBA_NAEBVBucketPrunerCore@Gu@physx@@AEBUBucketPrunerAABBAABBTest@@AEAUPrunerOverlapCallback@23@AEBVPxBounds3@3@@Z 0000000180176ae0 f i GuBucketPruner.obj
 0001:001760a0       ??R?$BucketPrunerOverlapTraversal@UOBBAABBTest_SIMD@@$0A@@@QEBA_NAEBVBucketPrunerCore@Gu@physx@@AEBUOBBAABBTest_SIMD@@AEAUPrunerOverlapCallback@23@AEBVPxBounds3@3@@Z 00000001801770a0 f i GuBucketPruner.obj
 0001:00176920       ??R?$BucketPrunerOverlapTraversal@USphereAABBTest_SIMD@@$00@@QEBA_NAEBVBucketPrunerCore@Gu@physx@@AEBUSphereAABBTest_SIMD@@AEAUPrunerOverlapCallback@23@AEBVPxBounds3@3@@Z 0000000180177920 f i GuBucketPruner.obj
 0001:00176f00       ??_FBucketPrunerCore@Gu@physx@@QEAAXXZ 0000000180177f00 f i GuBucketPruner.obj
 0001:00176f10       ??_EBucketPruner@Gu@physx@@UEAAPEAXI@Z 0000000180177f10 f i GuBucketPruner.obj
 0001:00176f10       ??_GBucketPruner@Gu@physx@@UEAAPEAXI@Z 0000000180177f10 f i GuBucketPruner.obj
 0001:00176fb0       ?addObject@BucketPrunerCore@Gu@physx@@QEAA_NAEBUPrunerPayload@23@AEBVPxBounds3@3@AEBV?$PxTransformT@M@3@I@Z 0000000180177fb0 f   GuBucketPruner.obj
 0001:001772c0       ?addObjects@BucketPruner@Gu@physx@@UEAA_NPEAIPEBVPxBounds3@3@PEBUPrunerPayload@23@PEBV?$PxTransformT@M@3@I_N@Z 00000001801782c0 f   GuBucketPruner.obj
 0001:00177350       ?addPair@BucketPrunerMap@Gu@physx@@QEAAPEAUBucketPrunerPair@23@AEBUPrunerPayload@23@II@Z 0000000180178350 f   GuBucketPruner.obj
 0001:00177550       ?allocateSortedMemory@BucketPrunerCore@Gu@physx@@AEAAXI@Z 0000000180178550 f   GuBucketPruner.obj
 0001:00177710       ?classifyBoxes@BucketPrunerCore@Gu@physx@@AEAAXXZ 0000000180178710 f   GuBucketPruner.obj
 0001:00177f00       ?classifyBoxes@BucketPrunerNode@Gu@physx@@QEAAXMMIPEIAUBucketBox@23@PEIBUPrunerPayload@23@PEIBV?$PxTransformT@M@3@0PEIAU523@PEIAV63@_NI@Z 0000000180178f00 f   GuBucketPruner.obj
 0001:00178780       ?build@CompanionPrunerBucket@@UEAAXXZ 0000000180179780 f   GuSecondaryPruner.obj
 0001:00178780       ?commit@BucketPruner@Gu@physx@@UEAAXXZ 0000000180179780 f   GuBucketPruner.obj
 0001:00178790       ?findPair@BucketPrunerMap@Gu@physx@@QEBAPEBUBucketPrunerPair@23@AEBUPrunerPayload@23@@Z 0000000180179790 f   GuBucketPruner.obj
 0001:00178b70       ?getGlobalBounds@BucketPruner@Gu@physx@@UEBAXAEAVPxBounds3@3@@Z 0000000180179b70 f   GuBucketPruner.obj
 0001:00178be0       ?getGlobalBounds@BucketPrunerCore@Gu@physx@@QEBAXAEAVPxBounds3@3@@Z 0000000180179be0 f   GuBucketPruner.obj
 0001:00178c50       ?getPayloadData@BucketPruner@Gu@physx@@UEBAAEBUPrunerPayload@23@IPEAUPrunerPayloadData@23@@Z 0000000180179c50 f i GuBucketPruner.obj
 0001:00178cb0       ?overlap@BucketPruner@Gu@physx@@UEBA_NAEBVShapeData@23@AEAUPrunerOverlapCallback@23@@Z 0000000180179cb0 f   GuBucketPruner.obj
 0001:00178cd0       ?overlap@BucketPrunerCore@Gu@physx@@QEBA_NAEBVShapeData@23@AEAUPrunerOverlapCallback@23@@Z 0000000180179cd0 f   GuBucketPruner.obj
 0001:00178fb0       ?preallocate@BucketPruner@Gu@physx@@UEAAXI@Z 0000000180179fb0 f i GuBucketPruner.obj
 0001:00179190       ?purge@BucketPrunerMap@Gu@physx@@QEAAXXZ 000000018017a190 f   GuBucketPruner.obj
 0001:00179220       ?raycast@BucketPruner@Gu@physx@@UEBA_NAEBV?$PxVec3T@M@3@0AEAMAEAUPrunerRaycastCallback@23@@Z 000000018017a220 f   GuBucketPruner.obj
 0001:00179270       ?raycast@BucketPrunerCore@Gu@physx@@QEBA_NAEBV?$PxVec3T@M@3@0AEAMAEAUPrunerRaycastCallback@23@@Z 000000018017a270 f   GuBucketPruner.obj
 0001:001792b0       ?reallocPairs@BucketPrunerMap@Gu@physx@@QEAAXXZ 000000018017a2b0 f   GuBucketPruner.obj
 0001:001794f0       ?release@BucketPrunerCore@Gu@physx@@QEAAXXZ 000000018017a4f0 f   GuBucketPruner.obj
 0001:00179630       ?removeMarkedObjects@BucketPrunerCore@Gu@physx@@QEAAII@Z 000000018017a630 f   GuBucketPruner.obj
 0001:00179a00       ?removeObject@BucketPrunerCore@Gu@physx@@QEAA_NAEBUPrunerPayload@23@AEAI@Z 000000018017aa00 f   GuBucketPruner.obj
 0001:00179cc0       ?removeObjects@BucketPruner@Gu@physx@@UEAAXPEBIIPEAUPrunerPayloadRemovalCallback@23@@Z 000000018017acc0 f   GuBucketPruner.obj
 0001:00179d70       ?removePair@BucketPrunerMap@Gu@physx@@QEAA_NAEBUPrunerPayload@23@AEAI1@Z 000000018017ad70 f   GuBucketPruner.obj
 0001:00179ef0       ?removePairInternal@BucketPrunerMap@Gu@physx@@QEAAXAEBUPrunerPayload@23@II@Z 000000018017aef0 f   GuBucketPruner.obj
 0001:0017a080       ?resizeCore@BucketPrunerCore@Gu@physx@@AEAAXXZ 000000018017b080 f   GuBucketPruner.obj
 0001:0017a2d0       ?setTransform@BucketPruner@Gu@physx@@UEAA_NIAEBV?$PxTransformT@M@3@@Z 000000018017b2d0 f i GuBucketPruner.obj
 0001:0017a330       ?shiftOrigin@BucketPruner@Gu@physx@@UEAAXAEBV?$PxVec3T@M@3@@Z 000000018017b330 f   GuBucketPruner.obj
 0001:0017a330       ?shiftOrigin@CompanionPrunerBucket@@UEAAXAEBV?$PxVec3T@M@physx@@@Z 000000018017b330 f   GuSecondaryPruner.obj
 0001:0017a340       ?shiftOrigin@BucketPrunerCore@Gu@physx@@QEAAXAEBV?$PxVec3T@M@3@@Z 000000018017b340 f   GuBucketPruner.obj
 0001:0017b170       ?sweep@BucketPruner@Gu@physx@@UEBA_NAEBVShapeData@23@AEBV?$PxVec3T@M@3@AEAMAEAUPrunerRaycastCallback@23@@Z 000000018017c170 f   GuBucketPruner.obj
 0001:0017b190       ?sweep@BucketPrunerCore@Gu@physx@@QEBA_NAEBVShapeData@23@AEBV?$PxVec3T@M@3@AEAMAEAUPrunerRaycastCallback@23@@Z 000000018017c190 f   GuBucketPruner.obj
 0001:0017b260       ?updateObject@BucketPrunerCore@Gu@physx@@QEAA_NAEBVPxBounds3@3@AEBUPrunerPayload@23@AEBV?$PxTransformT@M@3@@Z 000000018017c260 f   GuBucketPruner.obj
 0001:0017b2c0       ?updateObjects@BucketPruner@Gu@physx@@UEAAXPEBIIM0PEBVPxBounds3@3@PEBUPxTransformPadded@3@@Z 000000018017c2c0 f   GuBucketPruner.obj
 0001:0017b3d0       ?visualize@BucketPruner@Gu@physx@@UEBAXAEAVPxRenderOutput@3@II@Z 000000018017c3d0 f   GuBucketPruner.obj
 0001:0017b3d0       ?visualize@CompanionPrunerBucket@@UEBAXAEAVPxRenderOutput@physx@@I@Z 000000018017c3d0 f   GuSecondaryPruner.obj
 0001:0017b3e0       ?visualize@BucketPrunerCore@Gu@physx@@QEBAXAEAVPxRenderOutput@3@I@Z 000000018017c3e0 f   GuBucketPruner.obj
 0001:0017b860       ?addObject@MaverickNode@Gu@physx@@QEAA_NAEBUPrunerPayload@23@IAEBVPxBounds3@3@AEBV?$PxTransformT@M@3@I@Z 000000018017c860 f   GuMaverickNode.obj
 0001:0017b940       ?removeMarkedObjects@MaverickNode@Gu@physx@@QEAAII@Z 000000018017c940 f   GuMaverickNode.obj
 0001:0017bad0       ?removeObject@MaverickNode@Gu@physx@@QEAA_NIAEAI@Z 000000018017cad0 f   GuMaverickNode.obj
 0001:0017bc60       ?shiftOrigin@MaverickNode@Gu@physx@@QEAAXAEBV?$PxVec3T@M@3@@Z 000000018017cc60 f   GuMaverickNode.obj
 0001:0017bd50       ?updateObject@MaverickNode@Gu@physx@@QEAA_NIAEBVPxBounds3@3@AEBV?$PxTransformT@M@3@@Z 000000018017cd50 f   GuMaverickNode.obj
 0001:0017be30       ??0ExtendedBucketPruner@Gu@physx@@QEAA@_KW4CompanionPrunerType@12@PEBVPruningPool@12@@Z 000000018017ce30 f   GuExtendedBucketPruner.obj
 0001:0017c060       ??1ExtendedBucketPruner@Gu@physx@@QEAA@XZ 000000018017d060 f   GuExtendedBucketPruner.obj
 0001:0017c1d0       ??R?$AABBTreeOverlap@$00U?$OBBAABBTests@$00@Gu@physx@@VAABBTree@23@UBVHNode@23@U?$MainTreeOverlapPrunerCallback@U?$OBBAABBTests@$00@Gu@physx@@@@@Gu@physx@@QEAA_NAEBVAABBTreeBounds@12@AEBVAABBTree@12@AEBU?$OBBAABBTests@$00@12@AEAU?$MainTreeOverlapPrunerCallback@U?$OBBAABBTests@$00@Gu@physx@@@@@Z 000000018017d1d0 f i GuExtendedBucketPruner.obj
 0001:0017c7c0       ??R?$AABBTreeOverlap@$00U?$OBBAABBTests@$00@Gu@physx@@VAABBTree@23@UBVHNode@23@UOverlapCallbackAdapter@23@@Gu@physx@@QEAA_NAEBVAABBTreeBounds@12@AEBVAABBTree@12@AEBU?$OBBAABBTests@$00@12@AEAUOverlapCallbackAdapter@12@@Z 000000018017d7c0 f i GuExtendedBucketPruner.obj
 0001:0017cd90       ??R?$AABBTreeOverlap@$00UAABBAABBTest@Gu@physx@@VAABBTree@23@UBVHNode@23@U?$MainTreeOverlapPrunerCallback@UAABBAABBTest@Gu@physx@@@@@Gu@physx@@QEAA_NAEBVAABBTreeBounds@12@AEBVAABBTree@12@AEBUAABBAABBTest@12@AEAU?$MainTreeOverlapPrunerCallback@UAABBAABBTest@Gu@physx@@@@@Z 000000018017dd90 f i GuExtendedBucketPruner.obj
 0001:0017d050       ??R?$AABBTreeOverlap@$00UAABBAABBTest@Gu@physx@@VAABBTree@23@UBVHNode@23@UOverlapCallbackAdapter@23@@Gu@physx@@QEAA_NAEBVAABBTreeBounds@12@AEBVAABBTree@12@AEBUAABBAABBTest@12@AEAUOverlapCallbackAdapter@12@@Z 000000018017e050 f i GuExtendedBucketPruner.obj
 0001:0017d2f0       ??R?$AABBTreeOverlap@$00UCapsuleAABBTest@Gu@physx@@VAABBTree@23@UBVHNode@23@U?$MainTreeOverlapPrunerCallback@UCapsuleAABBTest@Gu@physx@@@@@Gu@physx@@QEAA_NAEBVAABBTreeBounds@12@AEBVAABBTree@12@AEBUCapsuleAABBTest@12@AEAU?$MainTreeOverlapPrunerCallback@UCapsuleAABBTest@Gu@physx@@@@@Z 000000018017e2f0 f i GuExtendedBucketPruner.obj
 0001:0017d6b0       ??R?$AABBTreeOverlap@$00UCapsuleAABBTest@Gu@physx@@VAABBTree@23@UBVHNode@23@UOverlapCallbackAdapter@23@@Gu@physx@@QEAA_NAEBVAABBTreeBounds@12@AEBVAABBTree@12@AEBUCapsuleAABBTest@12@AEAUOverlapCallbackAdapter@12@@Z 000000018017e6b0 f i GuExtendedBucketPruner.obj
 0001:0017da60       ??R?$AABBTreeOverlap@$00USphereAABBTest@Gu@physx@@VAABBTree@23@UBVHNode@23@U?$MainTreeOverlapPrunerCallback@USphereAABBTest@Gu@physx@@@@@Gu@physx@@QEAA_NAEBVAABBTreeBounds@12@AEBVAABBTree@12@AEBUSphereAABBTest@12@AEAU?$MainTreeOverlapPrunerCallback@USphereAABBTest@Gu@physx@@@@@Z 000000018017ea60 f i GuExtendedBucketPruner.obj
 0001:0017dd80       ??R?$AABBTreeOverlap@$00USphereAABBTest@Gu@physx@@VAABBTree@23@UBVHNode@23@UOverlapCallbackAdapter@23@@Gu@physx@@QEAA_NAEBVAABBTreeBounds@12@AEBVAABBTree@12@AEBUSphereAABBTest@12@AEAUOverlapCallbackAdapter@12@@Z 000000018017ed80 f i GuExtendedBucketPruner.obj
 0001:0017e080       ??R?$AABBTreeRaycast@$00$00VAABBTree@Gu@physx@@UBVHNode@23@U?$MainTreeRaycastPrunerCallback@$00@@@Gu@physx@@QEAA_NAEBVAABBTreeBounds@12@AEBVAABBTree@12@AEBV?$PxVec3T@M@2@2AEAM2AEAU?$MainTreeRaycastPrunerCallback@$00@@@Z 000000018017f080 f i GuExtendedBucketPruner.obj
 0001:0017e7b0       ??R?$AABBTreeRaycast@$00$00VAABBTree@Gu@physx@@UBVHNode@23@URaycastCallbackAdapter@23@@Gu@physx@@QEAA_NAEBVAABBTreeBounds@12@AEBVAABBTree@12@AEBV?$PxVec3T@M@2@2AEAM2AEAURaycastCallbackAdapter@12@@Z 000000018017f7b0 f i GuExtendedBucketPruner.obj
 0001:0017eea0       ??R?$AABBTreeRaycast@$0A@$00VAABBTree@Gu@physx@@UBVHNode@23@U?$MainTreeRaycastPrunerCallback@$0A@@@@Gu@physx@@QEAA_NAEBVAABBTreeBounds@12@AEBVAABBTree@12@AEBV?$PxVec3T@M@2@2AEAM2AEAU?$MainTreeRaycastPrunerCallback@$0A@@@@Z 000000018017fea0 f i GuExtendedBucketPruner.obj
 0001:0017f570       ??R?$AABBTreeRaycast@$0A@$00VAABBTree@Gu@physx@@UBVHNode@23@URaycastCallbackAdapter@23@@Gu@physx@@QEAA_NAEBVAABBTreeBounds@12@AEBVAABBTree@12@AEBV?$PxVec3T@M@2@2AEAM2AEAURaycastCallbackAdapter@12@@Z 0000000180180570 f i GuExtendedBucketPruner.obj
 0001:0017fc00       ?addTree@ExtendedBucketPruner@Gu@physx@@QEAAXAEBVAABBTreeMergeData@23@I@Z 0000000180180c00 f   GuExtendedBucketPruner.obj
 0001:0017fee0       ?buildMainAABBTree@ExtendedBucketPruner@Gu@physx@@AEAAXXZ 0000000180180ee0 f   GuExtendedBucketPruner.obj
 0001:0017ff90       ?create@?$PxHashBase@V?$PxPair@$$CBUPrunerPayload@Gu@physx@@UExtendedBucketPrunerData@23@@physx@@UPrunerPayload@Gu@2@UExtendedBucketPrunerHash@42@UGetKey@?$PxHashMapBase@UPrunerPayload@Gu@physx@@UExtendedBucketPrunerData@23@UExtendedBucketPrunerHash@23@VPxAllocator@3@@2@VPxAllocator@2@$00@physx@@QEAAPEAV?$PxPair@$$CBUPrunerPayload@Gu@physx@@UExtendedBucketPrunerData@23@@2@AEBUPrunerPayload@Gu@2@AEA_N@Z 0000000180180f90 f i GuExtendedBucketPruner.obj
 0001:00180160       ?eraseInternal@?$PxHashBase@V?$PxPair@$$CBUPrunerPayload@Gu@physx@@UExtendedBucketPrunerData@23@@physx@@UPrunerPayload@Gu@2@UExtendedBucketPrunerHash@42@UGetKey@?$PxHashMapBase@UPrunerPayload@Gu@physx@@UExtendedBucketPrunerData@23@UExtendedBucketPrunerHash@23@VPxAllocator@3@@2@VPxAllocator@2@$00@physx@@AEAA_NPEAI@Z 0000000180181160 f i GuExtendedBucketPruner.obj
 0001:00180280       ?find@?$PxHashMapBase@UPrunerPayload@Gu@physx@@UExtendedBucketPrunerData@23@UExtendedBucketPrunerHash@23@VPxAllocator@3@@physx@@QEBAPEBV?$PxPair@$$CBUPrunerPayload@Gu@physx@@UExtendedBucketPrunerData@23@@2@AEBUPrunerPayload@Gu@2@@Z 0000000180181280 f i GuExtendedBucketPruner.obj
 0001:00180370       ?getGlobalBounds@ExtendedBucketPruner@Gu@physx@@QEBAXAEAVPxBounds3@3@@Z 0000000180181370 f   GuExtendedBucketPruner.obj
 0001:00180440       ?invalidateObject@ExtendedBucketPruner@Gu@physx@@AEAAXAEBUExtendedBucketPrunerData@23@IAEBUPrunerPayload@23@I@Z 0000000180181440 f   GuExtendedBucketPruner.obj
 0001:00180580       ?overlap@ExtendedBucketPruner@Gu@physx@@QEBA_NAEBVShapeData@23@AEAUPrunerOverlapCallback@23@@Z 0000000180181580 f   GuExtendedBucketPruner.obj
 0001:00180d50       ?raycast@ExtendedBucketPruner@Gu@physx@@QEBA_NAEBV?$PxVec3T@M@3@0AEAMAEAUPrunerRaycastCallback@23@@Z 0000000180181d50 f   GuExtendedBucketPruner.obj
 0001:00180e30       ?refitMarkedNodes@ExtendedBucketPruner@Gu@physx@@QEAAXPEBVPxBounds3@3@@Z 0000000180181e30 f   GuExtendedBucketPruner.obj
 0001:001813b0       ?release@ExtendedBucketPruner@Gu@physx@@QEAAXXZ 00000001801823b0 f   GuExtendedBucketPruner.obj
 0001:00181480       ?removeMarkedObjects@ExtendedBucketPruner@Gu@physx@@QEAAII@Z 0000000180182480 f   GuExtendedBucketPruner.obj
 0001:001817a0       ?removeObject@ExtendedBucketPruner@Gu@physx@@QEAA_NAEBUPrunerPayload@23@II0I@Z 00000001801827a0 f   GuExtendedBucketPruner.obj
 0001:00181990       ?reserveInternal@?$PxHashBase@V?$PxPair@$$CBUPrunerPayload@Gu@physx@@UExtendedBucketPrunerData@23@@physx@@UPrunerPayload@Gu@2@UExtendedBucketPrunerHash@42@UGetKey@?$PxHashMapBase@UPrunerPayload@Gu@physx@@UExtendedBucketPrunerData@23@UExtendedBucketPrunerHash@23@VPxAllocator@3@@2@VPxAllocator@2@$00@physx@@AEAAXI@Z 0000000180182990 f i GuExtendedBucketPruner.obj
 0001:00181b90       ?shiftOrigin@ExtendedBucketPruner@Gu@physx@@QEAAXAEBV?$PxVec3T@M@3@@Z 0000000180182b90 f   GuExtendedBucketPruner.obj
 0001:00181c10       ?swapIndex@ExtendedBucketPruner@Gu@physx@@QEAAXIAEBUPrunerPayload@23@I_N@Z 0000000180182c10 f   GuExtendedBucketPruner.obj
 0001:00181ce0       ?sweep@ExtendedBucketPruner@Gu@physx@@QEBA_NAEBVShapeData@23@AEBV?$PxVec3T@M@3@AEAMAEAUPrunerRaycastCallback@23@@Z 0000000180182ce0 f   GuExtendedBucketPruner.obj
 0001:00181e70       ?updateObject@ExtendedBucketPruner@Gu@physx@@QEAA_NAEBVPxBounds3@3@AEBV?$PxTransformT@M@3@AEBUPrunerPayload@23@II@Z 0000000180182e70 f   GuExtendedBucketPruner.obj
 0001:00181f40       ?visualize@ExtendedBucketPruner@Gu@physx@@QEBAXAEAVPxRenderOutput@3@I@Z 0000000180182f40 f   GuExtendedBucketPruner.obj
 0001:00181fd0       ??0?$OBBAABBTests@$00@Gu@physx@@QEAA@AEBV?$PxVec3T@M@2@AEBV?$PxMat33T@M@2@0@Z 0000000180182fd0 f i GuSecondaryPruner.obj
 0001:00183f90       ??_ECompanionPruner@Gu@physx@@UEAAPEAXI@Z 0000000180184f90 f i GuSecondaryPruner.obj
 0001:00183f90       ??_GCompanionPruner@Gu@physx@@UEAAPEAXI@Z 0000000180184f90 f i GuSecondaryPruner.obj
 0001:00183fe0       ??_ECompanionPrunerAABBTree@@UEAAPEAXI@Z 0000000180184fe0 f i GuSecondaryPruner.obj
 0001:00183fe0       ??_GCompanionPrunerAABBTree@@UEAAPEAXI@Z 0000000180184fe0 f i GuSecondaryPruner.obj
 0001:00184090       ??_ECompanionPrunerBucket@@UEAAPEAXI@Z 0000000180185090 f i GuSecondaryPruner.obj
 0001:00184090       ??_GCompanionPrunerBucket@@UEAAPEAXI@Z 0000000180185090 f i GuSecondaryPruner.obj
 0001:00184110       ??_ECompanionPrunerIncremental@@UEAAPEAXI@Z 0000000180185110 f i GuSecondaryPruner.obj
 0001:00184110       ??_GCompanionPrunerIncremental@@UEAAPEAXI@Z 0000000180185110 f i GuSecondaryPruner.obj
 0001:00184190       ?addObject@CompanionPrunerAABBTree@@UEAA_NAEBUPrunerPayload@Gu@physx@@IAEBVPxBounds3@4@AEBV?$PxTransformT@M@4@II@Z 0000000180185190 f   GuSecondaryPruner.obj
 0001:001843d0       ?addObject@CompanionPrunerBucket@@UEAA_NAEBUPrunerPayload@Gu@physx@@IAEBVPxBounds3@4@AEBV?$PxTransformT@M@4@II@Z 00000001801853d0 f i GuSecondaryPruner.obj
 0001:001843f0       ?addObject@CompanionPrunerIncremental@@UEAA_NAEBUPrunerPayload@Gu@physx@@IAEBVPxBounds3@4@AEBV?$PxTransformT@M@4@II@Z 00000001801853f0 f i GuSecondaryPruner.obj
 0001:00184410       ?addObjectInternal@CompanionPrunerAABBTree@@QEAA_NII@Z 0000000180185410 f   GuSecondaryPruner.obj
 0001:001845b0       ?build@CompanionPrunerAABBTree@@UEAAXXZ 00000001801855b0 f   GuSecondaryPruner.obj
 0001:00184a80       ?createCompanionPruner@Gu@physx@@YAPEAVCompanionPruner@12@_KW4CompanionPrunerType@12@PEBVPruningPool@12@@Z 0000000180185a80 f   GuSecondaryPruner.obj
 0001:00184c80       ?getGlobalBounds@CompanionPrunerAABBTree@@UEBAXAEAVPxBounds3@physx@@@Z 0000000180185c80 f   GuSecondaryPruner.obj
 0001:00184d70       ?getGlobalBounds@CompanionPrunerBucket@@UEBAXAEAVPxBounds3@physx@@@Z 0000000180185d70 f i GuSecondaryPruner.obj
 0001:00184d80       ?getGlobalBounds@CompanionPrunerIncremental@@UEBAXAEAVPxBounds3@physx@@@Z 0000000180185d80 f i GuSecondaryPruner.obj
 0001:00184d90       ?getNbObjects@CompanionPrunerAABBTree@@UEBAIXZ 0000000180185d90 f   GuSecondaryPruner.obj
 0001:00184da0       ?getNbObjects@CompanionPrunerBucket@@UEBAIXZ 0000000180185da0 f i GuSecondaryPruner.obj
 0001:00184db0       ?getNbObjects@CompanionPrunerIncremental@@UEBAIXZ 0000000180185db0 f i GuSecondaryPruner.obj
 0001:00184dc0       ?growAndPushBack@?$PxArray@ULocalData@CompanionPrunerAABBTree@@V?$PxReflectionAllocator@ULocalData@CompanionPrunerAABBTree@@@physx@@@physx@@IEAAAEAULocalData@CompanionPrunerAABBTree@@AEBU34@@Z 0000000180185dc0 f i GuSecondaryPruner.obj
 0001:00184ef0       ?overlap@CompanionPrunerAABBTree@@UEBA_NAEBVShapeData@Gu@physx@@AEAUPrunerOverlapCallback@34@@Z 0000000180185ef0 f   GuSecondaryPruner.obj
 0001:00185e70       ?overlap@CompanionPrunerBucket@@UEBA_NAEBVShapeData@Gu@physx@@AEAUPrunerOverlapCallback@34@@Z 0000000180186e70 f i GuSecondaryPruner.obj
 0001:00185e90       ?overlap@CompanionPrunerIncremental@@UEBA_NAEBVShapeData@Gu@physx@@AEAUPrunerOverlapCallback@34@@Z 0000000180186e90 f i GuSecondaryPruner.obj
 0001:00185eb0       ?raycast@CompanionPrunerAABBTree@@UEBA_NAEBV?$PxVec3T@M@physx@@0AEAMAEAUPrunerRaycastCallback@Gu@3@@Z 0000000180186eb0 f   GuSecondaryPruner.obj
 0001:00186290       ?raycast@CompanionPrunerBucket@@UEBA_NAEBV?$PxVec3T@M@physx@@0AEAMAEAUPrunerRaycastCallback@Gu@3@@Z 0000000180187290 f i GuSecondaryPruner.obj
 0001:001862b0       ?raycast@CompanionPrunerIncremental@@UEBA_NAEBV?$PxVec3T@M@physx@@0AEAMAEAUPrunerRaycastCallback@Gu@3@@Z 00000001801872b0 f i GuSecondaryPruner.obj
 0001:001862d0       ?release@CompanionPrunerAABBTree@@UEAAXXZ 00000001801872d0 f   GuSecondaryPruner.obj
 0001:001862e0       ?release@CompanionPrunerBucket@@UEAAXXZ 00000001801872e0 f i GuSecondaryPruner.obj
 0001:001862f0       ?release@CompanionPrunerIncremental@@UEAAXXZ 00000001801872f0 f i GuSecondaryPruner.obj
 0001:00186300       ?releaseInternal@CompanionPrunerAABBTree@@QEAAXXZ 0000000180187300 f   GuSecondaryPruner.obj
 0001:00186380       ?removeMarkedObjects@CompanionPrunerAABBTree@@UEAAII@Z 0000000180187380 f   GuSecondaryPruner.obj
 0001:001863a0       ?removeMarkedObjects@CompanionPrunerBucket@@UEAAII@Z 00000001801873a0 f i GuSecondaryPruner.obj
 0001:001863b0       ?removeMarkedObjects@CompanionPrunerIncremental@@UEAAII@Z 00000001801873b0 f i GuSecondaryPruner.obj
 0001:001863c0       ?removeObject@CompanionPrunerAABBTree@@UEAA_NAEBUPrunerPayload@Gu@physx@@III@Z 00000001801873c0 f   GuSecondaryPruner.obj
 0001:00186460       ?removeObject@CompanionPrunerBucket@@UEAA_NAEBUPrunerPayload@Gu@physx@@III@Z 0000000180187460 f i GuSecondaryPruner.obj
 0001:00186480       ?removeObject@CompanionPrunerIncremental@@UEAA_NAEBUPrunerPayload@Gu@physx@@III@Z 0000000180187480 f i GuSecondaryPruner.obj
 0001:001864a0       ?shiftOrigin@CompanionPrunerAABBTree@@UEAAXAEBV?$PxVec3T@M@physx@@@Z 00000001801874a0 f   GuSecondaryPruner.obj
 0001:001865d0       ?shiftOrigin@CompanionPrunerIncremental@@UEAAXAEBV?$PxVec3T@M@physx@@@Z 00000001801875d0 f i GuSecondaryPruner.obj
 0001:001865e0       ?swapIndex@CompanionPrunerIncremental@@UEAAXII@Z 00000001801875e0 f i GuSecondaryPruner.obj
 0001:001865f0       ?sweep@CompanionPrunerAABBTree@@UEBA_NAEBVShapeData@Gu@physx@@AEBV?$PxVec3T@M@4@AEAMAEAUPrunerRaycastCallback@34@@Z 00000001801875f0 f   GuSecondaryPruner.obj
 0001:00186b20       ?sweep@CompanionPrunerBucket@@UEBA_NAEBVShapeData@Gu@physx@@AEBV?$PxVec3T@M@4@AEAMAEAUPrunerRaycastCallback@34@@Z 0000000180187b20 f i GuSecondaryPruner.obj
 0001:00186b40       ?sweep@CompanionPrunerIncremental@@UEBA_NAEBVShapeData@Gu@physx@@AEBV?$PxVec3T@M@4@AEAMAEAUPrunerRaycastCallback@34@@Z 0000000180187b40 f i GuSecondaryPruner.obj
 0001:00186b60       ?timeStampChange@CompanionPrunerIncremental@@UEAAXXZ 0000000180187b60 f i GuSecondaryPruner.obj
 0001:00186b80       ?updateObject@CompanionPrunerAABBTree@@UEAA_NAEBUPrunerPayload@Gu@physx@@IAEBVPxBounds3@4@AEBV?$PxTransformT@M@4@I@Z 0000000180187b80 f   GuSecondaryPruner.obj
 0001:00186c00       ?updateObject@CompanionPrunerBucket@@UEAA_NAEBUPrunerPayload@Gu@physx@@IAEBVPxBounds3@4@AEBV?$PxTransformT@M@4@I@Z 0000000180187c00 f i GuSecondaryPruner.obj
 0001:00186c20       ?updateObject@CompanionPrunerIncremental@@UEAA_NAEBUPrunerPayload@Gu@physx@@IAEBVPxBounds3@4@AEBV?$PxTransformT@M@4@I@Z 0000000180187c20 f i GuSecondaryPruner.obj
 0001:00186c30       ?visualize@CompanionPrunerAABBTree@@UEBAXAEAVPxRenderOutput@physx@@I@Z 0000000180187c30 f   GuSecondaryPruner.obj
 0001:00186c50       ?visualize@CompanionPrunerIncremental@@UEBAXAEAVPxRenderOutput@physx@@I@Z 0000000180187c50 f i GuSecondaryPruner.obj
 0001:00186c60       ??0AABBPruner@Gu@physx@@QEAA@_N_KW4CompanionPrunerType@12@W4BVHBuildStrategy@12@I@Z 0000000180187c60 f   GuAABBPruner.obj
 0001:00186d90       ??1AABBPruner@Gu@physx@@UEAA@XZ 0000000180187d90 f   GuAABBPruner.obj
 0001:00186ef0       ??_EAABBPruner@Gu@physx@@UEAAPEAXI@Z 0000000180187ef0 f i GuAABBPruner.obj
 0001:00186ef0       ??_GAABBPruner@Gu@physx@@UEAAPEAXI@Z 0000000180187ef0 f i GuAABBPruner.obj
 0001:00186f60       ?addObjects@AABBPruner@Gu@physx@@UEAA_NPEAIPEBVPxBounds3@3@PEBUPrunerPayload@23@PEBV?$PxTransformT@M@3@I_N@Z 0000000180187f60 f   GuAABBPruner.obj
 0001:00187230       ?buildStep@AABBPruner@Gu@physx@@UEAA_N_N@Z 0000000180188230 f   GuAABBPruner.obj
 0001:00187620       ?commit@AABBPruner@Gu@physx@@UEAAXXZ 0000000180188620 f   GuAABBPruner.obj
 0001:00187d20       ?fullRebuildAABBTree@AABBPruner@Gu@physx@@QEAA_NXZ 0000000180188d20 f   GuAABBPruner.obj
 0001:00187f20       ?getGlobalBounds@AABBPruner@Gu@physx@@UEBAXAEAVPxBounds3@3@@Z 0000000180188f20 f   GuAABBPruner.obj
 0001:00188060       ?getPayloadData@AABBPruner@Gu@physx@@UEBAAEBUPrunerPayload@23@IPEAUPrunerPayloadData@23@@Z 0000000180189060 f i GuAABBPruner.obj
 0001:001880c0       ?growAndPushBack@?$PxArray@UNewTreeFixup@AABBPruner@Gu@physx@@V?$PxReflectionAllocator@UNewTreeFixup@AABBPruner@Gu@physx@@@4@@physx@@IEAAAEAUNewTreeFixup@AABBPruner@Gu@2@AEBU3452@@Z 00000001801890c0 f i GuAABBPruner.obj
 0001:001881f0       ?isDynamic@AABBPruner@Gu@physx@@UEBA_NXZ 00000001801891f0 f i GuAABBPruner.obj
 0001:00188200       ?merge@AABBPruner@Gu@physx@@UEAAXPEBX@Z 0000000180189200 f   GuAABBPruner.obj
 0001:00188280       ?overlap@AABBPruner@Gu@physx@@UEBA_NAEBVShapeData@23@AEAUPrunerOverlapCallback@23@@Z 0000000180189280 f   GuAABBPruner.obj
 0001:00188850       ?preallocate@AABBPruner@Gu@physx@@UEAAXI@Z 0000000180189850 f i GuAABBPruner.obj
 0001:00188860       ?prepareBuild@AABBPruner@Gu@physx@@UEAA_NXZ 0000000180189860 f   GuAABBPruner.obj
 0001:00188a60       ?purge@AABBPruner@Gu@physx@@UEAAXXZ 0000000180189a60 f   GuAABBPruner.obj
 0001:00188a80       ?raycast@AABBPruner@Gu@physx@@UEBA_NAEBV?$PxVec3T@M@3@0AEAMAEAUPrunerRaycastCallback@23@@Z 0000000180189a80 f   GuAABBPruner.obj
 0001:00188b70       ?refitUpdatedAndRemoved@AABBPruner@Gu@physx@@QEAAXXZ 0000000180189b70 f   GuAABBPruner.obj
 0001:00188c40       ?release@AABBPruner@Gu@physx@@QEAAXXZ 0000000180189c40 f   GuAABBPruner.obj
 0001:00188d70       ?removeObjects@AABBPruner@Gu@physx@@UEAAXPEBIIPEAUPrunerPayloadRemovalCallback@23@@Z 0000000180189d70 f   GuAABBPruner.obj
 0001:00189040       ?setRebuildRateHint@AABBPruner@Gu@physx@@UEAAXI@Z 000000018018a040 f   GuAABBPruner.obj
 0001:00189060       ?setTransform@AABBPruner@Gu@physx@@UEAA_NIAEBV?$PxTransformT@M@3@@Z 000000018018a060 f i GuAABBPruner.obj
 0001:001890c0       ?shiftOrigin@AABBPruner@Gu@physx@@UEAAXAEBV?$PxVec3T@M@3@@Z 000000018018a0c0 f   GuAABBPruner.obj
 0001:00189130       ?sweep@AABBPruner@Gu@physx@@UEBA_NAEBVShapeData@23@AEBV?$PxVec3T@M@3@AEAMAEAUPrunerRaycastCallback@23@@Z 000000018018a130 f   GuAABBPruner.obj
 0001:001892c0       ?updateObjects@AABBPruner@Gu@physx@@UEAAXPEBIIM0PEBVPxBounds3@3@PEBUPxTransformPadded@3@@Z 000000018018a2c0 f   GuAABBPruner.obj
 0001:00189560       ?visualize@AABBPruner@Gu@physx@@UEBAXAEAVPxRenderOutput@3@II@Z 000000018018a560 f   GuAABBPruner.obj
 0001:00189610       ??0ActorShapeMap@Gu@physx@@QEAA@XZ 000000018018a610 f   GuActorShapeMap.obj
 0001:00189670       ??1ActorShapeMap@Gu@physx@@QEAA@XZ 000000018018a670 f   GuActorShapeMap.obj
 0001:001896d0       ?add@ActorShapeMap@Gu@physx@@QEAA_NIPEBX0_K@Z 000000018018a6d0 f   GuActorShapeMap.obj
 0001:00189870       ?create@?$PxHashBase@V?$PxPair@$$CBUActorShape@ActorShapeMap@Gu@physx@@_K@physx@@UActorShape@ActorShapeMap@Gu@2@U?$PxHash@UActorShape@ActorShapeMap@Gu@physx@@@2@UGetKey@?$PxHashMapBase@UActorShape@ActorShapeMap@Gu@physx@@_KU?$PxHash@UActorShape@ActorShapeMap@Gu@physx@@@4@VPxAllocator@4@@2@VPxAllocator@2@$00@physx@@QEAAPEAV?$PxPair@$$CBUActorShape@ActorShapeMap@Gu@physx@@_K@2@AEBUActorShape@ActorShapeMap@Gu@2@AEA_N@Z 000000018018a870 f i GuActorShapeMap.obj
 0001:00189a60       ?eraseInternal@?$PxHashBase@V?$PxPair@$$CBUActorShape@ActorShapeMap@Gu@physx@@_K@physx@@UActorShape@ActorShapeMap@Gu@2@U?$PxHash@UActorShape@ActorShapeMap@Gu@physx@@@2@UGetKey@?$PxHashMapBase@UActorShape@ActorShapeMap@Gu@physx@@_KU?$PxHash@UActorShape@ActorShapeMap@Gu@physx@@@4@VPxAllocator@4@@2@VPxAllocator@2@$00@physx@@AEAA_NPEAI@Z 000000018018aa60 f i GuActorShapeMap.obj
 0001:00189b70       ?find@ActorShapeMap@Gu@physx@@QEBA_KIPEBX0@Z 000000018018ab70 f   GuActorShapeMap.obj
 0001:00189c60       ?remove@ActorShapeMap@Gu@physx@@QEAA_NIPEBX0PEA_K@Z 000000018018ac60 f   GuActorShapeMap.obj
 0001:00189db0       ?reserveInternal@?$PxHashBase@V?$PxPair@$$CBUActorShape@ActorShapeMap@Gu@physx@@_K@physx@@UActorShape@ActorShapeMap@Gu@2@U?$PxHash@UActorShape@ActorShapeMap@Gu@physx@@@2@UGetKey@?$PxHashMapBase@UActorShape@ActorShapeMap@Gu@physx@@_KU?$PxHash@UActorShape@ActorShapeMap@Gu@physx@@@4@VPxAllocator@4@@2@VPxAllocator@2@$00@physx@@AEAAXI@Z 000000018018adb0 f i GuActorShapeMap.obj
 0001:00189fc0       ??0QuerySystem@Gu@physx@@QEAA@_KMAEBVAdapter@12@_N@Z 000000018018afc0 f   GuQuerySystem.obj
 0001:0018a090       ??1QuerySystem@Gu@physx@@QEAA@XZ 000000018018b090 f   GuQuerySystem.obj
 0001:0018a2e0       ??_GPrunerExt@QuerySystem@Gu@physx@@QEAAPEAXI@Z 000000018018b2e0 f i GuQuerySystem.obj
 0001:0018a3f0       ?addPruner@QuerySystem@Gu@physx@@QEAAIPEAVPruner@23@I@Z 000000018018b3f0 f   GuQuerySystem.obj
 0001:0018a510       ?addPrunerShape@QuerySystem@Gu@physx@@QEAA_KAEBUPrunerPayload@23@I_NAEBV?$PxTransformT@M@3@PEBVPxBounds3@3@@Z 000000018018b510 f   GuQuerySystem.obj
 0001:0018a650       ?addToDirtyList@PrunerExt@QuerySystem@Gu@physx@@QEAAXIIAEBV?$PxTransformT@M@4@PEBVPxBounds3@4@@Z 000000018018b650 f   GuQuerySystem.obj
 0001:0018a8a0       ?commitUpdates@QuerySystem@Gu@physx@@QEAAXXZ 000000018018b8a0 f   GuQuerySystem.obj
 0001:0018a9b0       ?createTreeOfPruners@QuerySystem@Gu@physx@@QEAAXXZ 000000018018b9b0 f   GuQuerySystem.obj
 0001:0018ab80       ?flushMemory@QuerySystem@Gu@physx@@QEAAXXZ 000000018018bb80 f   GuQuerySystem.obj
 0001:0018ac10       ?getPayloadData@QuerySystem@Gu@physx@@QEBAAEBUPrunerPayload@23@_KPEAUPrunerPayloadData@23@@Z 000000018018bc10 f   GuQuerySystem.obj
 0001:0018ac30       ?growAndPushBack@?$PxArray@PEAUPrunerExt@QuerySystem@Gu@physx@@V?$PxReflectionAllocator@PEAUPrunerExt@QuerySystem@Gu@physx@@@4@@physx@@IEAAAEAPEAUPrunerExt@QuerySystem@Gu@2@AEBQEAU3452@@Z 000000018018bc30 f i GuQuerySystem.obj
 0001:0018ad60       ?overlap@QuerySystem@Gu@physx@@QEBAXAEBVShapeData@23@AEAUPrunerOverlapCallback@23@PEBVPrunerFilter@23@@Z 000000018018bd60 f   GuQuerySystem.obj
 0001:0018ae60       ?processDirtyList@PrunerExt@QuerySystem@Gu@physx@@QEAA_NAEBVAdapter@34@M@Z 000000018018be60 f   GuQuerySystem.obj
 0001:0018b0a0       ?processDirtyLists@QuerySystem@Gu@physx@@AEAAXXZ 000000018018c0a0 f   GuQuerySystem.obj
 0001:0018b200       ?raycast@QuerySystem@Gu@physx@@QEBAXAEBV?$PxVec3T@M@3@0AEAMAEAUPrunerRaycastCallback@23@PEBVPrunerFilter@23@@Z 000000018018c200 f   GuQuerySystem.obj
 0001:0018b340       ?recreate@?$PxArray@UData@PrunerExt@QuerySystem@Gu@physx@@V?$PxReflectionAllocator@UData@PrunerExt@QuerySystem@Gu@physx@@@5@@physx@@IEAAXI@Z 000000018018c340 f i GuQuerySystem.obj
 0001:0018b640       ?removePruner@QuerySystem@Gu@physx@@QEAAXI@Z 000000018018c640 f   GuQuerySystem.obj
 0001:0018b720       ?removePrunerShape@QuerySystem@Gu@physx@@QEAAX_KPEAUPrunerPayloadRemovalCallback@23@@Z 000000018018c720 f   GuQuerySystem.obj
 0001:0018b950       ?sweep@QuerySystem@Gu@physx@@QEBAXAEBVShapeData@23@AEBV?$PxVec3T@M@3@AEAMAEAUPrunerRaycastCallback@23@PEBVPrunerFilter@23@@Z 000000018018c950 f   GuQuerySystem.obj
 0001:0018ba80       ?sync@QuerySystem@Gu@physx@@QEAAXIPEBI0PEBVPxBounds3@3@PEBUPxTransformPadded@3@I@Z 000000018018ca80 f   GuQuerySystem.obj
 0001:0018bb30       ?update@QuerySystem@Gu@physx@@QEAAX_N0@Z 000000018018cb30 f   GuQuerySystem.obj
 0001:0018bca0       ?updatePrunerShape@QuerySystem@Gu@physx@@QEAAX_K_NAEBV?$PxTransformT@M@3@PEBVPxBounds3@3@@Z 000000018018cca0 f   GuQuerySystem.obj
 0001:0018be90       createAABBPruner           000000018018ce90 f   GuFactory.obj
 0001:0018bf50       createBucketPruner         000000018018cf50 f   GuFactory.obj
 0001:0018bfe0       createIncrementalPruner    000000018018cfe0 f   GuFactory.obj
 0001:0018c070       ??$PxSmallSort@I$$CBUSortBoundsPredicate@physx@@@physx@@YAXPEAIHHAEBUSortBoundsPredicate@0@@Z 000000018018d070 f i GuRTreeCooking.obj
 0001:0018c310       ??$PxSort@IU?$PxLess@I@physx@@V?$PxReflectionAllocator@I@2@@physx@@YAXPEAIIAEBU?$PxLess@I@0@AEBV?$PxReflectionAllocator@I@0@I@Z 000000018018d310 f i GuRTreeCooking.obj
 0001:0018c760       ??$PxSort@IUSortBoundsPredicate@physx@@V?$PxReflectionAllocator@I@2@@physx@@YAXPEAIIAEBUSortBoundsPredicate@0@AEBV?$PxReflectionAllocator@I@0@I@Z 000000018018d760 f i GuRTreeCooking.obj
 0001:0018cc10       ??$quickSelectFirstK@UBoundsLTE@physx@@@quickSelect@physx@@YAXPEIAIIIIAEBUBoundsLTE@1@@Z 000000018018dc10 f i GuRTreeCooking.obj
 0001:0018cdf0       ?allocate@?$PxArray@UInterval@physx@@V?$PxInlineAllocator@$0CAAA@V?$PxReflectionAllocator@UInterval@physx@@@physx@@@2@@physx@@IEAAPEAUInterval@2@I@Z 000000018018ddf0 f i GuRTreeCooking.obj
 0001:0018ceb0       ?allocate@?$PxArray@UPxBounds3V@physx@@V?$PxReflectionAllocator@UPxBounds3V@physx@@@2@@physx@@IEAAPEAUPxBounds3V@2@I@Z 000000018018deb0 f i GuRTreeCooking.obj
 0001:0018cf60       ?allocate@?$PxArray@URTreeNodeNQ@physx@@V?$PxReflectionAllocator@URTreeNodeNQ@physx@@@2@@physx@@IEAAPEAURTreeNodeNQ@2@I@Z 000000018018df60 f i GuRTreeCooking.obj
 0001:0018d010       ?allocate@?$PxArray@URTreeNodeQ@Gu@physx@@V?$PxReflectionAllocator@URTreeNodeQ@Gu@physx@@@3@@physx@@IEAAPEAURTreeNodeQ@Gu@2@I@Z 000000018018e010 f i GuRTreeCooking.obj
 0001:0018dd50       ?buildFromTriangles@RTreeCooker@physx@@SAXAEAURTree@Gu@2@PEBV?$PxVec3T@M@2@IPEBGPEBIIAEAV?$PxArray@IV?$PxReflectionAllocator@I@physx@@@2@PEAURemapCallback@12@MW4Enum@PxMeshCookingHint@2@@Z 000000018018ed50 f   GuRTreeCooking.obj
 0001:0018e010       ?copy@?$PxArray@URTreeNodeNQ@physx@@V?$PxReflectionAllocator@URTreeNodeNQ@physx@@@2@@physx@@KAXPEAURTreeNodeNQ@2@0PEBU32@@Z 000000018018f010 f i GuRTreeCooking.obj
 0001:0018e1d0       ?growAndPushBack@?$PxArray@UInterval@physx@@V?$PxInlineAllocator@$0CAAA@V?$PxReflectionAllocator@UInterval@physx@@@physx@@@2@@physx@@IEAAAEAUInterval@2@AEBU32@@Z 000000018018f1d0 f i GuRTreeCooking.obj
 0001:0018e2b0       ?growAndPushBack@?$PxArray@UPxBounds3V@physx@@V?$PxReflectionAllocator@UPxBounds3V@physx@@@2@@physx@@IEAAAEAUPxBounds3V@2@AEBU32@@Z 000000018018f2b0 f i GuRTreeCooking.obj
 0001:0018e390       ?growAndPushBack@?$PxArray@URTreeNodeNQ@physx@@V?$PxReflectionAllocator@URTreeNodeNQ@physx@@@2@@physx@@IEAAAEAURTreeNodeNQ@2@AEBU32@@Z 000000018018f390 f i GuRTreeCooking.obj
 0001:0018e470       ?growAndPushBack@?$PxArray@URTreeNodeQ@Gu@physx@@V?$PxReflectionAllocator@URTreeNodeQ@Gu@physx@@@3@@physx@@IEAAAEAURTreeNodeQ@Gu@2@AEBU342@@Z 000000018018f470 f i GuRTreeCooking.obj
 0001:0018e560       ?recreate@?$PxArray@UPxBounds3V@physx@@V?$PxReflectionAllocator@UPxBounds3V@physx@@@2@@physx@@IEAAXI@Z 000000018018f560 f i GuRTreeCooking.obj
 0001:0018e610       ?recreate@?$PxArray@URTreeNodeNQ@physx@@V?$PxReflectionAllocator@URTreeNodeNQ@physx@@@2@@physx@@IEAAXI@Z 000000018018f610 f i GuRTreeCooking.obj
 0001:0018e6a0       ?recreate@?$PxArray@URTreeNodeQ@Gu@physx@@V?$PxReflectionAllocator@URTreeNodeQ@Gu@physx@@@3@@physx@@IEAAXI@Z 000000018018f6a0 f i GuRTreeCooking.obj
 0001:0018e760       ?resizeUninitialized@?$PxArray@URTreeNodeNQ@physx@@V?$PxReflectionAllocator@URTreeNodeNQ@physx@@@2@@physx@@QEAAXI@Z 000000018018f760 f i GuRTreeCooking.obj
 0001:0018e7a0       ?sort4@SubSortQuick@physx@@QEAAXPEIAIIAEAV?$PxArray@URTreeNodeNQ@physx@@V?$PxReflectionAllocator@URTreeNodeNQ@physx@@@2@@2@AEAIAEAUPxBounds3V@2@I@Z 000000018018f7a0 f i GuRTreeCooking.obj
 0001:0018eb30       ?sort4@SubSortSAH@physx@@QEAAXPEAIIAEAV?$PxArray@URTreeNodeNQ@physx@@V?$PxReflectionAllocator@URTreeNodeNQ@physx@@@2@@2@AEAIIPEAURTreeNodeNQ@2@@Z 000000018018fb30 f i GuRTreeCooking.obj
 0001:0018f450       ?split@SubSortSAH@physx@@QEAAIPEAII@Z 0000000180190450 f i GuRTreeCooking.obj
 0001:0018fea0       cookBVH                    0000000180190ea0 f   GuCookingBVH.obj
 0001:00190030       createBVH                  0000000180191030 f   GuCookingBVH.obj
 0001:001901c0       cookHeightField            00000001801911c0 f   GuCookingHF.obj
 0001:001902d0       createHeightField          00000001801912d0 f   GuCookingHF.obj
 0001:00190980       computeHullPolygons        0000000180191980 f   GuCookingConvexMesh.obj
 0001:00190b60       cookConvexMesh             0000000180191b60 f   GuCookingConvexMesh.obj
 0001:00190cd0       createConvexMesh           0000000180191cd0 f   GuCookingConvexMesh.obj
 0001:00190e70       validateConvexMesh         0000000180191e70 f   GuCookingConvexMesh.obj
 0001:00190f90       ??1BV4TriangleMeshBuilder@physx@@UEAA@XZ 0000000180191f90 f   GuCookingTriangleMesh.obj
 0001:00191020       ??1RTreeTriangleMeshBuilder@physx@@UEAA@XZ 0000000180192020 f   GuCookingTriangleMesh.obj
 0001:00191090       ??_EBV4TriangleMeshBuilder@physx@@UEAAPEAXI@Z 0000000180192090 f i GuCookingTriangleMesh.obj
 0001:00191090       ??_GBV4TriangleMeshBuilder@physx@@UEAAPEAXI@Z 0000000180192090 f i GuCookingTriangleMesh.obj
 0001:001910d0       ??_ERTreeTriangleMeshBuilder@physx@@UEAAPEAXI@Z 00000001801920d0 f i GuCookingTriangleMesh.obj
 0001:001910d0       ??_GRTreeTriangleMeshBuilder@physx@@UEAAPEAXI@Z 00000001801920d0 f i GuCookingTriangleMesh.obj
 0001:00191110       ??_ETriangleMeshBuilder@physx@@UEAAPEAXI@Z 0000000180192110 f i GuCookingTriangleMesh.obj
 0001:00191110       ??_GTriangleMeshBuilder@physx@@UEAAPEAXI@Z 0000000180192110 f i GuCookingTriangleMesh.obj
 0001:00191ac0       ?buildInertiaTensor@TriangleMeshBuilder@physx@@IEAAX_N@Z 0000000180192ac0 f   GuCookingTriangleMesh.obj
 0001:00191c20       ?buildInertiaTensorFromSDF@TriangleMeshBuilder@physx@@IEAAXXZ 0000000180192c20 f   GuCookingTriangleMesh.obj
 0001:00191e60       ?checkInputFloats@@YA_NIPEBMPEBDI1@Z 0000000180192e60 f   GuCookingTriangleMesh.obj
 0001:00191ef0       ?cleanMesh@TriangleMeshBuilder@physx@@QEAA_N_NPEAW4Enum@PxTriangleMeshCookingResult@2@@Z 0000000180192ef0 f   GuCookingTriangleMesh.obj
 0001:001923e0       ?createGRBMidPhaseAndData@TriangleMeshBuilder@physx@@QEAA_NI@Z 00000001801933e0 f   GuCookingTriangleMesh.obj
 0001:00192590       ?createMidPhaseStructure@BV32TriangleMeshBuilder@physx@@SA_NAEBUPxCookingParams@2@AEAVTriangleMeshData@Gu@2@AEAVBV32Tree@52@@Z 0000000180193590 f   GuCookingTriangleMesh.obj
 0001:001927e0       ?createMidPhaseStructure@BV4TriangleMeshBuilder@physx@@UEAA_NXZ 00000001801937e0 f   GuCookingTriangleMesh.obj
 0001:00192aa0       ?createMidPhaseStructure@RTreeTriangleMeshBuilder@physx@@UEAA_NXZ 0000000180193aa0 f   GuCookingTriangleMesh.obj
 0001:00192b90       ?createSharedEdgeData@TriangleMeshBuilder@physx@@QEAAX_N0@Z 0000000180193b90 f   GuCookingTriangleMesh.obj
 0001:00193240       ?createVertMapping@TriangleMeshBuilder@physx@@QEAAXXZ 0000000180194240 f   GuCookingTriangleMesh.obj
 0001:001935a0       ?importMesh@TriangleMeshBuilder@physx@@IEAA_NAEBVPxTriangleMeshDesc@2@PEAW4Enum@PxTriangleMeshCookingResult@2@_N@Z 00000001801945a0 f   GuCookingTriangleMesh.obj
 0001:00193be0       ?isValid@PxTriangleMeshDesc@physx@@QEBA_NXZ 0000000180194be0 f i GuCookingTriangleMesh.obj
 0001:00193cb0       ?loadFromDescInternal@TriangleMeshBuilder@physx@@IEAA_NAEAVPxTriangleMeshDesc@2@PEAW4Enum@PxTriangleMeshCookingResult@2@_N@Z 0000000180194cb0 f   GuCookingTriangleMesh.obj
 0001:00193ed0       ?onMeshIndexFormatChange@BV4TriangleMeshBuilder@physx@@UEAAXXZ 0000000180194ed0 f   GuCookingTriangleMesh.obj
 0001:00193f10       ?remap@RTreeCookerRemap@@UEAAXPEAIII@Z 0000000180194f10 f i GuCookingTriangleMesh.obj
 0001:00193f30       ?remapTopology@TriangleMeshBuilder@physx@@QEAAXPEBI@Z 0000000180194f30 f   GuCookingTriangleMesh.obj
 0001:001941d0       ?save@TriangleMeshBuilder@physx@@QEBA_NAEAVPxOutputStream@2@_NAEBUPxCookingParams@2@@Z 00000001801951d0 f   GuCookingTriangleMesh.obj
 0001:00194980       ?saveMidPhaseStructure@BV32TriangleMeshBuilder@physx@@SAXPEAVBV32Tree@Gu@2@AEAVPxOutputStream@2@_N@Z 0000000180195980 f   GuCookingTriangleMesh.obj
 0001:00194b80       ?saveMidPhaseStructure@BV4TriangleMeshBuilder@physx@@UEBAXAEAVPxOutputStream@2@_N@Z 0000000180195b80 f   GuCookingTriangleMesh.obj
 0001:00194d30       ?saveMidPhaseStructure@RTreeTriangleMeshBuilder@physx@@UEBAXAEAVPxOutputStream@2@_N@Z 0000000180195d30 f   GuCookingTriangleMesh.obj
 0001:00194f70       cookTriangleMesh           0000000180195f70 f   GuCookingTriangleMesh.obj
 0001:00195280       createTriangleMesh         0000000180196280 f   GuCookingTriangleMesh.obj
 0001:001954a0       validateTriangleMesh       00000001801964a0 f   GuCookingTriangleMesh.obj
 0001:00195760       ??0SoftBodyCollisionData@Gu@physx@@QEAA@XZ 0000000180196760 f i GuCookingTetrahedronMesh.obj
 0001:001957c0       ??_ECollisionTetrahedronMeshData@Gu@physx@@UEAAPEAXI@Z 00000001801967c0 f i GuCookingTetrahedronMesh.obj
 0001:001957c0       ??_GCollisionTetrahedronMeshData@Gu@physx@@UEAAPEAXI@Z 00000001801967c0 f i GuCookingTetrahedronMesh.obj
 0001:00195890       ??_EPxCollisionTetrahedronMeshData@physx@@UEAAPEAXI@Z 0000000180196890 f i GuCookingTetrahedronMesh.obj
 0001:00195890       ??_GPxCollisionTetrahedronMeshData@physx@@UEAAPEAXI@Z 0000000180196890 f i GuCookingTetrahedronMesh.obj
 0001:001958e0       ??_EPxSimulationTetrahedronMeshData@physx@@UEAAPEAXI@Z 00000001801968e0 f i GuCookingTetrahedronMesh.obj
 0001:001958e0       ??_GPxSimulationTetrahedronMeshData@physx@@UEAAPEAXI@Z 00000001801968e0 f i GuCookingTetrahedronMesh.obj
 0001:00195930       ??_ESimulationTetrahedronMeshData@Gu@physx@@UEAAPEAXI@Z 0000000180196930 f i GuCookingTetrahedronMesh.obj
 0001:00195930       ??_GSimulationTetrahedronMeshData@Gu@physx@@UEAAPEAXI@Z 0000000180196930 f i GuCookingTetrahedronMesh.obj
 0001:00195a00       ?combineGridModelPartitions@@YAXAEBVTetrahedronMeshData@Gu@physx@@AEAVSoftBodySimulationData@23@PEAPEAI@Z 0000000180196a00 f   GuCookingTetrahedronMesh.obj
 0001:00196250       ?combineGridModelPartitionsHexMesh@@YAXAEBVTetrahedronMeshData@Gu@physx@@AEAVSoftBodySimulationData@23@PEAPEAII@Z 0000000180197250 f   GuCookingTetrahedronMesh.obj
 0001:00196c90       ?computeCollisionData@TetrahedronMeshBuilder@physx@@SA_NAEBVPxTetrahedronMeshDesc@2@AEAVTetrahedronMeshData@Gu@2@AEAVSoftBodyCollisionData@52@AEBUPxCookingParams@2@_N@Z 0000000180197c90 f   GuCookingTetrahedronMesh.obj
 0001:00196ed0       ?computeGridModelTetrahedronPartitions@@YAPEAIAEBVTetrahedronMeshData@Gu@physx@@AEAVSoftBodySimulationData@23@@Z 0000000180197ed0 f   GuCookingTetrahedronMesh.obj
 0001:00197370       ?computeModelsMapping@TetrahedronMeshBuilder@physx@@SAXAEAVTetrahedronMeshData@Gu@2@AEBV342@AEBVSoftBodyCollisionData@42@AEAVCollisionMeshMappingData@42@_NPEBUPxBoundedData@2@@Z 0000000180198370 f   GuCookingTetrahedronMesh.obj
 0001:00197f80       ?computeRestPoseAndPointMass@@YAXPEAU?$TetrahedronT@I@Gu@physx@@IPEBV?$PxVec3T@M@3@PEAMPEAV?$PxMat33T@M@3@@Z 0000000180198f80 f   GuCookingTetrahedronMesh.obj
 0001:001984b0       ?computeSimData@TetrahedronMeshBuilder@physx@@SAXAEBVPxTetrahedronMeshDesc@2@AEAVTetrahedronMeshData@Gu@2@AEAVSoftBodySimulationData@52@AEBUPxCookingParams@2@@Z 00000001801994b0 f   GuCookingTetrahedronMesh.obj
 0001:00198b80       ?computeTetData@TetrahedronMeshBuilder@physx@@SAXAEBVPxTetrahedronMeshDesc@2@AEAVTetrahedronMeshData@Gu@2@@Z 0000000180199b80 f   GuCookingTetrahedronMesh.obj
 0001:00198c70       ?computeTetrahedronPartition@@YAIPEBU?$TetrahedronT@I@Gu@physx@@IPEAII@Z 0000000180199c70 f   GuCookingTetrahedronMesh.obj
 0001:00198d60       ?createCollisionModelMapping@TetrahedronMeshBuilder@physx@@SAXAEBVTetrahedronMeshData@Gu@2@AEBVSoftBodyCollisionData@42@AEAVCollisionMeshMappingData@42@@Z 0000000180199d60 f   GuCookingTetrahedronMesh.obj
 0001:00199340       ?createGRBMidPhaseAndData@TetrahedronMeshBuilder@physx@@SA_NIAEAVTetrahedronMeshData@Gu@2@AEAVSoftBodyCollisionData@42@AEBUPxCookingParams@2@@Z 000000018019a340 f   GuCookingTetrahedronMesh.obj
 0001:0019a0a0       ?createMidPhaseStructure@BV32TetrahedronMeshBuilder@physx@@SA_NAEBUPxCookingParams@2@AEAVTetrahedronMeshData@Gu@2@AEAVBV32Tree@52@AEAVSoftBodyCollisionData@52@@Z 000000018019b0a0 f   GuCookingTetrahedronMesh.obj
 0001:0019a370       ?createMidPhaseStructure@TetrahedronMeshBuilder@physx@@SA_NAEAVTetrahedronMeshData@Gu@2@AEAVSoftBodyCollisionData@42@AEBUPxCookingParams@2@@Z 000000018019b370 f   GuCookingTetrahedronMesh.obj
 0001:0019b040       ?getData@CollisionTetrahedronMeshData@Gu@physx@@UEAAPEAVPxSoftBodyCollisionData@3@XZ 000000018019c040 f i GuCookingTetrahedronMesh.obj
 0001:0019b040       ?getData@CollisionTetrahedronMeshData@Gu@physx@@UEBAPEBVPxSoftBodyCollisionData@3@XZ 000000018019c040 f i GuCookingTetrahedronMesh.obj
 0001:0019b040       ?getData@SimulationTetrahedronMeshData@Gu@physx@@UEAAPEAVPxSoftBodySimulationData@3@XZ 000000018019c040 f i GuCookingTetrahedronMesh.obj
 0001:0019b060       ?importMesh@TetrahedronMeshBuilder@physx@@SA_NAEBVPxTetrahedronMeshDesc@2@AEBUPxCookingParams@2@AEAVTetrahedronMeshData@Gu@2@AEAVSoftBodyCollisionData@62@_N@Z 000000018019c060 f   GuCookingTetrahedronMesh.obj
 0001:0019b390       ?isValid@PxTetrahedronMeshDesc@physx@@QEBA_NXZ 000000018019c390 f i GuCookingTetrahedronMesh.obj
 0001:0019b410       ?loadFromDesc@TetrahedronMeshBuilder@physx@@SA_NAEBVPxTetrahedronMeshDesc@2@0VPxSoftBodySimulationDataDesc@2@AEAVTetrahedronMeshData@Gu@2@AEAVSoftBodySimulationData@62@2AEAVSoftBodyCollisionData@62@AEAVCollisionMeshMappingData@62@AEBUPxCookingParams@2@_N@Z 000000018019c410 f   GuCookingTetrahedronMesh.obj
 0001:0019b580       ?release@CollisionTetrahedronMeshData@Gu@physx@@UEAAXXZ 000000018019c580 f i GuCookingTetrahedronMesh.obj
 0001:0019b5a0       ?reserveInternal@?$PxHashBase@V?$PxPair@$$CBVSortedTriangleInds@@I@physx@@VSortedTriangleInds@@USortedTriangleIndsHash@@UGetKey@?$PxHashMapBase@VSortedTriangleInds@@IUSortedTriangleIndsHash@@VPxAllocator@physx@@@2@VPxAllocator@2@$00@physx@@AEAAXI@Z 000000018019c5a0 f i GuCookingTetrahedronMesh.obj
 0001:0019b7e0       ?saveSoftBodyMeshData@TetrahedronMeshBuilder@physx@@SA_NAEAVPxOutputStream@2@_NAEBUPxCookingParams@2@AEBVTetrahedronMeshData@Gu@2@AEBVSoftBodySimulationData@62@3AEBVSoftBodyCollisionData@62@AEBVCollisionMeshMappingData@62@@Z 000000018019c7e0 f   GuCookingTetrahedronMesh.obj
 0001:0019bef0       ?saveTetrahedronMeshData@TetrahedronMeshBuilder@physx@@SA_NAEAVPxOutputStream@2@_NAEBUPxCookingParams@2@AEBVTetrahedronMeshData@Gu@2@@Z 000000018019cef0 f   GuCookingTetrahedronMesh.obj
 0001:0019c0a0       ?smoothMassRatiosWhilePreservingTotalMass@@YAXPEAMIPEBIHMM@Z 000000018019d0a0 f   GuCookingTetrahedronMesh.obj
 0001:0019c540       ?support@?$LocalConvex@VTetrahedronV@Gu@physx@@@Gu@physx@@UEBA?AT__m128@@AEBT4@@Z 000000018019d540 f i GuCookingTetrahedronMesh.obj
 0001:0019c600       ?support@?$LocalConvex@VTetrahedronV@Gu@physx@@@Gu@physx@@UEBA?AT__m128@@AEBT4@AEAH@Z 000000018019d600 f i GuCookingTetrahedronMesh.obj
 0001:0019c7b0       assembleSoftBodyMesh       000000018019d7b0 f   GuCookingTetrahedronMesh.obj
 0001:0019c810       assembleSoftBodyMesh_Sim   000000018019d810 f   GuCookingTetrahedronMesh.obj
 0001:0019c8c0       computeCollisionData       000000018019d8c0 f   GuCookingTetrahedronMesh.obj
 0001:0019cac0       computeModelsMapping       000000018019dac0 f   GuCookingTetrahedronMesh.obj
 0001:0019cbc0       computeSimulationData      000000018019dbc0 f   GuCookingTetrahedronMesh.obj
 0001:0019cd90       cookSoftBodyMesh           000000018019dd90 f   GuCookingTetrahedronMesh.obj
 0001:0019d3b0       cookTetrahedronMesh        000000018019e3b0 f   GuCookingTetrahedronMesh.obj
 0001:0019d4a0       createSoftBodyMesh         000000018019e4a0 f   GuCookingTetrahedronMesh.obj
 0001:0019db40       createTetrahedronMesh      000000018019eb40 f   GuCookingTetrahedronMesh.obj
 0001:0019f820       ?computeVolumeIntegrals@physx@@YA_NAEBVPxSimpleTriangleMesh@1@MAEAUPxIntegrals@1@@Z 00000001801a0820 f   GuCookingVolumeIntegration.obj
 0001:0019f860       ?computeVolumeIntegralsEberly@physx@@YA_NAEBVPxConvexMeshDesc@1@MAEAUPxIntegrals@1@AEBV?$PxVec3T@M@1@_N@Z 00000001801a0860 f   GuCookingVolumeIntegration.obj
 0001:0019fec0       ??0QuickHull@local@@QEAA@AEBUPxCookingParams@physx@@AEBVPxConvexMeshDesc@3@@Z 00000001801a0ec0 f   GuCookingQuickHullConvexHullLib.obj
 0001:0019ff70       ??0QuickHullConvexHullLib@physx@@QEAA@AEBVPxConvexMeshDesc@1@AEBUPxCookingParams@1@@Z 00000001801a0f70 f   GuCookingQuickHullConvexHullLib.obj
 0001:001a0050       ??1?$MemBlock@UQuickHullFace@local@@$00@local@@QEAA@XZ 00000001801a1050 f i GuCookingQuickHullConvexHullLib.obj
 0001:001a0050       ??1?$MemBlock@UQuickHullHalfEdge@local@@$0A@@local@@QEAA@XZ 00000001801a1050 f i GuCookingQuickHullConvexHullLib.obj
 0001:001a0110       ??1QuickHull@local@@QEAA@XZ 00000001801a1110 f   GuCookingQuickHullConvexHullLib.obj
 0001:001a0270       ??_GConvexHull@physx@@QEAAPEAXI@Z 00000001801a1270 f i GuCookingQuickHullConvexHullLib.obj
 0001:001a0360       ??_EConvexHullLib@physx@@UEAAPEAXI@Z 00000001801a1360 f i GuCookingQuickHullConvexHullLib.obj
 0001:001a0360       ??_GConvexHullLib@physx@@UEAAPEAXI@Z 00000001801a1360 f i GuCookingQuickHullConvexHullLib.obj
 0001:001a03a0       ??_EQuickHullConvexHullLib@physx@@UEAAPEAXI@Z 00000001801a13a0 f i GuCookingQuickHullConvexHullLib.obj
 0001:001a03a0       ??_GQuickHullConvexHullLib@physx@@UEAAPEAXI@Z 00000001801a13a0 f i GuCookingQuickHullConvexHullLib.obj
 0001:001a04c0       ?addPointToHull@QuickHull@local@@IEAA_NPEBUQuickHullVertex@2@AEAUQuickHullFace@2@AEA_N@Z 00000001801a14c0 f   GuCookingQuickHullConvexHullLib.obj
 0001:001a0790       ?addSimplex@QuickHull@local@@IEAA_NPEAUQuickHullVertex@2@_N@Z 00000001801a1790 f   GuCookingQuickHullConvexHullLib.obj
 0001:001a0d10       ?allocate@?$PxArray@PEAUQuickHullFace@local@@V?$PxReflectionAllocator@PEAUQuickHullFace@local@@@physx@@@physx@@IEAAPEAPEAUQuickHullFace@local@@I@Z 00000001801a1d10 f i GuCookingQuickHullConvexHullLib.obj
 0001:001a0dc0       ?allocate@?$PxArray@PEAUQuickHullHalfEdge@local@@V?$PxReflectionAllocator@PEAUQuickHullHalfEdge@local@@@physx@@@physx@@IEAAPEAPEAUQuickHullHalfEdge@local@@I@Z 00000001801a1dc0 f i GuCookingQuickHullConvexHullLib.obj
 0001:001a0e70       ?allocate@?$PxArray@PEAUQuickHullVertex@local@@V?$PxReflectionAllocator@PEAUQuickHullVertex@local@@@physx@@@physx@@IEAAPEAPEAUQuickHullVertex@local@@I@Z 00000001801a1e70 f i GuCookingQuickHullConvexHullLib.obj
 0001:001a0f20       ?allocate@?$PxArray@UExpandPoint@local@@V?$PxReflectionAllocator@UExpandPoint@local@@@physx@@@physx@@IEAAPEAUExpandPoint@local@@I@Z 00000001801a1f20 f i GuCookingQuickHullConvexHullLib.obj
 0001:001a0fd0       ?allocate@?$PxArray@VPxPlane@physx@@V?$PxReflectionAllocator@VPxPlane@physx@@@2@@physx@@IEAAPEAVPxPlane@2@I@Z 00000001801a1fd0 f i GuCookingQuickHullConvexHullLib.obj
 0001:001a1080       ?buildHull@QuickHull@local@@QEAA?AW4Enum@QuickHullResult@2@XZ 00000001801a2080 f   GuCookingQuickHullConvexHullLib.obj
 0001:001a12d0       ?calculateHorizon@QuickHull@local@@IEAAXAEBV?$PxVec3T@M@physx@@PEAUQuickHullHalfEdge@2@AEAUQuickHullFace@2@AEAV?$PxArray@PEAUQuickHullHalfEdge@local@@V?$PxReflectionAllocator@PEAUQuickHullHalfEdge@local@@@physx@@@4@AEAV?$PxArray@PEAUQuickHullFace@local@@V?$PxReflectionAllocator@PEAUQuickHullFace@local@@@physx@@@4@@Z 00000001801a22d0 f   GuCookingQuickHullConvexHullLib.obj
 0001:001a1480       ?canMergeFaces@QuickHull@local@@IEAA_NAEBUQuickHullHalfEdge@2@@Z 00000001801a2480 f   GuCookingQuickHullConvexHullLib.obj
 0001:001a1cb0       ?cleanupForSimplex@QuickHullConvexHullLib@physx@@IEAA_NPEAV?$PxVec3T@M@2@IPEAUQuickHullVertex@local@@1AEAM2@Z 00000001801a2cb0 f   GuCookingQuickHullConvexHullLib.obj
 0001:001a2900       ?computeMinMaxVerts@QuickHull@local@@IEAAXXZ 00000001801a3900 f   GuCookingQuickHullConvexHullLib.obj
 0001:001a2cd0       ?connectHalfEdges@QuickHullFace@local@@AEAAPEAU12@PEAUQuickHullHalfEdge@2@0@Z 00000001801a3cd0 f   GuCookingQuickHullConvexHullLib.obj
 0001:001a3040       ?copy@?$PxArray@UExpandPoint@local@@V?$PxReflectionAllocator@UExpandPoint@local@@@physx@@@physx@@KAXPEAUExpandPoint@local@@0PEBU34@@Z 00000001801a4040 f i GuCookingQuickHullConvexHullLib.obj
 0001:001a30f0       ?copy@?$PxArray@VPxPlane@physx@@V?$PxReflectionAllocator@VPxPlane@physx@@@2@@physx@@KAXPEAVPxPlane@2@0PEBV32@@Z 00000001801a40f0 f i GuCookingQuickHullConvexHullLib.obj
 0001:001a31f0       ?createConvexHull@QuickHullConvexHullLib@physx@@UEAA?AW4Enum@PxConvexMeshCookingResult@2@XZ 00000001801a41f0 f   GuCookingQuickHullConvexHullLib.obj
 0001:001a3600       ?createEdgeList@QuickHullConvexHullLib@physx@@UEAA_NIPEBEPEAPEAEPEAPEAG2@Z 00000001801a4600 f   GuCookingQuickHullConvexHullLib.obj
 0001:001a3820       ?createTriangle@QuickHull@local@@IEAAPEAUQuickHullFace@2@AEBUQuickHullVertex@2@00@Z 00000001801a4820 f   GuCookingQuickHullConvexHullLib.obj
 0001:001a3bf0       ?doAdjacentMerge@QuickHull@local@@IEAA_NAEAUQuickHullFace@2@_NAEA_N@Z 00000001801a4bf0 f   GuCookingQuickHullConvexHullLib.obj
 0001:001a3f40       ?expandHull@QuickHullConvexHullLib@physx@@IEAA?AW4Enum@PxConvexMeshCookingResult@2@XZ 00000001801a4f40 f   GuCookingQuickHullConvexHullLib.obj
 0001:001a4880       ?expandHullOBB@QuickHullConvexHullLib@physx@@IEAA?AW4Enum@PxConvexMeshCookingResult@2@XZ 00000001801a5880 f   GuCookingQuickHullConvexHullLib.obj
 0001:001a4cc0       ?fillConvexMeshDesc@QuickHullConvexHullLib@physx@@UEAAXAEAVPxConvexMeshDesc@2@@Z 00000001801a5cc0 f   GuCookingQuickHullConvexHullLib.obj
 0001:001a4d10       ?fillConvexMeshDescFromCroppedHull@QuickHullConvexHullLib@physx@@IEAAXAEAVPxConvexMeshDesc@2@@Z 00000001801a5d10 f   GuCookingQuickHullConvexHullLib.obj
 0001:001a4f00       ?fillConvexMeshDescFromQuickHull@QuickHullConvexHullLib@physx@@IEAAXAEAVPxConvexMeshDesc@2@@Z 00000001801a5f00 f   GuCookingQuickHullConvexHullLib.obj
 0001:001a5280       ?findSimplex@QuickHull@local@@IEAA_NXZ 00000001801a6280 f   GuCookingQuickHullConvexHullLib.obj
 0001:001a5f20       ?getFreeItem@?$MemBlock@UQuickHullFace@local@@$00@local@@QEAAPEAUQuickHullFace@2@XZ 00000001801a6f20 f i GuCookingQuickHullConvexHullLib.obj
 0001:001a6050       ?getFreeItem@?$MemBlock@UQuickHullHalfEdge@local@@$0A@@local@@QEAAPEAUQuickHullHalfEdge@2@XZ 00000001801a7050 f i GuCookingQuickHullConvexHullLib.obj
 0001:001a6120       ?growAndPushBack@?$PxArray@PEAUQuickHullFace@local@@V?$PxReflectionAllocator@PEAUQuickHullFace@local@@@physx@@@physx@@IEAAAEAPEAUQuickHullFace@local@@AEBQEAU34@@Z 00000001801a7120 f i GuCookingQuickHullConvexHullLib.obj
 0001:001a61e0       ?growAndPushBack@?$PxArray@PEAUQuickHullHalfEdge@local@@V?$PxReflectionAllocator@PEAUQuickHullHalfEdge@local@@@physx@@@physx@@IEAAAEAPEAUQuickHullHalfEdge@local@@AEBQEAU34@@Z 00000001801a71e0 f i GuCookingQuickHullConvexHullLib.obj
 0001:001a62a0       ?growAndPushBack@?$PxArray@PEAUQuickHullVertex@local@@V?$PxReflectionAllocator@PEAUQuickHullVertex@local@@@physx@@@physx@@IEAAAEAPEAUQuickHullVertex@local@@AEBQEAU34@@Z 00000001801a72a0 f i GuCookingQuickHullConvexHullLib.obj
 0001:001a6360       ?growAndPushBack@?$PxArray@UExpandPoint@local@@V?$PxReflectionAllocator@UExpandPoint@local@@@physx@@@physx@@IEAAAEAUExpandPoint@local@@AEBU34@@Z 00000001801a7360 f i GuCookingQuickHullConvexHullLib.obj
 0001:001a6460       ?growAndPushBack@?$PxArray@VPxPlane@physx@@V?$PxReflectionAllocator@VPxPlane@physx@@@2@@physx@@IEAAAEAVPxPlane@2@AEBV32@@Z 00000001801a7460 f i GuCookingQuickHullConvexHullLib.obj
 0001:001a6520       ?init@?$MemBlock@UQuickHullFace@local@@$00@local@@QEAAXI@Z 00000001801a7520 f i GuCookingQuickHullConvexHullLib.obj
 0001:001a6620       ?init@?$MemBlock@UQuickHullHalfEdge@local@@$0A@@local@@QEAAXI@Z 00000001801a7620 f i GuCookingQuickHullConvexHullLib.obj
 0001:001a66c0       ?mergeAdjacentFace@QuickHullFace@local@@QEAA_NPEAUQuickHullHalfEdge@2@AEAV?$PxArray@PEAUQuickHullFace@local@@V?$PxReflectionAllocator@PEAUQuickHullFace@local@@@physx@@@physx@@@Z 00000001801a76c0 f   GuCookingQuickHullConvexHullLib.obj
 0001:001a6b20       ?nextPointToAdd@QuickHull@local@@IEAAPEAUQuickHullVertex@2@AEAPEAUQuickHullFace@2@@Z 00000001801a7b20 f   GuCookingQuickHullConvexHullLib.obj
 0001:001a6ca0       ?parseInputVertices@QuickHull@local@@QEAAXPEBV?$PxVec3T@M@physx@@I@Z 00000001801a7ca0 f   GuCookingQuickHullConvexHullLib.obj
 0001:001a6e20       ?postMergeHull@QuickHull@local@@IEAAXXZ 00000001801a7e20 f   GuCookingQuickHullConvexHullLib.obj
 0001:001a7080       ?preallocate@QuickHull@local@@QEAAXI@Z 00000001801a8080 f   GuCookingQuickHullConvexHullLib.obj
 0001:001a71c0       ?recreate@?$PxArray@PEAUQuickHullFace@local@@V?$PxReflectionAllocator@PEAUQuickHullFace@local@@@physx@@@physx@@IEAAXI@Z 00000001801a81c0 f i GuCookingQuickHullConvexHullLib.obj
 0001:001a7260       ?recreate@?$PxArray@PEAUQuickHullHalfEdge@local@@V?$PxReflectionAllocator@PEAUQuickHullHalfEdge@local@@@physx@@@physx@@IEAAXI@Z 00000001801a8260 f i GuCookingQuickHullConvexHullLib.obj
 0001:001a7300       ?recreate@?$PxArray@PEAUQuickHullVertex@local@@V?$PxReflectionAllocator@PEAUQuickHullVertex@local@@@physx@@@physx@@IEAAXI@Z 00000001801a8300 f i GuCookingQuickHullConvexHullLib.obj
 0001:001a73a0       ?recreate@?$PxArray@UExpandPoint@local@@V?$PxReflectionAllocator@UExpandPoint@local@@@physx@@@physx@@IEAAXI@Z 00000001801a83a0 f i GuCookingQuickHullConvexHullLib.obj
 0001:001a7430       ?recreate@?$PxArray@VPxPlane@physx@@V?$PxReflectionAllocator@VPxPlane@physx@@@2@@physx@@IEAAXI@Z 00000001801a8430 f i GuCookingQuickHullConvexHullLib.obj
 0001:001a74c0       ?resolveUnclaimedPoints@QuickHull@local@@IEAAXAEBV?$PxArray@PEAUQuickHullFace@local@@V?$PxReflectionAllocator@PEAUQuickHullFace@local@@@physx@@@physx@@@Z 00000001801a84c0 f   GuCookingQuickHullConvexHullLib.obj
 0001:001a7740       ??$copy@V?$PxReflectionAllocator@VPair@@@physx@@@?$PxArray@VPair@@V?$PxReflectionAllocator@VPair@@@physx@@@physx@@IEAAXAEBV01@@Z 00000001801a8740 f i GuCookingConvexPolygonsBuilder.obj
 0001:001a77c0       ??0ConvexPolygonsBuilder@physx@@QEAA@PEAUConvexHullData@Gu@1@_N@Z 00000001801a87c0 f   GuCookingConvexPolygonsBuilder.obj
 0001:001a77e0       ??1ConvexPolygonsBuilder@physx@@QEAA@XZ 00000001801a87e0 f   GuCookingConvexPolygonsBuilder.obj
 0001:001a8030       ?allocate@?$PxArray@VPair@@V?$PxReflectionAllocator@VPair@@@physx@@@physx@@IEAAPEAVPair@@I@Z 00000001801a9030 f i GuCookingConvexPolygonsBuilder.obj
 0001:001a8b30       ?computeHullPolygons@ConvexPolygonsBuilder@physx@@QEAA_NAEBIPEBV?$PxVec3T@M@2@0PEBI@Z 00000001801a9b30 f   GuCookingConvexPolygonsBuilder.obj
 0001:001a9df0       ?createPolygonData@ConvexPolygonsBuilder@physx@@AEAA_NXZ 00000001801aadf0 f   GuCookingConvexPolygonsBuilder.obj
 0001:001aa850       ?createTrianglesFromPolygons@ConvexPolygonsBuilder@physx@@AEAA_NXZ 00000001801ab850 f   GuCookingConvexPolygonsBuilder.obj
 0001:001abed0       ?growAndPushBack@?$PxArray@VPair@@V?$PxReflectionAllocator@VPair@@@physx@@@physx@@IEAAAEAVPair@@AEBV3@@Z 00000001801aced0 f i GuCookingConvexPolygonsBuilder.obj
 0001:001ac060       ??0ConvexMeshBuilder@physx@@QEAA@_N@Z 00000001801ad060 f   GuCookingConvexMeshBuilder.obj
 0001:001ac0d0       ??1ConvexMeshBuilder@physx@@QEAA@XZ 00000001801ad0d0 f   GuCookingConvexMeshBuilder.obj
 0001:001ac560       ?build@ConvexMeshBuilder@physx@@QEAA_NAEBVPxConvexMeshDesc@2@I_NPEAVConvexHullLib@2@@Z 00000001801ad560 f   GuCookingConvexMeshBuilder.obj
 0001:001ac900       ?checkExtentRadiusRatio@ConvexMeshBuilder@physx@@QEAA_NXZ 00000001801ad900 f   GuCookingConvexMeshBuilder.obj
 0001:001ac930       ?computeHullPolygons@ConvexMeshBuilder@physx@@QEAA_NAEBIPEBV?$PxVec3T@M@2@0PEBIAEAVPxAllocatorCallback@2@AEAIAEAPEAV32@4AEAPEAI4AEAPEAUPxHullPolygon@2@@Z 00000001801ad930 f   GuCookingConvexMeshBuilder.obj
 0001:001acb40       ?computeMassInfo@ConvexMeshBuilder@physx@@QEAAX_N@Z 00000001801adb40 f   GuCookingConvexMeshBuilder.obj
 0001:001aced0       ?computeSDF@ConvexMeshBuilder@physx@@QEAAXAEBVPxConvexMeshDesc@2@@Z 00000001801aded0 f   GuCookingConvexMeshBuilder.obj
 0001:001ad300       ?copy@ConvexMeshBuilder@physx@@QEAA_NAEAUConvexHullInitData@Gu@2@@Z 00000001801ae300 f   GuCookingConvexMeshBuilder.obj
 0001:001ad460       ?loadConvexHull@ConvexMeshBuilder@physx@@QEAA_NAEBVPxConvexMeshDesc@2@PEAVConvexHullLib@2@@Z 00000001801ae460 f   GuCookingConvexMeshBuilder.obj
 0001:001ad6b0       ?save@ConvexMeshBuilder@physx@@QEBA_NAEAVPxOutputStream@2@_N@Z 00000001801ae6b0 f   GuCookingConvexMeshBuilder.obj
 0001:001adad0       ??0ConvexHull@physx@@QEAA@AEBV?$PxVec3T@M@1@AEBV?$PxTransformT@M@1@AEBV?$PxArray@VPxPlane@physx@@V?$PxReflectionAllocator@VPxPlane@physx@@@2@@1@@Z 00000001801aead0 f   GuCookingConvexHullUtils.obj
 0001:001aebf0       ?allocate@?$PxArray@VHalfEdge@ConvexHull@physx@@V?$PxReflectionAllocator@VHalfEdge@ConvexHull@physx@@@3@@physx@@IEAAPEAVHalfEdge@ConvexHull@2@I@Z 00000001801afbf0 f i GuCookingConvexHullUtils.obj
 0001:001aeca0       ?assertIntact@ConvexHull@physx@@QEBA_NM@Z 00000001801afca0 f   GuCookingConvexHullUtils.obj
 0001:001aefc0       ?computeOBBFromConvex@physx@@YA_NAEBVPxConvexMeshDesc@1@AEAV?$PxVec3T@M@1@AEAV?$PxTransformT@M@1@@Z 00000001801affc0 f   GuCookingConvexHullUtils.obj
 0001:001af620       ?computeOBBSIMD@local@@YAXIPEBT__m128@@AEAT2@AEBT2@1@Z 00000001801b0620 f   GuCookingConvexHullUtils.obj
 0001:001af9d0       ?convexHullCrop@physx@@YAPEAVConvexHull@1@AEBV21@AEBVPxPlane@1@M@Z 00000001801b09d0 f   GuCookingConvexHullUtils.obj
 0001:001b07d0       ?findCandidatePlane@ConvexHull@physx@@QEBAHMM@Z 00000001801b17d0 f   GuCookingConvexHullUtils.obj
 0001:001b0c20       ?growAndPushBack@?$PxArray@VHalfEdge@ConvexHull@physx@@V?$PxReflectionAllocator@VHalfEdge@ConvexHull@physx@@@3@@physx@@IEAAAEAVHalfEdge@ConvexHull@2@AEBV342@@Z 00000001801b1c20 f i GuCookingConvexHullUtils.obj
 0001:001b0ce0       ?maxNumVertsPerFace@ConvexHull@physx@@QEBAIXZ 00000001801b1ce0 f   GuCookingConvexHullUtils.obj
 0001:001b0d50       ?recreate@?$PxArray@VHalfEdge@ConvexHull@physx@@V?$PxReflectionAllocator@VHalfEdge@ConvexHull@physx@@@3@@physx@@IEAAXI@Z 00000001801b1d50 f i GuCookingConvexHullUtils.obj
 0001:001b0df0       ?resize@?$PxArray@VHalfEdge@ConvexHull@physx@@V?$PxReflectionAllocator@VHalfEdge@ConvexHull@physx@@@3@@physx@@QEAAXIAEBVHalfEdge@ConvexHull@2@@Z 00000001801b1df0 f i GuCookingConvexHullUtils.obj
 0001:001b0eb0       ?resize@?$PxArray@VPxPlane@physx@@V?$PxReflectionAllocator@VPxPlane@physx@@@2@@physx@@QEAAXIAEBVPxPlane@2@@Z 00000001801b1eb0 f i GuCookingConvexHullUtils.obj
 0001:001b0fd0       ??1ConvexHullLib@physx@@UEAA@XZ 00000001801b1fd0 f   GuCookingConvexHullLib.obj
 0001:001b15c0       ?cleanupVertices@ConvexHullLib@physx@@IEAA_NIPEBV?$PxVec3T@M@2@IAEAIPEAV32@@Z 00000001801b25c0 f   GuCookingConvexHullLib.obj
 0001:001b1700       ?shiftAndcleanupVertices@ConvexHullLib@physx@@IEAA_NIPEBV?$PxVec3T@M@2@IAEAIPEAV32@@Z 00000001801b2700 f   GuCookingConvexHullLib.obj
 0001:001b1ce0       ?shiftConvexMeshDesc@ConvexHullLib@physx@@IEAAXAEAVPxConvexMeshDesc@2@@Z 00000001801b2ce0 f   GuCookingConvexHullLib.obj
 0001:001b1da0       ?swapLargestFace@ConvexHullLib@physx@@IEAAXAEAVPxConvexMeshDesc@2@@Z 00000001801b2da0 f   GuCookingConvexHullLib.obj
 0001:001b1fd0       ??0ConvexHullBuilder@physx@@QEAA@PEAUConvexHullData@Gu@1@_N@Z 00000001801b2fd0 f   GuCookingConvexHullBuilder.obj
 0001:001b2000       ??1ConvexHullBuilder@physx@@QEAA@XZ 00000001801b3000 f   GuCookingConvexHullBuilder.obj
 0001:001b2110       ?calculateVertexMapTable@ConvexHullBuilder@physx@@QEAA_NI_N@Z 00000001801b3110 f   GuCookingConvexHullBuilder.obj
 0001:001b22d0       ?checkHullPolygons@ConvexHullBuilder@physx@@QEBA_NXZ 00000001801b32d0 f   GuCookingConvexHullBuilder.obj
 0001:001b2a70       ?copy@ConvexHullBuilder@physx@@QEAA_NAEAUConvexHullData@Gu@2@AEAI@Z 00000001801b3a70 f   GuCookingConvexHullBuilder.obj
 0001:001b2ce0       ?createEdgeList@ConvexHullBuilder@physx@@QEAA_N_NI@Z 00000001801b3ce0 f   GuCookingConvexHullBuilder.obj
 0001:001b3420       ?init@ConvexHullBuilder@physx@@QEAA_NIPEBV?$PxVec3T@M@2@PEBIIIPEBUPxHullPolygon@2@_NPEAVConvexHullLib@2@@Z 00000001801b4420 f   GuCookingConvexHullBuilder.obj
 0001:001b3d70       ?save@ConvexHullBuilder@physx@@QEBA_NAEAVPxOutputStream@2@_N@Z 00000001801b4d70 f   GuCookingConvexHullBuilder.obj
 0001:001b4090       ??0BigConvexDataBuilder@physx@@QEAA@PEBUConvexHullData@Gu@1@PEAVBigConvexData@1@PEBV?$PxVec3T@M@1@@Z 00000001801b5090 f   GuCookingBigConvexDataBuilder.obj
 0001:001b40a0       ?computeValencies@BigConvexDataBuilder@physx@@QEAA_NAEBVConvexHullBuilder@2@@Z 00000001801b50a0 f   GuCookingBigConvexDataBuilder.obj
 0001:001b4490       ?precompute@BigConvexDataBuilder@physx@@QEAA_NI@Z 00000001801b5490 f   GuCookingBigConvexDataBuilder.obj
 0001:001b5090       ?save@BigConvexDataBuilder@physx@@QEBA_NAEAVPxOutputStream@2@_N@Z 00000001801b6090 f   GuCookingBigConvexDataBuilder.obj
 0001:001b527e       __imp_load_PxGetFoundation 00000001801b627e f   PhysXFoundation_64:PhysXFoundation_64.dll
 0001:001b528a       __tailMerge_physxfoundation_64_dll 00000001801b628a     PhysXFoundation_64:PhysXFoundation_64.dll
 0001:001b5303       __imp_load_PxGetBroadcastAllocator 00000001801b6303 f   PhysXFoundation_64:PhysXFoundation_64.dll
 0001:001b530f       __imp_load_?PxAtomicIncrement@physx@@YAHPECH@Z 00000001801b630f f   PhysXFoundation_64:PhysXFoundation_64.dll
 0001:001b531b       __imp_load_??0PxMutexImpl@physx@@QEAA@XZ 00000001801b631b f   PhysXFoundation_64:PhysXFoundation_64.dll
 0001:001b5327       __imp_load_??1PxMutexImpl@physx@@QEAA@XZ 00000001801b6327 f   PhysXFoundation_64:PhysXFoundation_64.dll
 0001:001b5333       __imp_load_?lock@PxMutexImpl@physx@@QEAAXXZ 00000001801b6333 f   PhysXFoundation_64:PhysXFoundation_64.dll
 0001:001b533f       __imp_load_?unlock@PxMutexImpl@physx@@QEAAXXZ 00000001801b633f f   PhysXFoundation_64:PhysXFoundation_64.dll
 0001:001b534b       __imp_load_?getSize@PxMutexImpl@physx@@SAIXZ 00000001801b634b f   PhysXFoundation_64:PhysXFoundation_64.dll
 0001:001b5357       __imp_load_?PxAtomicDecrement@physx@@YAHPECH@Z 00000001801b6357 f   PhysXFoundation_64:PhysXFoundation_64.dll
 0001:001b5363       __imp_load_?PxTransformFromSegment@physx@@YA?AV?$PxTransformT@M@1@AEBV?$PxVec3T@M@1@0PEAM@Z 00000001801b6363 f   PhysXFoundation_64:PhysXFoundation_64.dll
 0001:001b536f       __imp_load_?PxAtomicAdd@physx@@YAHPECHH@Z 00000001801b636f f   PhysXFoundation_64:PhysXFoundation_64.dll
 0001:001b537b       __imp_load_?getDefaultStackSize@PxThreadImpl@physx@@SAIXZ 00000001801b637b f   PhysXFoundation_64:PhysXFoundation_64.dll
 0001:001b5387       __imp_load_??0PxThreadImpl@physx@@QEAA@P6APEAXPEAX@Z0PEBD@Z 00000001801b6387 f   PhysXFoundation_64:PhysXFoundation_64.dll
 0001:001b5393       __imp_load_??1PxThreadImpl@physx@@QEAA@XZ 00000001801b6393 f   PhysXFoundation_64:PhysXFoundation_64.dll
 0001:001b539f       __imp_load_?start@PxThreadImpl@physx@@QEAAXIPEAVPxRunnable@2@@Z 00000001801b639f f   PhysXFoundation_64:PhysXFoundation_64.dll
 0001:001b53ab       __imp_load_?waitForQuit@PxThreadImpl@physx@@QEAA_NXZ 00000001801b63ab f   PhysXFoundation_64:PhysXFoundation_64.dll
 0001:001b53b7       __imp_load_?getSize@PxThreadImpl@physx@@SAIXZ 00000001801b63b7 f   PhysXFoundation_64:PhysXFoundation_64.dll
 0001:001b53c3       __imp_load_?allocate@PxTempAllocator@physx@@QEAAPEAX_KPEBDH@Z 00000001801b63c3 f   PhysXFoundation_64:PhysXFoundation_64.dll
 0001:001b53cf       __imp_load_?deallocate@PxTempAllocator@physx@@QEAAXPEAX@Z 00000001801b63cf f   PhysXFoundation_64:PhysXFoundation_64.dll
 0001:001b53db       __imp_load_?PxOptimizeBoundingBox@physx@@YA?AV?$PxVec3T@M@1@AEAV?$PxMat33T@M@1@@Z 00000001801b63db f   PhysXFoundation_64:PhysXFoundation_64.dll
 0001:001b53e7       __imp_load_?Pxstrcmp@physx@@YAHPEBD0@Z 00000001801b63e7 f   PhysXFoundation_64:PhysXFoundation_64.dll
 0001:001b53f3       __imp_load_PxGetProfilerCallback 00000001801b63f3 f   PhysXFoundation_64:PhysXFoundation_64.dll
 0001:001b53ff       __imp_load_??0PxFPUGuard@physx@@QEAA@XZ 00000001801b63ff f   PhysXFoundation_64:PhysXFoundation_64.dll
 0001:001b540b       __imp_load_??1PxFPUGuard@physx@@QEAA@XZ 00000001801b640b f   PhysXFoundation_64:PhysXFoundation_64.dll
 0001:001b5417       __imp_load_?PxDiagonalize@physx@@YA?AV?$PxVec3T@M@1@AEBV?$PxMat33T@M@1@AEAV?$PxQuatT@M@1@@Z 00000001801b6417 f   PhysXFoundation_64:PhysXFoundation_64.dll
 0001:001b5424       ?DloadAcquireSectionWriteAccess@@YAXXZ 00000001801b6424 f i Delayimp:delayhlp.obj
 0001:001b54d0       ?DloadGetSRWLockFunctionPointers@@YAEXZ 00000001801b64d0 f i Delayimp:delayhlp.obj
 0001:001b5570       ?DloadMakePermanentImageCommit@@YAXPEAX_K@Z 00000001801b6570 f i Delayimp:delayhlp.obj
 0001:001b5608       ?DloadObtainSection@@YAPEAXPEAK0@Z 00000001801b6608 f i Delayimp:delayhlp.obj
 0001:001b56a4       ?DloadProtectSection@@YAXKPEAK@Z 00000001801b66a4 f i Delayimp:delayhlp.obj
 0001:001b5734       ?DloadReleaseSectionWriteAccess@@YAXXZ 00000001801b6734 f i Delayimp:delayhlp.obj
 0001:001b57c8       __delayLoadHelper2         00000001801b67c8 f   Delayimp:delayhlp.obj
 0001:001b5aa0       ??3@YAXPEAX_K@Z            00000001801b6aa0 f   LIBCMT:delete_scalar_size.obj
 0001:001b5aa0       ??_V@YAXPEAX@Z             00000001801b6aa0 f   LIBCMT:delete_array.obj
 0001:001b5aa8       ??_Etype_info@@UEAAPEAXI@Z 00000001801b6aa8 f i LIBCMT:std_type_info_static.obj
 0001:001b5aa8       ??_Gtype_info@@UEAAPEAXI@Z 00000001801b6aa8 f i LIBCMT:std_type_info_static.obj
 0001:001b5ad4       ?__scrt_initialize_type_info@@YAXXZ 00000001801b6ad4 f   LIBCMT:tncleanup.obj
 0001:001b5ae4       ?__scrt_uninitialize_type_info@@YAXXZ 00000001801b6ae4 f   LIBCMT:tncleanup.obj
 0001:001b5b00       __chkstk                   00000001801b6b00 f   LIBCMT:chkstk.obj
 0001:001b5b00       _alloca_probe              00000001801b6b00 f   LIBCMT:chkstk.obj
 0001:001b5b50       __vdecl_sinf4              00000001801b6b50 f   LIBCMT:svml_ssinf4_dispatch.obj
 0001:001b5b70       __libm_sse2_sincosf_       00000001801b6b70 f   LIBCMT:svml_ssinf4_dispatch.obj
 0001:001b5bb3       __libm_sse2_sincosf4_      00000001801b6bb3 f   LIBCMT:svml_ssinf4_dispatch.obj
 0001:001b5bc0       ??3@YAXPEAX@Z              00000001801b6bc0 f   LIBCMT:delete_scalar.obj
 0001:001b5bc8       __scrt_acquire_startup_lock 00000001801b6bc8 f   LIBCMT:utility.obj
 0001:001b5c04       __scrt_dllmain_after_initialize_c 00000001801b6c04 f   LIBCMT:utility.obj
 0001:001b5c38       __scrt_dllmain_before_initialize_c 00000001801b6c38 f   LIBCMT:utility.obj
 0001:001b5c50       __scrt_dllmain_crt_thread_attach 00000001801b6c50 f   LIBCMT:utility.obj
 0001:001b5c78       __scrt_dllmain_crt_thread_detach 00000001801b6c78 f   LIBCMT:utility.obj
 0001:001b5c90       __scrt_dllmain_exception_filter 00000001801b6c90 f   LIBCMT:utility.obj
 0001:001b5cf0       __scrt_dllmain_uninitialize_c 00000001801b6cf0 f   LIBCMT:utility.obj
 0001:001b5d20       __scrt_dllmain_uninitialize_critical 00000001801b6d20 f   LIBCMT:utility.obj
 0001:001b5d34       __scrt_initialize_crt      00000001801b6d34 f   LIBCMT:utility.obj
 0001:001b5d80       __scrt_initialize_onexit_tables 00000001801b6d80 f   LIBCMT:utility.obj
 0001:001b5e0c       __scrt_is_nonwritable_in_current_image 00000001801b6e0c f   LIBCMT:utility.obj
 0001:001b5ea4       __scrt_release_startup_lock 00000001801b6ea4 f   LIBCMT:utility.obj
 0001:001b5ec8       __scrt_uninitialize_crt    00000001801b6ec8 f   LIBCMT:utility.obj
 0001:001b5ef4       _onexit                    00000001801b6ef4 f   LIBCMT:utility.obj
 0001:001b5f30       atexit                     00000001801b6f30 f   LIBCMT:utility.obj
 0001:001b5f48       __isa_available_init       00000001801b6f48 f   LIBCMT:cpu_disp.obj
 0001:001b6414       _DllMainCRTStartup         00000001801b7414 f   LIBCMT:dll_dllmain.obj
 0001:001b6460       __sse2_sinf4@@16           00000001801b7460 f   LIBCMT:svml_ssinf4_sse2.obj
 0001:001b6da0       __sse4_sinf4@@16           00000001801b7da0 f   LIBCMT:svml_ssinf4_sse4.obj
 0001:001b7514       __scrt_is_ucrt_dll_in_use  00000001801b8514 f   LIBCMT:ucrt_detection.obj
 0001:001b7520       __crt_debugger_hook        00000001801b8520 f   LIBCMT:utility_desktop.obj
 0001:001b7528       __scrt_fastfail            00000001801b8528 f   LIBCMT:utility_desktop.obj
 0001:001b7674       __security_init_cookie     00000001801b8674 f   LIBCMT:gs_support.obj
 0001:001b7720       __local_stdio_scanf_options 00000001801b8720 f i LIBCMT:default_local_stdio_options.obj
 0001:001b7728       __scrt_initialize_default_local_stdio_options 00000001801b8728 f   LIBCMT:default_local_stdio_options.obj
 0001:001b7744       __scrt_get_dyn_tls_init_callback 00000001801b8744 f   LIBCMT:dyn_tls_init.obj
 0001:001b774c       _RTC_Initialize            00000001801b874c f   LIBCMT:initsect.obj
 0001:001b7788       _RTC_Terminate             00000001801b8788 f   LIBCMT:initsect.obj
 0001:001b77d0       __common_ssin_cout_rare    00000001801b87d0 f   LIBCMT:svml_s_sin_cout.obj
 0001:001b7850       memcpy_repmovs             00000001801b8850 f   libvcruntime:memcpy.obj
 0001:001b7870       memcpy                     00000001801b8870 f   libvcruntime:memcpy.obj
 0001:001b7870       memmove                    00000001801b8870 f   libvcruntime:memcpy.obj
 0001:001b7ee0       _get_purecall_handler      00000001801b8ee0 f   libvcruntime:purevirt.obj
 0001:001b7eec       _purecall                  00000001801b8eec f   libvcruntime:purevirt.obj
 0001:001b7f10       __std_type_info_compare    00000001801b8f10 f   libvcruntime:std_type_info.obj
 0001:001b7f38       __std_type_info_destroy_list 00000001801b8f38 f   libvcruntime:std_type_info.obj
 0001:001b7f64       __std_type_info_name       00000001801b8f64 f   libvcruntime:std_type_info.obj
 0001:001b8090       memset_repstos             00000001801b9090 f   libvcruntime:memset.obj
 0001:001b80b0       memset                     00000001801b90b0 f   libvcruntime:memset.obj
 0001:001b8438       strstr                     00000001801b9438 f   libvcruntime:strstr.obj
 0001:001b8630       __vcrt_initialize          00000001801b9630 f   libvcruntime:initialization.obj
 0001:001b8658       __vcrt_thread_attach       00000001801b9658 f   libvcruntime:initialization.obj
 0001:001b866c       __vcrt_thread_detach       00000001801b966c f   libvcruntime:initialization.obj
 0001:001b867c       __vcrt_uninitialize        00000001801b967c f   libvcruntime:initialization.obj
 0001:001b8698       __vcrt_uninitialize_critical 00000001801b9698 f   libvcruntime:initialization.obj
 0001:001b86a8       __C_specific_handler       00000001801b96a8 f   libvcruntime:riscchandler.obj
 0001:001b88a0       __DestructExceptionObject  00000001801b98a0 f   libvcruntime:ehhelpers.obj
 0001:001b8910       ?_CallMemberFunction0@@YAXQEAX0@Z 00000001801b9910 f i libvcruntime:ehhelpers.obj
 0001:001b8914       _IsExceptionObjectToBeDestroyed 00000001801b9914 f   libvcruntime:ehhelpers.obj
 0001:001b8944       __AdjustPointer            00000001801b9944 f   libvcruntime:ehhelpers.obj
 0001:001b8968       __FrameUnwindFilter        00000001801b9968 f   libvcruntime:ehhelpers.obj
 0001:001b89d0       __std_terminate            00000001801b99d0 f   libvcruntime:ehhelpers.obj
 0001:001b89dc       ??$?0$00@DName@@QEAA@PEBDU?$StringLifeSelector@$00@@@Z 00000001801b99dc f i libvcruntime:undname.obj
 0001:001b8a1c       ??$?0$01@DName@@QEAA@PEBDU?$StringLifeSelector@$01@@@Z 00000001801b9a1c f i libvcruntime:undname.obj
 0001:001b8a1c       ??$?0$0A@@DName@@QEAA@PEBDU?$StringLifeSelector@$0A@@@@Z 00000001801b9a1c f i libvcruntime:undname.obj
 0001:001b8a5c       ??$?0$01@pcharNode@@QEAA@PEBDHU?$StringLifeSelector@$01@@@Z 00000001801b9a5c f i libvcruntime:undname.obj
 0001:001b8a5c       ??$?0$0A@@pcharNode@@QEAA@PEBDHU?$StringLifeSelector@$0A@@@@Z 00000001801b9a5c f i libvcruntime:undname.obj
 0001:001b8ad0       ??$append@VDNameNode@@@DName@@AEAAXPEBVDNameNode@@@Z 00000001801b9ad0 f i libvcruntime:undname.obj
 0001:001b8ad0       ??$append@VDNameStatusNode@@@DName@@AEAAXPEBVDNameStatusNode@@@Z 00000001801b9ad0 f i libvcruntime:undname.obj
 0001:001b8ad0       ??$append@VcharNode@@@DName@@AEAAXPEBVcharNode@@@Z 00000001801b9ad0 f i libvcruntime:undname.obj
 0001:001b8ad0       ??$append@VpcharNode@@@DName@@AEAAXPEBVpcharNode@@@Z 00000001801b9ad0 f i libvcruntime:undname.obj
 0001:001b8b34       ??$doPchar@$00@DName@@AEAAXPEBDH@Z 00000001801b9b34 f i libvcruntime:undname.obj
 0001:001b8bd8       ??$doPchar@$01@DName@@AEAAXPEBDH@Z 00000001801b9bd8 f i libvcruntime:undname.obj
 0001:001b8bd8       ??$doPchar@$0A@@DName@@AEAAXPEBDH@Z 00000001801b9bd8 f i libvcruntime:undname.obj
 0001:001b8c70       ??0DName@@QEAA@AEAPEBDD@Z  00000001801b9c70 f   libvcruntime:undname.obj
 0001:001b8d20       ??0DName@@QEAA@AEBUStringLiteral@@@Z 00000001801b9d20 f   libvcruntime:undname.obj
 0001:001b8d4c       ??0DName@@QEAA@PEAV0@@Z    00000001801b9d4c f   libvcruntime:undname.obj
 0001:001b8dd0       ??0DName@@QEAA@_J@Z        00000001801b9dd0 f   libvcruntime:undname.obj
 0001:001b8e78       ??0DName@@QEAA@_K@Z        00000001801b9e78 f   libvcruntime:undname.obj
 0001:001b8f00       ??0UnDecorator@@QEAA@PEBDP6APEADJ@ZK@Z 00000001801b9f00 f i libvcruntime:undname.obj
 0001:001b8fb4       ??2@YAPEAX_KAEAV_HeapManager@@H@Z 00000001801b9fb4 f   libvcruntime:undname.obj
 0001:001b8fe0       ??4DName@@QEAAAEAV0@W4DNameStatus@@@Z 00000001801b9fe0 f   libvcruntime:undname.obj
 0001:001b9010       ??AReplicator@@QEBA?AVDName@@H@Z 00000001801ba010 f   libvcruntime:undname.obj
 0001:001b9050       ??HDName@@QEBA?AV0@AEBUStringLiteral@@@Z 00000001801ba050 f   libvcruntime:undname.obj
 0001:001b907c       ??HDName@@QEBA?AV0@AEBV0@@Z 00000001801ba07c f   libvcruntime:undname.obj
 0001:001b90a8       ??HDName@@QEBA?AV0@D@Z     00000001801ba0a8 f   libvcruntime:undname.obj
 0001:001b90d4       ??HDName@@QEBA?AV0@W4DNameStatus@@@Z 00000001801ba0d4 f   libvcruntime:undname.obj
 0001:001b9100       ??YDName@@QEAAAEAV0@AEBUStringLiteral@@@Z 00000001801ba100 f   libvcruntime:undname.obj
 0001:001b9180       ??YDName@@QEAAAEAV0@AEBV0@@Z 00000001801ba180 f   libvcruntime:undname.obj
 0001:001b91d8       ??YDName@@QEAAAEAV0@D@Z    00000001801ba1d8 f   libvcruntime:undname.obj
 0001:001b9244       ??YDName@@QEAAAEAV0@W4DNameStatus@@@Z 00000001801ba244 f   libvcruntime:undname.obj
 0001:001b929c       ??YReplicator@@QEAAAEAV0@AEBVDName@@@Z 00000001801ba29c f   libvcruntime:undname.obj
 0001:001b92f4       ?UScore@UnDecorator@@SA?AUStringLiteral@@W4Tokens@@@Z 00000001801ba2f4 f   libvcruntime:undname.obj
 0001:001b9340       ?composeDeclaration@UnDecorator@@CA?AVDName@@AEBV2@@Z 00000001801ba340 f i libvcruntime:undname.obj
 0001:001ba234       ?doPchar@DName@@AEAAXD@Z   00000001801bb234 f   libvcruntime:undname.obj
 0001:001ba284       ?getAddressOf@UnDecorator@@CA?AVDName@@XZ 00000001801bb284 f   libvcruntime:undname.obj
 0001:001ba314       ?getArgumentList@UnDecorator@@CA?AVDName@@XZ 00000001801bb314 f   libvcruntime:undname.obj
 0001:001ba4c8       ?getArgumentTypes@UnDecorator@@CA?AVDName@@XZ 00000001801bb4c8 f   libvcruntime:undname.obj
 0001:001ba614       ?getArrayAccess@UnDecorator@@CA?AVDName@@XZ 00000001801bb614 f   libvcruntime:undname.obj
 0001:001ba6b0       ?getArrayObject@UnDecorator@@CA?AVDName@@XZ 00000001801bb6b0 f   libvcruntime:undname.obj
 0001:001ba76c       ?getArrayType@UnDecorator@@CA?AVDName@@AEBV2@@Z 00000001801bb76c f i libvcruntime:undname.obj
 0001:001ba9d8       ?getBasedType@UnDecorator@@CA?AVDName@@XZ 00000001801bb9d8 f   libvcruntime:undname.obj
 0001:001baad0       ?getBasicDataType@UnDecorator@@CA?AVDName@@AEBV2@@Z 00000001801bbad0 f   libvcruntime:undname.obj
 0001:001bb0d4       ?getCallingConvention@UnDecorator@@CA?AVDName@@XZ 00000001801bc0d4 f   libvcruntime:undname.obj
 0001:001bb20c       ?getDataIndirectType@UnDecorator@@CA?AVDName@@AEBV2@W4IndirectionKind@@0H@Z 00000001801bc20c f   libvcruntime:undname.obj
 0001:001bbb30       ?getDataType@UnDecorator@@CA?AVDName@@PEAV2@@Z 00000001801bcb30 f   libvcruntime:undname.obj
 0001:001bbc44       ?getDecoratedName@UnDecorator@@CA?AVDName@@XZ 00000001801bcc44 f   libvcruntime:undname.obj
 0001:001bbf2c       ?getDimension@UnDecorator@@CA?AVDName@@_N@Z 00000001801bcf2c f   libvcruntime:undname.obj
 0001:001bc074       ?getDispatchTarget@UnDecorator@@CA?AVDName@@XZ 00000001801bd074 f   libvcruntime:undname.obj
 0001:001bc0d4       ?getECSUDataType@UnDecorator@@CA?AVDName@@XZ 00000001801bd0d4 f   libvcruntime:undname.obj
 0001:001bc2d0       ?getEnumType@UnDecorator@@CA?AVDName@@XZ 00000001801bd2d0 f i libvcruntime:undname.obj
 0001:001bc400       ?getExtendedDataIndirectType@UnDecorator@@CA?AVDName@@AEAW4IndirectionKind@@AEA_NH@Z 00000001801bd400 f   libvcruntime:undname.obj
 0001:001bc604       ?getExternalDataType@UnDecorator@@CA?AVDName@@AEBV2@@Z 00000001801bd604 f i libvcruntime:undname.obj
 0001:001bc6c4       ?getFloatingPoint@UnDecorator@@CA?AVDName@@H@Z 00000001801bd6c4 f   libvcruntime:undname.obj
 0001:001bc82c       ?getFunctionIndirectType@UnDecorator@@CA?AVDName@@AEBV2@@Z 00000001801bd82c f   libvcruntime:undname.obj
 0001:001bcd60       ?getLastChar@DNameStatusNode@@UEBADXZ 00000001801bdd60 f i libvcruntime:undname.obj
 0001:001bcd6c       ?getLastChar@charNode@@UEBADXZ 00000001801bdd6c f i libvcruntime:undname.obj
 0001:001bcd70       ?getLastChar@pDNameNode@@UEBADXZ 00000001801bdd70 f i libvcruntime:undname.obj
 0001:001bcd9c       ?getLastChar@pairNode@@UEBADXZ 00000001801bdd9c f i libvcruntime:undname.obj
 0001:001bcdd4       ?getLastChar@pcharNode@@UEBADXZ 00000001801bddd4 f i libvcruntime:undname.obj
 0001:001bcde8       ?getLexicalFrame@UnDecorator@@CA?AVDName@@XZ 00000001801bdde8 f i libvcruntime:undname.obj
 0001:001bce4c       ?getMemberAccess@UnDecorator@@CA?AVDName@@XZ 00000001801bde4c f   libvcruntime:undname.obj
 0001:001bcee0       ?getMemoryWithBuffer@_HeapManager@@QEAAPEAX_K@Z 00000001801bdee0 f   libvcruntime:undname.obj
 0001:001bcf70       ?getNoexcept@UnDecorator@@CA?AVDName@@XZ 00000001801bdf70 f   libvcruntime:undname.obj
 0001:001bcfd4       ?getNumberOfDimensions@UnDecorator@@CAHXZ 00000001801bdfd4 f   libvcruntime:undname.obj
 0001:001bd03c       ?getOperatorName@UnDecorator@@CA?AVDName@@_NPEA_N@Z 00000001801be03c f i libvcruntime:undname.obj
 0001:001bd9ec       ?getPointerToMember@UnDecorator@@CA?AVDName@@XZ 00000001801be9ec f   libvcruntime:undname.obj
 0001:001bdae4       ?getPrimaryDataType@UnDecorator@@CA?AVDName@@AEBV2@@Z 00000001801beae4 f   libvcruntime:undname.obj
 0001:001bdd9c       ?getPtrRefDataType@UnDecorator@@CA?AVDName@@AEBV2@H@Z 00000001801bed9c f   libvcruntime:undname.obj
 0001:001bdf68       ?getPtrRefType@UnDecorator@@CA?AVDName@@AEBV2@0W4IndirectionKind@@@Z 00000001801bef68 f   libvcruntime:undname.obj
 0001:001be140       ?getRestrictionSpec@UnDecorator@@CA?AVDName@@XZ 00000001801bf140 f   libvcruntime:undname.obj
 0001:001be31c       ?getReturnType@UnDecorator@@CA?AVDName@@PEAV2@@Z 00000001801bf31c f   libvcruntime:undname.obj
 0001:001be350       ?getScope@UnDecorator@@CA?AVDName@@XZ 00000001801bf350 f   libvcruntime:undname.obj
 0001:001be808       ?getScopedName@UnDecorator@@CA?AVDName@@XZ 00000001801bf808 f   libvcruntime:undname.obj
 0001:001be94c       ?getSignedDimension@UnDecorator@@CA?AVDName@@XZ 00000001801bf94c f   libvcruntime:undname.obj
 0001:001be9d4       ?getString@DNameStatusNode@@UEBAPEADPEAD0@Z 00000001801bf9d4 f i libvcruntime:undname.obj
 0001:001bea1c       ?getString@charNode@@UEBAPEADPEAD0@Z 00000001801bfa1c f i libvcruntime:undname.obj
 0001:001bea30       ?getString@pDNameNode@@UEBAPEADPEAD0@Z 00000001801bfa30 f i libvcruntime:undname.obj
 0001:001bea60       ?getString@pairNode@@UEBAPEADPEAD0@Z 00000001801bfa60 f i libvcruntime:undname.obj
 0001:001beaac       ?getString@pcharNode@@UEBAPEADPEAD0@Z 00000001801bfaac f i libvcruntime:undname.obj
 0001:001beae4       ?getStringEncoding@UnDecorator@@CA?AVDName@@W4PrefixKind@@H@Z 00000001801bfae4 f   libvcruntime:undname.obj
 0001:001bebf4       ?getStringObject@UnDecorator@@CA?AVDName@@XZ 00000001801bfbf4 f   libvcruntime:undname.obj
 0001:001bec5c       ?getSymbolName@UnDecorator@@CA?AVDName@@XZ 00000001801bfc5c f i libvcruntime:undname.obj
 0001:001beca8       ?getTemplateArgumentList@UnDecorator@@CA?AVDName@@XZ 00000001801bfca8 f   libvcruntime:undname.obj
 0001:001beec4       ?getTemplateName@UnDecorator@@CA?AVDName@@_N@Z 00000001801bfec4 f   libvcruntime:undname.obj
 0001:001bf18c       ?getTemplateNonTypeArgument@UnDecorator@@CA?AVDName@@XZ 00000001801c018c f   libvcruntime:undname.obj
 0001:001bf6dc       ?getTemplateTypeArgument@UnDecorator@@CA?AVDName@@XZ 00000001801c06dc f   libvcruntime:undname.obj
 0001:001bf844       ?getThrowTypes@UnDecorator@@CA?AVDName@@XZ 00000001801c0844 f   libvcruntime:undname.obj
 0001:001bf868       ?getTypeEncoding@UnDecorator@@CAHXZ 00000001801c0868 f i libvcruntime:undname.obj
 0001:001bfc24       ?getUndecoratedName@UnDecorator@@QEAAPEADPEADH@Z 00000001801c0c24 f i libvcruntime:undname.obj
 0001:001bfd78       ?getUnionObject@UnDecorator@@CA?AVDName@@XZ 00000001801c0d78 f   libvcruntime:undname.obj
 0001:001bfe50       ?getVCallThunkType@UnDecorator@@CA?AVDName@@XZ 00000001801c0e50 f i libvcruntime:undname.obj
 0001:001bfec8       ?getValue@UnDecorator@@CA?AV?$optional@_K@std@@XZ 00000001801c0ec8 f   libvcruntime:undname.obj
 0001:001bff0c       ?getValueObject@UnDecorator@@CA?AVDName@@XZ 00000001801c0f0c f   libvcruntime:undname.obj
 0001:001c004c       ?getVdispMapType@UnDecorator@@CA?AVDName@@AEBV2@@Z 00000001801c104c f i libvcruntime:undname.obj
 0001:001c00c8       ?getVfTableType@UnDecorator@@CA?AVDName@@AEBV2@@Z 00000001801c10c8 f i libvcruntime:undname.obj
 0001:001c02d4       ?getZName@UnDecorator@@CA?AVDName@@_N0@Z 00000001801c12d4 f   libvcruntime:undname.obj
 0001:001c05a8       ?length@pDNameNode@@UEBAHXZ 00000001801c15a8 f i libvcruntime:undname.obj
 0001:001c05d0       ?length@pairNode@@UEBAHXZ  00000001801c15d0 f i libvcruntime:undname.obj
 0001:001c0618       ?parseDecoratedName@UnDecorator@@CA?AVDName@@XZ 00000001801c1618 f   libvcruntime:undname.obj
 0001:001c0730       ?raw_length@pDNameNode@@UEBAHXZ 00000001801c1730 f i libvcruntime:undname.obj
 0001:001c0734       ?raw_length@pairNode@@UEBAHXZ 00000001801c1734 f i libvcruntime:undname.obj
 0001:001c0738       __unDName                  00000001801c1738 f   libvcruntime:undname.obj
 0001:001c0760       __unDNameEx                00000001801c1760 f   libvcruntime:undname.obj
 0001:001c0850       snprintf                   00000001801c1850 f i libvcruntime:undname.obj
 0001:001c08a8       sprintf_s                  00000001801c18a8 f i libvcruntime:undname.obj
 0001:001c08fc       __vcrt_freefls             00000001801c18fc f   libvcruntime:per_thread_data.obj
 0001:001c091c       __vcrt_freeptd_for_this_thread 00000001801c191c f   libvcruntime:per_thread_data.obj
 0001:001c0964       __vcrt_getptd              00000001801c1964 f   libvcruntime:per_thread_data.obj
 0001:001c0980       __vcrt_getptd_noexit       00000001801c1980 f   libvcruntime:per_thread_data.obj
 0001:001c0a40       __vcrt_initialize_ptd      00000001801c1a40 f   libvcruntime:per_thread_data.obj
 0001:001c0a88       __vcrt_uninitialize_ptd    00000001801c1a88 f   libvcruntime:per_thread_data.obj
 0001:001c0aac       __vcrt_initialize_locks    00000001801c1aac f   libvcruntime:locks.obj
 0001:001c0af4       __vcrt_lock                00000001801c1af4 f   libvcruntime:locks.obj
 0001:001c0b10       __vcrt_uninitialize_locks  00000001801c1b10 f   libvcruntime:locks.obj
 0001:001c0b48       __vcrt_unlock              00000001801c1b48 f   libvcruntime:locks.obj
 0001:001c0b80       _NLG_Notify                00000001801c1b80 f   libvcruntime:notify.obj
 0001:001c0ba0       __NLG_Dispatch2            00000001801c1ba0 f   libvcruntime:notify.obj
 0001:001c0bb0       __NLG_Return2              00000001801c1bb0 f   libvcruntime:notify.obj
 0001:001c0bb4       __except_validate_context_record 00000001801c1bb4 f   libvcruntime:jbcxrval.obj
 0001:001c0bec       ??$_CallSETranslator@V__FrameHandler3@@@@YAHPEAUEHExceptionRecord@@PEA_KPEAU_CONTEXT@@PEAU_xDISPATCHER_CONTEXT@@PEBU_s_FuncInfo@@K1H@Z 00000001801c1bec f i libvcruntime:risctrnsctrl.obj
 0001:001c0c40       ??$_CallSETranslator@V__FrameHandler4@@@@YAHPEAUEHExceptionRecord@@PEA_KPEAU_CONTEXT@@PEAU_xDISPATCHER_CONTEXT@@PEAUFuncInfo4@FH4@@K1H@Z 00000001801c1c40 f i libvcruntime:risctrnsctrl.obj
 0001:001c0c94       ?CatchTryBlock@__FrameHandler3@@SAPEBU_s_TryBlockMapEntry@@PEBU_s_FuncInfo@@H@Z 00000001801c1c94 f   libvcruntime:risctrnsctrl.obj
 0001:001c0cf8       ?DecompFuncInfo@FH4@@YA_JPEAEAEAUFuncInfo4@1@_KH_N@Z 00000001801c1cf8 f i libvcruntime:risctrnsctrl.obj
 0001:001c0e2c       ?ExecutionInCatch@__FrameHandler3@@SA_NPEAU_xDISPATCHER_CONTEXT@@PEBU_s_FuncInfo@@@Z 00000001801c1e2c f   libvcruntime:risctrnsctrl.obj
 0001:001c0e58       ?ExecutionInCatch@__FrameHandler4@@SA_NPEAU_xDISPATCHER_CONTEXT@@PEAUFuncInfo4@FH4@@@Z 00000001801c1e58 f   libvcruntime:risctrnsctrl.obj
 0001:001c0e60       ?FrameUnwindToEmptyState@__FrameHandler3@@SAXPEA_KPEAU_xDISPATCHER_CONTEXT@@PEBU_s_FuncInfo@@@Z 00000001801c1e60 f   libvcruntime:risctrnsctrl.obj
 0001:001c0ec4       ?FrameUnwindToEmptyState@__FrameHandler4@@SAXPEA_KPEAU_xDISPATCHER_CONTEXT@@PEAUFuncInfo4@FH4@@@Z 00000001801c1ec4 f   libvcruntime:risctrnsctrl.obj
 0001:001c0ef8       ?GetEstablisherFrame@__FrameHandler3@@SAPEA_KPEA_KPEAU_xDISPATCHER_CONTEXT@@PEBU_s_FuncInfo@@0@Z 00000001801c1ef8 f   libvcruntime:risctrnsctrl.obj
 0001:001c0fc4       ?GetEstablisherFrame@__FrameHandler4@@SAPEA_KPEA_KPEAU_xDISPATCHER_CONTEXT@@PEAUFuncInfo4@FH4@@0@Z 00000001801c1fc4 f   libvcruntime:risctrnsctrl.obj
 0001:001c0fe8       ?GetRangeOfTrysToCheck@__FrameHandler3@@SA?AU?$pair@Viterator@TryBlockMap@__FrameHandler3@@V123@@std@@AEAVTryBlockMap@1@HPEAU_xDISPATCHER_CONTEXT@@PEBU_s_FuncInfo@@H@Z 00000001801c1fe8 f   libvcruntime:risctrnsctrl.obj
 0001:001c1128       ?GetRangeOfTrysToCheck@__FrameHandler4@@SA?AU?$pair@Viterator@TryBlockMap4@FH4@@V123@@std@@AEAVTryBlockMap4@FH4@@HPEAU_xDISPATCHER_CONTEXT@@PEAUFuncInfo4@5@H@Z 00000001801c2128 f   libvcruntime:risctrnsctrl.obj
 0001:001c1294       ?UnwindNestedFrames@__FrameHandler3@@SAXPEA_KPEAUEHExceptionRecord@@PEAU_CONTEXT@@0PEAXPEBU_s_FuncInfo@@HHPEBU_s_HandlerType@@PEAU_xDISPATCHER_CONTEXT@@E@Z 00000001801c2294 f   libvcruntime:risctrnsctrl.obj
 0001:001c1398       ?UnwindNestedFrames@__FrameHandler4@@SAXPEA_KPEAUEHExceptionRecord@@PEAU_CONTEXT@@0PEAXPEAUFuncInfo4@FH4@@HHPEAUHandlerType4@5@PEAU_xDISPATCHER_CONTEXT@@E@Z 00000001801c2398 f   libvcruntime:risctrnsctrl.obj
 0001:001c14b8       ?setBuffer@TryBlockMap4@FH4@@QEAAXViterator@12@@Z 00000001801c24b8 f i libvcruntime:risctrnsctrl.obj
 0001:001c167c       _CreateFrameInfo           00000001801c267c f   libvcruntime:risctrnsctrl.obj
 0001:001c16b8       _FindAndUnlinkFrame        00000001801c26b8 f   libvcruntime:risctrnsctrl.obj
 0001:001c170c       _GetImageBase              00000001801c270c f   libvcruntime:risctrnsctrl.obj
 0001:001c1720       _GetThrowImageBase         00000001801c2720 f   libvcruntime:risctrnsctrl.obj
 0001:001c1734       _SetImageBase              00000001801c2734 f   libvcruntime:risctrnsctrl.obj
 0001:001c174c       _SetThrowImageBase         00000001801c274c f   libvcruntime:risctrnsctrl.obj
 0001:001c1764       __CxxFrameHandler3         00000001801c2764 f   libvcruntime:risctrnsctrl.obj
 0001:001c17ec       __CxxFrameHandler4         00000001801c27ec f   libvcruntime:risctrnsctrl.obj
 0001:001c19fc       __vcrt_FlsAlloc            00000001801c29fc f   libvcruntime:winapi_downlevel.obj
 0001:001c1a44       __vcrt_FlsFree             00000001801c2a44 f   libvcruntime:winapi_downlevel.obj
 0001:001c1a8c       __vcrt_FlsGetValue         00000001801c2a8c f   libvcruntime:winapi_downlevel.obj
 0001:001c1ad4       __vcrt_FlsSetValue         00000001801c2ad4 f   libvcruntime:winapi_downlevel.obj
 0001:001c1b28       __vcrt_InitializeCriticalSectionEx 00000001801c2b28 f   libvcruntime:winapi_downlevel.obj
 0001:001c1b8c       ?GetCurrentState@__FrameHandler3@@SAHPEA_KPEAU_xDISPATCHER_CONTEXT@@PEBU_s_FuncInfo@@@Z 00000001801c2b8c f   libvcruntime:ehstate.obj
 0001:001c1bb4       ?GetUnwindTryBlock@__FrameHandler3@@SAHPEA_KPEAU_xDISPATCHER_CONTEXT@@PEBU_s_FuncInfo@@@Z 00000001801c2bb4 f   libvcruntime:ehstate.obj
 0001:001c1be0       ?SetState@__FrameHandler3@@SAXPEA_KPEBU_s_FuncInfo@@H@Z 00000001801c2be0 f   libvcruntime:ehstate.obj
 0001:001c1bec       ?SetUnwindTryBlock@__FrameHandler3@@SAXPEA_KPEAU_xDISPATCHER_CONTEXT@@PEBU_s_FuncInfo@@H@Z 00000001801c2bec f   libvcruntime:ehstate.obj
 0001:001c1c28       ?StateFromControlPc@__FrameHandler3@@SAHPEBU_s_FuncInfo@@PEAU_xDISPATCHER_CONTEXT@@@Z 00000001801c2c28 f   libvcruntime:ehstate.obj
 0001:001c1c30       ?StateFromControlPc@__FrameHandler4@@SAHPEAUFuncInfo4@FH4@@PEAU_xDISPATCHER_CONTEXT@@@Z 00000001801c2c30 f   libvcruntime:ehstate.obj
 0001:001c1c38       ?StateFromIp@__FrameHandler3@@SAHPEBU_s_FuncInfo@@PEAU_xDISPATCHER_CONTEXT@@_K@Z 00000001801c2c38 f   libvcruntime:ehstate.obj
 0001:001c1ca0       ?StateFromIp@__FrameHandler4@@SAHPEAUFuncInfo4@FH4@@PEAU_xDISPATCHER_CONTEXT@@_K@Z 00000001801c2ca0 f   libvcruntime:ehstate.obj
 0001:001c33a0       ??$TypeMatchHelper@V__FrameHandler3@@@@YAHPEBU_s_HandlerType@@PEBU_s_CatchableType@@PEBU_s_ThrowInfo@@@Z 00000001801c43a0 f i libvcruntime:frame.obj
 0001:001c34e0       ??$TypeMatchHelper@V__FrameHandler4@@@@YAHPEAUHandlerType4@FH4@@PEBU_s_CatchableType@@PEBU_s_ThrowInfo@@@Z 00000001801c44e0 f i libvcruntime:frame.obj
 0001:001c3624       ??$__InternalCxxFrameHandler@V__FrameHandler3@@@@YA?AW4_EXCEPTION_DISPOSITION@@PEAUEHExceptionRecord@@PEA_KPEAU_CONTEXT@@PEAU_xDISPATCHER_CONTEXT@@PEBU_s_FuncInfo@@H1E@Z 00000001801c4624 f i libvcruntime:frame.obj
 0001:001c385c       ??$__InternalCxxFrameHandler@V__FrameHandler4@@@@YA?AW4_EXCEPTION_DISPOSITION@@PEAUEHExceptionRecord@@PEA_KPEAU_CONTEXT@@PEAU_xDISPATCHER_CONTEXT@@PEAUFuncInfo4@FH4@@H1E@Z 00000001801c485c f i libvcruntime:frame.obj
 0001:001c3af0       ??$__InternalCxxFrameHandlerWrapper@V__FrameHandler3@@@@YA?AW4_EXCEPTION_DISPOSITION@@PEAUEHExceptionRecord@@PEA_KPEAU_CONTEXT@@PEAU_xDISPATCHER_CONTEXT@@PEBU_s_FuncInfo@@H1E@Z 00000001801c4af0 f i libvcruntime:frame.obj
 0001:001c3af8       ??$__InternalCxxFrameHandlerWrapper@V__FrameHandler4@@@@YA?AW4_EXCEPTION_DISPOSITION@@PEAUEHExceptionRecord@@PEA_KPEAU_CONTEXT@@PEAU_xDISPATCHER_CONTEXT@@PEAUFuncInfo4@FH4@@H1E@Z 00000001801c4af8 f i libvcruntime:frame.obj
 0001:001c3b44       ??0HandlerMap4@FH4@@QEAA@PEBUTryBlockMapEntry4@1@_KH@Z 00000001801c4b44 f i libvcruntime:frame.obj
 0001:001c3bc8       ??0TryBlockMap4@FH4@@QEAA@PEBUFuncInfo4@1@_K@Z 00000001801c4bc8 f i libvcruntime:frame.obj
 0001:001c3cac       ??0bad_exception@std@@QEAA@AEBV01@@Z 00000001801c4cac f i libvcruntime:frame.obj
 0001:001c3ce8       ??0bad_exception@std@@QEAA@XZ 00000001801c4ce8 f i libvcruntime:frame.obj
 0001:001c3d08       ??0exception@std@@QEAA@AEBV01@@Z 00000001801c4d08 f i libvcruntime:frame.obj
 0001:001c3d3c       ??1bad_exception@std@@UEAA@XZ 00000001801c4d3c f i libvcruntime:frame.obj
 0001:001c3d50       ??_Ebad_exception@std@@UEAAPEAXI@Z 00000001801c4d50 f i libvcruntime:frame.obj
 0001:001c3d50       ??_Eexception@std@@UEAAPEAXI@Z 00000001801c4d50 f i libvcruntime:frame.obj
 0001:001c3d50       ??_Gbad_exception@std@@UEAAPEAXI@Z 00000001801c4d50 f i libvcruntime:frame.obj
 0001:001c3d50       ??_Gexception@std@@UEAAPEAXI@Z 00000001801c4d50 f i libvcruntime:frame.obj
 0001:001c3d94       ?CxxCallCatchBlock@__FrameHandler3@@SAPEAXPEAU_EXCEPTION_RECORD@@@Z 00000001801c4d94 f   libvcruntime:frame.obj
 0001:001c3f80       ?CxxCallCatchBlock@__FrameHandler4@@SAPEAXPEAU_EXCEPTION_RECORD@@@Z 00000001801c4f80 f   libvcruntime:frame.obj
 0001:001c41d0       ?DecompHandler@HandlerMap4@FH4@@AEAAXXZ 00000001801c51d0 f i libvcruntime:frame.obj
 0001:001c441c       ?FrameUnwindToState@__FrameHandler3@@SAXPEA_KPEAU_xDISPATCHER_CONTEXT@@PEBU_s_FuncInfo@@H@Z 00000001801c541c f   libvcruntime:frame.obj
 0001:001c45a8       ?FrameUnwindToState@__FrameHandler4@@SAXPEA_KPEAU_xDISPATCHER_CONTEXT@@PEAUFuncInfo4@FH4@@H@Z 00000001801c55a8 f   libvcruntime:frame.obj
 0001:001c48ac       ?GetHandlerSearchState@__FrameHandler3@@SAHPEA_KPEAU_xDISPATCHER_CONTEXT@@PEBU_s_FuncInfo@@@Z 00000001801c58ac f i libvcruntime:frame.obj
 0001:001c4abc       ?ReadEntry@UWMap4@FH4@@AEAAXPEAPEAE@Z 00000001801c5abc f i libvcruntime:frame.obj
 0001:001c4b58       ?_CallMemberFunction1@@YAXQEAX00@Z 00000001801c5b58 f i libvcruntime:frame.obj
 0001:001c4b64       ?_CallMemberFunction2@@YAXQEAX00H@Z 00000001801c5b64 f i libvcruntime:frame.obj
 0001:001c4b74       ?getStartStop@UWMap4@FH4@@QEAAXHHAEAViterator@12@0@Z 00000001801c5b74 f i libvcruntime:frame.obj
 0001:001c4c44       ?getStateFromIterators@UWMap4@FH4@@SAHAEBViterator@12@H0H0@Z 00000001801c5c44 f i libvcruntime:frame.obj
 0001:001c4cf4       ?what@exception@std@@UEBAPEBDXZ 00000001801c5cf4 f i libvcruntime:frame.obj
 0001:001c4d20       _CallSettingFrame          00000001801c5d20 f   libvcruntime:handlers.obj
 0001:001c4d70       _CallSettingFrame_LookupContinuationIndex 00000001801c5d70 f   libvcruntime:handlers.obj
 0001:001c4da0       _CallSettingFrame_NotifyContinuationAddr 00000001801c5da0 f   libvcruntime:handlers.obj
 0001:001c4dd0       _CallSettingFrameEncoded   00000001801c5dd0 f   libvcruntime:handlers.obj
 0001:001c4e18       __std_exception_copy       00000001801c5e18 f   libvcruntime:std_exception.obj
 0001:001c4ea8       __std_exception_destroy    00000001801c5ea8 f   libvcruntime:std_exception.obj
 0001:001c4ed0       _CxxThrowException         00000001801c5ed0 f   libvcruntime:throw.obj
 0001:001c4f80       cosf                       00000001801c5f80 f   libucrt:cosf.obj
 0001:001c5480       sinf                       00000001801c6480 f   libucrt:sinf.obj
 0001:001c5b80       tanf                       00000001801c6b80 f   libucrt:tanf.obj
 0001:001c61f4       __acrt_initialize_stdio    00000001801c71f4 f   libucrt:_file.obj
 0001:001c6314       __acrt_iob_func            00000001801c7314 f   libucrt:_file.obj
 0001:001c6328       __acrt_uninitialize_stdio  00000001801c7328 f   libucrt:_file.obj
 0001:001c6384       _lock_file                 00000001801c7384 f   libucrt:_file.obj
 0001:001c6390       _unlock_file               00000001801c7390 f   libucrt:_file.obj
 0001:001c658c       ??$ensure_buffer_is_big_enough@D@formatting_buffer@__crt_stdio_output@@QEAA_N_KAEAV__crt_cached_ptd_host@@@Z 00000001801c758c f i libucrt:output.obj
 0001:001c6634       ??$parse_integer@KV?$c_string_character_source@D@__crt_strtox@@$0A@@__crt_strtox@@YAKAEAV__crt_cached_ptd_host@@V?$c_string_character_source@D@0@H_N@Z 00000001801c7634 f i libucrt:output.obj
 0001:001c68e8       ??$type_case_integer@$07@?$output_processor@DV?$stream_output_adapter@D@__crt_stdio_output@@V?$standard_base@DV?$stream_output_adapter@D@__crt_stdio_output@@@2@@__crt_stdio_output@@AEAA_N_N@Z 00000001801c78e8 f i libucrt:output.obj
 0001:001c68e8       ??$type_case_integer@$07@?$output_processor@DV?$string_output_adapter@D@__crt_stdio_output@@V?$format_validation_base@DV?$string_output_adapter@D@__crt_stdio_output@@@2@@__crt_stdio_output@@AEAA_N_N@Z 00000001801c78e8 f i libucrt:output.obj
 0001:001c68e8       ??$type_case_integer@$07@?$output_processor@DV?$string_output_adapter@D@__crt_stdio_output@@V?$standard_base@DV?$string_output_adapter@D@__crt_stdio_output@@@2@@__crt_stdio_output@@AEAA_N_N@Z 00000001801c78e8 f i libucrt:output.obj
 0001:001c6aec       ??$type_case_integer@$09@?$output_processor@DV?$stream_output_adapter@D@__crt_stdio_output@@V?$standard_base@DV?$stream_output_adapter@D@__crt_stdio_output@@@2@@__crt_stdio_output@@AEAA_N_N@Z 00000001801c7aec f i libucrt:output.obj
 0001:001c6aec       ??$type_case_integer@$09@?$output_processor@DV?$string_output_adapter@D@__crt_stdio_output@@V?$format_validation_base@DV?$string_output_adapter@D@__crt_stdio_output@@@2@@__crt_stdio_output@@AEAA_N_N@Z 00000001801c7aec f i libucrt:output.obj
 0001:001c6aec       ??$type_case_integer@$09@?$output_processor@DV?$string_output_adapter@D@__crt_stdio_output@@V?$standard_base@DV?$string_output_adapter@D@__crt_stdio_output@@@2@@__crt_stdio_output@@AEAA_N_N@Z 00000001801c7aec f i libucrt:output.obj
 0001:001c6cf0       ??$type_case_integer@$0BA@@?$output_processor@DV?$stream_output_adapter@D@__crt_stdio_output@@V?$standard_base@DV?$stream_output_adapter@D@__crt_stdio_output@@@2@@__crt_stdio_output@@AEAA_N_N@Z 00000001801c7cf0 f i libucrt:output.obj
 0001:001c6cf0       ??$type_case_integer@$0BA@@?$output_processor@DV?$string_output_adapter@D@__crt_stdio_output@@V?$format_validation_base@DV?$string_output_adapter@D@__crt_stdio_output@@@2@@__crt_stdio_output@@AEAA_N_N@Z 00000001801c7cf0 f i libucrt:output.obj
 0001:001c6cf0       ??$type_case_integer@$0BA@@?$output_processor@DV?$string_output_adapter@D@__crt_stdio_output@@V?$standard_base@DV?$string_output_adapter@D@__crt_stdio_output@@@2@@__crt_stdio_output@@AEAA_N_N@Z 00000001801c7cf0 f i libucrt:output.obj
 0001:001c6ef4       ??$type_case_integer_parse_into_buffer@I$07@?$output_processor@DV?$stream_output_adapter@D@__crt_stdio_output@@V?$standard_base@DV?$stream_output_adapter@D@__crt_stdio_output@@@2@@__crt_stdio_output@@AEAAXI_N@Z 00000001801c7ef4 f i libucrt:output.obj
 0001:001c6ef4       ??$type_case_integer_parse_into_buffer@I$07@?$output_processor@DV?$string_output_adapter@D@__crt_stdio_output@@V?$format_validation_base@DV?$string_output_adapter@D@__crt_stdio_output@@@2@@__crt_stdio_output@@AEAAXI_N@Z 00000001801c7ef4 f i libucrt:output.obj
 0001:001c6ef4       ??$type_case_integer_parse_into_buffer@I$07@?$output_processor@DV?$string_output_adapter@D@__crt_stdio_output@@V?$standard_base@DV?$string_output_adapter@D@__crt_stdio_output@@@2@@__crt_stdio_output@@AEAAXI_N@Z 00000001801c7ef4 f i libucrt:output.obj
 0001:001c6f64       ??$type_case_integer_parse_into_buffer@I$09@?$output_processor@DV?$stream_output_adapter@D@__crt_stdio_output@@V?$standard_base@DV?$stream_output_adapter@D@__crt_stdio_output@@@2@@__crt_stdio_output@@AEAAXI_N@Z 00000001801c7f64 f i libucrt:output.obj
 0001:001c6f64       ??$type_case_integer_parse_into_buffer@I$09@?$output_processor@DV?$string_output_adapter@D@__crt_stdio_output@@V?$format_validation_base@DV?$string_output_adapter@D@__crt_stdio_output@@@2@@__crt_stdio_output@@AEAAXI_N@Z 00000001801c7f64 f i libucrt:output.obj
 0001:001c6f64       ??$type_case_integer_parse_into_buffer@I$09@?$output_processor@DV?$string_output_adapter@D@__crt_stdio_output@@V?$standard_base@DV?$string_output_adapter@D@__crt_stdio_output@@@2@@__crt_stdio_output@@AEAAXI_N@Z 00000001801c7f64 f i libucrt:output.obj
 0001:001c7010       ??$type_case_integer_parse_into_buffer@I$0BA@@?$output_processor@DV?$stream_output_adapter@D@__crt_stdio_output@@V?$standard_base@DV?$stream_output_adapter@D@__crt_stdio_output@@@2@@__crt_stdio_output@@AEAAXI_N@Z 00000001801c8010 f i libucrt:output.obj
 0001:001c7010       ??$type_case_integer_parse_into_buffer@I$0BA@@?$output_processor@DV?$string_output_adapter@D@__crt_stdio_output@@V?$format_validation_base@DV?$string_output_adapter@D@__crt_stdio_output@@@2@@__crt_stdio_output@@AEAAXI_N@Z 00000001801c8010 f i libucrt:output.obj
 0001:001c7010       ??$type_case_integer_parse_into_buffer@I$0BA@@?$output_processor@DV?$string_output_adapter@D@__crt_stdio_output@@V?$standard_base@DV?$string_output_adapter@D@__crt_stdio_output@@@2@@__crt_stdio_output@@AEAAXI_N@Z 00000001801c8010 f i libucrt:output.obj
 0001:001c7094       ??$type_case_integer_parse_into_buffer@_K$07@?$output_processor@DV?$stream_output_adapter@D@__crt_stdio_output@@V?$standard_base@DV?$stream_output_adapter@D@__crt_stdio_output@@@2@@__crt_stdio_output@@AEAAX_K_N@Z 00000001801c8094 f i libucrt:output.obj
 0001:001c7094       ??$type_case_integer_parse_into_buffer@_K$07@?$output_processor@DV?$string_output_adapter@D@__crt_stdio_output@@V?$format_validation_base@DV?$string_output_adapter@D@__crt_stdio_output@@@2@@__crt_stdio_output@@AEAAX_K_N@Z 00000001801c8094 f i libucrt:output.obj
 0001:001c7094       ??$type_case_integer_parse_into_buffer@_K$07@?$output_processor@DV?$string_output_adapter@D@__crt_stdio_output@@V?$standard_base@DV?$string_output_adapter@D@__crt_stdio_output@@@2@@__crt_stdio_output@@AEAAX_K_N@Z 00000001801c8094 f i libucrt:output.obj
 0001:001c7104       ??$type_case_integer_parse_into_buffer@_K$09@?$output_processor@DV?$stream_output_adapter@D@__crt_stdio_output@@V?$standard_base@DV?$stream_output_adapter@D@__crt_stdio_output@@@2@@__crt_stdio_output@@AEAAX_K_N@Z 00000001801c8104 f i libucrt:output.obj
 0001:001c7104       ??$type_case_integer_parse_into_buffer@_K$09@?$output_processor@DV?$string_output_adapter@D@__crt_stdio_output@@V?$format_validation_base@DV?$string_output_adapter@D@__crt_stdio_output@@@2@@__crt_stdio_output@@AEAAX_K_N@Z 00000001801c8104 f i libucrt:output.obj
 0001:001c7104       ??$type_case_integer_parse_into_buffer@_K$09@?$output_processor@DV?$string_output_adapter@D@__crt_stdio_output@@V?$standard_base@DV?$string_output_adapter@D@__crt_stdio_output@@@2@@__crt_stdio_output@@AEAAX_K_N@Z 00000001801c8104 f i libucrt:output.obj
 0001:001c71b4       ??$type_case_integer_parse_into_buffer@_K$0BA@@?$output_processor@DV?$stream_output_adapter@D@__crt_stdio_output@@V?$standard_base@DV?$stream_output_adapter@D@__crt_stdio_output@@@2@@__crt_stdio_output@@AEAAX_K_N@Z 00000001801c81b4 f i libucrt:output.obj
 0001:001c71b4       ??$type_case_integer_parse_into_buffer@_K$0BA@@?$output_processor@DV?$string_output_adapter@D@__crt_stdio_output@@V?$format_validation_base@DV?$string_output_adapter@D@__crt_stdio_output@@@2@@__crt_stdio_output@@AEAAX_K_N@Z 00000001801c81b4 f i libucrt:output.obj
 0001:001c71b4       ??$type_case_integer_parse_into_buffer@_K$0BA@@?$output_processor@DV?$string_output_adapter@D@__crt_stdio_output@@V?$standard_base@DV?$string_output_adapter@D@__crt_stdio_output@@@2@@__crt_stdio_output@@AEAAX_K_N@Z 00000001801c81b4 f i libucrt:output.obj
 0001:001c7354       ?crop_zeroes@__crt_stdio_output@@YAXPEADQEAU__crt_locale_pointers@@@Z 00000001801c8354 f i libucrt:output.obj
 0001:001c73c0       ?get_raw_ptd@__crt_cached_ptd_host@@QEAAPEAU__acrt_ptd@@XZ 00000001801c83c0 f i libucrt:output.obj
 0001:001c7428       ?parse_int_from_format_string@?$output_processor@DV?$stream_output_adapter@D@__crt_stdio_output@@V?$standard_base@DV?$stream_output_adapter@D@__crt_stdio_output@@@2@@__crt_stdio_output@@AEAA_NQEAH@Z 00000001801c8428 f i libucrt:output.obj
 0001:001c7428       ?parse_int_from_format_string@?$output_processor@DV?$string_output_adapter@D@__crt_stdio_output@@V?$format_validation_base@DV?$string_output_adapter@D@__crt_stdio_output@@@2@@__crt_stdio_output@@AEAA_NQEAH@Z 00000001801c8428 f i libucrt:output.obj
 0001:001c7428       ?parse_int_from_format_string@?$output_processor@DV?$string_output_adapter@D@__crt_stdio_output@@V?$standard_base@DV?$string_output_adapter@D@__crt_stdio_output@@@2@@__crt_stdio_output@@AEAA_NQEAH@Z 00000001801c8428 f i libucrt:output.obj
 0001:001c74b8       ?process@?$output_processor@DV?$stream_output_adapter@D@__crt_stdio_output@@V?$standard_base@DV?$stream_output_adapter@D@__crt_stdio_output@@@2@@__crt_stdio_output@@QEAAHXZ 00000001801c84b8 f i libucrt:output.obj
 0001:001c7850       ?process@?$output_processor@DV?$string_output_adapter@D@__crt_stdio_output@@V?$format_validation_base@DV?$string_output_adapter@D@__crt_stdio_output@@@2@@__crt_stdio_output@@QEAAHXZ 00000001801c8850 f i libucrt:output.obj
 0001:001c7bd4       ?process@?$output_processor@DV?$string_output_adapter@D@__crt_stdio_output@@V?$standard_base@DV?$string_output_adapter@D@__crt_stdio_output@@@2@@__crt_stdio_output@@QEAAHXZ 00000001801c8bd4 f i libucrt:output.obj
 0001:001c7f54       ?state_case_size@?$output_processor@DV?$stream_output_adapter@D@__crt_stdio_output@@V?$standard_base@DV?$stream_output_adapter@D@__crt_stdio_output@@@2@@__crt_stdio_output@@AEAA_NXZ 00000001801c8f54 f i libucrt:output.obj
 0001:001c80dc       ?state_case_size@?$output_processor@DV?$string_output_adapter@D@__crt_stdio_output@@V?$format_validation_base@DV?$string_output_adapter@D@__crt_stdio_output@@@2@@__crt_stdio_output@@AEAA_NXZ 00000001801c90dc f i libucrt:output.obj
 0001:001c80dc       ?state_case_size@?$output_processor@DV?$string_output_adapter@D@__crt_stdio_output@@V?$standard_base@DV?$string_output_adapter@D@__crt_stdio_output@@@2@@__crt_stdio_output@@AEAA_NXZ 00000001801c90dc f i libucrt:output.obj
 0001:001c8264       ?state_case_type@?$output_processor@DV?$stream_output_adapter@D@__crt_stdio_output@@V?$standard_base@DV?$stream_output_adapter@D@__crt_stdio_output@@@2@@__crt_stdio_output@@AEAA_NXZ 00000001801c9264 f i libucrt:output.obj
 0001:001c869c       ?state_case_type@?$output_processor@DV?$string_output_adapter@D@__crt_stdio_output@@V?$format_validation_base@DV?$string_output_adapter@D@__crt_stdio_output@@@2@@__crt_stdio_output@@AEAA_NXZ 00000001801c969c f i libucrt:output.obj
 0001:001c869c       ?state_case_type@?$output_processor@DV?$string_output_adapter@D@__crt_stdio_output@@V?$standard_base@DV?$string_output_adapter@D@__crt_stdio_output@@@2@@__crt_stdio_output@@AEAA_NXZ 00000001801c969c f i libucrt:output.obj
 0001:001c8aa0       ?type_case_Z@?$output_processor@DV?$stream_output_adapter@D@__crt_stdio_output@@V?$standard_base@DV?$stream_output_adapter@D@__crt_stdio_output@@@2@@__crt_stdio_output@@AEAA_NXZ 00000001801c9aa0 f i libucrt:output.obj
 0001:001c8aa0       ?type_case_Z@?$output_processor@DV?$string_output_adapter@D@__crt_stdio_output@@V?$format_validation_base@DV?$string_output_adapter@D@__crt_stdio_output@@@2@@__crt_stdio_output@@AEAA_NXZ 00000001801c9aa0 f i libucrt:output.obj
 0001:001c8aa0       ?type_case_Z@?$output_processor@DV?$string_output_adapter@D@__crt_stdio_output@@V?$standard_base@DV?$string_output_adapter@D@__crt_stdio_output@@@2@@__crt_stdio_output@@AEAA_NXZ 00000001801c9aa0 f i libucrt:output.obj
 0001:001c8b1c       ?type_case_a@?$output_processor@DV?$stream_output_adapter@D@__crt_stdio_output@@V?$standard_base@DV?$stream_output_adapter@D@__crt_stdio_output@@@2@@__crt_stdio_output@@AEAA_NXZ 00000001801c9b1c f i libucrt:output.obj
 0001:001c8b1c       ?type_case_a@?$output_processor@DV?$string_output_adapter@D@__crt_stdio_output@@V?$format_validation_base@DV?$string_output_adapter@D@__crt_stdio_output@@@2@@__crt_stdio_output@@AEAA_NXZ 00000001801c9b1c f i libucrt:output.obj
 0001:001c8b1c       ?type_case_a@?$output_processor@DV?$string_output_adapter@D@__crt_stdio_output@@V?$standard_base@DV?$string_output_adapter@D@__crt_stdio_output@@@2@@__crt_stdio_output@@AEAA_NXZ 00000001801c9b1c f i libucrt:output.obj
 0001:001c8d70       ?type_case_c_tchar@?$output_processor@DV?$stream_output_adapter@D@__crt_stdio_output@@V?$standard_base@DV?$stream_output_adapter@D@__crt_stdio_output@@@2@@__crt_stdio_output@@AEAA_ND@Z 00000001801c9d70 f i libucrt:output.obj
 0001:001c8d70       ?type_case_c_tchar@?$output_processor@DV?$string_output_adapter@D@__crt_stdio_output@@V?$format_validation_base@DV?$string_output_adapter@D@__crt_stdio_output@@@2@@__crt_stdio_output@@AEAA_ND@Z 00000001801c9d70 f i libucrt:output.obj
 0001:001c8d70       ?type_case_c_tchar@?$output_processor@DV?$string_output_adapter@D@__crt_stdio_output@@V?$standard_base@DV?$string_output_adapter@D@__crt_stdio_output@@@2@@__crt_stdio_output@@AEAA_ND@Z 00000001801c9d70 f i libucrt:output.obj
 0001:001c8e44       ?type_case_n@?$output_processor@DV?$stream_output_adapter@D@__crt_stdio_output@@V?$standard_base@DV?$stream_output_adapter@D@__crt_stdio_output@@@2@@__crt_stdio_output@@AEAA_NXZ 00000001801c9e44 f i libucrt:output.obj
 0001:001c8e44       ?type_case_n@?$output_processor@DV?$string_output_adapter@D@__crt_stdio_output@@V?$format_validation_base@DV?$string_output_adapter@D@__crt_stdio_output@@@2@@__crt_stdio_output@@AEAA_NXZ 00000001801c9e44 f i libucrt:output.obj
 0001:001c8e44       ?type_case_n@?$output_processor@DV?$string_output_adapter@D@__crt_stdio_output@@V?$standard_base@DV?$string_output_adapter@D@__crt_stdio_output@@@2@@__crt_stdio_output@@AEAA_NXZ 00000001801c9e44 f i libucrt:output.obj
 0001:001c8efc       ?type_case_s@?$output_processor@DV?$stream_output_adapter@D@__crt_stdio_output@@V?$standard_base@DV?$stream_output_adapter@D@__crt_stdio_output@@@2@@__crt_stdio_output@@AEAA_NXZ 00000001801c9efc f i libucrt:output.obj
 0001:001c8efc       ?type_case_s@?$output_processor@DV?$string_output_adapter@D@__crt_stdio_output@@V?$format_validation_base@DV?$string_output_adapter@D@__crt_stdio_output@@@2@@__crt_stdio_output@@AEAA_NXZ 00000001801c9efc f i libucrt:output.obj
 0001:001c8efc       ?type_case_s@?$output_processor@DV?$string_output_adapter@D@__crt_stdio_output@@V?$standard_base@DV?$string_output_adapter@D@__crt_stdio_output@@@2@@__crt_stdio_output@@AEAA_NXZ 00000001801c9efc f i libucrt:output.obj
 0001:001c8fa0       ?update_locale_slow@__crt_cached_ptd_host@@AEAAXXZ 00000001801c9fa0 f i libucrt:output.obj
 0001:001c9018       ?validate_stream_is_ansi_if_required@?$__acrt_stdio_char_traits@D@@SA_NQEAU_iobuf@@@Z 00000001801ca018 f i libucrt:output.obj
 0001:001c90b4       ?write_string@?$string_output_adapter@D@__crt_stdio_output@@QEBAXQEBDHQEAHAEAV__crt_cached_ptd_host@@@Z 00000001801ca0b4 f i libucrt:output.obj
 0001:001c9158       ?write_string_impl@?$output_adapter_common@DV?$stream_output_adapter@D@__crt_stdio_output@@@__crt_stdio_output@@IEBAXQEBDHQEAHAEAV__crt_cached_ptd_host@@@Z 00000001801ca158 f i libucrt:output.obj
 0001:001c9224       __stdio_common_vfprintf    00000001801ca224 f   libucrt:output.obj
 0001:001c9348       __stdio_common_vsprintf    00000001801ca348 f   libucrt:output.obj
 0001:001c959c       __stdio_common_vsprintf_s  00000001801ca59c f   libucrt:output.obj
 0001:001c96b0       _fpclass                   00000001801ca6b0 f   libucrt:ieeemisc.obj
 0001:001c9740       powf                       00000001801ca740 f   libucrt:powf.obj
 0001:001ca608       atan2f                     00000001801cb608 f   libucrt:atan2f.obj
 0001:001caa00       acosf                      00000001801cba00 f   libucrt:acosf.obj
 0001:001cac2c       free                       00000001801cbc2c f   libucrt:free.obj
 0001:001cac40       _seh_filter_dll            00000001801cbc40 f   libucrt:exception_filter.obj
 0001:001cac54       _seh_filter_exe            00000001801cbc54 f   libucrt:exception_filter.obj
 0001:001cb06c       __acrt_initialize_thread_local_exit_callback 00000001801cc06c f   libucrt:exit.obj
 0001:001cb074       _cexit                     00000001801cc074 f   libucrt:exit.obj
 0001:001cb084       _exit                      00000001801cc084 f   libucrt:exit.obj
 0001:001cb090       _is_c_termination_complete 00000001801cc090 f   libucrt:exit.obj
 0001:001cb260       __acrt_allocate_buffer_for_argv 00000001801cc260 f   libucrt:argv_parsing.obj
 0001:001cb2c0       _configure_narrow_argv     00000001801cc2c0 f   libucrt:argv_parsing.obj
 0001:001cb648       __dcrt_uninitialize_environments_nolock 00000001801cc648 f   libucrt:environment_initialization.obj
 0001:001cb68c       _initialize_narrow_environment 00000001801cc68c f   libucrt:environment_initialization.obj
 0001:001cb9dc       _crt_atexit                00000001801cc9dc f   libucrt:onexit.obj
 0001:001cb9ec       _execute_onexit_table      00000001801cc9ec f   libucrt:onexit.obj
 0001:001cba30       _initialize_onexit_table   00000001801cca30 f   libucrt:onexit.obj
 0001:001cba58       _register_onexit_function  00000001801cca58 f   libucrt:onexit.obj
 0001:001cbad8       __acrt_uninitialize_command_line 00000001801ccad8 f   libucrt:argv_data.obj
 0001:001cbbd0       __acrt_initialize          00000001801ccbd0 f   libucrt:initialization.obj
 0001:001cbbe4       __acrt_thread_attach       00000001801ccbe4 f   libucrt:initialization.obj
 0001:001cbbf8       __acrt_thread_detach       00000001801ccbf8 f   libucrt:initialization.obj
 0001:001cbc08       __acrt_uninitialize        00000001801ccc08 f   libucrt:initialization.obj
 0001:001cbc40       __acrt_uninitialize_critical 00000001801ccc40 f   libucrt:initialization.obj
 0001:001cbc50       _initterm                  00000001801ccc50 f   libucrt:initterm.obj
 0001:001cbc94       _initterm_e                00000001801ccc94 f   libucrt:initterm.obj
 0001:001cbcdc       terminate                  00000001801cccdc f   libucrt:terminate.obj
 0001:001cbd08       abort                      00000001801ccd08 f   libucrt:abort.obj
 0001:001cbd60       malloc                     00000001801ccd60 f   libucrt:malloc.obj
 0001:001cbd68       strcpy_s                   00000001801ccd68 f   libucrt:strcpy_s.obj
 0001:001cbdc8       ??$parse_integer@KV?$c_string_character_source@D@__crt_strtox@@$00@__crt_strtox@@YAKAEAV__crt_cached_ptd_host@@V?$c_string_character_source@D@0@H_N@Z 00000001801ccdc8 f i libucrt:atox.obj
 0001:001cc0b8       _ischartype_l              00000001801cd0b8 f i libucrt:atox.obj
 0001:001cc130       atol                       00000001801cd130 f   libucrt:atox.obj
 0001:001cc1f0       strncmp                    00000001801cd1f0 f   libucrt:strncmp.obj
 0001:001cc270       calloc                     00000001801cd270 f   libucrt:calloc.obj
 0001:001cc278       wcsncmp                    00000001801cd278 f   libucrt:wcsncmp.obj
 0001:001cc2b0       __remainder_piby2d2f_forAsm 00000001801cd2b0 f   libucrt:remainder_piby2f_forasm.obj
 0001:001cc400       __remainder_piby2_fma3     00000001801cd400 f   libucrt:remainder_piby2_forfma3.obj
 0001:001cc5f0       __remainder_piby2_fma3_bdl 00000001801cd5f0 f   libucrt:remainder_piby2_forfma3.obj
 0001:001cc668       _cosf_special              00000001801cd668 f   libucrt:sincos_special.obj
 0001:001cc708       _sinf_special              00000001801cd708 f   libucrt:sincos_special.obj
 0001:001cc71c       _tanf_special              00000001801cd71c f   libucrt:sincos_special.obj
 0001:001cc730       _clrfp                     00000001801cd730 f   libucrt:fpctrl.obj
 0001:001cc750       _ctrlfp                    00000001801cd750 f   libucrt:fpctrl.obj
 0001:001cc7cc       _set_statfp                00000001801cd7cc f   libucrt:fpctrl.obj
 0001:001cc7ec       _statfp                    00000001801cd7ec f   libucrt:fpctrl.obj
 0001:001cc800       __acrt_initialize_fma3     00000001801cd800 f   libucrt:fma3_available.obj
 0001:001cc870       __remainder_piby2d2f_forC  00000001801cd870 f   libucrt:remainder_piby2f_forc.obj
 0001:001cc9fc       ?get_raw_ptd_noexit@__crt_cached_ptd_host@@QEAAPEAU__acrt_ptd@@XZ 00000001801cd9fc f i libucrt:invalid_parameter.obj
 0001:001cca68       ?value@?$dual_state_global@P6AXPEB_W00I_K@Z@__crt_state_management@@QEAAAEAP6AXPEB_W00I_K@ZAEAV__crt_cached_ptd_host@@@Z 00000001801cda68 f i libucrt:invalid_parameter.obj
 0001:001ccab4       __acrt_call_reportfault    00000001801cdab4 f   libucrt:invalid_parameter.obj
 0001:001ccc10       __acrt_initialize_invalid_parameter_handler 00000001801cdc10 f   libucrt:invalid_parameter.obj
 0001:001ccc18       _invalid_parameter         00000001801cdc18 f   libucrt:invalid_parameter.obj
 0001:001cccb4       _invalid_parameter_internal 00000001801cdcb4 f   libucrt:invalid_parameter.obj
 0001:001ccd80       _invalid_parameter_noinfo  00000001801cdd80 f   libucrt:invalid_parameter.obj
 0001:001ccda0       _invoke_watson             00000001801cdda0 f   libucrt:invalid_parameter.obj
 0001:001ccde8       __acrt_errno_from_os_error 00000001801cdde8 f   libucrt:errno.obj
 0001:001cce30       __acrt_errno_map_os_error  00000001801cde30 f   libucrt:errno.obj
 0001:001cce78       __acrt_errno_map_os_error_ptd 00000001801cde78 f   libucrt:errno.obj
 0001:001cce9c       __doserrno                 00000001801cde9c f   libucrt:errno.obj
 0001:001ccebc       _errno                     00000001801cdebc f   libucrt:errno.obj
 0001:001ccedc       _calloc_base               00000001801cdedc f   libucrt:calloc_base.obj
 0001:001ccf54       _free_base                 00000001801cdf54 f   libucrt:free_base.obj
 0001:001cd14c       __acrt_AppPolicyGetProcessTerminationMethodInternal 00000001801ce14c f   libucrt:winapi_thunks.obj
 0001:001cd1a4       __acrt_AreFileApisANSI     00000001801ce1a4 f   libucrt:winapi_thunks.obj
 0001:001cd1e8       __acrt_FlsAlloc            00000001801ce1e8 f   libucrt:winapi_thunks.obj
 0001:001cd1f0       __acrt_FlsFree             00000001801ce1f0 f   libucrt:winapi_thunks.obj
 0001:001cd1f8       __acrt_FlsGetValue         00000001801ce1f8 f   libucrt:winapi_thunks.obj
 0001:001cd200       __acrt_FlsSetValue         00000001801ce200 f   libucrt:winapi_thunks.obj
 0001:001cd208       __acrt_InitializeCriticalSectionEx 00000001801ce208 f   libucrt:winapi_thunks.obj
 0001:001cd278       __acrt_LCMapStringEx       00000001801ce278 f   libucrt:winapi_thunks.obj
 0001:001cd364       __acrt_LocaleNameToLCID    00000001801ce364 f   libucrt:winapi_thunks.obj
 0001:001cd3c4       __acrt_initialize_winapi_thunks 00000001801ce3c4 f   libucrt:winapi_thunks.obj
 0001:001cd3e8       __acrt_uninitialize_winapi_thunks 00000001801ce3e8 f   libucrt:winapi_thunks.obj
 0001:001cd42c       _fcloseall                 00000001801ce42c f   libucrt:closeall.obj
 0001:001cd6c0       __acrt_stdio_flush_nolock  00000001801ce6c0 f   libucrt:fflush.obj
 0001:001cd74c       _fflush_nolock             00000001801ce74c f   libucrt:fflush.obj
 0001:001cd820       _flushall                  00000001801ce820 f   libucrt:fflush.obj
 0001:001cd828       __acrt_stdio_free_buffer_nolock 00000001801ce828 f   libucrt:_freebuf.obj
 0001:001cda64       __acrt_initialize_lowio    00000001801cea64 f   libucrt:ioinit.obj
 0001:001cdaa0       __acrt_uninitialize_lowio  00000001801ceaa0 f   libucrt:ioinit.obj
 0001:001cdae0       _malloc_base               00000001801ceae0 f   libucrt:malloc_base.obj
 0001:001cdb40       strnlen                    00000001801ceb40 f   libucrt:strnlen.obj
 0001:001cdc90       wcsnlen                    00000001801cec90 f   libucrt:strnlen.obj
 0001:001cde68       __acrt_update_locale_info  00000001801cee68 f   libucrt:locale_update.obj
 0001:001cde9c       __acrt_update_locale_info_explicit 00000001801cee9c f   libucrt:locale_update.obj
 0001:001cded4       __acrt_update_multibyte_info 00000001801ceed4 f   libucrt:locale_update.obj
 0001:001cdf08       __acrt_update_multibyte_info_explicit 00000001801cef08 f   libucrt:locale_update.obj
 0001:001cea54       __acrt_fp_format           00000001801cfa54 f   libucrt:cvt.obj
 0001:001ced3c       _wctomb_internal           00000001801cfd3c f   libucrt:wctomb.obj
 0001:001ceeec       _mbtowc_internal           00000001801cfeec f   libucrt:mbtowc.obj
 0001:001cf064       _fileno                    00000001801d0064 f   libucrt:fileno.obj
 0001:001cf08c       _get_printf_count_output   00000001801d008c f   libucrt:printf_count_output.obj
 0001:001cf0a4       _fputc_nolock_internal     00000001801d00a4 f   libucrt:fputc.obj
 0001:001cf0bc       __acrt_should_use_temporary_buffer 00000001801d00bc f   libucrt:_sftbuf.obj
 0001:001cf108       __acrt_stdio_begin_temporary_buffering_nolock 00000001801d0108 f   libucrt:_sftbuf.obj
 0001:001cf1d0       __acrt_stdio_end_temporary_buffering_nolock 00000001801d01d0 f   libucrt:_sftbuf.obj
 0001:001cf588       __acrt_freeptd             00000001801d0588 f   libucrt:per_thread_data.obj
 0001:001cf5cc       __acrt_getptd              00000001801d05cc f   libucrt:per_thread_data.obj
 0001:001cf6a0       __acrt_getptd_head         00000001801d06a0 f   libucrt:per_thread_data.obj
 0001:001cf744       __acrt_getptd_noexit       00000001801d0744 f   libucrt:per_thread_data.obj
 0001:001cf80c       __acrt_getptd_noexit_explicit 00000001801d080c f   libucrt:per_thread_data.obj
 0001:001cf8cc       __acrt_initialize_ptd      00000001801d08cc f   libucrt:per_thread_data.obj
 0001:001cf908       __acrt_uninitialize_ptd    00000001801d0908 f   libucrt:per_thread_data.obj
 0001:001cf99c       __acrt_set_locale_changed  00000001801d099c f   libucrt:wsetlocale.obj
 0001:001cf9a8       __acrt_uninitialize_locale 00000001801d09a8 f   libucrt:wsetlocale.obj
 0001:001cfafc       _handle_error              00000001801d0afc f   libucrt:libm_error.obj
 0001:001cfc24       _handle_errorf             00000001801d0c24 f   libucrt:libm_error.obj
 0001:001cfd58       _handle_nan                00000001801d0d58 f   libucrt:libm_error.obj
 0001:001cfd74       _handle_nanf               00000001801d0d74 f   libucrt:libm_error.obj
 0001:001cfd90       _powf_special              00000001801d0d90 f   libucrt:pow_special.obj
 0001:001cff00       __acrt_initialize_locks    00000001801d0f00 f   libucrt:locks.obj
 0001:001cff48       __acrt_lock                00000001801d0f48 f   libucrt:locks.obj
 0001:001cff64       __acrt_uninitialize_locks  00000001801d0f64 f   libucrt:locks.obj
 0001:001cff9c       __acrt_unlock              00000001801d0f9c f   libucrt:locks.obj
 0001:001cffb8       __acrt_app_verifier_enabled 00000001801d0fb8 f   libucrt:peb_access.obj
 0001:001cffd4       __acrt_is_secure_process   00000001801d0fd4 f   libucrt:peb_access.obj
 0001:001cffec       __acrt_get_process_end_policy 00000001801d0fec f   libucrt:win_policies.obj
 0001:001d0030       ??$__acrt_convert_wcs_mbs_cp@D_WV<lambda_7c9dea7b4ca7285d2cdb541a38da6275>@@U__crt_win32_buffer_internal_dynamic_resizing@@@@YAHQEBDAEAV?$__crt_win32_buffer@_WU__crt_win32_buffer_internal_dynamic_resizing@@@@AEBV<lambda_7c9dea7b4ca7285d2cdb541a38da6275>@@I@Z 00000001801d1030 f i libucrt:argv_wildcards.obj
 0001:001d01ac       ??$__acrt_convert_wcs_mbs_cp@_WDV<lambda_d8593a27d1aa8c02be35c86a17d324c4>@@U__crt_win32_buffer_internal_dynamic_resizing@@@@YAHQEB_WAEAV?$__crt_win32_buffer@DU__crt_win32_buffer_internal_dynamic_resizing@@@@AEBV<lambda_d8593a27d1aa8c02be35c86a17d324c4>@@I@Z 00000001801d11ac f i libucrt:argv_wildcards.obj
 0001:001d0a50       ??0_LocaleUpdate@@QEAA@QEAU__crt_locale_pointers@@@Z 00000001801d1a50 f i libucrt:argv_wildcards.obj
 0001:001d0aec       __acrt_expand_narrow_argv_wildcards 00000001801d1aec f   libucrt:argv_wildcards.obj
 0001:001d0af4       ??$__acrt_convert_wcs_mbs_cp@_WDV<lambda_f788ae46380686e8b737efdd8c720d07>@@U__crt_win32_buffer_no_resizing@@@@YAHQEB_WAEAV?$__crt_win32_buffer@DU__crt_win32_buffer_no_resizing@@@@AEBV<lambda_f788ae46380686e8b737efdd8c720d07>@@I@Z 00000001801d1af4 f i libucrt:getmodulefilenamea.obj
 0001:001d0c10       __acrt_GetModuleFileNameA  00000001801d1c10 f   libucrt:getmodulefilenamea.obj
 0001:001d152c       __acrt_initialize_multibyte 00000001801d252c f   libucrt:mbctype.obj
 0001:001d158c       __acrt_update_thread_multibyte_data 00000001801d258c f   libucrt:mbctype.obj
 0001:001d15a8       _setmbcp_nolock            00000001801d25a8 f   libucrt:mbctype.obj
 0001:001d18dc       _ismbblead                 00000001801d28dc f   libucrt:ismbbyte.obj
 0001:001d18f0       __acrt_initialize_command_line 00000001801d28f0 f   libucrt:argv_data.obj
 0001:001d1918       __acrt_MultiByteToWideChar 00000001801d2918 f   libucrt:multibytetowidechar.obj
 0001:001d19a8       __acrt_WideCharToMultiByte 00000001801d29a8 f   libucrt:widechartomultibyte.obj
 0001:001d1a88       __dcrt_get_narrow_environment_from_os 00000001801d2a88 f   libucrt:get_environment_from_os.obj
 0001:001d1b98       _recalloc_base             00000001801d2b98 f   libucrt:recalloc.obj
 0001:001d1c30       __acrt_initialize_heap     00000001801d2c30 f   libucrt:heap_handle.obj
 0001:001d1c4c       __acrt_uninitialize_heap   00000001801d2c4c f   libucrt:heap_handle.obj
 0001:001d1c58       __acrt_execute_initializers 00000001801d2c58 f   libucrt:shared_initialization.obj
 0001:001d1cec       __acrt_execute_uninitializers 00000001801d2cec f   libucrt:shared_initialization.obj
 0001:001d1d34       __acrt_initialize_new_handler 00000001801d2d34 f   libucrt:new_handler.obj
 0001:001d1d3c       _callnewh                  00000001801d2d3c f   libucrt:new_handler.obj
 0001:001d1d7c       _query_new_handler         00000001801d2d7c f   libucrt:new_handler.obj
 0001:001d1dfc       __acrt_get_sigabrt_handler 00000001801d2dfc f   libucrt:signal.obj
 0001:001d1e2c       __acrt_initialize_signal_handlers 00000001801d2e2c f   libucrt:signal.obj
 0001:001d1e4c       raise                      00000001801d2e4c f   libucrt:signal.obj
 0001:001d20c8       __acrt_has_user_matherr    00000001801d30c8 f   libucrt:matherr.obj
 0001:001d20e8       __acrt_initialize_user_matherr 00000001801d30e8 f   libucrt:matherr.obj
 0001:001d20f0       __acrt_invoke_user_matherr 00000001801d30f0 f   libucrt:matherr.obj
 0001:001d212c       __pctype_func              00000001801d312c f   libucrt:ctype.obj
 0001:001d215c       _isctype_l                 00000001801d315c f   libucrt:isctype.obj
 0001:001d2280       _get_fpsr                  00000001801d3280 f   libucrt:fpsr.obj
 0001:001d2290       _set_fpsr                  00000001801d3290 f   libucrt:fpsr.obj
 0001:001d229a       _fclrf                     00000001801d329a f   libucrt:fpsr.obj
 0001:001d22ae       _frnd                      00000001801d32ae f   libucrt:fpsr.obj
 0001:001d22d0       _query_new_mode            00000001801d32d0 f   libucrt:new_mode.obj
 0001:001d22d8       __acrt_DownlevelLocaleNameToLCID 00000001801d32d8 f   libucrt:lcidtoname_downlevel.obj
 0001:001d24a0       fclose                     00000001801d34a0 f   libucrt:fclose.obj
 0001:001d25c4       _commit                    00000001801d35c4 f   libucrt:commit.obj
 0001:001d2e60       _write_internal            00000001801d3e60 f   libucrt:write.obj
 0001:001d2f80       _write_nolock              00000001801d3f80 f   libucrt:write.obj
 0001:001d3288       __acrt_lowio_create_handle_array 00000001801d4288 f   libucrt:osfinfo.obj
 0001:001d3330       __acrt_lowio_destroy_handle_array 00000001801d4330 f   libucrt:osfinfo.obj
 0001:001d3380       __acrt_lowio_ensure_fh_exists 00000001801d4380 f   libucrt:osfinfo.obj
 0001:001d3428       __acrt_lowio_lock_fh       00000001801d4428 f   libucrt:osfinfo.obj
 0001:001d3450       __acrt_lowio_unlock_fh     00000001801d4450 f   libucrt:osfinfo.obj
 0001:001d3478       _free_osfhnd               00000001801d4478 f   libucrt:osfinfo.obj
 0001:001d3534       _get_osfhandle             00000001801d4534 f   libucrt:osfinfo.obj
 0001:001d35ac       __acrt_add_locale_ref      00000001801d45ac f   libucrt:locale_refcounting.obj
 0001:001d3638       __acrt_free_locale         00000001801d4638 f   libucrt:locale_refcounting.obj
 0001:001d37b0       __acrt_locale_add_lc_time_reference 00000001801d47b0 f   libucrt:locale_refcounting.obj
 0001:001d37d8       __acrt_locale_free_lc_time_if_unreferenced 00000001801d47d8 f   libucrt:locale_refcounting.obj
 0001:001d3810       __acrt_locale_release_lc_time_reference 00000001801d4810 f   libucrt:locale_refcounting.obj
 0001:001d3838       __acrt_release_locale_ref  00000001801d4838 f   libucrt:locale_refcounting.obj
 0001:001d38e0       __acrt_update_thread_locale_data 00000001801d48e0 f   libucrt:locale_refcounting.obj
 0001:001d3950       _updatetlocinfoEx_nolock   00000001801d4950 f   libucrt:locale_refcounting.obj
 0001:001d3a88       __acrt_fp_strflt_to_string 00000001801d4a88 f   libucrt:_fptostr.obj
 0001:001d3ba0       ?divide@__crt_strtox@@YA_KAEAUbig_integer@1@AEBU21@@Z 00000001801d4ba0 f i libucrt:cfout.obj
 0001:001d403c       __acrt_fltout              00000001801d503c f   libucrt:cfout.obj
 0001:001d5354       fegetround                 00000001801d6354 f   libucrt:fegetround.obj
 0001:001d5368       ?__c32rtomb_utf8@__crt_mbstring@@YA_KPEAD_UPEAU_Mbstatet@@AEAV__crt_cached_ptd_host@@@Z 00000001801d6368 f   libucrt:c32rtomb.obj
 0001:001d540c       ?__mbrtowc_utf8@__crt_mbstring@@YA_KPEA_WPEBD_KPEAU_Mbstatet@@AEAV__crt_cached_ptd_host@@@Z 00000001801d640c f   libucrt:mbrtowc.obj
 0001:001d5450       ?__mbsrtowcs_utf8@__crt_mbstring@@YA_KPEA_WPEAPEBD_KPEAU_Mbstatet@@AEAV__crt_cached_ptd_host@@@Z 00000001801d6450 f   libucrt:mbrtowc.obj
 0001:001d5768       __acrt_stdio_flush_and_write_narrow_nolock 00000001801d6768 f   libucrt:_flsbuf.obj
 0001:001d5834       _isatty                    00000001801d6834 f   libucrt:isatty.obj
 0001:001d5894       __acrt_locale_free_monetary 00000001801d6894 f   libucrt:initmon.obj
 0001:001d59a0       __acrt_locale_free_numeric 00000001801d69a0 f   libucrt:initnum.obj
 0001:001d5a40       __acrt_locale_free_time    00000001801d6a40 f   libucrt:inittime.obj
 0001:001d5b48       __acrt_GetStringTypeA      00000001801d6b48 f   libucrt:getstringtypea.obj
 0001:001d5cd8       _raise_exc                 00000001801d6cd8 f   libucrt:fpexcept.obj
 0001:001d5d00       _raise_exc_ex              00000001801d6d00 f   libucrt:fpexcept.obj
 0001:001d6008       _raise_excf                00000001801d7008 f   libucrt:fpexcept.obj
 0001:001d6034       _set_errno_from_matherr    00000001801d7034 f   libucrt:fpexcept.obj
 0001:001d6070       qsort                      00000001801d7070 f   libucrt:qsort.obj
 0001:001d6480       strncpy_s                  00000001801d7480 f   libucrt:strncpy_s.obj
 0001:001d6610       strpbrk                    00000001801d7610 f   libucrt:strpbrk.obj
 0001:001d69d8       _mbsdec                    00000001801d79d8 f   libucrt:mbsdec.obj
 0001:001d69e0       _mbsdec_l                  00000001801d79e0 f   libucrt:mbsdec.obj
 0001:001d6da8       __acrt_LCMapStringA        00000001801d7da8 f   libucrt:lcmapstringa.obj
 0001:001d6e58       _msize_base                00000001801d7e58 f   libucrt:msize.obj
 0001:001d6e94       _realloc_base              00000001801d7e94 f   libucrt:realloc_base.obj
 0001:001d6f10       __ascii_wcsnicmp           00000001801d7f10 f   libucrt:wcsnicmp.obj
 0001:001d6fd4       _close_internal            00000001801d7fd4 f   libucrt:close.obj
 0001:001d7098       _close_nolock_internal     00000001801d8098 f   libucrt:close.obj
 0001:001d7168       ?__acrt_stdio_free_stream@@YAXV__crt_stdio_stream@@@Z 00000001801d8168 f   libucrt:stream.obj
 0001:001d7350       _lseeki64                  00000001801d8350 f   libucrt:lseek.obj
 0001:001d73ec       _lseeki64_nolock_internal  00000001801d83ec f   libucrt:lseek.obj
 0001:001d73f4       _putwch_nolock             00000001801d83f4 f   libucrt:putwch.obj
 0001:001d7430       _query_app_type            00000001801d8430 f   libucrt:report_runtime_error.obj
 0001:001d7438       _controlfp_s               00000001801d8438 f   libucrt:contrlfp.obj
 0001:001d749c       fegetenv                   00000001801d849c f   libucrt:fegetenv.obj
 0001:001d74bc       fesetenv                   00000001801d84bc f   libucrt:fesetenv.obj
 0001:001d7514       feholdexcept               00000001801d8514 f   libucrt:feholdexcept.obj
 0001:001d7564       ceil                       00000001801d8564 f   libucrt:ceil.obj
 0001:001d7630       log10                      00000001801d8630 f   libucrt:log10.obj
 0001:001d7bdc       __acrt_fenv_get_common_round_control 00000001801d8bdc f   libucrt:_fenvutils.obj
 0001:001d7be8       __acrt_fenv_get_control    00000001801d8be8 f   libucrt:_fenvutils.obj
 0001:001d7ccc       __acrt_fenv_get_status     00000001801d8ccc f   libucrt:_fenvutils.obj
 0001:001d7d24       __acrt_fenv_set_control    00000001801d8d24 f   libucrt:_fenvutils.obj
 0001:001d7e5c       __acrt_fenv_set_status     00000001801d8e5c f   libucrt:_fenvutils.obj
 0001:001d7ed0       ?reset_and_return@__crt_mbstring@@YA_K_KPEAU_Mbstatet@@@Z 00000001801d8ed0 f   libucrt:common_utf8.obj
 0001:001d7ed8       ?return_illegal_sequence@__crt_mbstring@@YA_KPEAU_Mbstatet@@AEAV__crt_cached_ptd_host@@@Z 00000001801d8ed8 f   libucrt:common_utf8.obj
 0001:001d7eec       ?__mbrtoc32_utf8@__crt_mbstring@@YA_KPEA_UPEBD_KPEAU_Mbstatet@@AEAV__crt_cached_ptd_host@@@Z 00000001801d8eec f   libucrt:mbrtoc32.obj
 0001:001d80c8       __acrt_stdio_allocate_buffer_nolock 00000001801d90c8 f   libucrt:_getbuf.obj
 0001:001d8134       __strncnt                  00000001801d9134 f   libucrt:strncnt.obj
 0001:001d814c       __dcrt_lowio_ensure_console_output_initialized 00000001801d914c f   libucrt:initcon.obj
 0001:001d81a0       __dcrt_terminate_console_output 00000001801d91a0 f   libucrt:initcon.obj
 0001:001d81bc       __dcrt_write_console       00000001801d91bc f   libucrt:initcon.obj
 0001:001d827c       _clearfp                   00000001801d927c f   libucrt:ieee.obj
 0001:001d82e8       _control87                 00000001801d92e8 f   libucrt:ieee.obj
 0001:001d8590       _log10_special             00000001801d9590 f   libucrt:log_special.obj
 0001:001d8650       _FindPESection             00000001801d9650 f   LIBCMT:pesect.obj
 0001:001d86a0       _IsNonwritableInCurrentImage 00000001801d96a0 f   LIBCMT:pesect.obj
 0001:001d86f0       _ValidateImageBase         00000001801d96f0 f   LIBCMT:pesect.obj
 0001:001d871c       __GSHandlerCheck           00000001801d971c f   LIBCMT:gshandler.obj
 0001:001d873c       __GSHandlerCheckCommon     00000001801d973c f   LIBCMT:gshandler.obj
 0001:001d87b0       __security_check_cookie    00000001801d97b0 f   LIBCMT:amdsecgs.obj
 0001:001d87d0       __GSHandlerCheck_SEH       00000001801d97d0 f   LIBCMT:gshandlerseh.obj
 0001:001d8858       __raise_securityfailure    00000001801d9858 f   LIBCMT:gs_report.obj
 0001:001d888c       __report_gsfailure         00000001801d988c f   LIBCMT:gs_report.obj
 0001:001d8960       __report_rangecheckfailure 00000001801d9960 f   LIBCMT:gs_report.obj
 0001:001d8974       __report_securityfailure   00000001801d9974 f   LIBCMT:gs_report.obj
 0001:001d8af4       __GSHandlerCheck_EH        00000001801d9af4 f   LIBCMT:gshandlereh.obj
 0001:001d8b74       __C_specific_handler_noexcept 00000001801d9b74 f   libvcruntime:chandler_noexcept.obj
 0001:001d8bc0       strrchr                    00000001801d9bc0 f   libvcruntime:strrchr.obj
 0001:001d8d10       memcmp                     00000001801d9d10 f   libvcruntime:memcmp.obj
 0001:001d8df0       _guard_dispatch_icall_nop  00000001801d9df0 f   LIBCMT:guard_dispatch.obj
 0001:001d8e10       _guard_xfg_dispatch_icall_nop 00000001801d9e10 f   LIBCMT:guard_xfg_dispatch.obj
 0002:00000000       __imp_GetLastError         00000001801db000     kernel32:KERNEL32.dll
 0002:00000008       __imp_FreeLibrary          00000001801db008     kernel32:KERNEL32.dll
 0002:00000010       __imp_GetProcAddress       00000001801db010     kernel32:KERNEL32.dll
 0002:00000018       __imp_LoadLibraryA         00000001801db018     kernel32:KERNEL32.dll
 0002:00000020       __imp_RaiseException       00000001801db020     kernel32:KERNEL32.dll
 0002:00000028       __imp_GetSystemInfo        00000001801db028     kernel32:KERNEL32.dll
 0002:00000030       __imp_VirtualProtect       00000001801db030     kernel32:KERNEL32.dll
 0002:00000038       __imp_VirtualQuery         00000001801db038     kernel32:KERNEL32.dll
 0002:00000040       __imp_GetModuleHandleW     00000001801db040     kernel32:KERNEL32.dll
 0002:00000048       __imp_LoadLibraryExA       00000001801db048     kernel32:KERNEL32.dll
 0002:00000050       __imp_InitializeSListHead  00000001801db050     kernel32:KERNEL32.dll
 0002:00000058       __imp_RtlCaptureContext    00000001801db058     kernel32:KERNEL32.dll
 0002:00000060       __imp_RtlLookupFunctionEntry 00000001801db060     kernel32:KERNEL32.dll
 0002:00000068       __imp_RtlVirtualUnwind     00000001801db068     kernel32:KERNEL32.dll
 0002:00000070       __imp_IsDebuggerPresent    00000001801db070     kernel32:KERNEL32.dll
 0002:00000078       __imp_UnhandledExceptionFilter 00000001801db078     kernel32:KERNEL32.dll
 0002:00000080       __imp_SetUnhandledExceptionFilter 00000001801db080     kernel32:KERNEL32.dll
 0002:00000088       __imp_GetStartupInfoW      00000001801db088     kernel32:KERNEL32.dll
 0002:00000090       __imp_IsProcessorFeaturePresent 00000001801db090     kernel32:KERNEL32.dll
 0002:00000098       __imp_QueryPerformanceCounter 00000001801db098     kernel32:KERNEL32.dll
 0002:000000a0       __imp_GetCurrentProcessId  00000001801db0a0     kernel32:KERNEL32.dll
 0002:000000a8       __imp_GetCurrentThreadId   00000001801db0a8     kernel32:KERNEL32.dll
 0002:000000b0       __imp_GetSystemTimeAsFileTime 00000001801db0b0     kernel32:KERNEL32.dll
 0002:000000b8       __imp_InterlockedPushEntrySList 00000001801db0b8     kernel32:KERNEL32.dll
 0002:000000c0       __imp_InterlockedFlushSList 00000001801db0c0     kernel32:KERNEL32.dll
 0002:000000c8       __imp_RtlUnwindEx          00000001801db0c8     kernel32:KERNEL32.dll
 0002:000000d0       __imp_SetLastError         00000001801db0d0     kernel32:KERNEL32.dll
 0002:000000d8       __imp_EnterCriticalSection 00000001801db0d8     kernel32:KERNEL32.dll
 0002:000000e0       __imp_LeaveCriticalSection 00000001801db0e0     kernel32:KERNEL32.dll
 0002:000000e8       __imp_DeleteCriticalSection 00000001801db0e8     kernel32:KERNEL32.dll
 0002:000000f0       __imp_InitializeCriticalSectionAndSpinCount 00000001801db0f0     kernel32:KERNEL32.dll
 0002:000000f8       __imp_TlsAlloc             00000001801db0f8     kernel32:KERNEL32.dll
 0002:00000100       __imp_TlsGetValue          00000001801db100     kernel32:KERNEL32.dll
 0002:00000108       __imp_TlsSetValue          00000001801db108     kernel32:KERNEL32.dll
 0002:00000110       __imp_TlsFree              00000001801db110     kernel32:KERNEL32.dll
 0002:00000118       __imp_LoadLibraryExW       00000001801db118     kernel32:KERNEL32.dll
 0002:00000120       __imp_EncodePointer        00000001801db120     kernel32:KERNEL32.dll
 0002:00000128       __imp_RtlPcToFileHeader    00000001801db128     kernel32:KERNEL32.dll
 0002:00000130       __imp_GetCurrentProcess    00000001801db130     kernel32:KERNEL32.dll
 0002:00000138       __imp_ExitProcess          00000001801db138     kernel32:KERNEL32.dll
 0002:00000140       __imp_TerminateProcess     00000001801db140     kernel32:KERNEL32.dll
 0002:00000148       __imp_GetModuleHandleExW   00000001801db148     kernel32:KERNEL32.dll
 0002:00000150       __imp_GetModuleFileNameW   00000001801db150     kernel32:KERNEL32.dll
 0002:00000158       __imp_HeapAlloc            00000001801db158     kernel32:KERNEL32.dll
 0002:00000160       __imp_HeapFree             00000001801db160     kernel32:KERNEL32.dll
 0002:00000168       __imp_FlsAlloc             00000001801db168     kernel32:KERNEL32.dll
 0002:00000170       __imp_FlsGetValue          00000001801db170     kernel32:KERNEL32.dll
 0002:00000178       __imp_FlsSetValue          00000001801db178     kernel32:KERNEL32.dll
 0002:00000180       __imp_FlsFree              00000001801db180     kernel32:KERNEL32.dll
 0002:00000188       __imp_LCMapStringW         00000001801db188     kernel32:KERNEL32.dll
 0002:00000190       __imp_GetStdHandle         00000001801db190     kernel32:KERNEL32.dll
 0002:00000198       __imp_GetFileType          00000001801db198     kernel32:KERNEL32.dll
 0002:000001a0       __imp_FindClose            00000001801db1a0     kernel32:KERNEL32.dll
 0002:000001a8       __imp_FindFirstFileExW     00000001801db1a8     kernel32:KERNEL32.dll
 0002:000001b0       __imp_FindNextFileW        00000001801db1b0     kernel32:KERNEL32.dll
 0002:000001b8       __imp_IsValidCodePage      00000001801db1b8     kernel32:KERNEL32.dll
 0002:000001c0       __imp_GetACP               00000001801db1c0     kernel32:KERNEL32.dll
 0002:000001c8       __imp_GetOEMCP             00000001801db1c8     kernel32:KERNEL32.dll
 0002:000001d0       __imp_GetCPInfo            00000001801db1d0     kernel32:KERNEL32.dll
 0002:000001d8       __imp_GetCommandLineA      00000001801db1d8     kernel32:KERNEL32.dll
 0002:000001e0       __imp_GetCommandLineW      00000001801db1e0     kernel32:KERNEL32.dll
 0002:000001e8       __imp_MultiByteToWideChar  00000001801db1e8     kernel32:KERNEL32.dll
 0002:000001f0       __imp_WideCharToMultiByte  00000001801db1f0     kernel32:KERNEL32.dll
 0002:000001f8       __imp_GetEnvironmentStringsW 00000001801db1f8     kernel32:KERNEL32.dll
 0002:00000200       __imp_FreeEnvironmentStringsW 00000001801db200     kernel32:KERNEL32.dll
 0002:00000208       __imp_GetProcessHeap       00000001801db208     kernel32:KERNEL32.dll
 0002:00000210       __imp_FlushFileBuffers     00000001801db210     kernel32:KERNEL32.dll
 0002:00000218       __imp_WriteFile            00000001801db218     kernel32:KERNEL32.dll
 0002:00000220       __imp_GetConsoleOutputCP   00000001801db220     kernel32:KERNEL32.dll
 0002:00000228       __imp_GetConsoleMode       00000001801db228     kernel32:KERNEL32.dll
 0002:00000230       __imp_SetStdHandle         00000001801db230     kernel32:KERNEL32.dll
 0002:00000238       __imp_GetFileSizeEx        00000001801db238     kernel32:KERNEL32.dll
 0002:00000240       __imp_SetFilePointerEx     00000001801db240     kernel32:KERNEL32.dll
 0002:00000248       __imp_GetStringTypeW       00000001801db248     kernel32:KERNEL32.dll
 0002:00000250       __imp_HeapSize             00000001801db250     kernel32:KERNEL32.dll
 0002:00000258       __imp_HeapReAlloc          00000001801db258     kernel32:KERNEL32.dll
 0002:00000260       __imp_CloseHandle          00000001801db260     kernel32:KERNEL32.dll
 0002:00000268       __imp_CreateFileW          00000001801db268     kernel32:KERNEL32.dll
 0002:00000270       __imp_WriteConsoleW        00000001801db270     kernel32:KERNEL32.dll
 0002:00000278       \177KERNEL32_NULL_THUNK_DATA 00000001801db278     kernel32:KERNEL32.dll
 0002:00000280       __guard_check_icall_fptr   00000001801db280     LIBCMT:guard_support.obj
 0002:00000288       __guard_xfg_check_icall_fptr 00000001801db288     LIBCMT:guard_support.obj
 0002:00000290       __guard_dispatch_icall_fptr 00000001801db290     LIBCMT:guard_support.obj
 0002:00000298       __guard_xfg_dispatch_icall_fptr 00000001801db298     LIBCMT:guard_support.obj
 0002:000002a0       __guard_xfg_table_dispatch_icall_fptr 00000001801db2a0     LIBCMT:guard_support.obj
 0002:000002a8       __castguard_check_failure_os_handled_fptr 00000001801db2a8     LIBCMT:guard_support.obj
 0002:000002b0       __guard_memcpy_fptr        00000001801db2b0     libvcruntime:softmemtag.obj
 0002:000002b8       __xc_a                     00000001801db2b8     LIBCMT:initializers.obj
 0002:00001c90       __xc_z                     00000001801dcc90     LIBCMT:initializers.obj
 0002:00001c98       __xi_a                     00000001801dcc98     LIBCMT:initializers.obj
 0002:00001ca0       __acrt_stdio_initializer   00000001801dcca0     libucrt:stdio_initializer.obj
 0002:00001ca8       __acrt_tran_fma3_initializer 00000001801dcca8     libucrt:fma3_initializer.obj
 0002:00001cb0       __acrt_multibyte_initializer 00000001801dccb0     libucrt:multibyte_initializer.obj
 0002:00001cb8       __xi_z                     00000001801dccb8     LIBCMT:initializers.obj
 0002:00001cc0       __xp_a                     00000001801dccc0     LIBCMT:initializers.obj
 0002:00001cc8       __acrt_locale_terminator   00000001801dccc8     libucrt:locale_initializer.obj
 0002:00001cd0       __dcrt_console_output_terminator 00000001801dccd0     libucrt:console_output_initializer.obj
 0002:00001cd8       __acrt_stdio_terminator    00000001801dccd8     libucrt:stdio_initializer.obj
 0002:00001ce0       __xp_z                     00000001801dcce0     LIBCMT:initializers.obj
 0002:00001ce8       __xt_a                     00000001801dcce8     LIBCMT:initializers.obj
 0002:00001cf0       __xt_z                     00000001801dccf0     LIBCMT:initializers.obj
 0002:00001d00       ??_C@_08MDGMHCHN@PtrTable@ 00000001801dcd00     CmPtrTable.obj
 0002:00001d0c       ??_C@_04GKJNKENE@void@     00000001801dcd0c     CmPtrTable.obj
 0002:00001d18       ??_C@_07DFEBJDHE@mSingle@  00000001801dcd18     CmPtrTable.obj
 0002:00001d20       ??_C@_05NLHHBMOH@PxU16@    00000001801dcd20     CmPtrTable.obj
 0002:00001d28       ??_C@_06EPKHJPIM@mCount@   00000001801dcd28     CmPtrTable.obj
 0002:00001d30       ??_C@_04DDKJGDCM@bool@     00000001801dcd30     CmPtrTable.obj
 0002:00001d38       ??_C@_0M@DAGELID@mOwnsMemory@ 00000001801dcd38     CmPtrTable.obj
 0002:00001d48       ??_C@_0M@MMPOMMLP@mBufferUsed@ 00000001801dcd48     CmPtrTable.obj
 0002:00001d54       ??_C@_05LMJPANIN@PxU32@    00000001801dcd54     CmPtrTable.obj
 0002:00001d60       ??_C@_09PMLNMEMN@mFreeSlot@ 00000001801dcd60     CmPtrTable.obj
 0002:00001d70       ??_7PxCollection@physx@@6B@ 00000001801dcd70     CmCollection.obj
 0002:00001df0       ??_C@_00CNPNBAHC@@         00000001801dcdf0     CmCollection.obj
 0002:00001df8       ??_7Collection@Cm@physx@@6B@ 00000001801dcdf8     CmCollection.obj
 0002:00001e80       ??_C@_0GE@GBACBMOC@PxCollection?3?3add?5called?5for?5an@ 00000001801dce80     CmCollection.obj
 0002:00001ee8       ??_C@_0DL@EBPFMACH@D?3?2Projects?2PhysX?2physx?2source?2@ 00000001801dcee8     CmCollection.obj
 0002:00001f30       ??_C@_0EM@OMMGDOMK@PxCollection?3?3add?5called?5with?5a@ 00000001801dcf30     CmCollection.obj
 0002:00001f80       ??_C@_0EL@CBFFIHFG@PxCollection?3?3remove?5called?5for@ 00000001801dcf80     CmCollection.obj
 0002:00001fd0       ??_C@_0EP@DBNENNLL@PxCollection?3?3addId?5called?5for?5@ 00000001801dcfd0     CmCollection.obj
 0002:00002020       ??_C@_0FL@DACPFKDD@PxCollection?3?3addId?5called?5with@ 00000001801dd020     CmCollection.obj
 0002:00002080       ??_C@_0EP@GMPAMDKI@PxCollection?3?3addId?5called?5with@ 00000001801dd080     CmCollection.obj
 0002:000020d0       ??_C@_0FO@DIHIGAFD@PxCollection?3?3removeId?5called?5w@ 00000001801dd0d0     CmCollection.obj
 0002:00002130       ??_C@_0FF@MENHIPMD@PxCollection?3?3removeId?5called?5w@ 00000001801dd130     CmCollection.obj
 0002:00002190       ??_C@_0FK@BAFICJEM@PxCollection?3?3find?5called?5with?5@ 00000001801dd190     CmCollection.obj
 0002:000021f0       ??_C@_0DF@CLGAFPLL@PxCollection?3?3add?$CIPxCollection?$CG@ 00000001801dd1f0     CmCollection.obj
 0002:00002228       ??_C@_0DN@DMJACFO@PxCollection?3?3add?$CIPxCollection?$CG@ 00000001801dd228     CmCollection.obj
 0002:00002268       ??_C@_0DI@DICAIAPC@PxCollection?3?3remove?$CIPxCollecti@ 00000001801dd268     CmCollection.obj
 0002:000022a0       ??_C@_0DG@LOILDLGN@PxCollection?3?3getObjects?5called@ 00000001801dd2a0     CmCollection.obj
 0002:000022d8       ??_C@_0DD@GMICJLDJ@PxCollection?3?3getObjects?5called@ 00000001801dd2d8     CmCollection.obj
 0002:00002310       ??_C@_0DC@GILGGBAI@PxCollection?3?3getIds?5called?5wit@ 00000001801dd310     CmCollection.obj
 0002:00002348       ??_C@_0CP@LFEKADKN@PxCollection?3?3getIds?5called?5wit@ 00000001801dd348     CmCollection.obj
 0002:00002378       ??_C@_0DN@NPGBEKGG@D?3?2Projects?2PhysX?2physx?2include@ 00000001801dd378     CmCollection.obj
 0002:000023b8       ??_C@_0BM@OIFKLHDN@?$DMallocation?5names?5disabled?$DO@ 00000001801dd3b8     CmCollection.obj
 0002:000023d8       ??_7RadixSort@Cm@physx@@6B@ 00000001801dd3d8     CmRadixSort.obj
 0002:000023e0       ??_7RadixSortBuffered@Cm@physx@@6B@ 00000001801dd3e0     CmRadixSort.obj
 0002:000023e8       ??_C@_0DK@CJCKCFJK@D?3?2Projects?2PhysX?2physx?2source?2@ 00000001801dd3e8     CmRadixSort.obj
 0002:00002430       __xmm@00000001000000010000000100000001 00000001801dd430     CmRadixSort.obj
 0002:00002440       __xmm@00000003000000020000000100000000 00000001801dd440     CmRadixSort.obj
 0002:00002450       __real@3d4ccccd            00000001801dd450     CmVisualization.obj
 0002:00002454       __real@3e19999a            00000001801dd454     CmVisualization.obj
 0002:00002458       __real@3e490fdb            00000001801dd458     CmVisualization.obj
 0002:0000245c       __real@3e800000            00000001801dd45c     CmVisualization.obj
 0002:00002460       __real@3e99999a            00000001801dd460     CmVisualization.obj
 0002:00002464       __real@3ea0d97c            00000001801dd464     CmVisualization.obj
 0002:00002468       __real@3eddb3d7            00000001801dd468     CmVisualization.obj
 0002:0000246c       __real@3f3504f3            00000001801dd46c     CmVisualization.obj
 0002:00002470       __real@3f800000            00000001801dd470     CmVisualization.obj
 0002:00002474       __real@3fc00000            00000001801dd474     CmVisualization.obj
 0002:00002478       __real@3fddb3d7            00000001801dd478     CmVisualization.obj
 0002:0000247c       __real@40100000            00000001801dd47c     CmVisualization.obj
 0002:00002480       __real@40c90fdb            00000001801dd480     CmVisualization.obj
 0002:00002484       __real@bfddb3d7            00000001801dd484     CmVisualization.obj
 0002:00002488       __real@c0000000            00000001801dd488     CmVisualization.obj
 0002:00002490       __xmm@3f800000000000000000000000000000 00000001801dd490     CmVisualization.obj
 0002:000024a0       __xmm@7fffffff7fffffff7fffffff7fffffff 00000001801dd4a0     CmVisualization.obj
 0002:000024b0       __xmm@80000000800000008000000080000000 00000001801dd4b0     CmVisualization.obj
 0002:000024c0       ??_C@_0BB@CPDDPFKD@GetUpdatedModule@ 00000001801dd4c0     CmWindowsModuleUpdateLoader.obj
 0002:000024e0       ??_C@_0FC@DGCHNFJB@D?3?2Projects?2PhysX?2physx?2source?2@ 00000001801dd4e0     CmWindowsModuleUpdateLoader.obj
 0002:00002538       ??_C@_0CP@PGOIOJOO@?$CFs?3?$CFi?3?5loadLibrary?5error?5when?5l@ 00000001801dd538     CmWindowsModuleUpdateLoader.obj
 0002:00002568       ??_C@_0BA@EGLNOO@PhysXFoundation@ 00000001801dd568     CmWindowsDelayLoadHook.obj
 0002:00002578       ??_C@_0M@ILKNCJKN@PhysXCommon@ 00000001801dd578     CmWindowsDelayLoadHook.obj
 0002:000025b0       __real@3f000000            00000001801dd5b0     GuBox.obj
 0002:000025b4       __real@3f7ff972            00000001801dd5b4     GuBox.obj
 0002:000025c0       __xmm@000000003a83126f3a83126f3a83126f 00000001801dd5c0     GuBox.obj
 0002:000025d0       __xmm@00000000ba83126fba83126fba83126f 00000001801dd5d0     GuBox.obj
 0002:000025e0       __xmm@3a83126f3a83126f3a83126f3a83126f 00000001801dd5e0     GuBox.obj
 0002:000025f0       __xmm@ba83126fba83126fba83126fba83126f 00000001801dd5f0     GuBox.obj
 0002:00002620       ??_7EntityReport@Gu@physx@@6B@ 00000001801dd620     GuSweepsHF.obj
 0002:00002620       ??_7OverlapCallback@PxBVH@physx@@6B@ 00000001801dd620     GuQuerySystem.obj
 0002:00002620       ??_7OverlapReport@Gu@physx@@6B@ 00000001801dd620     GuCCTSweepTests.obj
 0002:00002620       ??_7RaycastCallback@PxBVH@physx@@6B@ 00000001801dd620     GuQuerySystem.obj
 0002:00002620       ??_7RemapCallback@RTreeCooker@physx@@6B@ 00000001801dd620     GuCookingTriangleMesh.obj
 0002:00002640       __real@3b03126f            00000001801dd640     GuCCTSweepTests.obj
 0002:00002644       __real@40000000            00000001801dd644     GuCCTSweepTests.obj
 0002:00002680       ??_C@_0CD@CGJJEFHC@Gu?3?3overlap?$CI?$CJ?3?5pose0?5is?5not?5val@ 00000001801dd680     GuGeometryQuery.obj
 0002:000026b0       ??_C@_0EC@BNHILLHL@D?3?2Projects?2PhysX?2physx?2source?2@ 00000001801dd6b0     GuGeometryQuery.obj
 0002:000026f8       ??_C@_0CD@IIPBNEOD@Gu?3?3overlap?$CI?$CJ?3?5pose1?5is?5not?5val@ 00000001801dd6f8     GuGeometryQuery.obj
 0002:00002720       ??_7SupportLocal@Gu@physx@@6B@ 00000001801dd720     GuGeometryQuery.obj
 0002:00002740       ??_C@_0CO@DGHGHPPJ@PxGeometryQuery?3?3sweep?$CI?$CJ?3?5pose0@ 00000001801dd740     GuGeometryQuery.obj
 0002:00002770       ??_C@_0EB@LBPPICME@D?3?2Projects?2PhysX?2physx?2source?2@ 00000001801dd770     GuGeometryQuery.obj
 0002:000027b8       ??_C@_0CO@JIBOOOGI@PxGeometryQuery?3?3sweep?$CI?$CJ?3?5pose1@ 00000001801dd7b8     GuGeometryQuery.obj
 0002:000027e8       ??_C@_0DA@JEEBDBEM@PxGeometryQuery?3?3sweep?$CI?$CJ?3?5unitD@ 00000001801dd7e8     GuGeometryQuery.obj
 0002:00002818       ??_C@_0DB@KCEKJBPE@PxGeometryQuery?3?3sweep?$CI?$CJ?3?5dista@ 00000001801dd818     GuGeometryQuery.obj
 0002:00002850       ??_C@_0FM@HAJNNJNC@PxGeometryQuery?3?3sweep?$CI?$CJ?3?5sweep@ 00000001801dd850     GuGeometryQuery.obj
 0002:000028b0       ??_C@_0CB@JDDBKCNL@Provided?5geometry?50?5is?5not?5vali@ 00000001801dd8b0     GuGeometryQuery.obj
 0002:000028d8       ??_C@_0CB@CKMKHJDD@Provided?5geometry?51?5is?5not?5vali@ 00000001801dd8d8     GuGeometryQuery.obj
 0002:00002900       ??_C@_0GL@GJKJELMB@PxGeometryQuery?3?3sweep?$CI?$CJ?3?5first@ 00000001801dd900     GuGeometryQuery.obj
 0002:00002970       ??_C@_0DB@OMDGMOND@PxGeometryQuery?3?3raycast?$CI?$CJ?3?5ray@ 00000001801dd970     GuGeometryQuery.obj
 0002:000029a8       ??_C@_0DE@MGFNMBNA@PxGeometryQuery?3?3raycast?$CI?$CJ?3?5ray@ 00000001801dd9a8     GuGeometryQuery.obj
 0002:000029e0       ??_C@_0CP@NHLDPNEB@PxGeometryQuery?3?3raycast?$CI?$CJ?3?5pos@ 00000001801dd9e0     GuGeometryQuery.obj
 0002:00002a10       ??_C@_0DB@HPNPNEMP@PxGeometryQuery?3?3raycast?$CI?$CJ?3?5max@ 00000001801dda10     GuGeometryQuery.obj
 0002:00002a48       ??_C@_0DC@BLMIOBO@PxGeometryQuery?3?3raycast?$CI?$CJ?3?5max@ 00000001801dda48     GuGeometryQuery.obj
 0002:00002a80       ??_C@_0DP@IPJGHFJE@PxGeometryQuery?3?3raycast?$CI?$CJ?3?5ray@ 00000001801dda80     GuGeometryQuery.obj
 0002:00002ac0       ??_C@_0DF@BMEFDPAL@PxGeometryQuery?3?3pointDistance?$CI@ 00000001801ddac0     GuGeometryQuery.obj
 0002:00002b00       ??_C@_0HD@CIHHMJFE@PxGeometryQuery?3?3pointDistance?$CI@ 00000001801ddb00     GuGeometryQuery.obj
 0002:00002b78       ??_C@_0DJ@FHLFMELL@PxGeometryQuery?3?3computeGeomBou@ 00000001801ddb78     GuGeometryQuery.obj
 0002:00002bb8       ??_C@_0DL@LECAKFBF@PxGeometryQuery?3?3computePenetra@ 00000001801ddbb8     GuGeometryQuery.obj
 0002:00002bf8       ??_C@_0DL@BKEIDEIE@PxGeometryQuery?3?3computePenetra@ 00000001801ddbf8     GuGeometryQuery.obj
 0002:00002c38       ??_7?$SupportLocalImpl@VBoxV@Gu@physx@@@Gu@physx@@6B@ 00000001801ddc38     GuGeometryQuery.obj
 0002:00002c58       ??_7?$SupportLocalImpl@VConvexHullV@Gu@physx@@@Gu@physx@@6B@ 00000001801ddc58     GuGeometryQuery.obj
 0002:00002c78       ??_C@_0DF@JIJJLLIC@D?3?2Projects?2PhysX?2physx?2include@ 00000001801ddc78     GuGeometryQuery.obj
 0002:00002cb0       __real@30d1b7e9            00000001801ddcb0     GuGeometryQuery.obj
 0002:00002cb4       __real@322bcc77            00000001801ddcb4     GuGeometryQuery.obj
 0002:00002cb8       __real@358637bd            00000001801ddcb8     GuGeometryQuery.obj
 0002:00002cbc       __real@38d1b717            00000001801ddcbc     GuGeometryQuery.obj
 0002:00002cc0       __real@3a83126f            00000001801ddcc0     GuGeometryQuery.obj
 0002:00002cc4       __real@3ccccccd            00000001801ddcc4     GuGeometryQuery.obj
 0002:00002cc8       __real@3dcccccd            00000001801ddcc8     GuGeometryQuery.obj
 0002:00002ccc       __real@49742400            00000001801ddccc     GuGeometryQuery.obj
 0002:00002cd0       __real@7f7fffff            00000001801ddcd0     GuGeometryQuery.obj
 0002:00002cd4       __real@bf800000            00000001801ddcd4     GuGeometryQuery.obj
 0002:00002ce0       __xmm@0000000000000000000000003f800000 00000001801ddce0     GuGeometryQuery.obj
 0002:00002cf0       __xmm@00000000000000003f80000000000000 00000001801ddcf0     GuGeometryQuery.obj
 0002:00002d00       __xmm@00000000000000003f8000003f800000 00000001801ddd00     GuGeometryQuery.obj
 0002:00002d10       __xmm@000000003f8000000000000000000000 00000001801ddd10     GuGeometryQuery.obj
 0002:00002d20       __xmm@000000003f8000003f8000003f800000 00000001801ddd20     GuGeometryQuery.obj
 0002:00002d30       __xmm@00000000ffffffffffffffffffffffff 00000001801ddd30     GuGeometryQuery.obj
 0002:00002d40       __xmm@3d4ccccd3d4ccccd3d4ccccd3d4ccccd 00000001801ddd40     GuGeometryQuery.obj
 0002:00002d50       __xmm@3e19999a3e19999a3e19999a3e19999a 00000001801ddd50     GuGeometryQuery.obj
 0002:00002d60       __xmm@3e4ccccd3e4ccccd3e4ccccd3e4ccccd 00000001801ddd60     GuGeometryQuery.obj
 0002:00002d70       __xmm@3e8000003e8000003e8000003e800000 00000001801ddd70     GuGeometryQuery.obj
 0002:00002d80       __xmm@3f7ef9db3f7ef9db3f7ef9db3f7ef9db 00000001801ddd80     GuGeometryQuery.obj
 0002:00002d90       __xmm@3f7ff2e53f7ff2e53f7ff2e53f7ff2e5 00000001801ddd90     GuGeometryQuery.obj
 0002:00002da0       __xmm@3f8000003f8000003f8000003f800000 00000001801ddda0     GuGeometryQuery.obj
 0002:00002db0       __xmm@7f7fffff7f7fffff7f7fffff7f7fffff 00000001801dddb0     GuGeometryQuery.obj
 0002:00002dc0       __xmm@bf000000bf000000bf000000bf000000 00000001801dddc0     GuGeometryQuery.obj
 0002:00002df0       ??_C@_0DP@CHNILJBM@D?3?2Projects?2PhysX?2physx?2source?2@ 00000001801dddf0     GuMeshFactory.obj
 0002:00002e40       ??_C@_0EM@BDFDGBD@Inserting?5object?5failed?3?5Object@ 00000001801dde40     GuMeshFactory.obj
 0002:00002eb0       ??_7CallbackRaycast@RTree@Gu@physx@@6B@ 00000001801ddeb0     GuMidphaseRTree.obj
 0002:00002eb0       ??_7CallbackRefit@RTree@Gu@physx@@6B@ 00000001801ddeb0     GuTriangleMeshRTree.obj
 0002:00002eb0       ??_7PxInsertionCallback@physx@@6B@ 00000001801ddeb0     GuMeshFactory.obj
 0002:00002ec0       ??_7PxCollisionMeshMappingData@physx@@6B@ 00000001801ddec0     GuMeshFactory.obj
 0002:00002ed0       ??_7MeshFactory@Gu@physx@@6B@ 00000001801dded0     GuMeshFactory.obj
 0002:00002ed8       ??_7MeshDataBase@Gu@physx@@6B@ 00000001801dded8     GuMeshFactory.obj
 0002:00002ee0       ??_C@_0DP@MJAOLHJL@D?3?2Projects?2PhysX?2physx?2source?2@ 00000001801ddee0     GuMeshFactory.obj
 0002:00002f20       ??_7TriangleMeshData@Gu@physx@@6B@ 00000001801ddf20     GuMeshFactory.obj
 0002:00002f28       ??_7RTreeTriangleData@Gu@physx@@6B@ 00000001801ddf28     GuMeshFactory.obj
 0002:00002f30       ??_7BV4TriangleData@Gu@physx@@6B@ 00000001801ddf30     GuMeshFactory.obj
 0002:00002f38       ??_7SoftBodyCollisionData@Gu@physx@@6B@ 00000001801ddf38     GuMeshFactory.obj
 0002:00002f40       ??_7CollisionMeshMappingData@Gu@physx@@6B@ 00000001801ddf40     GuMeshFactory.obj
 0002:00002f50       ??_7SoftBodySimulationData@Gu@physx@@6B@ 00000001801ddf50     GuMeshFactory.obj
 0002:00002f60       ??_C@_0GP@NHELMDAL@Loading?5triangle?5mesh?5failed?3?5D@ 00000001801ddf60     GuMeshFactory.obj
 0002:00002fd0       ??_C@_0BP@CDOKDACA@RTree?5binary?5image?5load?5error?4@ 00000001801ddfd0     GuMeshFactory.obj
 0002:00002ff0       ??_C@_0BN@MJPNIELF@BV4?5binary?5image?5load?5error?4@ 00000001801ddff0     GuMeshFactory.obj
 0002:00003010       ??_C@_0BO@JDPABAOF@BV32?5binary?5image?5load?5error?4@ 00000001801de010     GuMeshFactory.obj
 0002:00003030       ??_C@_0DF@JBPELCPL@D?3?2Projects?2PhysX?2physx?2include@ 00000001801de030     GuMeshFactory.obj
 0002:00003070       __xmm@cdcdcdcdcdcdcdcdcdcdcdcdcdcdcdcd 00000001801de070     GuMeshFactory.obj
 0002:00003080       __xmm@fe7fffff7e7fffff7e7fffff7e7fffff 00000001801de080     GuMeshFactory.obj
 0002:000030b0       ??_C@_06EJKDJEDO@PxBase@   00000001801de0b0     GuMetaData.obj
 0002:000030b8       ??_C@_07GFCEJNGM@Valency@  00000001801de0b8     GuMetaData.obj
 0002:000030c0       ??_C@_07NHGKEEIN@mOffset@  00000001801de0c0     GuMetaData.obj
 0002:000030c8       ??_C@_0BB@BAGHBMNJ@BigConvexRawData@ 00000001801de0c8     GuMetaData.obj
 0002:000030e0       ??_C@_07PBDEJAAC@mSubdiv@  00000001801de0e0     GuMetaData.obj
 0002:000030e8       ??_C@_0L@HNPACPGH@mNbSamples@ 00000001801de0e8     GuMetaData.obj
 0002:000030f4       ??_C@_04NCKNBPPK@PxU8@     00000001801de0f4     GuMetaData.obj
 0002:00003100       ??_C@_08DEPEKJNI@mSamples@ 00000001801de100     GuMetaData.obj
 0002:00003110       ??_C@_08IJDNJBMI@mNbVerts@ 00000001801de110     GuMetaData.obj
 0002:00003120       ??_C@_0M@MMKMIJAF@mNbAdjVerts@ 00000001801de120     GuMetaData.obj
 0002:00003130       ??_C@_0L@EOKMNILC@mValencies@ 00000001801de130     GuMetaData.obj
 0002:00003140       ??_C@_0P@DLGEAMHJ@mAdjacentVerts@ 00000001801de140     GuMetaData.obj
 0002:00003150       ??_C@_03NGLDENDA@SDF@      00000001801de150     GuMetaData.obj
 0002:00003154       ??_C@_06KDGGGLIJ@PxVec3@   00000001801de154     GuMetaData.obj
 0002:0000315c       ??_C@_06GIEBFILM@PxReal@   00000001801de15c     GuMetaData.obj
 0002:00003168       ??_C@_0O@PFOPBKAM@BigConvexData@ 00000001801de168     GuMetaData.obj
 0002:00003178       ??_C@_05PLKALGFN@mData@    00000001801de178     GuMetaData.obj
 0002:00003180       ??_C@_08PEMCLHEM@mVBuffer@ 00000001801de180     GuMetaData.obj
 0002:00003190       ??_C@_09FBMAGD@Alignment@  00000001801de190     GuMetaData.obj
 0002:000031a0       ??_C@_0BE@KFHIBEEA@InternalObjectsData@ 00000001801de1a0     GuMetaData.obj
 0002:000031b8       ??_C@_07NKGFFIBH@mRadius@  00000001801de1b8     GuMetaData.obj
 0002:000031c0       ??_C@_08EHFCACAE@mExtents@ 00000001801de1c0     GuMetaData.obj
 0002:000031d0       ??_C@_0BA@LFMGGCBK@HullPolygonData@ 00000001801de1d0     GuMetaData.obj
 0002:000031e0       ??_C@_06BOHHGLB@mPlane@    00000001801de1e0     GuMetaData.obj
 0002:000031e8       ??_C@_06EHMLHGLN@mVRef8@   00000001801de1e8     GuMetaData.obj
 0002:000031f0       ??_C@_09BAHHHINI@mMinIndex@ 00000001801de1f0     GuMetaData.obj
 0002:00003200       ??_C@_0P@GBLBPIPB@ConvexHullData@ 00000001801de200     GuMetaData.obj
 0002:00003210       ??_C@_09JDCJAPKD@PxBounds3@ 00000001801de210     GuMetaData.obj
 0002:0000321c       ??_C@_05NDNHIFA@mAABB@     00000001801de21c     GuMetaData.obj
 0002:00003228       ??_C@_0O@LNOGEMJI@mCenterOfMass@ 00000001801de228     GuMetaData.obj
 0002:00003238       ??_C@_09CNMCBBKH@mPolygons@ 00000001801de238     GuMetaData.obj
 0002:00003248       ??_C@_0BC@KKPDCFJC@mBigConvexRawData@ 00000001801de248     GuMetaData.obj
 0002:00003260       ??_C@_08MPNAAJLD@mSdfData@ 00000001801de260     GuMetaData.obj
 0002:00003270       ??_C@_08ELDMKGKH@mNbEdges@ 00000001801de270     GuMetaData.obj
 0002:00003280       ??_C@_0BA@CGLOHBAC@mNbHullVertices@ 00000001801de280     GuMetaData.obj
 0002:00003290       ??_C@_0M@HGFFLLDM@mNbPolygons@ 00000001801de290     GuMetaData.obj
 0002:000032a0       ??_C@_09BHJEMDGO@mInternal@ 00000001801de2a0     GuMetaData.obj
 0002:000032b0       ??_C@_0L@GMFHOMKA@ConvexMesh@ 00000001801de2b0     GuMetaData.obj
 0002:000032c0       ??_C@_09ILEBDLJH@mHullData@ 00000001801de2c0     GuMetaData.obj
 0002:000032cc       ??_C@_03DKDIKGNC@mNb@      00000001801de2cc     GuMetaData.obj
 0002:000032d0       ??_C@_0P@ENLHFHMD@mBigConvexData@ 00000001801de2d0     GuMetaData.obj
 0002:000032e0       ??_C@_05ILALLCHK@mMass@    00000001801de2e0     GuMetaData.obj
 0002:000032e8       ??_C@_07DBPDADGB@PxMat33@  00000001801de2e8     GuMetaData.obj
 0002:000032f0       ??_C@_08FNBHNDBI@mInertia@ 00000001801de2f0     GuMetaData.obj
 0002:00003300       ??_C@_0O@FCKNKLMJ@GuMeshFactory@ 00000001801de300     GuMetaData.obj
 0002:00003310       ??_C@_0N@EGBCLMAK@mMeshFactory@ 00000001801de310     GuMetaData.obj
 0002:00003320       ??_C@_0BE@CJJAMAMK@PxHeightFieldSample@ 00000001801de320     GuMetaData.obj
 0002:00003334       ??_C@_05MBLIPEMA@PxI16@    00000001801de334     GuMetaData.obj
 0002:0000333c       ??_C@_06LNLHEAAG@height@   00000001801de33c     GuMetaData.obj
 0002:00003348       ??_C@_0N@HHDGHJN@PxBitAndByte@ 00000001801de348     GuMetaData.obj
 0002:00003358       ??_C@_0P@MBBMLBO@materialIndex0@ 00000001801de358     GuMetaData.obj
 0002:00003368       ??_C@_0P@BFAKPKFP@materialIndex1@ 00000001801de368     GuMetaData.obj
 0002:00003378       ??_C@_0BD@EBLPJEOE@PxHeightFieldFlags@ 00000001801de378     GuMetaData.obj
 0002:00003390       ??_C@_0BK@FNNCFFCN@PxHeightFieldFormat?3?3Enum@ 00000001801de390     GuMetaData.obj
 0002:000033b0       ??_C@_0BA@CLNFMAAA@HeightFieldData@ 00000001801de3b0     GuMetaData.obj
 0002:000033c0       ??_C@_04IMCGAIPI@rows@     00000001801de3c0     GuMetaData.obj
 0002:000033c8       ??_C@_07HIFEPIJN@columns@  00000001801de3c8     GuMetaData.obj
 0002:000033d0       ??_C@_08MOAGOABI@rowLimit@ 00000001801de3d0     GuMetaData.obj
 0002:000033e0       ??_C@_08BAGEHOBO@colLimit@ 00000001801de3e0     GuMetaData.obj
 0002:000033f0       ??_C@_09LKDBLADF@nbColumns@ 00000001801de3f0     GuMetaData.obj
 0002:00003400       ??_C@_07ODIFGGLK@samples@  00000001801de400     GuMetaData.obj
 0002:00003408       ??_C@_0BE@POHEGOJG@convexEdgeThreshold@ 00000001801de408     GuMetaData.obj
 0002:0000341c       ??_C@_05GECEPKB@flags@     00000001801de41c     GuMetaData.obj
 0002:00003424       ??_C@_06DLEPGFEF@format@   00000001801de424     GuMetaData.obj
 0002:00003430       ??_C@_0BF@MOGDNMPL@PxMaterialTableIndex@ 00000001801de430     GuMetaData.obj
 0002:00003448       ??_C@_0M@JMJICJJO@HeightField@ 00000001801de448     GuMetaData.obj
 0002:00003458       ??_C@_0O@ENGHMLJP@mSampleStride@ 00000001801de458     GuMetaData.obj
 0002:00003468       ??_C@_0L@EBEEMFFB@mMinHeight@ 00000001801de468     GuMetaData.obj
 0002:00003478       ??_C@_0L@EAEIFPOF@mMaxHeight@ 00000001801de478     GuMetaData.obj
 0002:00003488       ??_C@_0N@FEFJOKKE@mModifyCount@ 00000001801de488     GuMetaData.obj
 0002:00003498       ??_C@_09PHDKHCK@RTreePage@ 00000001801de498     GuMetaData.obj
 0002:000034a4       ??_C@_04LLPOBGED@minx@     00000001801de4a4     GuMetaData.obj
 0002:000034ac       ??_C@_04KCOFCHAC@miny@     00000001801de4ac     GuMetaData.obj
 0002:000034b4       ??_C@_04IJMIHEMB@minz@     00000001801de4b4     GuMetaData.obj
 0002:000034bc       ??_C@_04GGOBOBGO@maxx@     00000001801de4bc     GuMetaData.obj
 0002:000034c4       ??_C@_04HPPKNACP@maxy@     00000001801de4c4     GuMetaData.obj
 0002:000034cc       ??_C@_04FENHIDOM@maxz@     00000001801de4cc     GuMetaData.obj
 0002:000034d4       ??_C@_04HHDFEJON@ptrs@     00000001801de4d4     GuMetaData.obj
 0002:000034dc       ??_C@_05FFEIGAJF@RTree@    00000001801de4dc     GuMetaData.obj
 0002:000034e4       ??_C@_06OMCHPNEO@PxVec4@   00000001801de4e4     GuMetaData.obj
 0002:000034f0       ??_C@_0L@NBIFEFLN@mBoundsMin@ 00000001801de4f0     GuMetaData.obj
 0002:00003500       ??_C@_0L@MDAOKBNC@mBoundsMax@ 00000001801de500     GuMetaData.obj
 0002:00003510       ??_C@_0N@NJEHLCOF@mInvDiagonal@ 00000001801de510     GuMetaData.obj
 0002:00003520       ??_C@_0BA@BEFIGPFG@mDiagonalScaler@ 00000001801de520     GuMetaData.obj
 0002:00003530       ??_C@_09DICGGKGO@mPageSize@ 00000001801de530     GuMetaData.obj
 0002:00003540       ??_C@_0O@BOFFCNOL@mNumRootPages@ 00000001801de540     GuMetaData.obj
 0002:00003550       ??_C@_0L@JKLGBKAE@mNumLevels@ 00000001801de550     GuMetaData.obj
 0002:00003560       ??_C@_0M@PHDOHJGK@mTotalNodes@ 00000001801de560     GuMetaData.obj
 0002:00003570       ??_C@_0M@GDGHALAO@mTotalPages@ 00000001801de570     GuMetaData.obj
 0002:0000357c       ??_C@_06MHCBBJGP@mFlags@   00000001801de57c     GuMetaData.obj
 0002:00003584       ??_C@_06MMNBLHOK@mPages@   00000001801de584     GuMetaData.obj
 0002:00003590       ??_C@_0P@JNLGHJNH@SourceMeshBase@ 00000001801de590     GuMetaData.obj
 0002:000035a0       ??_C@_06JFCLJMNN@mVerts@   00000001801de5a0     GuMetaData.obj
 0002:000035a8       ??_C@_05GNIIDDHH@mType@    00000001801de5a8     GuMetaData.obj
 0002:000035b0       ??_C@_06DHAAKLFK@mRemap@   00000001801de5b0     GuMetaData.obj
 0002:000035b8       ??_C@_0L@LEOGNOEC@SourceMesh@ 00000001801de5b8     GuMetaData.obj
 0002:000035c8       ??_C@_07MPIKOOAP@mNbTris@  00000001801de5c8     GuMetaData.obj
 0002:000035d0       ??_C@_0N@FBMOMEHF@mTriangles32@ 00000001801de5d0     GuMetaData.obj
 0002:000035e0       ??_C@_0N@DGCGNFBP@mTriangles16@ 00000001801de5e0     GuMetaData.obj
 0002:000035f0       ??_C@_0O@NLNHFNO@QuantizedAABB@ 00000001801de5f0     GuMetaData.obj
 0002:00003600       ??_C@_0BC@OOGBEMHH@mData?$FL0?$FN?4mExtents@ 00000001801de600     GuMetaData.obj
 0002:00003618       ??_C@_0BB@OCEDKIEF@mData?$FL0?$FN?4mCenter@ 00000001801de618     GuMetaData.obj
 0002:00003630       ??_C@_0BC@HFMEAABI@mData?$FL1?$FN?4mExtents@ 00000001801de630     GuMetaData.obj
 0002:00003648       ??_C@_0BB@CDMNHHIF@mData?$FL1?$FN?4mCenter@ 00000001801de648     GuMetaData.obj
 0002:00003660       ??_C@_0BC@CFKNCOI@mData?$FL2?$FN?4mExtents@ 00000001801de660     GuMetaData.obj
 0002:00003678       ??_C@_0BB@LKCPBBIE@mData?$FL2?$FN?4mCenter@ 00000001801de678     GuMetaData.obj
 0002:00003690       ??_C@_0O@MJJKKPFN@BVDataPackedQ@ 00000001801de690     GuMetaData.obj
 0002:000036a0       ??_C@_0O@JFMLAIPJ@CenterExtents@ 00000001801de6a0     GuMetaData.obj
 0002:000036b0       ??_C@_07GNKDIIKJ@mCenter@  00000001801de6b0     GuMetaData.obj
 0002:000036b8       ??_C@_0P@KBMJDPLO@BVDataPackedNQ@ 00000001801de6b8     GuMetaData.obj
 0002:000036c8       ??_C@_0M@PNCEBOG@LocalBounds@ 00000001801de6c8     GuMetaData.obj
 0002:000036d4       ??_C@_05KNFBNCOH@float@    00000001801de6d4     GuMetaData.obj
 0002:000036e0       ??_C@_0BC@LADJKHPL@mExtentsMagnitude@ 00000001801de6e0     GuMetaData.obj
 0002:000036f8       ??_C@_07HELIOLAF@BV4Tree@  00000001801de6f8     GuMetaData.obj
 0002:00003700       ??_C@_0P@EMMDNPMH@mMeshInterface@ 00000001801de700     GuMetaData.obj
 0002:00003710       ??_C@_0N@DCKMHLCL@mLocalBounds@ 00000001801de710     GuMetaData.obj
 0002:00003720       ??_C@_08EEJOMIJL@mNbNodes@ 00000001801de720     GuMetaData.obj
 0002:0000372c       ??_C@_06FIIIMFIO@mNodes@   00000001801de72c     GuMetaData.obj
 0002:00003738       ??_C@_09FGKNPI@mInitData@  00000001801de738     GuMetaData.obj
 0002:00003748       ??_C@_0BC@CLDEHKCO@mCenterOrMinCoeff@ 00000001801de748     GuMetaData.obj
 0002:00003760       ??_C@_0BD@LAOLBNJ@mExtentsOrMaxCoeff@ 00000001801de760     GuMetaData.obj
 0002:00003778       ??_C@_0P@JEECKKBL@mUserAllocated@ 00000001801de778     GuMetaData.obj
 0002:00003788       ??_C@_0L@GLIMNECG@mQuantized@ 00000001801de788     GuMetaData.obj
 0002:00003798       ??_C@_0L@CCOJDAID@mIsEdgeSet@ 00000001801de798     GuMetaData.obj
 0002:000037a8       ??_C@_08BNDBAGDH@mPadding@ 00000001801de7a8     GuMetaData.obj
 0002:000037b8       ??_C@_0N@OJNNNLIB@TriangleMesh@ 00000001801de7b8     GuMetaData.obj
 0002:000037c8       ??_C@_0M@OGEDMEAL@mNbVertices@ 00000001801de7c8     GuMetaData.obj
 0002:000037d8       ??_C@_0N@MGGDNHNI@mNbTriangles@ 00000001801de7d8     GuMetaData.obj
 0002:000037e8       ??_C@_09LNNEGOJA@mVertices@ 00000001801de7e8     GuMetaData.obj
 0002:000037f8       ??_C@_0L@KBOFAKLO@mTriangles@ 00000001801de7f8     GuMetaData.obj
 0002:00003808       ??_C@_0P@MHDFIHLD@mExtraTrigData@ 00000001801de808     GuMetaData.obj
 0002:00003818       ??_C@_0N@MGIKKCI@mGeomEpsilon@ 00000001801de818     GuMetaData.obj
 0002:00003828       ??_C@_0BB@IFLOOCNA@mMaterialIndices@ 00000001801de828     GuMetaData.obj
 0002:00003840       ??_C@_0L@OPJMBFMI@mFaceRemap@ 00000001801de840     GuMetaData.obj
 0002:00003850       ??_C@_0N@BIOECAPM@mAdjacencies@ 00000001801de850     GuMetaData.obj
 0002:00003860       ??_C@_09CICJHLPI@mEdgeList@ 00000001801de860     GuMetaData.obj
 0002:00003870       ??_C@_0BD@IPKCNNIK@mLocalCenterOfMass@ 00000001801de870     GuMetaData.obj
 0002:00003888       ??_C@_0BA@OCOIGPII@mGRB_triIndices@ 00000001801de888     GuMetaData.obj
 0002:00003898       ??_C@_0BE@JPINNDAH@mGRB_triAdjacencies@ 00000001801de898     GuMetaData.obj
 0002:000038b0       ??_C@_0P@EDFJJHEF@mGRB_faceRemap@ 00000001801de8b0     GuMetaData.obj
 0002:000038c0       ??_C@_0BG@EEALPPCP@mGRB_faceRemapInverse@ 00000001801de8c0     GuMetaData.obj
 0002:000038d8       ??_C@_0O@CKMBAIFN@mGRB_BV32Tree@ 00000001801de8d8     GuMetaData.obj
 0002:000038e8       ??_C@_0BE@MGIOIICI@mSdfData?4mMeshLower@ 00000001801de8e8     GuMetaData.obj
 0002:00003900       ??_C@_0BC@NNEDELGI@mSdfData?4mSpacing@ 00000001801de900     GuMetaData.obj
 0002:00003918       ??_C@_0BB@OHOFDAIL@mSdfData?4mDims?4x@ 00000001801de918     GuMetaData.obj
 0002:00003930       ??_C@_0BB@POPOABMK@mSdfData?4mDims?4y@ 00000001801de930     GuMetaData.obj
 0002:00003948       ??_C@_0BB@NFNDFCAJ@mSdfData?4mDims?4z@ 00000001801de948     GuMetaData.obj
 0002:00003960       ??_C@_0BC@GMPBGGPI@mSdfData?4mNumSdfs@ 00000001801de960     GuMetaData.obj
 0002:00003978       ??_C@_0O@BCEBBLNE@mSdfData?4mSdf@ 00000001801de978     GuMetaData.obj
 0002:00003988       ??_C@_0BG@HMHEFHIE@mSdfData?4mSubgridSize@ 00000001801de988     GuMetaData.obj
 0002:000039a0       ??_C@_0BI@OFJBKPGB@mSdfData?4mNumStartSlots@ 00000001801de9a0     GuMetaData.obj
 0002:000039b8       ??_C@_0BM@MGEPBEON@mSdfData?4mSubgridStartSlots@ 00000001801de9b8     GuMetaData.obj
 0002:000039d8       ??_C@_0BJ@PKKGJLNM@mSdfData?4mNumSubgridSdfs@ 00000001801de9d8     GuMetaData.obj
 0002:000039f8       ??_C@_0BF@HLMPGIBH@mSdfData?4mSubgridSdf@ 00000001801de9f8     GuMetaData.obj
 0002:00003a10       ??_C@_0CF@GMJNHGOK@mSdfData?4mSdfSubgrids3DTexBlock@ 00000001801dea10     GuMetaData.obj
 0002:00003a38       ??_C@_0CF@HFIGEHKL@mSdfData?4mSdfSubgrids3DTexBlock@ 00000001801dea38     GuMetaData.obj
 0002:00003a60       ??_C@_0CF@FOKLBEGI@mSdfData?4mSdfSubgrids3DTexBlock@ 00000001801dea60     GuMetaData.obj
 0002:00003a88       ??_C@_0BO@EIPCIOJH@mSdfData?4mSubgridsMinSdfValue@ 00000001801dea88     GuMetaData.obj
 0002:00003aa8       ??_C@_0BO@NIIBJOHN@mSdfData?4mSubgridsMaxSdfValue@ 00000001801deaa8     GuMetaData.obj
 0002:00003ac8       ??_C@_0BO@GKGODKFG@mSdfData?4mBytesPerSparsePixel@ 00000001801deac8     GuMetaData.obj
 0002:00003ae8       ??_C@_0BJ@LEBGJKBE@mAccumulatedTrianglesRef@ 00000001801deae8     GuMetaData.obj
 0002:00003b08       ??_C@_0BF@OJMCNCDP@mTrianglesReferences@ 00000001801deb08     GuMetaData.obj
 0002:00003b20       ??_C@_0BH@LDGPOFA@mNbTrianglesReferences@ 00000001801deb20     GuMetaData.obj
 0002:00003b38       ??_C@_0BC@IFGECKF@RTreeTriangleMesh@ 00000001801deb38     GuMetaData.obj
 0002:00003b4c       ??_C@_06JDIHDDGN@mRTree@   00000001801deb4c     GuMetaData.obj
 0002:00003b58       ??_C@_0BA@LNNFPOKA@BV4TriangleMesh@ 00000001801deb58     GuMetaData.obj
 0002:00003b68       ??_C@_08FKLPEGDB@mBV4Tree@ 00000001801deb68     GuMetaData.obj
 0002:00003b78       ??_7?$SupportLocalImpl@VConvexHullNoScaleV@Gu@physx@@@Gu@physx@@6B@ 00000001801deb78     GuMTD.obj
 0002:00003bc0       ?absMask@?1??FAbs@aos@physx@@YA?AT__m128@@T4@@Z@4QBIB 00000001801debc0     GuMTD.obj
 0002:00003bd0       ??_7GjkConvex@Gu@physx@@6B@ 00000001801debd0     GuMTD.obj
 0002:00003c00       ??_7?$LocalConvex@VCapsuleV@Gu@physx@@@Gu@physx@@6B@ 00000001801dec00     GuMTD.obj
 0002:00003c30       ??_7?$LocalConvex@VConvexHullV@Gu@physx@@@Gu@physx@@6B@ 00000001801dec30     GuMTD.obj
 0002:00003c60       __real@2edbe6ff            00000001801dec60     GuMTD.obj
 0002:00003c64       __real@34000000            00000001801dec64     GuMTD.obj
 0002:00003c68       __real@ff7fffff            00000001801dec68     GuMTD.obj
 0002:00003c70       __xmm@34000000340000003400000034000000 00000001801dec70     GuMTD.obj
 0002:00003c80       __xmm@358637bd358637bd358637bd358637bd 00000001801dec80     GuMTD.obj
 0002:00003c90       __xmm@3dcccccd3dcccccd3dcccccd3dcccccd 00000001801dec90     GuMTD.obj
 0002:00003ca0       __xmm@3f7ff1413f7ff1413f7ff1413f7ff141 00000001801deca0     GuMTD.obj
 0002:00003cd0       ??_7?$RelativeConvex@VBoxV@Gu@physx@@@Gu@physx@@6B@ 00000001801decd0     GuOverlapTests.obj
 0002:00003d00       ??_7?$RelativeConvex@VConvexHullV@Gu@physx@@@Gu@physx@@6B@ 00000001801ded00     GuOverlapTests.obj
 0002:00003d60       __real@1e3ce508            00000001801ded60     GuRaycastTests.obj
 0002:00003d64       __real@28800000            00000001801ded64     GuRaycastTests.obj
 0002:00003d68       __real@33d6bf95            00000001801ded68     GuRaycastTests.obj
 0002:00003d6c       __real@3727c5ac            00000001801ded6c     GuRaycastTests.obj
 0002:00003d70       __real@3f0147ae            00000001801ded70     GuRaycastTests.obj
 0002:00003d74       __real@3f7ffffe            00000001801ded74     GuRaycastTests.obj
 0002:00003d78       __real@3f800347            00000001801ded78     GuRaycastTests.obj
 0002:00003d7c       __real@41200000            00000001801ded7c     GuRaycastTests.obj
 0002:00003d80       __real@80000000            00000001801ded80     GuRaycastTests.obj
 0002:00003d84       __real@b3d6bf95            00000001801ded84     GuRaycastTests.obj
 0002:00003d88       __real@b8d1b717            00000001801ded88     GuRaycastTests.obj
 0002:00003d8c       __real@c1200000            00000001801ded8c     GuRaycastTests.obj
 0002:00003dc0       ??_7?$MeshHitCallback@UPxGeomRaycastHit@physx@@@Gu@physx@@6B@ 00000001801dedc0     GuSweepMTD.obj
 0002:00003dd0       ??_7MeshMTDGenerationCallback@@6B@ 00000001801dedd0     GuSweepMTD.obj
 0002:00003de0       ??_7MidPhaseQueryLocalReport@@6B@ 00000001801dede0     GuSweepMTD.obj
 0002:00003df0       __real@3f8147ae            00000001801dedf0     GuSweepMTD.obj
 0002:00003df4       __real@3f933333            00000001801dedf4     GuSweepMTD.obj
 0002:00003e20       __real@3c23d70a            00000001801dee20     GuSweepSharedTests.obj
 0002:00003e24       __real@42c80000            00000001801dee24     GuSweepSharedTests.obj
 0002:00003e30       __xmm@ffffffffffffffffffffffffffffffff 00000001801dee30     GuSweepSharedTests.obj
 0002:00003e60       ??_7?$LocalConvex@VBoxV@Gu@physx@@@Gu@physx@@6B@ 00000001801dee60     GuSweepTests.obj
 0002:00003e90       ??_7?$LocalConvex@VTriangleV@Gu@physx@@@Gu@physx@@6B@ 00000001801dee90     GuSweepTests.obj
 0002:00003ec0       __xmm@00000002000000020000000200000002 00000001801deec0     GuSweepTests.obj
 0002:00003ed0       __xmm@3eaaaa9f3eaaaa9f3eaaaa9f3eaaaa9f 00000001801deed0     GuSweepTests.obj
 0002:00003f88       ??_7PxRunnable@physx@@6B@  00000001801def88     GuSDF.obj
 0002:00003f98       ??_C@_0DH@CEKIOCGN@D?3?2Projects?2PhysX?2physx?2source?2@ 00000001801def98     GuSDF.obj
 0002:00003fd0       ??_7PointOntoTriangleMeshProjector@Gu@physx@@6B@ 00000001801defd0     GuSDF.obj
 0002:00003fe8       ??_7?$PxThreadT@V?$PxReflectionAllocator@VPxThreadImpl@physx@@@physx@@@physx@@6B@ 00000001801defe8     GuSDF.obj
 0002:00003ff8       ??_C@_06FJHNOCKE@thread@   00000001801deff8     GuSDF.obj
 0002:00004000       ??_C@_0BAK@OPLLKLNG@SDF?5creation?3?5Mesh?5is?5not?5suita@ 00000001801df000     GuSDF.obj
 0002:00004110       ??_C@_0FB@OMEANACP@SDF?5creation?3?5Input?5mesh?5is?5not@ 00000001801df110     GuSDF.obj
 0002:00004168       ??_C@_0DG@OOJJGHLL@D?3?2Projects?2PhysX?2physx?2include@ 00000001801df168     GuSDF.obj
 0002:000041a0       ??_C@_0DE@OPOMDMJB@D?3?2Projects?2PhysX?2physx?2include@ 00000001801df1a0     GuSDF.obj
 0002:000041d8       ??_C@_0DN@DNFMLJGH@D?3?2Projects?2PhysX?2physx?2include@ 00000001801df1d8     GuSDF.obj
 0002:00004218       __real@37800080            00000001801df218     GuSDF.obj
 0002:0000421c       __real@3b808081            00000001801df21c     GuSDF.obj
 0002:00004220       __real@3e2aaaab            00000001801df220     GuSDF.obj
 0002:00004224       __real@3eaaaaab            00000001801df224     GuSDF.obj
 0002:00004228       __real@3f7d70a4            00000001801df228     GuSDF.obj
 0002:0000422c       __real@7e7fffff            00000001801df22c     GuSDF.obj
 0002:00004230       __real@bf000000            00000001801df230     GuSDF.obj
 0002:00004234       __real@fe7fffff            00000001801df234     GuSDF.obj
 0002:00004240       __xmm@00000001000000010000000100000000 00000001801df240     GuSDF.obj
 0002:00004250       __real@437f0000            00000001801df250     GuCookingSDF.obj
 0002:00004254       __real@477fff00            00000001801df254     GuCookingSDF.obj
 0002:00004280       ??_7?$RelativeConvex@UCustomConvexV@@@Gu@physx@@6B@ 00000001801df280     GuGjkQuery.obj
 0002:000042b0       ??_7?$LocalConvex@UCustomConvexV@@@Gu@physx@@6B@ 00000001801df2b0     GuGjkQuery.obj
 0002:000042e0       ??_7?$LocalConvex@UPointConvexV@@@Gu@physx@@6B@ 00000001801df2e0     GuGjkQuery.obj
 0002:00004330       __real@3da2f983            00000001801df330     GuWindingNumber.obj
 0002:00004334       __real@3e22f983            00000001801df334     GuWindingNumber.obj
 0002:00004338       __real@3f99999a            00000001801df338     GuWindingNumber.obj
 0002:000043a0       __real@3c343958            00000001801df3a0     GuCCDSweepConvexMesh.obj
 0002:000043a4       __real@3ca3d70a            00000001801df3a4     GuCCDSweepConvexMesh.obj
 0002:000043a8       __real@3f0ccccd            00000001801df3a8     GuCCDSweepConvexMesh.obj
 0002:000043ac       __real@3f8ccccd            00000001801df3ac     GuCCDSweepConvexMesh.obj
 0002:000043b0       __real@b58637bd            00000001801df3b0     GuCCDSweepConvexMesh.obj
 0002:000043e0       ??_7?$RelativeConvex@VCapsuleV@Gu@physx@@@Gu@physx@@6B@ 00000001801df3e0     GuCCDSweepPrimitives.obj
 0002:00004410       ??_7?$RelativeConvex@VTriangleV@Gu@physx@@@Gu@physx@@6B@ 00000001801df410     GuCCDSweepPrimitives.obj
 0002:00004440       __real@3ba3d70a            00000001801df440     GuCCDSweepPrimitives.obj
 0002:00004444       __real@501502f9            00000001801df444     GuCCDSweepPrimitives.obj
 0002:00004470       ??_C@_0EG@FLEOJLKG@D?3?2Projects?2PhysX?2physx?2source?2@ 00000001801df470     GuAdjacencies.obj
 0002:000044b8       ??_C@_0DA@FMEHLBKI@Adjacencies?3?3UpdateLink?3?5invali@ 00000001801df4b8     GuAdjacencies.obj
 0002:000044f0       ??_C@_0EA@CPHOACLK@Adjacencies?3?3CreateDatabase?3?5ca@ 00000001801df4f0     GuAdjacencies.obj
 0002:00004530       ??_C@_0ED@OOGBKGHE@D?3?2Projects?2PhysX?2physx?2source?2@ 00000001801df530     GuEdgeList.obj
 0002:00004578       ??_C@_0CO@GBNJFPN@EdgeList?3?3CreateFacesToEdges?3?5N@ 00000001801df578     GuEdgeList.obj
 0002:000045a8       ??_C@_0CO@EHJBBMNK@EdgeList?3?3ComputeActiveEdges?3?5N@ 00000001801df5a8     GuEdgeList.obj
 0002:000045d8       ??_C@_0DI@GBHLFOFP@ActiveEdges?3?3ComputeConvexEdges@ 00000001801df5d8     GuEdgeList.obj
 0002:00004610       ??_C@_0DM@JOGBLHDI@ActiveEdges?3?3ComputeConvexEdges@ 00000001801df610     GuEdgeList.obj
 0002:00004650       ??_C@_0ED@FEMJKPEL@ActiveEdges?3?3ComputeConvexEdges@ 00000001801df650     GuEdgeList.obj
 0002:000046a0       ??_C@_0EB@BFDPMFCD@ActiveEdges?3?3ComputeConvexEdges@ 00000001801df6a0     GuEdgeList.obj
 0002:000046e4       __real@bf7fbe77            00000001801df6e4     GuEdgeList.obj
 0002:000046e8       ??_7Quantizer@Gu@physx@@6B@ 00000001801df6e8     GuQuantizer.obj
 0002:00004710       ??_7QuantizerImpl@@6B@     00000001801df710     GuQuantizer.obj
 0002:00004740       ??_C@_0EE@JOGLKBGB@D?3?2Projects?2PhysX?2physx?2source?2@ 00000001801df740     GuQuantizer.obj
 0002:00004784       __real@3f0020c5            00000001801df784     GuQuantizer.obj
 0002:00004788       __real@3f8020c5            00000001801df788     GuQuantizer.obj
 0002:00004790       ??_C@_0EG@HOBFLGPC@D?3?2Projects?2PhysX?2physx?2source?2@ 00000001801df790     GuMeshCleaner.obj
 0002:000047d8       __real@40800000            00000001801df7d8     GuMeshCleaner.obj
 0002:000047e0       ??_C@_0EI@NCEHLLDJ@D?3?2Projects?2PhysX?2physx?2source?2@ 00000001801df7e0     GuVertexReducer.obj
 0002:00004920       __real@3f7fbe77            00000001801df920     GuContactBoxBox.obj
 0002:00004970       __real@3f7ff2e5            00000001801df970     GuContactCapsuleCapsule.obj
 0002:00004a00       __real@358637be            00000001801dfa00     GuContactCapsuleMesh.obj
 0002:00004a04       __real@ba83126f            00000001801dfa04     GuContactCapsuleMesh.obj
 0002:00004a60       ??_7ConvexMeshContactGenerationCallback@@6B@ 00000001801dfa60     GuContactConvexMesh.obj
 0002:00004ae0       __real@3ec90fdb            00000001801dfae0     GuContactPolygonPolygon.obj
 0002:00004ae4       __real@3f490fdb            00000001801dfae4     GuContactPolygonPolygon.obj
 0002:00004ae8       __real@3f96cbe4            00000001801dfae8     GuContactPolygonPolygon.obj
 0002:00004aec       __real@3fc90fdb            00000001801dfaec     GuContactPolygonPolygon.obj
 0002:00004af0       __real@3ffb53d2            00000001801dfaf0     GuContactPolygonPolygon.obj
 0002:00004af4       __real@4016cbe4            00000001801dfaf4     GuContactPolygonPolygon.obj
 0002:00004af8       __real@402feddf            00000001801dfaf8     GuContactPolygonPolygon.obj
 0002:00004b30       ??_C@_0DL@OAFGOMGB@Dropping?5contacts?5in?5sphere?5vs?5@ 00000001801dfb30     GuContactSphereMesh.obj
 0002:00004b70       ??_C@_0EN@ECHCPJEO@D?3?2Projects?2PhysX?2physx?2source?2@ 00000001801dfb70     GuContactSphereMesh.obj
 0002:00004bf0       ??_C@_0EI@IAMENPBN@D?3?2Projects?2PhysX?2physx?2source?2@ 00000001801dfbf0     GuBigConvexData.obj
 0002:00004c60       ??_C@_0N@CDGINLLF@PxConvexMesh@ 00000001801dfc60     GuConvexMesh.obj
 0002:00004c70       ??_7PxBase@physx@@6B@      00000001801dfc70     GuConvexMesh.obj
 0002:00004c98       ??_C@_0CE@IDAGNPDH@isKindOf?5called?5with?5invalid?5st@ 00000001801dfc98     GuConvexMesh.obj
 0002:00004cc0       ??_C@_0N@OPPDBGAG@PxRefCounted@ 00000001801dfcc0     GuConvexMesh.obj
 0002:00004cd0       ??_C@_0DI@NADMFPEC@D?3?2Projects?2PhysX?2physx?2include@ 00000001801dfcd0     GuConvexMesh.obj
 0002:00004d08       ??_7ConvexMesh@Gu@physx@@6B@ 00000001801dfd08     GuConvexMesh.obj
 0002:00004da0       ??_C@_0EF@OFBHLLBD@D?3?2Projects?2PhysX?2physx?2source?2@ 00000001801dfda0     GuConvexMesh.obj
 0002:00004de8       ??_C@_0DM@NEJKOFIP@Loading?5convex?5mesh?5failed?3?5Dep@ 00000001801dfde8     GuConvexMesh.obj
 0002:00004e28       ??_C@_0DB@PAHEPIEL@PxConvexMesh?3?3release?3?5double?5d@ 00000001801dfe28     GuConvexMesh.obj
 0002:00004e60       ??_C@_0DN@CLPPAJOM@D?3?2Projects?2PhysX?2physx?2source?2@ 00000001801dfe60     GuConvexMesh.obj
 0002:00004ec0       __xmm@000000000000000000000000ffffffff 00000001801dfec0     GuConvexSupportTable.obj
 0002:00004ed0       __xmm@0000000000000000ffffffff00000000 00000001801dfed0     GuConvexSupportTable.obj
 0002:00004ee0       __xmm@0000000000000000ffffffffffffffff 00000001801dfee0     GuConvexSupportTable.obj
 0002:00004ef0       __xmm@00000000ffffffff0000000000000000 00000001801dfef0     GuConvexSupportTable.obj
 0002:00004f00       __xmm@00000000ffffffff00000000ffffffff 00000001801dff00     GuConvexSupportTable.obj
 0002:00004f10       __xmm@00000000ffffffffffffffff00000000 00000001801dff10     GuConvexSupportTable.obj
 0002:00004fa0       __xmm@2b8cbccc2b8cbccc2b8cbccc2b8cbccc 00000001801dffa0     GuDistancePointTriangle.obj
 0002:00004ff0       __xmm@3f0000003f0000003f0000003f000000 00000001801dfff0     GuDistanceSegmentSegment.obj
 0002:00005020       __real@2b8cbccc            00000001801e0020     GuDistanceSegmentTriangle.obj
 0002:00005030       __xmm@3f8000013f8000013f8000013f800001 00000001801e0030     GuDistanceSegmentTriangle.obj
 0002:00005040       __xmm@b4000000b4000000b4000000b4000000 00000001801e0040     GuDistanceSegmentTriangle.obj
 0002:00005070       __real@26901d7d            00000001801e0070     GuDistanceTriangleTriangle.obj
 0002:000050f0       __xmm@38d1b71738d1b71738d1b71738d1b717 00000001801e00f0     GuGJKSimplex.obj
 0002:00005120       ??_C@_0O@PBAKPCEC@PxHeightField@ 00000001801e0120     GuHeightField.obj
 0002:00005130       ??_C@_0DJ@HCBAFCOI@D?3?2Projects?2PhysX?2physx?2include@ 00000001801e0130     GuHeightField.obj
 0002:00005170       ??_7HeightField@Gu@physx@@6B@ 00000001801e0170     GuHeightField.obj
 0002:00005228       ??_C@_0DC@BDMMBOKH@PxHeightField?3?3release?3?5double?5@ 00000001801e0228     GuHeightField.obj
 0002:00005260       ??_C@_0DF@LLAFPPKJ@Gu?3?3HeightField?3?3modifySamples?3@ 00000001801e0260     GuHeightField.obj
 0002:000052a0       ??_C@_0EC@PMHLIIBB@D?3?2Projects?2PhysX?2physx?2source?2@ 00000001801e02a0     GuHeightField.obj
 0002:000052e8       ??_C@_0CI@DMKEKGNK@Gu?3?3HeightField?3?3load?3?5PX_ALLOC@ 00000001801e02e8     GuHeightField.obj
 0002:00005310       ??_C@_0DG@LACOBMDE@Gu?3?3HeightField?3?3loadFromDesc?3?5@ 00000001801e0310     GuHeightField.obj
 0002:00005348       ??_C@_0DG@KKLNCOHH@D?3?2Projects?2PhysX?2physx?2include@ 00000001801e0348     GuHeightField.obj
 0002:000053a0       ??_C@_0DH@EJDJIMCB@HeightFieldShape?3?3getTriangle?3?5@ 00000001801e03a0     GuHeightFieldUtil.obj
 0002:000053e0       ??_C@_0EG@NBDFMCCB@D?3?2Projects?2PhysX?2physx?2source?2@ 00000001801e03e0     GuHeightFieldUtil.obj
 0002:00005428       __real@3a03126f            00000001801e0428     GuHeightFieldUtil.obj
 0002:0000542c       __real@3f19999a            00000001801e042c     GuHeightFieldUtil.obj
 0002:00005430       __xmm@40000000000000000000000000000000 00000001801e0430     GuHeightFieldUtil.obj
 0002:000054c0       ??_7HeightFieldTraceSegmentReport@@6B@ 00000001801e04c0     GuSweepsHF.obj
 0002:000054d0       ??_7CapsuleTraceSegmentReport@@6B@ 00000001801e04d0     GuSweepsHF.obj
 0002:000054e0       ??_7ConvexTraceSegmentReport@@6B@ 00000001801e04e0     GuSweepsHF.obj
 0002:000054f0       ??_7BoxTraceSegmentReport@@6B@ 00000001801e04f0     GuSweepsHF.obj
 0002:00005500       __real@aedbe6ff            00000001801e0500     GuSweepsHF.obj
 0002:00005530       __real@3089705f            00000001801e0530     GuIntersectionRayBox.obj
 0002:00005534       __real@b4000000            00000001801e0534     GuIntersectionRayBox.obj
 0002:00005540       __xmm@000000003089705f3089705f3089705f 00000001801e0540     GuIntersectionRayBox.obj
 0002:00005550       __xmm@00000000bf800000bf800000bf800000 00000001801e0550     GuIntersectionRayBox.obj
 0002:000055a0       ??_7SourceMeshBase@Gu@physx@@6B@ 00000001801e05a0     GuBV4.obj
 0002:000055c8       ??_7SourceMesh@Gu@physx@@6B@ 00000001801e05c8     GuBV4.obj
 0002:000055f0       ??_7TetrahedronSourceMesh@Gu@physx@@6B@ 00000001801e05f0     GuBV4.obj
 0002:00005618       ??_C@_0DM@HKNJDIGE@D?3?2Projects?2PhysX?2physx?2source?2@ 00000001801e0618     GuBV4.obj
 0002:00005660       __xmm@ff7fffffff7fffffff7fffffff7fffff 00000001801e0660     GuBV4.obj
 0002:00005690       ??_C@_0EB@GGOHAINN@D?3?2Projects?2PhysX?2physx?2source?2@ 00000001801e0690     GuBV4Build.obj
 0002:000056d4       __real@38000100            00000001801e06d4     GuBV4Build.obj
 0002:000056d8       __real@3e93cd3a            00000001801e06d8     GuBV4Build.obj
 0002:000056dc       __real@46fffe00            00000001801e06dc     GuBV4Build.obj
 0002:000056e0       __real@be93cd3a            00000001801e06e0     GuBV4Build.obj
 0002:00005710       __xmm@0000ffff0000ffff0000ffff0000ffff 00000001801e0710     GuBV4_AABBSweep.obj
 0002:00005720       __xmm@3089705f3089705f3089705f3089705f 00000001801e0720     GuBV4_AABBSweep.obj
 0002:00005730       __xmm@33d6bf9533d6bf9533d6bf9533d6bf95 00000001801e0730     GuBV4_AABBSweep.obj
 0002:00005740       __xmm@40000000400000004000000040000000 00000001801e0740     GuBV4_AABBSweep.obj
 0002:000057d0       __xmm@322bcc77322bcc77322bcc77322bcc77 00000001801e07d0     GuBV4_MeshMeshOverlap.obj
 0002:00005820       __real@00000000            00000001801e0820     GuBV4_Raycast.obj
 0002:00005850       __real@4f7fffff            00000001801e0850     GuBV4_SphereOverlap.obj
 0002:000058a0       __xmm@000000007f7fffff0000000000000000 00000001801e08a0     GuMidphaseBV4.obj
 0002:00005910       ??_C@_0DK@FFHPKGEP@PxMeshQuery?3?3getTriangle?3?5trian@ 00000001801e0910     GuMeshQuery.obj
 0002:00005950       ??_C@_0EC@PPJDHAHK@D?3?2Projects?2PhysX?2physx?2source?2@ 00000001801e0950     GuMeshQuery.obj
 0002:000059a0       ??_C@_0FD@EHCCILIF@Adjacency?5information?5not?5creat@ 00000001801e09a0     GuMeshQuery.obj
 0002:00005a00       ??_C@_0FA@MCAAGAGM@findOverlapTriangleMesh?3?5Only?5b@ 00000001801e0a00     GuMeshQuery.obj
 0002:00005a50       ??_C@_0FL@BKNMAHIA@PxMeshQuery?3?3findOverlapTriangl@ 00000001801e0a50     GuMeshQuery.obj
 0002:00005ab0       ??_C@_0EM@BEFNLPHI@findOverlapHeightField?3?5Only?5bo@ 00000001801e0ab0     GuMeshQuery.obj
 0002:00005b00       ??_C@_0CJ@NLNHIMDM@PxMeshQuery?3?3sweep?$CI?$CJ?3?5pose?5is?5n@ 00000001801e0b00     GuMeshQuery.obj
 0002:00005b30       ??_C@_0CM@BFKJPOOO@PxMeshQuery?3?3sweep?$CI?$CJ?3?5unitDir?5i@ 00000001801e0b30     GuMeshQuery.obj
 0002:00005b60       ??_C@_0CN@JKBDLLPP@PxMeshQuery?3?3sweep?$CI?$CJ?3?5distance?5@ 00000001801e0b60     GuMeshQuery.obj
 0002:00005b90       ??_C@_0DN@DPNNFGGF@PxMeshQuery?3?3sweep?$CI?$CJ?3?5sweep?5dis@ 00000001801e0b90     GuMeshQuery.obj
 0002:00005bd0       ??_C@_0BA@MBAFFELP@MeshQuery?4sweep@ 00000001801e0bd0     GuMeshQuery.obj
 0002:00005be0       ??_C@_0FJ@GNAHJJCM@PxMeshQuery?3?3sweep?$CI?$CJ?3?5geometry?5@ 00000001801e0be0     GuMeshQuery.obj
 0002:00005c3c       __real@4cbebc20            00000001801e0c3c     GuMeshQuery.obj
 0002:00005c60       ??_7Callback@RTree@Gu@physx@@6B@ 00000001801e0c60     GuMidphaseRTree.obj
 0002:00005c78       ??_7?$RayRTreeCallback@$00$0A@@@6BCallbackRaycast@RTree@Gu@physx@@@ 00000001801e0c78     GuMidphaseRTree.obj
 0002:00005c78       ??_7?$RayRTreeCallback@$0A@$0A@@@6BCallbackRaycast@RTree@Gu@physx@@@ 00000001801e0c78     GuMidphaseRTree.obj
 0002:00005c88       ??_7?$RayRTreeCallback@$00$0A@@@6BCallback@RTree@Gu@physx@@@ 00000001801e0c88     GuMidphaseRTree.obj
 0002:00005c88       ??_7?$RayRTreeCallback@$0A@$0A@@@6BCallback@RTree@Gu@physx@@@ 00000001801e0c88     GuMidphaseRTree.obj
 0002:00005ca0       ??_7RayMeshColliderCallback@@6B@ 00000001801e0ca0     GuMidphaseRTree.obj
 0002:00005cb0       ??_C@_0EN@DPPFLBLF@Point?9mesh?5distance?5query?5not?5s@ 00000001801e0cb0     GuMidphaseRTree.obj
 0002:00005d00       ??_C@_0EG@BPJGHFNE@D?3?2Projects?2PhysX?2physx?2source?2@ 00000001801e0d00     GuMidphaseRTree.obj
 0002:00005d48       ??_7?$RayRTreeCallback@$0A@$00@@6BCallbackRaycast@RTree@Gu@physx@@@ 00000001801e0d48     GuMidphaseRTree.obj
 0002:00005d58       ??_7?$RayRTreeCallback@$0A@$00@@6BCallback@RTree@Gu@physx@@@ 00000001801e0d58     GuMidphaseRTree.obj
 0002:00005d70       ??_7?$RayRTreeCallback@$00$00@@6BCallbackRaycast@RTree@Gu@physx@@@ 00000001801e0d70     GuMidphaseRTree.obj
 0002:00005d80       ??_7?$RayRTreeCallback@$00$00@@6BCallback@RTree@Gu@physx@@@ 00000001801e0d80     GuMidphaseRTree.obj
 0002:00005e00       __xmm@7f7fffff000000000000000000000000 00000001801e0e00     GuMidphaseRTree.obj
 0002:00005e80       ??_7?$PxReportCallback@UPxGeomIndexPair@physx@@@physx@@6B@ 00000001801e0e80     GuOverlapTestsMesh.obj
 0002:00005ea0       ??_C@_0EP@CEFGCJKJ@PxGeometryQuery?3?3overlap?$CI?$CJ?3?5onl@ 00000001801e0ea0     GuOverlapTestsMesh.obj
 0002:00005ef0       ??_C@_0EJ@PLPOMHNC@D?3?2Projects?2PhysX?2physx?2source?2@ 00000001801e0ef0     GuOverlapTestsMesh.obj
 0002:00005f60       ?MN@RTreePage@Gu@physx@@2MB 00000001801e0f60     GuRTree.obj
 0002:00005f64       ?MX@RTreePage@Gu@physx@@2MB 00000001801e0f64     GuRTree.obj
 0002:00005f68       ??_C@_0DO@OBCNFEAD@D?3?2Projects?2PhysX?2physx?2source?2@ 00000001801e0f68     GuRTree.obj
 0002:00006020       ??_7SweepShapeMeshHitCallback@Gu@physx@@6B@ 00000001801e1020     GuSweepsMesh.obj
 0002:00006030       ??_7SweepCapsuleMeshHitCallback@Gu@physx@@6B@ 00000001801e1030     GuSweepsMesh.obj
 0002:00006040       ??_7SweepBoxMeshHitCallback@Gu@physx@@6B@ 00000001801e1040     GuSweepsMesh.obj
 0002:00006050       ??_7SweepConvexMeshHitCallback@Gu@physx@@6B@ 00000001801e1050     GuSweepsMesh.obj
 0002:00006080       ??_C@_0P@GGNFNHKF@PxTriangleMesh@ 00000001801e1080     GuTriangleMesh.obj
 0002:00006090       ??_C@_0DK@EJPLOILI@D?3?2Projects?2PhysX?2physx?2include@ 00000001801e1090     GuTriangleMesh.obj
 0002:000060d0       ??_7TriangleMesh@Gu@physx@@6B@ 00000001801e10d0     GuTriangleMesh.obj
 0002:000061a8       ??_C@_0DD@LOOPMCGG@PxTriangleMesh?3?3release?3?5double@ 00000001801e11a8     GuTriangleMesh.obj
 0002:000061e0       ??_C@_0FH@PMPAJDGI@PxTriangleMesh?3?3getVerticesForM@ 00000001801e11e0     GuTriangleMesh.obj
 0002:00006240       ??_C@_0EF@NLEHBEPC@D?3?2Projects?2PhysX?2physx?2source?2@ 00000001801e1240     GuTriangleMesh.obj
 0002:00006290       ??_C@_0EF@GMNFLDH@PxTriangleMesh?3?3refitBVH?$CI?$CJ?5is?5n@ 00000001801e1290     GuTriangleMesh.obj
 0002:000062e0       __xmm@38383838383838383838383838383838 00000001801e12e0     GuTriangleMesh.obj
 0002:00006310       ??_C@_0BE@CNJKIINO@PxBVH34TriangleMesh@ 00000001801e1310     GuTriangleMeshBV4.obj
 0002:00006328       ??_7BV4TriangleMesh@Gu@physx@@6B@ 00000001801e1328     GuTriangleMeshBV4.obj
 0002:00006400       ??_C@_0EF@JLFNNPLP@BVH34?5trees?3?5refit?5operation?5on@ 00000001801e1400     GuTriangleMeshBV4.obj
 0002:00006450       ??_C@_0EI@EMPOOLJJ@D?3?2Projects?2PhysX?2physx?2source?2@ 00000001801e1450     GuTriangleMeshBV4.obj
 0002:00006498       __real@3951b717            00000001801e1498     GuTriangleMeshBV4.obj
 0002:000064c0       ??_C@_0BE@EIFHCCBO@PxBVH33TriangleMesh@ 00000001801e14c0     GuTriangleMeshRTree.obj
 0002:000064d8       ??_7RTreeTriangleMesh@Gu@physx@@6B@ 00000001801e14d8     GuTriangleMeshRTree.obj
 0002:000065b0       ??_7?$RefitCallback@G@physx@@6B@ 00000001801e15b0     GuTriangleMeshRTree.obj
 0002:000065c0       ??_7?$RefitCallback@I@physx@@6B@ 00000001801e15c0     GuTriangleMeshRTree.obj
 0002:000065f0       ??_C@_0DN@DGOGJNGI@D?3?2Projects?2PhysX?2physx?2source?2@ 00000001801e15f0     GuBV32.obj
 0002:00006650       ??_C@_0EC@KKFJKOEP@D?3?2Projects?2PhysX?2physx?2source?2@ 00000001801e1650     GuBV32Build.obj
 0002:000066c0       ??_C@_0BC@FDAIDHBP@PxTetrahedronMesh@ 00000001801e16c0     GuTetrahedronMesh.obj
 0002:000066d8       ??_C@_0DN@LCNAHNLL@D?3?2Projects?2PhysX?2physx?2include@ 00000001801e16d8     GuTetrahedronMesh.obj
 0002:00006718       ??_C@_0BC@FBICGJIB@PxSoftBodyAuxData@ 00000001801e1718     GuTetrahedronMesh.obj
 0002:00006730       ??_C@_0P@CLLFGFAA@PxSoftBodyMesh@ 00000001801e1730     GuTetrahedronMesh.obj
 0002:00006740       ??_7SoftBodyAuxData@Gu@physx@@6B@ 00000001801e1740     GuTetrahedronMesh.obj
 0002:00006788       ??_7TetrahedronMesh@Gu@physx@@6B@ 00000001801e1788     GuTetrahedronMesh.obj
 0002:00006800       ??_7BVTetrahedronMesh@Gu@physx@@6B@ 00000001801e1800     GuTetrahedronMesh.obj
 0002:00006878       ??_7SoftBodyMesh@Gu@physx@@6B@ 00000001801e1878     GuTetrahedronMesh.obj
 0002:000068f8       ??_C@_0DG@JJNMDPMD@PxTetrahedronMesh?3?3release?3?5dou@ 00000001801e18f8     GuTetrahedronMesh.obj
 0002:00006930       ??_C@_0DD@GGFGEPII@PxSoftBodyMesh?3?3release?3?5double@ 00000001801e1930     GuTetrahedronMesh.obj
 0002:00006970       ??_C@_0EI@KOLNABAN@D?3?2Projects?2PhysX?2physx?2source?2@ 00000001801e1970     GuTetrahedronMesh.obj
 0002:00006a00       __xmm@00000000358637bd358637bd358637bd 00000001801e1a00     GuPCMContactBoxBox.obj
 0002:00006a10       __xmm@3f4ccccd3f4ccccd3f4ccccd3f4ccccd 00000001801e1a10     GuPCMContactBoxBox.obj
 0002:00006a20       __xmm@3f8003473f8003473f8003473f800347 00000001801e1a20     GuPCMContactBoxBox.obj
 0002:00006a30       __xmm@ffffffff00000000ffffffffffffffff 00000001801e1a30     GuPCMContactBoxBox.obj
 0002:00006a60       ??_7?$LocalConvex@VConvexHullNoScaleV@Gu@physx@@@Gu@physx@@6B@ 00000001801e1a60     GuPCMContactBoxConvex.obj
 0002:00006a90       __xmm@3f3504f33f3504f33f3504f33f3504f3 00000001801e1a90     GuPCMContactBoxConvex.obj
 0002:00006ae0       __xmm@ffffffffffffffffffffffff00000000 00000001801e1ae0     GuPCMContactCapsuleCapsule.obj
 0002:00006b10       __xmm@3fa000003fa000003fa000003fa00000 00000001801e1b10     GuPCMContactCapsuleConvex.obj
 0002:00006b40       ??_7PCMCapsuleVsHeightfieldContactGenerationCallback@@6B@ 00000001801e1b40     GuPCMContactCapsuleHeightField.obj
 0002:00006b50       __real@3f7f3b64            00000001801e1b50     GuPCMContactCapsuleHeightField.obj
 0002:00006ba0       __xmm@3f7ff9723f7ff9723f7ff9723f7ff972 00000001801e1ba0     GuPCMContactCapsuleMesh.obj
 0002:00006bb0       __xmm@3f7fffef3f7fffef3f7fffef3f7fffef 00000001801e1bb0     GuPCMContactCapsuleMesh.obj
 0002:00006bc0       __xmm@60ad78ec60ad78ec60ad78ec60ad78ec 00000001801e1bc0     GuPCMContactCapsuleMesh.obj
 0002:00006bf0       ??_7?$SupportLocalImpl@VTriangleV@Gu@physx@@@Gu@physx@@6B@ 00000001801e1bf0     GuPCMContactConvexCommon.obj
 0002:00006c10       __xmm@3cf5c2803cf5c2803cf5c2803cf5c280 00000001801e1c10     GuPCMContactConvexCommon.obj
 0002:00006c20       __xmm@3f7851ec3f7851ec3f7851ec3f7851ec 00000001801e1c20     GuPCMContactConvexCommon.obj
 0002:00006c50       ??_7?$RelativeConvex@VConvexHullNoScaleV@Gu@physx@@@Gu@physx@@6B@ 00000001801e1c50     GuPCMContactConvexConvex.obj
 0002:00006cb0       __xmm@3f19999a3f19999a3f19999a3f19999a 00000001801e1cb0     GuPCMContactConvexHeightField.obj
 0002:00006d20       __xmm@3f34fdf43f34fdf43f34fdf43f34fdf4 00000001801e1d20     GuPCMContactGenBoxConvex.obj
 0002:00006d50       __xmm@3f80a3d73f80a3d73f80a3d73f80a3d7 00000001801e1d50     GuPCMContactGenSphereCapsule.obj
 0002:00006d60       __xmm@bba3d70abba3d70abba3d70abba3d70a 00000001801e1d60     GuPCMContactGenSphereCapsule.obj
 0002:00006d90       __xmm@3f7ffd613f7ffd613f7ffd613f7ffd61 00000001801e1d90     GuPCMContactPlaneBox.obj
 0002:00006dc0       __real@3b23d70b            00000001801e1dc0     GuPCMContactPlaneCapsule.obj
 0002:00006dd0       __xmm@3ca3d70a3ca3d70a3ca3d70a3ca3d70a 00000001801e1dd0     GuPCMContactPlaneCapsule.obj
 0002:00006e00       __xmm@3a03126f3a03126f3a03126f3a03126f 00000001801e1e00     GuPCMContactPlaneConvex.obj
 0002:00006f20       __xmm@3727c5ac3727c5ac3727c5ac3727c5ac 00000001801e1f20     GuPCMContactSphereSphere.obj
 0002:00006f50       __xmm@3f7f06f73f7f06f73f7f06f73f7f06f7 00000001801e1f50     GuPCMContactCustomGeometry.obj
 0002:00006f60       ?gPCMBoxPolygonData@Gu@physx@@3QBEB 00000001801e1f60     GuPCMShapeConvex.obj
 0002:00006fe0       ?invalidateThresholds@Gu@physx@@3QBMB 00000001801e1fe0     GuPersistentContactManifold.obj
 0002:00006ff8       ?invalidateQuatThresholds@Gu@physx@@3QBMB 00000001801e1ff8     GuPersistentContactManifold.obj
 0002:00007010       ?invalidateThresholds2@Gu@physx@@3QBMB 00000001801e2010     GuPersistentContactManifold.obj
 0002:00007020       ?invalidateQuatThresholds2@Gu@physx@@3QBMB 00000001801e2020     GuPersistentContactManifold.obj
 0002:00007030       __xmm@00000000340000003400000034000000 00000001801e2030     GuPersistentContactManifold.obj
 0002:00007040       __xmm@000000003f8000003f80000000000000 00000001801e2040     GuPersistentContactManifold.obj
 0002:00007050       __xmm@00000000bf8000003f80000000000000 00000001801e2050     GuPersistentContactManifold.obj
 0002:00007060       __xmm@ffffffffffffffff00000000ffffffff 00000001801e2060     GuPersistentContactManifold.obj
 0002:00007090       __xmm@c1200000c1200000c1200000c1200000 00000001801e2090     GuPCMContactGenUtil.obj
 0002:000070e0       __real@b727c5ac            00000001801e20e0     GuSweepBoxSphere.obj
 0002:00007150       ??_C@_0EJ@DJNEKCIA@D?3?2Projects?2PhysX?2physx?2source?2@ 00000001801e2150     GuSweepCapsuleBox.obj
 0002:000071e0       __real@3f7fff58            00000001801e21e0     GuSweepCapsuleTriangle.obj
 0002:00007250       ??_C@_0CH@DHJGKCPD@Gu?3?3computeBounds?3?5Unknown?5shap@ 00000001801e2250     GuBounds.obj
 0002:00007278       ??_C@_0DK@IEODELPE@D?3?2Projects?2PhysX?2physx?2source?2@ 00000001801e2278     GuBounds.obj
 0002:000072b4       __real@34800000            00000001801e22b4     GuBounds.obj
 0002:000072b8       __real@3f7fffef            00000001801e22b8     GuBounds.obj
 0002:000072c0       __xmm@3f8147ae3f8147ae3f8147ae3f8147ae 00000001801e22c0     GuBounds.obj
 0002:000072f0       ??_C@_0DM@EFKLHLAE@D?3?2Projects?2PhysX?2physx?2source?2@ 00000001801e22f0     GuAABBTree.obj
 0002:00007330       __xmm@5a60b17f5a60b17f5a60b17f5a60b17f 00000001801e2330     GuAABBTree.obj
 0002:00007340       __xmm@da60b17fda60b17fda60b17fda60b17f 00000001801e2340     GuAABBTree.obj
 0002:000073b0       ??_C@_0EH@PHDMPLHG@D?3?2Projects?2PhysX?2physx?2source?2@ 00000001801e23b0     GuIncrementalAABBTree.obj
 0002:000073f8       ??_C@_0DE@NDNJAKEP@D?3?2Projects?2PhysX?2physx?2include@ 00000001801e23f8     GuIncrementalAABBTree.obj
 0002:0000742c       __real@40400000            00000001801e242c     GuIncrementalAABBTree.obj
 0002:00007430       ??_C@_0DH@EMJKKMLK@D?3?2Projects?2PhysX?2physx?2source?2@ 00000001801e2430     GuSAH.obj
 0002:00007490       ??_7PxBVH@physx@@6B@       00000001801e2490     GuBVH.obj
 0002:00007508       ??_C@_05OKJNPKBM@PxBVH@    00000001801e2508     GuBVH.obj
 0002:00007510       ??_C@_0DB@EEJPGNCO@D?3?2Projects?2PhysX?2physx?2include@ 00000001801e2510     GuBVH.obj
 0002:00007548       ??_7RefCountable@Cm@physx@@6B@ 00000001801e2548     GuBVH.obj
 0002:00007558       ??_7BVH@Gu@physx@@6BPxBVH@2@@ 00000001801e2558     GuBVH.obj
 0002:000075d0       ??_7BVH@Gu@physx@@6BRefCountable@Cm@2@@ 00000001801e25d0     GuBVH.obj
 0002:000075e0       ??_C@_0DH@FOPCDPEP@D?3?2Projects?2PhysX?2physx?2source?2@ 00000001801e25e0     GuBVH.obj
 0002:00007618       ??_C@_0CK@HAIOEINI@PxBVH?3?3release?3?5double?5deletion@ 00000001801e2618     GuBVH.obj
 0002:00007670       ??_C@_0EN@CHEAOGED@D?3?2Projects?2PhysX?2physx?2source?2@ 00000001801e2670     GuIncrementalAABBPrunerCore.obj
 0002:000076c0       __real@3f80a3d7            00000001801e26c0     GuIncrementalAABBPrunerCore.obj
 0002:000076f0       ??_7BasePruner@Gu@physx@@6B@ 00000001801e26f0     GuIncrementalAABBPruner.obj
 0002:00007708       ??_7IncrementalAABBPruner@Gu@physx@@6B@ 00000001801e2708     GuIncrementalAABBPruner.obj
 0002:00007790       ??_C@_0BM@FLAABPLG@SceneQuery?4prunerAddObjects@ 00000001801e2790     GuIncrementalAABBPruner.obj
 0002:000077b0       ??_C@_0BP@EAAOKPEE@SceneQuery?4prunerUpdateObjects@ 00000001801e27b0     GuIncrementalAABBPruner.obj
 0002:000077d0       ??_C@_0BP@EHMBNBOH@SceneQuery?4prunerRemoveObjects@ 00000001801e27d0     GuIncrementalAABBPruner.obj
 0002:000077f0       ??_C@_0BI@HOKOKBIM@SceneQuery?4prunerCommit@ 00000001801e27f0     GuIncrementalAABBPruner.obj
 0002:00007810       ??_C@_0EJ@CCLOEHLN@D?3?2Projects?2PhysX?2physx?2source?2@ 00000001801e2810     GuIncrementalAABBPruner.obj
 0002:00007880       ??_C@_0BE@PKINCBHP@PruningPool?3?3resize@ 00000001801e2880     GuPruningPool.obj
 0002:00007898       ??_C@_0DP@DFEIGMFJ@D?3?2Projects?2PhysX?2physx?2source?2@ 00000001801e2898     GuPruningPool.obj
 0002:000078d8       ??_C@_0BI@HMDEMGJB@PruningPool?3?3addObjects@ 00000001801e28d8     GuPruningPool.obj
 0002:000078f0       ??_C@_0BK@JPNIEHEJ@PruningPool?3?3removeObject@ 00000001801e28f0     GuPruningPool.obj
 0002:00007910       ??_C@_0BJ@GNLAFFBD@PruningPool?3?3shiftOrigin@ 00000001801e2910     GuPruningPool.obj
 0002:00007930       ??_C@_0CE@MGPCCKGE@PruningPool?3?3updateAndInflateBo@ 00000001801e2930     GuPruningPool.obj
 0002:000079a0       ??_7BucketPruner@Gu@physx@@6B@ 00000001801e29a0     GuBucketPruner.obj
 0002:00007a30       ??_C@_0EA@COCBBMGG@D?3?2Projects?2PhysX?2physx?2source?2@ 00000001801e2a30     GuBucketPruner.obj
 0002:00007a70       __real@bf13cd3a            00000001801e2a70     GuBucketPruner.obj
 0002:00007a80       __xmm@000000007e7fffff7e7fffff7e7fffff 00000001801e2a80     GuBucketPruner.obj
 0002:00007a90       __xmm@00000000fe7ffffffe7ffffffe7fffff 00000001801e2a90     GuBucketPruner.obj
 0002:00007aa0       __xmm@3f13cd3a3f13cd3a3f13cd3a3f13cd3a 00000001801e2aa0     GuBucketPruner.obj
 0002:00007ab0       __xmm@bf13cd3abf13cd3abf13cd3a3f13cd3a 00000001801e2ab0     GuBucketPruner.obj
 0002:00007ac0       __xmm@bf8000003f8000003f800000bf800000 00000001801e2ac0     GuBucketPruner.obj
 0002:00007ad0       __xmm@bf8000003f800000bf8000003f800000 00000001801e2ad0     GuBucketPruner.obj
 0002:00007ae0       __xmm@bf800000bf8000003f8000003f800000 00000001801e2ae0     GuBucketPruner.obj
 0002:00007af0       __xmm@bf800000bf800000bf8000003f800000 00000001801e2af0     GuBucketPruner.obj
 0002:00007b00       ?mIndices@MaverickNode@Gu@physx@@2QBIB 00000001801e2b00     GuMaverickNode.obj
 0002:00007b60       ??_C@_0EI@PKPHMCOA@D?3?2Projects?2PhysX?2physx?2source?2@ 00000001801e2b60     GuExtendedBucketPruner.obj
 0002:00007bd0       ??_7CompanionPruner@Gu@physx@@6B@ 00000001801e2bd0     GuSecondaryPruner.obj
 0002:00007c50       ??_7CompanionPrunerBucket@@6B@ 00000001801e2c50     GuSecondaryPruner.obj
 0002:00007cd0       ??_7CompanionPrunerIncremental@@6B@ 00000001801e2cd0     GuSecondaryPruner.obj
 0002:00007d50       ??_7CompanionPrunerAABBTree@@6B@ 00000001801e2d50     GuSecondaryPruner.obj
 0002:00007dd0       ??_C@_0ED@CHDBNDNH@D?3?2Projects?2PhysX?2physx?2source?2@ 00000001801e2dd0     GuSecondaryPruner.obj
 0002:00007e40       ??_7AABBPruner@Gu@physx@@6B@ 00000001801e2e40     GuAABBPruner.obj
 0002:00007ee0       ??_C@_0CC@JANKLMNO@SceneQuery?4bucketPrunerAddObjec@ 00000001801e2ee0     GuAABBPruner.obj
 0002:00007f10       ??_C@_0LA@IHBEIKND@SceneQuery?5static?5AABB?5Tree?5reb@ 00000001801e2f10     GuAABBPruner.obj
 0002:00007fc0       ??_C@_0DO@NCAPGNHO@D?3?2Projects?2PhysX?2physx?2source?2@ 00000001801e2fc0     GuAABBPruner.obj
 0002:00008000       ??_C@_0CB@JOCHAJIC@SceneQuery?4prunerNewTreeFinaliz@ 00000001801e3000     GuAABBPruner.obj
 0002:00008028       ??_C@_0BP@IOICCIGM@SceneQuery?4prunerNewTreeSwitch@ 00000001801e3028     GuAABBPruner.obj
 0002:00008048       ??_C@_0CA@LJGALBJD@SceneQuery?4prunerNewTreeMapping@ 00000001801e3048     GuAABBPruner.obj
 0002:00008068       ??_C@_0CD@OCIEMIME@SceneQuery?4prunerNewTreeFinalRe@ 00000001801e3068     GuAABBPruner.obj
 0002:00008090       ??_C@_0CG@PMFEEPAE@SceneQuery?4prunerNewTreeRemoveO@ 00000001801e3090     GuAABBPruner.obj
 0002:000080b8       ??_C@_0BL@NAENOAHO@SceneQuery?4prunerBuildStep@ 00000001801e30b8     GuAABBPruner.obj
 0002:000080d8       ??_C@_0CC@MJCIDELA@SceneQuery?4prunerNewTreeFullRef@ 00000001801e30d8     GuAABBPruner.obj
 0002:00008100       ??_C@_0BI@DAHHAEPA@SceneQuery?4prepareBuild@ 00000001801e3100     GuAABBPruner.obj
 0002:00008118       ??_C@_0CF@PDMDBIIO@SceneQuery?4prunerFullRebuildAAB@ 00000001801e3118     GuAABBPruner.obj
 0002:00008140       ??_C@_0CE@GKMPPEJP@SceneQuery?4prunerUpdateBucketPr@ 00000001801e3140     GuAABBPruner.obj
 0002:00008168       ??_C@_0CI@MKOHFNNO@SceneQuery?4prunerRefitUpdatedAn@ 00000001801e3168     GuAABBPruner.obj
 0002:00008190       ??_C@_0EB@GEFAFCAO@D?3?2Projects?2PhysX?2physx?2source?2@ 00000001801e3190     GuActorShapeMap.obj
 0002:00008200       ??_C@_0BF@DNABLJAF@Invalid?5pruner?5index@ 00000001801e3200     GuQuerySystem.obj
 0002:00008218       ??_C@_0DP@GLCOJEND@D?3?2Projects?2PhysX?2physx?2source?2@ 00000001801e3218     GuQuerySystem.obj
 0002:00008258       ??_C@_0BO@MMDENGGP@QuerySystem?4processDirtyLists@ 00000001801e3258     GuQuerySystem.obj
 0002:00008278       ??_C@_0BE@PHJMAGEL@QuerySystem?3?3update@ 00000001801e3278     GuQuerySystem.obj
 0002:00008290       ??_C@_0BK@GODFCMPK@QuerySystem?4commitUpdates@ 00000001801e3290     GuQuerySystem.obj
 0002:000082e0       ??_C@_0CA@NAJNANMC@QuerySystem?4createTreeOfPruners@ 00000001801e32e0     GuQuerySystem.obj
 0002:00008320       ??_C@_0DL@NPBMMOKF@D?3?2Projects?2PhysX?2physx?2source?2@ 00000001801e3320     GuFactory.obj
 0002:00008360       ?reductionFactors@SubSortQuick@physx@@2QBMB 00000001801e3360     GuRTreeCooking.obj
 0002:00008370       ?stopAtTrisPerLeaf1@SubSortQuick@physx@@2QBIB 00000001801e3370     GuRTreeCooking.obj
 0002:00008440       ??_C@_0EI@BMCDIIBF@D?3?2Projects?2PhysX?2physx?2source?2@ 00000001801e3440     GuRTreeCooking.obj
 0002:00008488       __real@41100000            00000001801e3488     GuRTreeCooking.obj
 0002:0000848c       __real@41700000            00000001801e348c     GuRTreeCooking.obj
 0002:00008490       __real@42200000            00000001801e3490     GuRTreeCooking.obj
 0002:000084a0       __xmm@00000004000000030000000200000001 00000001801e34a0     GuRTreeCooking.obj
 0002:000084d0       ??_C@_0EG@NJOHAMKE@D?3?2Projects?2PhysX?2physx?2source?2@ 00000001801e34d0     GuCookingBVH.obj
 0002:00008518       ??_C@_0DL@JHPKHGFA@Cooking?3?3cookBVH?3?5user?9provided@ 00000001801e3518     GuCookingBVH.obj
 0002:00008558       ??_C@_0DN@PLNPGFEB@Cooking?3?3createBVH?3?5user?9provid@ 00000001801e3558     GuCookingBVH.obj
 0002:000085a0       ??_C@_0EL@JCJBAPHL@Cooking?3?3cookHeightField?3?5user?9@ 00000001801e35a0     GuCookingHF.obj
 0002:000085f0       ??_C@_0EF@KHJJELCE@D?3?2Projects?2PhysX?2physx?2source?2@ 00000001801e35f0     GuCookingHF.obj
 0002:00008640       ??_C@_0EN@FCEPCAFC@Cooking?3?3createHeightField?3?5use@ 00000001801e3640     GuCookingHF.obj
 0002:00008690       ??_C@_0EK@EKAIJEBL@Cooking?3?3cookConvexMesh?3?5user?9p@ 00000001801e3690     GuCookingConvexMesh.obj
 0002:000086e0       ??_C@_0FA@GFFGAPML@Cooking?3?3cookConvexMesh?3?5provid@ 00000001801e36e0     GuCookingConvexMesh.obj
 0002:00008730       ??_C@_0EP@PKDCPNNO@Cooking?3?3cookConvexMesh?3?5provid@ 00000001801e3730     GuCookingConvexMesh.obj
 0002:00008780       ??_C@_0EO@LKFMMDE@Cooking?3?3cookConvexMesh?3?5user?9p@ 00000001801e3780     GuCookingConvexMesh.obj
 0002:000087d0       ??_C@_0EL@KJEPJALG@Cooking?3?3cookConvexMesh?3?5user?9p@ 00000001801e37d0     GuCookingConvexMesh.obj
 0002:00008820       ??_C@_0FM@LHMEBKMM@Cooking?3?3cookConvexMesh?3?5GPU?9co@ 00000001801e3820     GuCookingConvexMesh.obj
 0002:00008880       ??_C@_0FJ@FHCFFABE@Cooking?3?3cookConvexMesh?3?5GPU?9co@ 00000001801e3880     GuCookingConvexMesh.obj
 0002:000088e0       ??_C@_0LM@CHONPBFM@Cooking?3?3cookConvexMesh?3?5GPU?9co@ 00000001801e38e0     GuCookingConvexMesh.obj
 0002:000089a0       ??_C@_0EN@DJIFJOFO@D?3?2Projects?2PhysX?2physx?2source?2@ 00000001801e39a0     GuCookingConvexMesh.obj
 0002:00008a10       ??_7TriangleMeshBuilder@physx@@6B@ 00000001801e3a10     GuCookingTriangleMesh.obj
 0002:00008a38       ??_7RTreeTriangleMeshBuilder@physx@@6B@ 00000001801e3a38     GuCookingTriangleMesh.obj
 0002:00008a60       ??_7BV4TriangleMeshBuilder@physx@@6B@ 00000001801e3a60     GuCookingTriangleMesh.obj
 0002:00008a90       ??_C@_0EP@EGHKIEDK@D?3?2Projects?2PhysX?2physx?2source?2@ 00000001801e3a90     GuCookingTriangleMesh.obj
 0002:00008ae0       ??_C@_0EM@DBPINPE@TriangleMeshBuilder?3?3cleanMesh?3@ 00000001801e3ae0     GuCookingTriangleMesh.obj
 0002:00008b30       ??_C@_0EF@MLNDPEDJ@TriangleMeshBuilder?3?3cleanMesh?3@ 00000001801e3b30     GuCookingTriangleMesh.obj
 0002:00008b80       ??_C@_0FJ@HHJLKGDF@TriangleMesh?3?5triangles?5are?5too@ 00000001801e3b80     GuCookingTriangleMesh.obj
 0002:00008be0       ??_C@_0CN@KGPHHHLK@TriangleMesh?3?5mesh?5is?5too?5big?5f@ 00000001801e3be0     GuCookingTriangleMesh.obj
 0002:00008c10       ??_C@_0DD@CMJGDCNN@TriangleMesh?3?3loadFromDesc?3?5des@ 00000001801e3c10     GuCookingTriangleMesh.obj
 0002:00008c50       ??_C@_0ED@ILJJNHIP@TriangleMesh?3?3loadFromDesc?3?5mPa@ 00000001801e3c50     GuCookingTriangleMesh.obj
 0002:00008c98       ??_C@_0CK@BJFFGDPK@input?5mesh?5contains?5corrupted?5v@ 00000001801e3c98     GuCookingTriangleMesh.obj
 0002:00008cc8       ??_C@_0CC@BPIMLJA@input?5sdf?5contains?5corrupted?5da@ 00000001801e3cc8     GuCookingTriangleMesh.obj
 0002:00008cf0       ??_C@_0BK@JIDHMMCE@BV4?5tree?5failed?5to?5build?4@ 00000001801e3cf0     GuCookingTriangleMesh.obj
 0002:00008d10       ??_C@_0BL@DHNECNBE@BV32?5tree?5failed?5to?5build?4@ 00000001801e3d10     GuCookingTriangleMesh.obj
 0002:00008d30       ??_7RTreeCookerRemap@@6B@  00000001801e3d30     GuCookingTriangleMesh.obj
 0002:00008d40       ??_C@_0FC@PJIHAFK@Cooking?3?3validateTriangleMesh?3?5@ 00000001801e3d40     GuCookingTriangleMesh.obj
 0002:00008e20       ??_7PxCollisionTetrahedronMeshData@physx@@6B@ 00000001801e3e20     GuCookingTetrahedronMesh.obj
 0002:00008e50       ??_7PxSimulationTetrahedronMeshData@physx@@6B@ 00000001801e3e50     GuCookingTetrahedronMesh.obj
 0002:00008e70       ??_7CollisionTetrahedronMeshData@Gu@physx@@6B@ 00000001801e3e70     GuCookingTetrahedronMesh.obj
 0002:00008ea0       ??_7SimulationTetrahedronMeshData@Gu@physx@@6B@ 00000001801e3ea0     GuCookingTetrahedronMesh.obj
 0002:00008ec0       ??_C@_0FC@BICIAAGD@D?3?2Projects?2PhysX?2physx?2source?2@ 00000001801e3ec0     GuCookingTetrahedronMesh.obj
 0002:00008f18       ??_7?$LocalConvex@VTetrahedronV@Gu@physx@@@Gu@physx@@6B@ 00000001801e3f18     GuCookingTetrahedronMesh.obj
 0002:00008f48       ??_C@_0CD@OJGNHLOE@BV4_AABBTree?5tree?5failed?5to?5bui@ 00000001801e3f48     GuCookingTetrahedronMesh.obj
 0002:00008f70       ??_C@_0DG@NCNIEEHB@TetrahedronMesh?3?3loadFromDesc?3?5@ 00000001801e3f70     GuCookingTetrahedronMesh.obj
 0002:00008fb0       ??_C@_0EG@CJIFGLMC@TetrahedronMesh?3?3loadFromDesc?3?5@ 00000001801e3fb0     GuCookingTetrahedronMesh.obj
 0002:00008ff8       __real@be2aaaab            00000001801e3ff8     GuCookingTetrahedronMesh.obj
 0002:00009000       __xmm@00000003000000030000000300000003 00000001801e4000     GuCookingTetrahedronMesh.obj
 0002:00009030       __real@3bc79ca10c924223    00000001801e4030     GuCookingVolumeIntegration.obj
 0002:00009038       __real@3f91111111111111    00000001801e4038     GuCookingVolumeIntegration.obj
 0002:00009040       __real@3fa5555555555555    00000001801e4040     GuCookingVolumeIntegration.obj
 0002:00009048       __real@3fa999999999999a    00000001801e4048     GuCookingVolumeIntegration.obj
 0002:00009050       __real@3fb5555555555555    00000001801e4050     GuCookingVolumeIntegration.obj
 0002:00009058       __real@3fc5555555555555    00000001801e4058     GuCookingVolumeIntegration.obj
 0002:00009060       __real@3fe0000000000000    00000001801e4060     GuCookingVolumeIntegration.obj
 0002:00009068       __real@3ff0000000000000    00000001801e4068     GuCookingVolumeIntegration.obj
 0002:00009070       __real@4008000000000000    00000001801e4070     GuCookingVolumeIntegration.obj
 0002:00009078       __real@4010000000000000    00000001801e4078     GuCookingVolumeIntegration.obj
 0002:00009080       __real@bf91111111111111    00000001801e4080     GuCookingVolumeIntegration.obj
 0002:00009088       __real@bfa999999999999a    00000001801e4088     GuCookingVolumeIntegration.obj
 0002:00009090       __real@bfb5555555555555    00000001801e4090     GuCookingVolumeIntegration.obj
 0002:00009098       __real@bfc5555555555555    00000001801e4098     GuCookingVolumeIntegration.obj
 0002:000090a0       __xmm@3c0888893c0888893c0888893c088889 00000001801e40a0     GuCookingVolumeIntegration.obj
 0002:000090b0       __xmm@3c8888893c8888893c8888893c888889 00000001801e40b0     GuCookingVolumeIntegration.obj
 0002:000090c0       __xmm@3d2aaaab3d2aaaab3d2aaaab3d2aaaab 00000001801e40c0     GuCookingVolumeIntegration.obj
 0002:000090d0       __xmm@3e2aaaab3e2aaaab3e2aaaab3e2aaaab 00000001801e40d0     GuCookingVolumeIntegration.obj
 0002:000090e0       __xmm@3f811111111111113f81111111111111 00000001801e40e0     GuCookingVolumeIntegration.obj
 0002:000090f0       __xmm@3f811111111111113f91111111111111 00000001801e40f0     GuCookingVolumeIntegration.obj
 0002:00009100       __xmm@3f911111111111113f91111111111111 00000001801e4100     GuCookingVolumeIntegration.obj
 0002:00009110       __xmm@3fa55555555555553fa5555555555555 00000001801e4110     GuCookingVolumeIntegration.obj
 0002:00009120       __xmm@3fa55555555555553fc5555555555555 00000001801e4120     GuCookingVolumeIntegration.obj
 0002:00009130       __xmm@3fd55555555555553fd5555555555555 00000001801e4130     GuCookingVolumeIntegration.obj
 0002:00009140       __xmm@3fe00000000000003fe0000000000000 00000001801e4140     GuCookingVolumeIntegration.obj
 0002:00009150       __xmm@7fffffffffffffff7fffffffffffffff 00000001801e4150     GuCookingVolumeIntegration.obj
 0002:00009160       __xmm@80000000000000008000000000000000 00000001801e4160     GuCookingVolumeIntegration.obj
 0002:00009170       ??_7ConvexHullLib@physx@@6B@ 00000001801e4170     GuCookingQuickHullConvexHullLib.obj
 0002:00009190       ??_7QuickHullConvexHullLib@physx@@6B@ 00000001801e4190     GuCookingQuickHullConvexHullLib.obj
 0002:000091b0       ??_C@_0FJ@ODEJKHAB@D?3?2Projects?2PhysX?2physx?2source?2@ 00000001801e41b0     GuCookingQuickHullConvexHullLib.obj
 0002:00009210       ??_C@_0GA@EPPAEJPM@QuickHullConvexHullLib?3?3findSim@ 00000001801e4210     GuCookingQuickHullConvexHullLib.obj
 0002:00009270       ??_C@_0FB@NEBIJMML@QuickHullConvexHullLib?3?3findSim@ 00000001801e4270     GuCookingQuickHullConvexHullLib.obj
 0002:000092d0       ??_C@_0FB@CLLCBEMM@QuickHullConvexHullLib?3?3findSim@ 00000001801e42d0     GuCookingQuickHullConvexHullLib.obj
 0002:00009324       __real@34c00000            00000001801e4324     GuCookingQuickHullConvexHullLib.obj
 0002:00009328       ??_C@_0DP@PJBJBEGF@Meshmerizer?3?3extractHullPolygon@ 00000001801e4328     GuCookingConvexPolygonsBuilder.obj
 0002:00009370       ??_C@_0FI@KFLBDIEN@D?3?2Projects?2PhysX?2physx?2source?2@ 00000001801e4370     GuCookingConvexPolygonsBuilder.obj
 0002:000093c8       ??_C@_0DL@IAFKOCCK@ConvexHullBuilder?3?5convex?5hull?5@ 00000001801e43c8     GuCookingConvexPolygonsBuilder.obj
 0002:00009410       ??_C@_0GF@OJLJHAMH@ConvexHullBuilder?3?3CreateTriang@ 00000001801e4410     GuCookingConvexPolygonsBuilder.obj
 0002:000094a0       ??_C@_0DF@LLFJIJGM@Gu?3?3ConvexMesh?3?3loadFromDesc?3?5d@ 00000001801e44a0     GuCookingConvexMeshBuilder.obj
 0002:000094e0       ??_C@_0HK@JOGKIEAA@Gu?3?3ConvexMesh?3?5Mesh?5has?5a?5nega@ 00000001801e44e0     GuCookingConvexMeshBuilder.obj
 0002:00009560       ??_C@_0DH@NJPPHFFD@Gu?3?3ConvexMesh?3?5Error?5computing@ 00000001801e4560     GuCookingConvexMeshBuilder.obj
 0002:00009598       ??_C@_0DJ@LJDLGLDJ@Gu?3?3ConvexMesh?3?3loadConvexHull?3@ 00000001801e4598     GuCookingConvexMeshBuilder.obj
 0002:000095e0       ??_C@_0HJ@KJANPPOE@ConvexMeshBuilder?3?3computeHullP@ 00000001801e45e0     GuCookingConvexMeshBuilder.obj
 0002:00009660       ??_C@_0FE@LNJOOALB@D?3?2Projects?2PhysX?2physx?2source?2@ 00000001801e4660     GuCookingConvexMeshBuilder.obj
 0002:000096b8       ??_C@_0O@JMAGMMGG@PxHullPolygon@ 00000001801e46b8     GuCookingConvexMeshBuilder.obj
 0002:000096c8       __real@3f13cd3a            00000001801e46c8     GuCookingConvexMeshBuilder.obj
 0002:000096f0       ??_C@_0FC@GJKPFAHI@D?3?2Projects?2PhysX?2physx?2source?2@ 00000001801e46f0     GuCookingConvexHullUtils.obj
 0002:00009744       __real@3e20d97c            00000001801e4744     GuCookingConvexHullUtils.obj
 0002:00009750       ??_C@_0FA@EPAIIPD@D?3?2Projects?2PhysX?2physx?2source?2@ 00000001801e4750     GuCookingConvexHullLib.obj
 0002:000097a0       ??_C@_0JE@PABBNGEL@ConvexHullLib?3?3cleanupVertices?3@ 00000001801e47a0     GuCookingConvexHullLib.obj
 0002:00009860       ??_C@_0FE@HDDKEAOE@D?3?2Projects?2PhysX?2physx?2source?2@ 00000001801e4860     GuCookingConvexHullBuilder.obj
 0002:000098c0       ??_C@_0EB@DCEIFDGC@ConvexHullBuilder?3?3init?3?5convex@ 00000001801e48c0     GuCookingConvexHullBuilder.obj
 0002:00009910       ??_C@_0FM@KICBLCBH@Gu?3?3ConvexMesh?3?3checkHullPolygo@ 00000001801e4910     GuCookingConvexHullBuilder.obj
 0002:00009970       ??_C@_0GO@HBFIOGLL@Gu?3?3ConvexMesh?3?3checkHullPolygo@ 00000001801e4970     GuCookingConvexHullBuilder.obj
 0002:000099e0       ??_C@_0HF@OLJFBIEL@ConvexHullBuilder?3?5convex?5hull?5@ 00000001801e49e0     GuCookingConvexHullBuilder.obj
 0002:00009a60       ??_C@_0OG@JNHFOIL@ConvexHullBuilder?3?5convex?5hull?5@ 00000001801e4a60     GuCookingConvexHullBuilder.obj
 0002:00009b50       ??_C@_0EJ@NIOIBAKH@Cooking?3?3cookConvexMesh?3?5non?9ma@ 00000001801e4b50     GuCookingConvexHullBuilder.obj
 0002:00009bc0       ??_C@_0FH@KLHELHDE@D?3?2Projects?2PhysX?2physx?2source?2@ 00000001801e4bc0     GuCookingBigConvexDataBuilder.obj
 0002:00009c20       __sz_PhysXFoundation_64_dll 00000001801e4c20     PhysXFoundation_64:PhysXFoundation_64.dll
 0002:00009c38       ??_C@_1BK@DBDEIDLH@?$AAK?$AAE?$AAR?$AAN?$AAE?$AAL?$AA3?$AA2?$AA?4?$AAD?$AAL?$AAL@ 00000001801e4c38     Delayimp:delayhlp.obj
 0002:00009c58       ??_C@_0BI@OMNLIJDB@AcquireSRWLockExclusive@ 00000001801e4c58     Delayimp:delayhlp.obj
 0002:00009c70       ??_C@_0BI@HMIEPCNJ@ReleaseSRWLockExclusive@ 00000001801e4c70     Delayimp:delayhlp.obj
 0002:00009c88       __pfnDliFailureHook2       00000001801e4c88     Delayimp:delayhk1.obj
 0002:00009c98       ??_7type_info@@6B@         00000001801e4c98     LIBCMT:std_type_info_static.obj
 0002:00009d00       _pDefaultRawDllMain        00000001801e4d00     LIBCMT:dll_dllmain.obj
 0002:00009d00       _pRawDllMain               00000001801e4d00     LIBCMT:dll_dllmain.obj
 0002:00009d10       _load_config_used          00000001801e4d10     LIBCMT:loadcfg.obj
 0002:00009e50       _pDestructExceptionObject  00000001801e4e50     libvcruntime:ehhelpers.obj
 0002:0000a570       ??_C@_08EHJDFFNH@__based?$CI@ 00000001801e5570     libvcruntime:undname.obj
 0002:0000a580       ??_C@_07KOLFKCDI@__cdecl@  00000001801e5580     libvcruntime:undname.obj
 0002:0000a588       ??_C@_08GHMPAG@__pascal@   00000001801e5588     libvcruntime:undname.obj
 0002:0000a598       ??_C@_09IFJBGAPI@__stdcall@ 00000001801e5598     libvcruntime:undname.obj
 0002:0000a5a8       ??_C@_0L@NPHFGOKO@__thiscall@ 00000001801e55a8     libvcruntime:undname.obj
 0002:0000a5b8       ??_C@_0L@JMKHOMEK@__fastcall@ 00000001801e55b8     libvcruntime:undname.obj
 0002:0000a5c8       ??_C@_0N@BCKKPABJ@__vectorcall@ 00000001801e55c8     libvcruntime:undname.obj
 0002:0000a5d8       ??_C@_09HIJEGCPM@__clrcall@ 00000001801e55d8     libvcruntime:undname.obj
 0002:0000a5e4       ??_C@_06GHPCKEAG@__eabi@   00000001801e55e4     libvcruntime:undname.obj
 0002:0000a5f0       ??_C@_09IOPIDJLG@__swift_1@ 00000001801e55f0     libvcruntime:undname.obj
 0002:0000a600       ??_C@_09KFNFGKHF@__swift_2@ 00000001801e5600     libvcruntime:undname.obj
 0002:0000a610       ??_C@_09LMMOFLDE@__swift_3@ 00000001801e5610     libvcruntime:undname.obj
 0002:0000a620       ??_C@_07JOMMBBKO@__ptr64@  00000001801e5620     libvcruntime:undname.obj
 0002:0000a628       ??_C@_0L@PILCLIHE@__restrict@ 00000001801e5628     libvcruntime:undname.obj
 0002:0000a638       ??_C@_0M@GFIIJFMG@__unaligned@ 00000001801e5638     libvcruntime:undname.obj
 0002:0000a648       ??_C@_09DHDLOLLB@restrict?$CI@ 00000001801e5648     libvcruntime:undname.obj
 0002:0000a654       ??_C@_04NIHEBCM@?5new@     00000001801e5654     libvcruntime:undname.obj
 0002:0000a660       ??_C@_07FPCDHGMM@?5delete@ 00000001801e5660     libvcruntime:undname.obj
 0002:0000a668       ??_C@_01NEMOKFLO@?$DN@     00000001801e5668     libvcruntime:undname.obj
 0002:0000a66c       ??_C@_02GPIOPFAK@?$DO?$DO@ 00000001801e566c     libvcruntime:undname.obj
 0002:0000a670       ??_C@_02FODMEDOG@?$DM?$DM@ 00000001801e5670     libvcruntime:undname.obj
 0002:0000a674       ??_C@_01DCLJPIOD@?$CB@     00000001801e5674     libvcruntime:undname.obj
 0002:0000a678       ??_C@_02EGOFBIJA@?$DN?$DN@ 00000001801e5678     libvcruntime:undname.obj
 0002:0000a67c       ??_C@_02FDNJECIE@?$CB?$DN@ 00000001801e567c     libvcruntime:undname.obj
 0002:0000a680       ??_C@_02GPECMEKF@?$FL?$FN@ 00000001801e5680     libvcruntime:undname.obj
 0002:0000a688       ??_C@_08LHJFAFGD@operator@ 00000001801e5688     libvcruntime:undname.obj
 0002:0000a694       ??_C@_02HBOOOICD@?9?$DO@   00000001801e5694     libvcruntime:undname.obj
 0002:0000a698       ??_C@_01NBENCBCI@?$CK@     00000001801e5698     libvcruntime:undname.obj
 0002:0000a69c       ??_C@_02ECNGHCIF@?$CL?$CL@ 00000001801e569c     libvcruntime:undname.obj
 0002:0000a6a0       ??_C@_02BAABKJLB@?9?9@     00000001801e56a0     libvcruntime:undname.obj
 0002:0000a6a4       ??_C@_01JOAMLHOP@?9@       00000001801e56a4     libvcruntime:undname.obj
 0002:0000a6a8       ??_C@_01MIFGBAGJ@?$CL@     00000001801e56a8     libvcruntime:undname.obj
 0002:0000a6ac       ??_C@_01HNPIGOCE@?$CG@     00000001801e56ac     libvcruntime:undname.obj
 0002:0000a6b0       ??_C@_03MNHNFDLC@?9?$DO?$CK@ 00000001801e56b0     libvcruntime:undname.obj
 0002:0000a6b4       ??_C@_01KMDKNFGN@?1@       00000001801e56b4     libvcruntime:undname.obj
 0002:0000a6b8       ??_C@_01FGNFDNOH@?$CF@     00000001801e56b8     libvcruntime:undname.obj
 0002:0000a6bc       ??_C@_01MNNFJEPP@?$DM@     00000001801e56bc     libvcruntime:undname.obj
 0002:0000a6c0       ??_C@_02EHCHHCKH@?$DM?$DN@ 00000001801e56c0     libvcruntime:undname.obj
 0002:0000a6c4       ??_C@_01PPODPGHN@?$DO@     00000001801e56c4     libvcruntime:undname.obj
 0002:0000a6c8       ??_C@_02EEKDKGMJ@?$DO?$DN@ 00000001801e56c8     libvcruntime:undname.obj
 0002:0000a6cc       ??_C@_01IHBHIGKO@?0@       00000001801e56cc     libvcruntime:undname.obj
 0002:0000a6d0       ??_C@_02HCKGKOFO@?$CI?$CJ@ 00000001801e56d0     libvcruntime:undname.obj
 0002:0000a6d4       ??_C@_01PJKLJHI@?$HO@      00000001801e56d4     libvcruntime:undname.obj
 0002:0000a6d8       ??_C@_01JKBOJNNK@?$FO@     00000001801e56d8     libvcruntime:undname.obj
 0002:0000a6dc       ??_C@_01DNKMNLPK@?$HM@     00000001801e56dc     libvcruntime:undname.obj
 0002:0000a6e0       ??_C@_02PPKAJPJL@?$CG?$CG@ 00000001801e56e0     libvcruntime:undname.obj
 0002:0000a6e4       ??_C@_02NONPIBCD@?$HM?$HM@ 00000001801e56e4     libvcruntime:undname.obj
 0002:0000a6e8       ??_C@_02FPIMKNGF@?$CK?$DN@ 00000001801e56e8     libvcruntime:undname.obj
 0002:0000a6ec       ??_C@_02FOEOMHFC@?$CL?$DN@ 00000001801e56ec     libvcruntime:undname.obj
 0002:0000a6f0       ??_C@_02FKMDLLOA@?9?$DN@   00000001801e56f0     libvcruntime:undname.obj
 0002:0000a6f4       ??_C@_02FJEHGPIO@?1?$DN@   00000001801e56f4     libvcruntime:undname.obj
 0002:0000a6f8       ??_C@_02FENAOKFI@?$CF?$DN@ 00000001801e56f8     libvcruntime:undname.obj
 0002:0000a6fc       ??_C@_03IKFCCPFF@?$DO?$DO?$DN@ 00000001801e56fc     libvcruntime:undname.obj
 0002:0000a700       ??_C@_03CDNPDDLA@?$DM?$DM?$DN@ 00000001801e5700     libvcruntime:undname.obj
 0002:0000a704       ??_C@_02FGJGFEAB@?$CG?$DN@ 00000001801e5704     libvcruntime:undname.obj
 0002:0000a708       ??_C@_02DHLNPPGH@?$HM?$DN@ 00000001801e5708     libvcruntime:undname.obj
 0002:0000a70c       ??_C@_02MHEGNOJ@?$FO?$DN@  00000001801e570c     libvcruntime:undname.obj
 0002:0000a710       ??_C@_09IFPLHPGF@?$GAvftable?8@ 00000001801e5710     libvcruntime:undname.obj
 0002:0000a720       ??_C@_09BLBHBJP@?$GAvbtable?8@ 00000001801e5720     libvcruntime:undname.obj
 0002:0000a730       ??_C@_07FEEIOKP@?$GAvcall?8@ 00000001801e5730     libvcruntime:undname.obj
 0002:0000a738       ??_C@_08LLFFHHDJ@?$GAtypeof?8@ 00000001801e5738     libvcruntime:undname.obj
 0002:0000a748       ??_C@_0BF@KDPPACIK@?$GAlocal?5static?5guard?8@ 00000001801e5748     libvcruntime:undname.obj
 0002:0000a760       ??_C@_08OBABFOLI@?$GAstring?8@ 00000001801e5760     libvcruntime:undname.obj
 0002:0000a770       ??_C@_0BD@JDLKDPAB@?$GAvbase?5destructor?8@ 00000001801e5770     libvcruntime:undname.obj
 0002:0000a788       ??_C@_0BN@DEGPLNFK@?$GAvector?5deleting?5destructor?8@ 00000001801e5788     libvcruntime:undname.obj
 0002:0000a7a8       ??_C@_0BO@OBMKPJIG@?$GAdefault?5constructor?5closure?8@ 00000001801e57a8     libvcruntime:undname.obj
 0002:0000a7c8       ??_C@_0BN@IMDCHIKM@?$GAscalar?5deleting?5destructor?8@ 00000001801e57c8     libvcruntime:undname.obj
 0002:0000a7e8       ??_C@_0BO@PFGOCPJJ@?$GAvector?5constructor?5iterator?8@ 00000001801e57e8     libvcruntime:undname.obj
 0002:0000a808       ??_C@_0BN@LFPFMEDL@?$GAvector?5destructor?5iterator?8@ 00000001801e5808     libvcruntime:undname.obj
 0002:0000a828       ??_C@_0CE@IKBNEHA@?$GAvector?5vbase?5constructor?5itera@ 00000001801e5828     libvcruntime:undname.obj
 0002:0000a850       ??_C@_0BL@NILFHHPC@?$GAvirtual?5displacement?5map?8@ 00000001801e5850     libvcruntime:undname.obj
 0002:0000a870       ??_C@_0CB@JONCMFFK@?$GAeh?5vector?5constructor?5iterator@ 00000001801e5870     libvcruntime:undname.obj
 0002:0000a898       ??_C@_0CA@GCEOPDGL@?$GAeh?5vector?5destructor?5iterator?8@ 00000001801e5898     libvcruntime:undname.obj
 0002:0000a8b8       ??_C@_0CH@OOJPLCPH@?$GAeh?5vector?5vbase?5constructor?5it@ 00000001801e58b8     libvcruntime:undname.obj
 0002:0000a8e0       ??_C@_0BL@LLKPOHJI@?$GAcopy?5constructor?5closure?8@ 00000001801e58e0     libvcruntime:undname.obj
 0002:0000a900       ??_C@_0BA@KBCDOMBN@?$GAudt?5returning?8@ 00000001801e5900     libvcruntime:undname.obj
 0002:0000a910       ??_C@_03KLGMFNMG@?$GAEH@   00000001801e5910     libvcruntime:undname.obj
 0002:0000a914       ??_C@_05KHLCHHI@?$GARTTI@  00000001801e5914     libvcruntime:undname.obj
 0002:0000a920       ??_C@_0BA@KKLDJDLB@?$GAlocal?5vftable?8@ 00000001801e5920     libvcruntime:undname.obj
 0002:0000a930       ??_C@_0CE@IIHCMGGL@?$GAlocal?5vftable?5constructor?5clos@ 00000001801e5930     libvcruntime:undname.obj
 0002:0000a954       ??_C@_06FHBGPFGH@?5new?$FL?$FN@ 00000001801e5954     libvcruntime:undname.obj
 0002:0000a960       ??_C@_09LBNFPBCA@?5delete?$FL?$FN@ 00000001801e5960     libvcruntime:undname.obj
 0002:0000a970       ??_C@_0P@HJKNJFNN@?$GAomni?5callsig?8@ 00000001801e5970     libvcruntime:undname.obj
 0002:0000a980       ??_C@_0BL@CNOONJFP@?$GAplacement?5delete?5closure?8@ 00000001801e5980     libvcruntime:undname.obj
 0002:0000a9a0       ??_C@_0BN@CKNJLHMB@?$GAplacement?5delete?$FL?$FN?5closure?8@ 00000001801e59a0     libvcruntime:undname.obj
 0002:0000a9c0       ??_C@_0CG@CFDHKGGD@?$GAmanaged?5vector?5constructor?5ite@ 00000001801e59c0     libvcruntime:undname.obj
 0002:0000a9e8       ??_C@_0CF@IMGKMJNO@?$GAmanaged?5vector?5destructor?5iter@ 00000001801e59e8     libvcruntime:undname.obj
 0002:0000aa10       ??_C@_0CG@HLDDJMAG@?$GAeh?5vector?5copy?5constructor?5ite@ 00000001801e5a10     libvcruntime:undname.obj
 0002:0000aa38       ??_C@_0CM@FCBBDIGB@?$GAeh?5vector?5vbase?5copy?5construct@ 00000001801e5a38     libvcruntime:undname.obj
 0002:0000aa68       ??_C@_0BL@CLIPGLGB@?$GAdynamic?5initializer?5for?5?8@ 00000001801e5a68     libvcruntime:undname.obj
 0002:0000aa88       ??_C@_0CB@PDBIFEP@?$GAdynamic?5atexit?5destructor?5for?5@ 00000001801e5a88     libvcruntime:undname.obj
 0002:0000aab0       ??_C@_0CD@CGAJBKEJ@?$GAvector?5copy?5constructor?5iterat@ 00000001801e5ab0     libvcruntime:undname.obj
 0002:0000aad8       ??_C@_0CJ@GJELGAMM@?$GAvector?5vbase?5copy?5constructor?5@ 00000001801e5ad8     libvcruntime:undname.obj
 0002:0000ab08       ??_C@_0CL@FGIJHLCE@?$GAmanaged?5vector?5copy?5constructo@ 00000001801e5b08     libvcruntime:undname.obj
 0002:0000ab38       ??_C@_0BM@PMGGMLDN@?$GAlocal?5static?5thread?5guard?8@ 00000001801e5b38     libvcruntime:undname.obj
 0002:0000ab58       ??_C@_0N@BDNMDMOL@operator?5?$CC?$CC?5@ 00000001801e5b58     libvcruntime:undname.obj
 0002:0000ab68       ??_C@_0BC@GGEBGALA@operator?5co_await@ 00000001801e5b68     libvcruntime:undname.obj
 0002:0000ab80       ??_C@_0M@GAAIMMOH@operator?$DM?$DN?$DO@ 00000001801e5b80     libvcruntime:undname.obj
 0002:0000ab90       ??_C@_0BC@DAFEJGAK@?5Type?5Descriptor?8@ 00000001801e5b90     libvcruntime:undname.obj
 0002:0000aba8       ??_C@_0BM@LDKODKLH@?5Base?5Class?5Descriptor?5at?5?$CI@ 00000001801e5ba8     libvcruntime:undname.obj
 0002:0000abc8       ??_C@_0BD@LGICGFMM@?5Base?5Class?5Array?8@ 00000001801e5bc8     libvcruntime:undname.obj
 0002:0000abe0       ??_C@_0BN@MECKDCOJ@?5Class?5Hierarchy?5Descriptor?8@ 00000001801e5be0     libvcruntime:undname.obj
 0002:0000ac00       ??_C@_0BK@CFCOFLF@?5Complete?5Object?5Locator?8@ 00000001801e5c00     libvcruntime:undname.obj
 0002:0000ac20       ??_C@_0BG@JNJLAMPM@?$GAanonymous?5namespace?8@ 00000001801e5c20     libvcruntime:undname.obj
 0002:0000ac38       ??_C@_04HEJADOOB@CV?3?5@   00000001801e5c38     libvcruntime:undname.obj
 0002:0000ac40       ??_C@_02MOLJINC@?3?3@      00000001801e5c40     libvcruntime:undname.obj
 0002:0000ac48       ??_C@_0BE@JAEOCHPE@template?9parameter?9@ 00000001801e5c48     libvcruntime:undname.obj
 0002:0000ac60       ??_C@_0BF@LNLGBBNL@?$GAtemplate?9parameter?9@ 00000001801e5c60     libvcruntime:undname.obj
 0002:0000ac78       ??_C@_0O@KHGCOMHP@generic?9type?9@ 00000001801e5c78     libvcruntime:undname.obj
 0002:0000ac88       ??_C@_0P@ODDENDLM@?$GAgeneric?9type?9@ 00000001801e5c88     libvcruntime:undname.obj
 0002:0000ac98       ??_C@_02OHHJMEON@?8?8@     00000001801e5c98     libvcruntime:undname.obj
 0002:0000aca0       ??_C@_0BN@IBLMMFAP@?$GAnon?9type?9template?9parameter@ 00000001801e5ca0     libvcruntime:undname.obj
 0002:0000acc0       ??_C@_03DLDNIBIK@?$CFlf@   00000001801e5cc0     libvcruntime:undname.obj
 0002:0000acc4       ??_C@_04OFALKAJ@?$DP?$DP_C@ 00000001801e5cc4     libvcruntime:undname.obj
 0002:0000accc       ??_C@_03KHICJKCI@?4?4?4@   00000001801e5ccc     libvcruntime:undname.obj
 0002:0000acd0       ??_C@_04HIBGFPH@NULL@      00000001801e5cd0     libvcruntime:undname.obj
 0002:0000acd8       ??_C@_02DPKJAMEF@?$CFd@    00000001801e5cd8     libvcruntime:undname.obj
 0002:0000ace0       ??_C@_0BK@IHCCFNEL@?$GAtemplate?9type?9parameter?9@ 00000001801e5ce0     libvcruntime:undname.obj
 0002:0000ad00       ??_C@_0BK@OFCNNNKO@?$GAgeneric?9class?9parameter?9@ 00000001801e5d00     libvcruntime:undname.obj
 0002:0000ad20       ??_C@_0BL@NGJBLFIL@?$GAgeneric?9method?9parameter?9@ 00000001801e5d20     libvcruntime:undname.obj
 0002:0000ad40       ??_C@_07OHNGEDJK@nullptr@  00000001801e5d40     libvcruntime:undname.obj
 0002:0000ad48       ??_C@_06COJIGPIB@lambda@   00000001801e5d48     libvcruntime:undname.obj
 0002:0000ad50       ??_C@_0BE@EODMJLIF@?$GAtemplate?9parameter@ 00000001801e5d50     libvcruntime:undname.obj
 0002:0000ad64       ??_C@_03OPGICMGF@?$HN?8?5@ 00000001801e5d64     libvcruntime:undname.obj
 0002:0000ad68       ??_C@_02IGFCGPIL@?$HN?8@   00000001801e5d68     libvcruntime:undname.obj
 0002:0000ad70       ??_C@_0N@CBHHHENL@?$GAvtordispex?$HL@ 00000001801e5d70     libvcruntime:undname.obj
 0002:0000ad80       ??_C@_0L@GHPFDFH@?$GAvtordisp?$HL@ 00000001801e5d80     libvcruntime:undname.obj
 0002:0000ad90       ??_C@_0L@HNGCOGAE@?$GAadjustor?$HL@ 00000001801e5d90     libvcruntime:undname.obj
 0002:0000ada0       ??_C@_0CB@KJDOOODE@?$GAlocal?5static?5destructor?5helper@ 00000001801e5da0     libvcruntime:undname.obj
 0002:0000adc8       ??_C@_0DB@ILEFOCIJ@?$GAtemplate?5static?5data?5member?5co@ 00000001801e5dc8     libvcruntime:undname.obj
 0002:0000ae00       ??_C@_0DA@HGFJFBBE@?$GAtemplate?5static?5data?5member?5de@ 00000001801e5e00     libvcruntime:undname.obj
 0002:0000ae30       ??_C@_07PGOEDBHP@static?5@ 00000001801e5e30     libvcruntime:undname.obj
 0002:0000ae38       ??_C@_08NIEOINHE@virtual?5@ 00000001801e5e38     libvcruntime:undname.obj
 0002:0000ae48       ??_C@_09LAPHOOG@private?3?5@ 00000001801e5e48     libvcruntime:undname.obj
 0002:0000ae58       ??_C@_0M@GAIFPFIP@protected?3?5@ 00000001801e5e58     libvcruntime:undname.obj
 0002:0000ae68       ??_C@_08GPDDCMKI@public?3?5@ 00000001801e5e68     libvcruntime:undname.obj
 0002:0000ae78       ??_C@_08KJLFOPNE@?$FLthunk?$FN?3@ 00000001801e5e78     libvcruntime:undname.obj
 0002:0000ae88       ??_C@_0M@DHNBOJMP@extern?5?$CCC?$CC?5@ 00000001801e5e88     libvcruntime:undname.obj
 0002:0000ae94       ??_C@_02KCKGHPCA@?$CJ?5@   00000001801e5e94     libvcruntime:undname.obj
 0002:0000ae98       ??_C@_05CIHEBHNO@char?5@   00000001801e5e98     libvcruntime:undname.obj
 0002:0000aea0       ??_C@_06EHJMALKF@short?5@  00000001801e5ea0     libvcruntime:undname.obj
 0002:0000aea8       ??_C@_04LAHKHJMA@int?5@    00000001801e5ea8     libvcruntime:undname.obj
 0002:0000aeb0       ??_C@_05CJIMAING@long?5@   00000001801e5eb0     libvcruntime:undname.obj
 0002:0000aeb8       ??_C@_09EBBEKKIH@unsigned?5@ 00000001801e5eb8     libvcruntime:undname.obj
 0002:0000aec4       ??_C@_05BEFAKPML@void?5@   00000001801e5ec4     libvcruntime:undname.obj
 0002:0000aed0       ??_C@_09GAIEOBLP@volatile?5@ 00000001801e5ed0     libvcruntime:undname.obj
 0002:0000aee0       ??_C@_08PABEKFH@volatile@  00000001801e5ee0     libvcruntime:undname.obj
 0002:0000aef0       ??_C@_0BA@LKIJLKPP@std?3?3nullptr_t?5@ 00000001801e5ef0     libvcruntime:undname.obj
 0002:0000af00       ??_C@_0P@GCOCNKDM@std?3?3nullptr_t@ 00000001801e5f00     libvcruntime:undname.obj
 0002:0000af10       ??_C@_0L@EGPHHEKN@?$DMellipsis?$DO@ 00000001801e5f10     libvcruntime:undname.obj
 0002:0000af1c       ??_C@_04EENFHACM@?0?4?4?4@ 00000001801e5f1c     libvcruntime:undname.obj
 0002:0000af28       ??_C@_0M@ELJOJFFH@?0?$DMellipsis?$DO@ 00000001801e5f28     libvcruntime:undname.obj
 0002:0000af38       ??_C@_09DNHFEOJI@?5noexcept@ 00000001801e5f38     libvcruntime:undname.obj
 0002:0000af44       ??_C@_03PBJBJNON@cpu@      00000001801e5f44     libvcruntime:undname.obj
 0002:0000af48       ??_C@_03DCBBJBAA@amp@      00000001801e5f48     libvcruntime:undname.obj
 0002:0000af4c       ??_C@_02KEGNLNML@?0?5@     00000001801e5f4c     libvcruntime:undname.obj
 0002:0000af50       ??_C@_04ENMBGAPA@char@     00000001801e5f50     libvcruntime:undname.obj
 0002:0000af58       ??_C@_05BFKKPKCG@short@    00000001801e5f58     libvcruntime:undname.obj
 0002:0000af60       ??_C@_03JBIPMCLC@int@      00000001801e5f60     libvcruntime:undname.obj
 0002:0000af64       ??_C@_04GOKPGOLB@long@     00000001801e5f64     libvcruntime:undname.obj
 0002:0000af6c       ??_C@_06BNJCAIGJ@double@   00000001801e5f6c     libvcruntime:undname.obj
 0002:0000af74       ??_C@_06EBGKOKIG@__int8@   00000001801e5f74     libvcruntime:undname.obj
 0002:0000af80       ??_C@_07ICFHOGAF@__int16@  00000001801e5f80     libvcruntime:undname.obj
 0002:0000af88       ??_C@_07OFLPPHGP@__int32@  00000001801e5f88     libvcruntime:undname.obj
