 PhysXCommon_64

 Timestamp is 653803a7 (Tue Oct 24 19:49:27 2023)

 Preferred load address is 0000000180000000

 Start         Length     Name                   Class
 0001:00000000 00003530H .text$di                CODE
 0001:00003530 001d2710H .text$mn                CODE
 0001:001d5c40 00000040H .text$mn$00             CODE
 0001:001d5c80 00000680H .text$x                 CODE
 0001:001d6300 0000000fH .text$yd                CODE
 0002:00000000 00000280H .idata$5                DATA
 0002:00000280 00000038H .00cfg                  DATA
 0002:000002b8 00000008H .CRT$XCA                DATA
 0002:000002c0 000019d0H .CRT$XCU                DATA
 0002:00001c90 00000008H .CRT$XCZ                DATA
 0002:00001c98 00000008H .CRT$XIA                DATA
 0002:00001ca0 00000018H .CRT$XIC                DATA
 0002:00001cb8 00000008H .CRT$XIZ                DATA
 0002:00001cc0 00000008H .CRT$XPA                DATA
 0002:00001cc8 00000010H .CRT$XPX                DATA
 0002:00001cd8 00000008H .CRT$XPXA               DATA
 0002:00001ce0 00000008H .CRT$XPZ                DATA
 0002:00001ce8 00000008H .CRT$XTA                DATA
 0002:00001cf0 00000010H .CRT$XTZ                DATA
 0002:00001cf8 00000000H .gehcont$y              DATA
 0002:00001cf8 00000000H .gfids$y                DATA
 0002:00001d00 00011400H .rdata                  DATA
 0002:00013100 00000000H .rdata$CastGuardVftablesA DATA
 0002:00013100 00000000H .rdata$CastGuardVftablesC DATA
 0002:00013100 0000043cH .rdata$r                DATA
 0002:0001353c 0000045cH .rdata$voltmd           DATA
 0002:00013998 00000420H .rdata$zzzdbg           DATA
 0002:00013db8 00000008H .rtc$IAA                DATA
 0002:00013dc0 00000008H .rtc$IZZ                DATA
 0002:00013dc8 00000008H .rtc$TAA                DATA
 0002:00013dd0 00000008H .rtc$TZZ                DATA
 0002:00013dd8 00014cc8H .xdata                  DATA
 0002:00028aa0 00000084H .xdata$x                DATA
 0002:00028b24 00000020H .didat$2                DATA
 0002:00028b44 00000024H .didat$3                DATA
 0002:00028b68 000000c8H .didat$4                DATA
 0002:00028c30 00000418H .didat$6                DATA
 0002:00029048 000000c8H .didat$7                DATA
 0002:00029110 0000c614H .edata                  DATA
 0002:00035724 00000014H .idata$2                DATA
 0002:00035738 00000018H .idata$3                DATA
 0002:00035750 00000280H .idata$4                DATA
 0002:000359d0 000005beH .idata$6                DATA
 0003:00000000 00001c40H .data                   DATA
 0003:00001c40 00001158H .data$r                 DATA
 0003:00002d98 000000f0H .data$rs                DATA
 0003:00002e88 000000c8H .didat$5                DATA
 0003:00002f50 0000463cH .bss                    DATA
 0004:00000000 0000c3d8H .pdata                  DATA
 0005:00000000 0000236cH _RDATA                  DATA
 0006:00000000 000000a0H .rsrc$01                DATA
 0006:000000a0 000004b0H .rsrc$02                DATA

  Address         Publics by Value              Rva+Base               Lib:Object

 0000:00000000       __AbsoluteZero             0000000000000000     <absolute>
 0000:00000000       ___safe_se_handler_count   0000000000000000     <absolute>
 0000:00000000       ___safe_se_handler_table   0000000000000000     <absolute>
 0000:00000000       __arm64x_extra_rfe_table   0000000000000000     <absolute>
 0000:00000000       __arm64x_extra_rfe_table_size 0000000000000000     <absolute>
 0000:00000000       __arm64x_native_entrypoint 0000000000000000     <absolute>
 0000:00000000       __arm64x_redirection_metadata 0000000000000000     <absolute>
 0000:00000000       __arm64x_redirection_metadata_count 0000000000000000     <absolute>
 0000:00000000       __dynamic_value_reloc_table 0000000000000000     <absolute>
 0000:00000000       __enclave_config           0000000000000000     <absolute>
 0000:00000000       __guard_check_icall_a64n_fptr 0000000000000000     <absolute>
 0000:00000000       __guard_eh_cont_count      0000000000000000     <absolute>
 0000:00000000       __guard_eh_cont_table      0000000000000000     <absolute>
 0000:00000000       __guard_fids_count         0000000000000000     <absolute>
 0000:00000000       __guard_fids_table         0000000000000000     <absolute>
 0000:00000000       __guard_iat_count          0000000000000000     <absolute>
 0000:00000000       __guard_iat_table          0000000000000000     <absolute>
 0000:00000000       __guard_longjmp_count      0000000000000000     <absolute>
 0000:00000000       __guard_longjmp_table      0000000000000000     <absolute>
 0000:00000000       __hybrid_auxiliary_delayload_iat 0000000000000000     <absolute>
 0000:00000000       __hybrid_auxiliary_delayload_iat_copy 0000000000000000     <absolute>
 0000:00000000       __hybrid_auxiliary_iat     0000000000000000     <absolute>
 0000:00000000       __hybrid_auxiliary_iat_copy 0000000000000000     <absolute>
 0000:00000000       __hybrid_code_map          0000000000000000     <absolute>
 0000:00000000       __hybrid_code_map_count    0000000000000000     <absolute>
 0000:00000000       __hybrid_image_info_bitfield 0000000000000000     <absolute>
 0000:00000000       __x64_code_ranges_to_entry_points 0000000000000000     <absolute>
 0000:00000000       __x64_code_ranges_to_entry_points_count 0000000000000000     <absolute>
 0000:00000100       __guard_flags              0000000000000100     <absolute>
 0000:00000000       __ImageBase                0000000180000000     <linker-defined>
 0001:00003530       ??0PtrTable@Cm@physx@@QEAA@W4PxEMPTY@2@@Z 0000000180004530 f i CmPtrTable.obj
 0001:00003550       ??0PtrTable@Cm@physx@@QEAA@XZ 0000000180004550 f   CmPtrTable.obj
 0001:00003560       ??1AABBTreeBuildNode@Gu@physx@@QEAA@XZ 0000000180004560 f   GuMeshFactory.obj
 0001:00003560       ??1BigConvexDataBuilder@physx@@QEAA@XZ 0000000180004560 f   GuCookingBigConvexDataBuilder.obj
 0001:00003560       ??1Box@Gu@physx@@QEAA@XZ   0000000180004560 f   GuBox.obj
 0001:00003560       ??1HeightFieldData@Gu@physx@@QEAA@XZ 0000000180004560 f   GuCCTSweepTests.obj
 0001:00003560       ??1PtrTable@Cm@physx@@QEAA@XZ 0000000180004560 f   CmPtrTable.obj
 0001:00003560       ?build@CompanionPrunerIncremental@@UEAAXXZ 0000000180004560 f   GuSecondaryPruner.obj
 0001:00003560       ?checkTreeLeaf@IncrementalAABBTree@Gu@physx@@QEAAXPEAVIncrementalAABBTreeNode@23@I@Z 0000000180004560 f   GuIncrementalAABBTree.obj
 0001:00003560       ?execute@?$PxThreadT@V?$PxReflectionAllocator@VPxThreadImpl@physx@@@physx@@@physx@@UEAAXXZ 0000000180004560 f   GuSDF.obj
 0001:00003560       ?execute@PxRunnable@physx@@UEAAXXZ 0000000180004560 f   GuSDF.obj
 0001:00003560       ?merge@BucketPruner@Gu@physx@@UEAAXPEBX@Z 0000000180004560 f   GuBucketPruner.obj
 0001:00003560       ?merge@IncrementalAABBPruner@Gu@physx@@UEAAXPEBX@Z 0000000180004560 f   GuIncrementalAABBPruner.obj
 0001:00003560       ?onMeshIndexFormatChange@TriangleMeshBuilder@physx@@UEAAXXZ 0000000180004560 f   GuCookingTriangleMesh.obj
 0001:00003560       ?profile@Callback@RTree@Gu@physx@@UEAAXXZ 0000000180004560 f   GuMidphaseRTree.obj
 0001:00003560       ?purge@BucketPruner@Gu@physx@@UEAAXXZ 0000000180004560 f   GuBucketPruner.obj
 0001:00003560       ?requiresObjects@ConvexMesh@Gu@physx@@UEAAXAEAVPxProcessPxBaseCallback@3@@Z 0000000180004560 f   GuConvexMesh.obj
 0001:00003560       ?requiresObjects@HeightField@Gu@physx@@UEAAXAEAVPxProcessPxBaseCallback@3@@Z 0000000180004560 f   GuHeightField.obj
 0001:00003560       ?requiresObjects@SoftBodyMesh@Gu@physx@@UEAAXAEAVPxProcessPxBaseCallback@3@@Z 0000000180004560 f   GuTetrahedronMesh.obj
 0001:00003560       ?requiresObjects@TriangleMesh@Gu@physx@@UEAAXAEAVPxProcessPxBaseCallback@3@@Z 0000000180004560 f   GuTriangleMesh.obj
 0001:00003560       ?swapIndex@CompanionPrunerAABBTree@@UEAAXII@Z 0000000180004560 f   GuSecondaryPruner.obj
 0001:00003560       ?swapIndex@CompanionPrunerBucket@@UEAAXII@Z 0000000180004560 f   GuSecondaryPruner.obj
 0001:00003560       ?timeStampChange@CompanionPrunerAABBTree@@UEAAXXZ 0000000180004560 f   GuSecondaryPruner.obj
 0001:00003560       ?timeStampChange@CompanionPrunerBucket@@UEAAXXZ 0000000180004560 f   GuSecondaryPruner.obj
 0001:00003560       ?visualize@BasePruner@Gu@physx@@UEBAXAEAVPxRenderOutput@3@II@Z 0000000180004560 f   GuIncrementalAABBPruner.obj
 0001:00003560       _guard_check_icall_nop     0000000180004560 f   LIBCMT:guard_support.obj
 0001:00003570       ??4AABBTreeBounds@Gu@physx@@QEAAAEAV012@AEBV012@@Z 0000000180004570 f i GuMeshFactory.obj
 0001:00003570       ??4CmModuleUpdateLoader@Cm@physx@@QEAAAEAV012@AEBV012@@Z 0000000180004570 f i CmWindowsModuleUpdateLoader.obj
 0001:00003570       ??4PtrTable@Cm@physx@@QEAAAEAU012@AEBU012@@Z 0000000180004570 f i CmPtrTable.obj
 0001:00003580       ?add@PtrTable@Cm@physx@@QEAAXPEAXAEAVPtrTableStorageManager@23@@Z 0000000180004580 f   CmPtrTable.obj
 0001:00003690       ?clear@PtrTable@Cm@physx@@QEAAXAEAVPtrTableStorageManager@23@@Z 0000000180004690 f   CmPtrTable.obj
 0001:00003700       ?exportExtraData@PtrTable@Cm@physx@@QEAAXAEAVPxSerializationContext@3@@Z 0000000180004700 f   CmPtrTable.obj
 0001:00003750       ?find@PtrTable@Cm@physx@@QEBAIPEBX@Z 0000000180004750 f   CmPtrTable.obj
 0001:00003780       ?getBinaryMetaData@PtrTable@Cm@physx@@SAXAEAVPxOutputStream@3@@Z 0000000180004780 f   CmPtrTable.obj
 0001:00003970       ?getCount@PtrTable@Cm@physx@@QEBAIXZ 0000000180004970 f i CmPtrTable.obj
 0001:00003980       ?getPtrs@PtrTable@Cm@physx@@QEAAPEAPEAXXZ 0000000180004980 f i CmPtrTable.obj
 0001:00003980       ?getPtrs@PtrTable@Cm@physx@@QEBAPEBQEAXXZ 0000000180004980 f i CmPtrTable.obj
 0001:00003990       ?importExtraData@PtrTable@Cm@physx@@QEAAXAEAVPxDeserializationContext@3@@Z 0000000180004990 f   CmPtrTable.obj
 0001:000039c0       ?realloc@PtrTable@Cm@physx@@AEAAXIIAEAVPtrTableStorageManager@23@@Z 00000001800049c0 f   CmPtrTable.obj
 0001:00003a50       ?replaceWithLast@PtrTable@Cm@physx@@QEAAXIAEAVPtrTableStorageManager@23@@Z 0000000180004a50 f   CmPtrTable.obj
 0001:00003b50       ??_ECollection@Cm@physx@@UEAAPEAXI@Z 0000000180004b50 f i CmCollection.obj
 0001:00003b50       ??_GCollection@Cm@physx@@UEAAPEAXI@Z 0000000180004b50 f i CmCollection.obj
 0001:00003c00       ??_EPxCollection@physx@@MEAAPEAXI@Z 0000000180004c00 f i CmCollection.obj
 0001:00003c00       ??_GPxCollection@physx@@MEAAPEAXI@Z 0000000180004c00 f i CmCollection.obj
 0001:00003c30       ?add@Collection@Cm@physx@@UEAAXAEAVPxBase@3@_K@Z 0000000180004c30 f   CmCollection.obj
 0001:00003d20       ?add@Collection@Cm@physx@@UEAAXAEAVPxCollection@3@@Z 0000000180004d20 f   CmCollection.obj
 0001:00003ec0       ?addId@Collection@Cm@physx@@UEAAXAEAVPxBase@3@_K@Z 0000000180004ec0 f   CmCollection.obj
 0001:00003ff0       ?contains@Collection@Cm@physx@@UEBA_NAEAVPxBase@3@@Z 0000000180004ff0 f   CmCollection.obj
 0001:000040a0       ?create@?$PxHashBase@V?$PxPair@$$CB_KPEAVPxBase@physx@@@physx@@_KU?$PxHash@_K@2@UGetKey@?$PxHashMapBase@_KPEAVPxBase@physx@@U?$PxHash@_K@2@VPxAllocator@2@@2@VPxAllocator@2@$00@physx@@QEAAPEAV?$PxPair@$$CB_KPEAVPxBase@physx@@@2@AEB_KAEA_N@Z 00000001800050a0 f i CmCollection.obj
 0001:000040a0       ?create@?$PxHashBase@V?$PxPair@QEAVPxBase@physx@@_K@physx@@PEAVPxBase@2@U?$PxHash@PEAVPxBase@physx@@@2@UGetKey@?$PxHashMapBase@PEAVPxBase@physx@@_KU?$PxHash@PEAVPxBase@physx@@@2@VPxAllocator@2@@2@VPxAllocator@2@$00@physx@@QEAAPEAV?$PxPair@QEAVPxBase@physx@@_K@2@AEBQEAVPxBase@2@AEA_N@Z 00000001800050a0 f i CmCollection.obj
 0001:00004230       ?erase@?$PxHashBase@V?$PxPair@$$CB_KPEAVPxBase@physx@@@physx@@_KU?$PxHash@_K@2@UGetKey@?$PxHashMapBase@_KPEAVPxBase@physx@@U?$PxHash@_K@2@VPxAllocator@2@@2@VPxAllocator@2@$00@physx@@QEAA_NAEB_K@Z 0000000180005230 f i CmCollection.obj
 0001:00004230       ?erase@?$PxHashBase@V?$PxPair@QEAVPxBase@physx@@_K@physx@@PEAVPxBase@2@U?$PxHash@PEAVPxBase@physx@@@2@UGetKey@?$PxHashMapBase@PEAVPxBase@physx@@_KU?$PxHash@PEAVPxBase@physx@@@2@VPxAllocator@2@@2@VPxAllocator@2@$00@physx@@QEAA_NAEBQEAVPxBase@2@@Z 0000000180005230 f i CmCollection.obj
 0001:000043e0       ?find@?$PxHashMapBase@_KPEAVPxBase@physx@@U?$PxHash@_K@2@VPxAllocator@2@@physx@@QEBAPEBV?$PxPair@$$CB_KPEAVPxBase@physx@@@2@AEB_K@Z 00000001800053e0 f i CmCollection.obj
 0001:00004480       ?find@Collection@Cm@physx@@UEBAPEAVPxBase@3@_K@Z 0000000180005480 f   CmCollection.obj
 0001:000044b0       ?getId@Collection@Cm@physx@@UEBA_KAEBVPxBase@3@@Z 00000001800054b0 f   CmCollection.obj
 0001:00004560       ?getIds@Collection@Cm@physx@@UEBAIPEA_KII@Z 0000000180005560 f   CmCollection.obj
 0001:00004630       ?getNbIds@Collection@Cm@physx@@UEBAIXZ 0000000180005630 f   CmCollection.obj
 0001:00004640       ?getNbObjects@Collection@Cm@physx@@UEBAIXZ 0000000180005640 f   CmCollection.obj
 0001:00004650       ?getObject@Collection@Cm@physx@@UEBAAEAVPxBase@3@I@Z 0000000180005650 f   CmCollection.obj
 0001:00004660       ?getObjects@Collection@Cm@physx@@UEBAIPEAPEAVPxBase@3@II@Z 0000000180005660 f   CmCollection.obj
 0001:000046a0       ?release@Collection@Cm@physx@@UEAAXXZ 00000001800056a0 f i CmCollection.obj
 0001:000046c0       ?remove@Collection@Cm@physx@@UEAAXAEAVPxBase@3@@Z 00000001800056c0 f   CmCollection.obj
 0001:000047b0       ?remove@Collection@Cm@physx@@UEAAXAEAVPxCollection@3@@Z 00000001800057b0 f   CmCollection.obj
 0001:000048c0       ?removeId@Collection@Cm@physx@@UEAAX_K@Z 00000001800058c0 f   CmCollection.obj
 0001:00004940       ?reserveInternal@?$PxHashBase@V?$PxPair@$$CB_KPEAVPxBase@physx@@@physx@@_KU?$PxHash@_K@2@UGetKey@?$PxHashMapBase@_KPEAVPxBase@physx@@U?$PxHash@_K@2@VPxAllocator@2@@2@VPxAllocator@2@$00@physx@@AEAAXI@Z 0000000180005940 f i CmCollection.obj
 0001:00004940       ?reserveInternal@?$PxHashBase@V?$PxPair@QEAVPxBase@physx@@_K@physx@@PEAVPxBase@2@U?$PxHash@PEAVPxBase@physx@@@2@UGetKey@?$PxHashMapBase@PEAVPxBase@physx@@_KU?$PxHash@PEAVPxBase@physx@@@2@VPxAllocator@2@@2@VPxAllocator@2@$00@physx@@AEAAXI@Z 0000000180005940 f i CmCollection.obj
 0001:00004b20       PxCreateCollection         0000000180005b20 f   CmCollection.obj
 0001:00004c10       ??0RadixSort@Cm@physx@@QEAA@XZ 0000000180005c10 f   CmRadixSort.obj
 0001:00004c40       ??0RadixSortBuffered@Cm@physx@@QEAA@XZ 0000000180005c40 f   CmRadixSort.obj
 0001:00004c70       ??1RadixSort@Cm@physx@@UEAA@XZ 0000000180005c70 f   CmRadixSort.obj
 0001:00004c80       ??1RadixSortBuffered@Cm@physx@@UEAA@XZ 0000000180005c80 f   CmRadixSort.obj
 0001:00004cb0       ??_ERadixSort@Cm@physx@@UEAAPEAXI@Z 0000000180005cb0 f i CmRadixSort.obj
 0001:00004d40       ??_ERadixSortBuffered@Cm@physx@@UEAAPEAXI@Z 0000000180005d40 f i CmRadixSort.obj
 0001:00004e30       ?CheckResize@RadixSortBuffered@Cm@physx@@AEAAXI@Z 0000000180005e30 f i CmRadixSort.obj
 0001:00004e70       ?GetNbHits@RadixSort@Cm@physx@@QEBAIXZ 0000000180005e70 f i CmRadixSort.obj
 0001:00004e80       ?GetNbTotalCalls@RadixSort@Cm@physx@@QEBAIXZ 0000000180005e80 f i CmRadixSort.obj
 0001:00004e90       ?GetRanks@RadixSort@Cm@physx@@QEBAPEBIXZ 0000000180005e90 f i CmRadixSort.obj
 0001:00004e90       ?getGridModelInvMass@SoftBodyAuxData@Gu@physx@@UEAAPEAMXZ 0000000180005e90 f i GuTetrahedronMesh.obj
 0001:00004e90       ?getHeightField@HeightFieldUtil@Gu@physx@@QEBAAEBVHeightField@23@XZ 0000000180005e90 f i GuCCTSweepTests.obj
 0001:00004e90       ?getSimulationMesh@SoftBodyMesh@Gu@physx@@UEAAPEAVPxTetrahedronMesh@3@XZ 0000000180005e90 f i GuTetrahedronMesh.obj
 0001:00004e90       ?getSimulationMesh@SoftBodyMesh@Gu@physx@@UEBAPEBVPxTetrahedronMesh@3@XZ 0000000180005e90 f i GuTetrahedronMesh.obj
 0001:00004ea0       ?GetRecyclable@RadixSort@Cm@physx@@QEBAPEAIXZ 0000000180005ea0 f i CmRadixSort.obj
 0001:00004ea0       ?GetValencies@BigConvexData@physx@@QEBAPEBUValency@Gu@2@XZ 0000000180005ea0 f i GuMetaData.obj
 0001:00004ea0       ?getCollisionMesh@SoftBodyMesh@Gu@physx@@UEAAPEAVPxTetrahedronMesh@3@XZ 0000000180005ea0 f i GuTetrahedronMesh.obj
 0001:00004ea0       ?getCollisionMesh@SoftBodyMesh@Gu@physx@@UEBAPEBVPxTetrahedronMesh@3@XZ 0000000180005ea0 f i GuTetrahedronMesh.obj
 0001:00004ea0       ?getHeightFieldGeometry@HeightFieldUtil@Gu@physx@@QEBAAEBVPxHeightFieldGeometry@3@XZ 0000000180005ea0 f i GuCCTSweepTests.obj
 0001:00004ea0       ?getObjects@PruningPool@Gu@physx@@QEBAPEAUPrunerPayload@23@XZ 0000000180005ea0 f i GuIncrementalAABBPrunerCore.obj
 0001:00004ea0       ?getPos@AABBTreeBuildNode@Gu@physx@@QEBAPEBV123@XZ 0000000180005ea0 f i GuMeshFactory.obj
 0001:00004ea0       ?getVertices@TetrahedronMesh@Gu@physx@@UEBAPEBV?$PxVec3T@M@3@XZ 0000000180005ea0 f i GuTetrahedronMesh.obj
 0001:00004ea0       ?getVertices@TriangleMesh@Gu@physx@@UEBAPEBV?$PxVec3T@M@3@XZ 0000000180005ea0 f i GuTriangleMesh.obj
 0001:00004eb0       ?Resize@RadixSortBuffered@Cm@physx@@AEAA_NI@Z 0000000180005eb0 f   CmRadixSort.obj
 0001:00004fb0       ?SetBuffers@RadixSort@Cm@physx@@QEAA_NPEAI00PEAPEAI@Z 0000000180005fb0 f   CmRadixSort.obj
 0001:00004ff0       ?Sort@RadixSort@Cm@physx@@QEAAAEAV123@PEBIIW4RadixHint@23@@Z 0000000180005ff0 f   CmRadixSort.obj
 0001:000056a0       ?Sort@RadixSort@Cm@physx@@QEAAAEAV123@PEBMI@Z 00000001800066a0 f   CmRadixSort.obj
 0001:00005e40       ?Sort@RadixSortBuffered@Cm@physx@@QEAAAEAV123@PEBIIW4RadixHint@23@@Z 0000000180006e40 f   CmRadixSort.obj
 0001:00005ee0       ?Sort@RadixSortBuffered@Cm@physx@@QEAAAEAV123@PEBMI@Z 0000000180006ee0 f   CmRadixSort.obj
 0001:00005f70       ?invalidateRanks@RadixSort@Cm@physx@@QEAAXXZ 0000000180006f70 f i CmRadixSort.obj
 0001:00005f80       ?reset@RadixSortBuffered@Cm@physx@@QEAAXXZ 0000000180006f80 f   CmRadixSort.obj
 0001:00006000       ?ReadHeader@Cm@physx@@YA_NEEEEAEAIAEA_NAEAVPxInputStream@2@@Z 0000000180007000 f   CmSerialize.obj
 0001:00006160       ?ReadIndices@Cm@physx@@YAXGIPEAGAEAVPxInputStream@2@_N@Z 0000000180007160 f   CmSerialize.obj
 0001:000062f0       ?StoreIndices@Cm@physx@@YAXGIPEBGAEAVPxOutputStream@2@_N@Z 00000001800072f0 f   CmSerialize.obj
 0001:000063e0       ?WriteHeader@Cm@physx@@YA_NEEEEI_NAEAVPxOutputStream@2@@Z 00000001800073e0 f   CmSerialize.obj
 0001:00006510       ?computeMaxIndex@physx@@YAGPEBGI@Z 0000000180007510 f   CmSerialize.obj
 0001:00006540       ?computeMaxIndex@physx@@YAIPEBII@Z 0000000180007540 f   CmSerialize.obj
 0001:00006570       ?readByteBuffer@physx@@YAXPEAEIAEAVPxInputStream@1@@Z 0000000180007570 f   CmSerialize.obj
 0001:00006570       ?writeByteBuffer@physx@@YAXPEBEIAEAVPxOutputStream@1@@Z 0000000180007570 f   CmSerialize.obj
 0001:00006590       ?readChunk@physx@@YAXAEAC000AEAVPxInputStream@1@@Z 0000000180007590 f   CmSerialize.obj
 0001:00006610       ?readDword@physx@@YAI_NAEAVPxInputStream@1@@Z 0000000180007610 f   CmSerialize.obj
 0001:00006670       ?readFloat@physx@@YAM_NAEAVPxInputStream@1@@Z 0000000180007670 f   CmSerialize.obj
 0001:000066d0       ?readFloatBuffer@physx@@YA_NPEAMI_NAEAVPxInputStream@1@@Z 00000001800076d0 f   CmSerialize.obj
 0001:00006750       ?readHeader@physx@@YA_NCCCCAEAIAEA_NAEAVPxInputStream@1@@Z 0000000180007750 f   CmSerialize.obj
 0001:000068a0       ?readIndices@physx@@YAXIIPEAIAEAVPxInputStream@1@_N@Z 00000001800078a0 f   CmSerialize.obj
 0001:000069d0       ?readWord@physx@@YAG_NAEAVPxInputStream@1@@Z 00000001800079d0 f   CmSerialize.obj
 0001:00006a10       ?readWordBuffer@physx@@YAXPEAGI_NAEAVPxInputStream@1@@Z 0000000180007a10 f   CmSerialize.obj
 0001:00006a80       ?storeIndices@physx@@YAXIIPEBIAEAVPxOutputStream@1@_N@Z 0000000180007a80 f   CmSerialize.obj
 0001:00006c10       ?writeDword@physx@@YAXI_NAEAVPxOutputStream@1@@Z 0000000180007c10 f   CmSerialize.obj
 0001:00006c60       ?writeFloat@physx@@YAXM_NAEAVPxOutputStream@1@@Z 0000000180007c60 f   CmSerialize.obj
 0001:00006cb0       ?writeFloatBuffer@physx@@YAXPEBMI_NAEAVPxOutputStream@1@@Z 0000000180007cb0 f   CmSerialize.obj
 0001:00006d50       ?writeHeader@physx@@YA_NCCCCI_NAEAVPxOutputStream@1@@Z 0000000180007d50 f   CmSerialize.obj
 0001:00006e80       ?writeWord@physx@@YAXG_NAEAVPxOutputStream@1@@Z 0000000180007e80 f   CmSerialize.obj
 0001:00006ec0       ?writeWordBuffer@physx@@YAXPEBGI_NAEAVPxOutputStream@1@@Z 0000000180007ec0 f   CmSerialize.obj
 0001:00006f40       ??6PxRenderOutput@physx@@QEAAAEAV01@AEBV?$PxTransformT@M@1@@Z 0000000180007f40 f i CmVisualization.obj
 0001:000070c0       ??6PxRenderOutput@physx@@QEAAAEAV01@AEBV?$PxVec3T@M@1@@Z 00000001800080c0 f i CmVisualization.obj
 0001:000073b0       ?renderOutputDebugArrow@Cm@physx@@YAXAEAVPxRenderOutput@2@AEBUPxDebugArrow@2@@Z 00000001800083b0 f   CmVisualization.obj
 0001:00007750       ?renderOutputDebugBasis@Cm@physx@@YAXAEAVPxRenderOutput@2@AEBUPxDebugBasis@2@@Z 0000000180008750 f   CmVisualization.obj
 0001:00007ce0       ?renderOutputDebugBox@Cm@physx@@YAXAEAVPxRenderOutput@2@AEBVPxBounds3@2@@Z 0000000180008ce0 f   CmVisualization.obj
 0001:00007f50       ?renderOutputDebugCircle@Cm@physx@@YAXAEAVPxRenderOutput@2@IM@Z 0000000180008f50 f   CmVisualization.obj
 0001:00008030       ?visualizeAngularLimit@Cm@physx@@YAXAEAVPxRenderOutput@2@MAEBV?$PxTransformT@M@2@MM@Z 0000000180009030 f   CmVisualization.obj
 0001:000081c0       ?visualizeDoubleCone@Cm@physx@@YAXAEAVPxRenderOutput@2@MAEBV?$PxTransformT@M@2@M@Z 00000001800091c0 f   CmVisualization.obj
 0001:000083e0       ?visualizeJointFrames@Cm@physx@@YAXAEAVPxRenderOutput@2@MAEBV?$PxTransformT@M@2@1@Z 00000001800093e0 f   CmVisualization.obj
 0001:00008ee0       ?visualizeLimitCone@Cm@physx@@YAXAEAVPxRenderOutput@2@MAEBV?$PxTransformT@M@2@MM@Z 0000000180009ee0 f   CmVisualization.obj
 0001:00009110       ?visualizeLinearLimit@Cm@physx@@YAXAEAVPxRenderOutput@2@MAEBV?$PxTransformT@M@2@1M@Z 000000018000a110 f   CmVisualization.obj
 0001:00009700       ??0CmModuleUpdateLoader@Cm@physx@@QEAA@PEBD@Z 000000018000a700 f   CmWindowsModuleUpdateLoader.obj
 0001:00009740       ??1CmModuleUpdateLoader@Cm@physx@@QEAA@XZ 000000018000a740 f   CmWindowsModuleUpdateLoader.obj
 0001:00009770       ?LoadModule@CmModuleUpdateLoader@Cm@physx@@QEAAPEAUHINSTANCE__@@PEBD0@Z 000000018000a770 f   CmWindowsModuleUpdateLoader.obj
 0001:000097e0       __local_stdio_printf_options 000000018000a7e0 f i CmWindowsModuleUpdateLoader.obj
 0001:000097f0       printf                     000000018000a7f0 f i CmWindowsModuleUpdateLoader.obj
 0001:00009850       ?commonDelayHook@@YAP6A_JXZIPEAUDelayLoadInfo@@@Z 000000018000a850 f   CmWindowsDelayLoadHook.obj
 0001:00009930       PxSetPhysXCommonDelayLoadHook 000000018000a930 f   CmWindowsDelayLoadHook.obj
 0001:00009940       ??0?$PxQuatT@M@physx@@QEAA@AEBV?$PxMat33T@M@1@@Z 000000018000a940 f i GuBox.obj
 0001:00009b40       ??0Box@Gu@physx@@QEAA@AEBV012@@Z 000000018000ab40 f i GuBox.obj
 0001:00009b40       ??4Box@Gu@physx@@QEAAAEBV012@AEBV012@@Z 000000018000ab40 f i GuBox.obj
 0001:00009ba0       ??0Box@Gu@physx@@QEAA@AEBV?$PxVec3T@M@2@0AEBV?$PxMat33T@M@2@@Z 000000018000aba0 f i GuBox.obj
 0001:00009c10       ??0AABBTreeBuildNode@Gu@physx@@QEAA@XZ 000000018000ac10 f i GuMeshFactory.obj
 0001:00009c10       ??0BigConvexData@physx@@QEAA@W4PxEMPTY@1@@Z 000000018000ac10 f i GuMetaData.obj
 0001:00009c10       ??0Box@Gu@physx@@QEAA@XZ   000000018000ac10 f i GuBox.obj
 0001:00009c10       ??0HeightFieldData@Gu@physx@@QEAA@W4PxEMPTY@2@@Z 000000018000ac10 f i GuCCTSweepTests.obj
 0001:00009c10       ?getAABB@AABBTreeBuildNode@Gu@physx@@QEBAAEBVPxBounds3@3@XZ 000000018000ac10 f i GuMeshFactory.obj
 0001:00009c10       ?getPaddedBounds@HeightFieldData@Gu@physx@@QEBAAEBVCenterExtentsPadded@23@XZ 000000018000ac10 f i GuCCTSweepTests.obj
 0001:00009c20       ?computeAABBExtent@Box@Gu@physx@@QEBA?AV?$PxVec3T@M@3@XZ 000000018000ac20 f i GuBox.obj
 0001:00009ce0       ?computeBoxPoints@Box@Gu@physx@@QEBAXPEIAV?$PxVec3T@M@3@@Z 000000018000ace0 f i GuBox.obj
 0001:00009d20       ?computeOBBPoints@Gu@physx@@YAXPEIAV?$PxVec3T@M@2@AEBV32@1111@Z 000000018000ad20 f   GuBox.obj
 0001:00009fa0       ?create@Box@Gu@physx@@QEAAXAEBVCapsule@23@@Z 000000018000afa0 f   GuBox.obj
 0001:0000a1d0       ?getBoxEdges@Gu@physx@@YAPEBEXZ 000000018000b1d0 f   GuBox.obj
 0001:0000a1e0       ?getTransform@Box@Gu@physx@@QEBA?AV?$PxTransformT@M@3@XZ 000000018000b1e0 f i GuBox.obj
 0001:0000a240       ?isValid@Box@Gu@physx@@QEBA_NXZ 000000018000b240 f i GuBox.obj
 0001:0000a260       ?rotate@Box@Gu@physx@@QEBA?AV?$PxVec3T@M@3@AEBV43@@Z 000000018000b260 f i GuBox.obj
 0001:0000a2f0       ?rotateInv@Box@Gu@physx@@QEBA?AV?$PxVec3T@M@3@AEBV43@@Z 000000018000b2f0 f i GuBox.obj
 0001:0000a380       ?setAxes@Box@Gu@physx@@QEAAXAEBV?$PxVec3T@M@3@00@Z 000000018000b380 f i GuBox.obj
 0001:0000a3c0       ?setEmpty@Box@Gu@physx@@QEAAXXZ 000000018000b3c0 f i GuBox.obj
 0001:0000a400       ?transform@Box@Gu@physx@@QEBA?AV?$PxVec3T@M@3@AEBV43@@Z 000000018000b400 f i GuBox.obj
 0001:0000a4a0       ?PxComputeBasisVectors@physx@@YAXAEBV?$PxVec3T@M@1@0AEAV21@11@Z 000000018000b4a0 f i GuCapsule.obj
 0001:0000a640       ?computeBoxAroundCapsule@Gu@physx@@YAXAEBVCapsule@12@AEAVBox@12@@Z 000000018000b640 f   GuCapsule.obj
 0001:0000a790       ??0HeightFieldData@Gu@physx@@QEAA@$$QEAU012@@Z 000000018000b790 f i GuCCTSweepTests.obj
 0001:0000a790       ??0HeightFieldData@Gu@physx@@QEAA@AEBU012@@Z 000000018000b790 f i GuCCTSweepTests.obj
 0001:0000a790       ??4HeightFieldData@Gu@physx@@QEAAAEAU012@$$QEAU012@@Z 000000018000b790 f i GuCCTSweepTests.obj
 0001:0000a790       ??4HeightFieldData@Gu@physx@@QEAAAEAU012@AEBU012@@Z 000000018000b790 f i GuCCTSweepTests.obj
 0001:0000a7f0       ??0HeightFieldData@Gu@physx@@QEAA@XZ 000000018000b7f0 f i GuCCTSweepTests.obj
 0001:0000a800       ??0HeightFieldTraceUtil@Gu@physx@@QEAA@AEBVPxHeightFieldGeometry@2@@Z 000000018000b800 f i GuCCTSweepTests.obj
 0001:0000a800       ??0HeightFieldUtil@Gu@physx@@QEAA@AEBVPxHeightFieldGeometry@2@@Z 000000018000b800 f i GuCCTSweepTests.obj
 0001:0000a840       ??4AABBTreeBuildParams@Gu@physx@@QEAAAEAV012@AEBV012@@Z 000000018000b840 f i GuMeshFactory.obj
 0001:0000a840       ??4HeightFieldTraceUtil@Gu@physx@@QEAAAEAV012@$$QEAV012@@Z 000000018000b840 f i GuCCTSweepTests.obj
 0001:0000a840       ??4HeightFieldTraceUtil@Gu@physx@@QEAAAEAV012@AEBV012@@Z 000000018000b840 f i GuCCTSweepTests.obj
 0001:0000a840       ??4HeightFieldUtil@Gu@physx@@QEAAAEAV012@AEBV012@@Z 000000018000b840 f i GuCCTSweepTests.obj
 0001:0000a860       ??4HeightFieldUtil@Gu@physx@@QEAAAEAV012@$$QEAV012@@Z 000000018000b860 f i GuCCTSweepTests.obj
 0001:0000a8c0       ??_EEntityReport@Gu@physx@@UEAAPEAXI@Z 000000018000b8c0 f i GuSweepsHF.obj
 0001:0000a8c0       ??_EOverlapCallback@PxBVH@physx@@UEAAPEAXI@Z 000000018000b8c0 f i GuQuerySystem.obj
 0001:0000a8c0       ??_EOverlapReport@Gu@physx@@UEAAPEAXI@Z 000000018000b8c0 f i GuCCTSweepTests.obj
 0001:0000a8c0       ??_ERaycastCallback@PxBVH@physx@@UEAAPEAXI@Z 000000018000b8c0 f i GuQuerySystem.obj
 0001:0000a8c0       ??_ERemapCallback@RTreeCooker@physx@@UEAAPEAXI@Z 000000018000b8c0 f i GuCookingTriangleMesh.obj
 0001:0000a8c0       ??_GEntityReport@Gu@physx@@UEAAPEAXI@Z 000000018000b8c0 f i GuSweepsHF.obj
 0001:0000a8c0       ??_GOverlapCallback@PxBVH@physx@@UEAAPEAXI@Z 000000018000b8c0 f i GuQuerySystem.obj
 0001:0000a8c0       ??_GOverlapReport@Gu@physx@@UEAAPEAXI@Z 000000018000b8c0 f i GuCCTSweepTests.obj
 0001:0000a8c0       ??_GRaycastCallback@PxBVH@physx@@UEAAPEAXI@Z 000000018000b8c0 f i GuQuerySystem.obj
 0001:0000a8c0       ??_GRemapCallback@RTreeCooker@physx@@UEAAPEAXI@Z 000000018000b8c0 f i GuCookingTriangleMesh.obj
 0001:0000a8f0       ??_H@YAXPEAX_K1P6APEAX0@Z@Z 000000018000b8f0 f i GuCCTSweepTests.obj
 0001:0000a940       ?ceilUp@HeightFieldTraceUtil@Gu@physx@@SAMM@Z 000000018000b940 f i GuCCTSweepTests.obj
 0001:0000a980       ?floorDown@HeightFieldTraceUtil@Gu@physx@@SAMM@Z 000000018000b980 f i GuCCTSweepTests.obj
 0001:0000a9c0       ?getHeightAtShapePoint@HeightFieldUtil@Gu@physx@@QEBAMMM@Z 000000018000b9c0 f i GuCCTSweepTests.obj
 0001:0000aa20       ?getHeightInternal2@HeightField@Gu@physx@@QEBAMIMM@Z 000000018000ba20 f i GuCCTSweepTests.obj
 0001:0000ab90       ?getNormalAtShapePoint@HeightFieldUtil@Gu@physx@@QEBA?AV?$PxVec3T@M@3@MM@Z 000000018000bb90 f i GuCCTSweepTests.obj
 0001:0000ac50       ?getNormal_2@HeightField@Gu@physx@@QEBA?AV?$PxVec3T@M@3@IMMMMM@Z 000000018000bc50 f i GuCCTSweepTests.obj
 0001:0000ad70       ?getOneOverColumnScale@HeightFieldUtil@Gu@physx@@QEBAMXZ 000000018000bd70 f i GuCCTSweepTests.obj
 0001:0000ad80       ?getOneOverHeightScale@HeightFieldUtil@Gu@physx@@QEBAMXZ 000000018000bd80 f i GuCCTSweepTests.obj
 0001:0000ad90       ?getOneOverRowScale@HeightFieldUtil@Gu@physx@@QEBAMXZ 000000018000bd90 f i GuCCTSweepTests.obj
 0001:0000ada0       ?hf2shapen@HeightFieldUtil@Gu@physx@@QEBA?AV?$PxVec3T@M@3@AEBV43@@Z 000000018000bda0 f i GuCCTSweepTests.obj
 0001:0000ada0       ?shape2hfp@HeightFieldUtil@Gu@physx@@QEBA?AV?$PxVec3T@M@3@AEBV43@@Z 000000018000bda0 f i GuCCTSweepTests.obj
 0001:0000ade0       ?hf2shapep@HeightFieldUtil@Gu@physx@@QEBA?AV?$PxVec3T@M@3@AEBV43@@Z 000000018000bde0 f i GuCCTSweepTests.obj
 0001:0000ae20       ?hf2worldn@HeightFieldUtil@Gu@physx@@QEBA?AV?$PxVec3T@M@3@AEBV?$PxTransformT@M@3@AEBV43@@Z 000000018000be20 f i GuCCTSweepTests.obj
 0001:0000af90       ?hf2worldp@HeightFieldUtil@Gu@physx@@QEBA?AV?$PxVec3T@M@3@AEBV?$PxTransformT@M@3@AEBV43@@Z 000000018000bf90 f i GuCCTSweepTests.obj
 0001:0000b110       ?overlapAABBTriangles0to1@HeightFieldUtil@Gu@physx@@QEBAXAEBV?$PxTransformT@M@3@AEBVPxBounds3@3@AEAVOverlapReport@23@I@Z 000000018000c110 f i GuCCTSweepTests.obj
 0001:0000b490       ?overlapAABBTriangles@HeightFieldUtil@Gu@physx@@QEBAXAEBV?$PxTransformT@M@3@0AEBVPxBounds3@3@AEAVOverlapReport@23@I@Z 000000018000c490 f i GuCCTSweepTests.obj
 0001:0000bab0       ?overlapAABBTriangles@HeightFieldUtil@Gu@physx@@QEBAXAEBV?$PxTransformT@M@3@AEBVPxBounds3@3@AEAVOverlapReport@23@I@Z 000000018000cab0 f i GuCCTSweepTests.obj
 0001:0000c160       ?sweepBoxTriangles_Precise@Gu@physx@@YA_NIPEBVPxTriangle@2@_NAEBVPxBoxGeometry@2@AEBV?$PxTransformT@M@2@AEBV?$PxVec3T@M@2@MAEAUPxGeomSweepHit@2@PEBIMV?$PxFlags@W4Enum@PxHitFlag@physx@@G@2@@Z 000000018000d160 f   GuCCTSweepTests.obj
 0001:0000cef0       ?sweepBox_BoxGeom_Precise@@YA_NAEBVPxGeometry@physx@@AEBV?$PxTransformT@M@2@AEBVPxBoxGeometry@2@1AEBVBox@Gu@2@AEBV?$PxVec3T@M@2@MAEAUPxGeomSweepHit@2@V?$PxFlags@W4Enum@PxHitFlag@physx@@G@2@MPEAUPxQueryThreadContext@2@@Z 000000018000def0 f   GuCCTSweepTests.obj
 0001:0000d0b0       ?sweepBox_CapsuleGeom_Precise@@YA_NAEBVPxGeometry@physx@@AEBV?$PxTransformT@M@2@AEBVPxBoxGeometry@2@1AEBVBox@Gu@2@AEBV?$PxVec3T@M@2@MAEAUPxGeomSweepHit@2@V?$PxFlags@W4Enum@PxHitFlag@physx@@G@2@MPEAUPxQueryThreadContext@2@@Z 000000018000e0b0 f   GuCCTSweepTests.obj
 0001:0000d480       ?sweepBox_HeightFieldGeom_Precise@@YA_NAEBVPxGeometry@physx@@AEBV?$PxTransformT@M@2@AEBVPxBoxGeometry@2@1AEBVBox@Gu@2@AEBV?$PxVec3T@M@2@MAEAUPxGeomSweepHit@2@V?$PxFlags@W4Enum@PxHitFlag@physx@@G@2@MPEAUPxQueryThreadContext@2@@Z 000000018000e480 f   GuCCTSweepTests.obj
 0001:0000dc80       ?sweepBox_SphereGeom_Precise@@YA_NAEBVPxGeometry@physx@@AEBV?$PxTransformT@M@2@AEBVPxBoxGeometry@2@1AEBVBox@Gu@2@AEBV?$PxVec3T@M@2@MAEAUPxGeomSweepHit@2@V?$PxFlags@W4Enum@PxHitFlag@physx@@G@2@MPEAUPxQueryThreadContext@2@@Z 000000018000ec80 f   GuCCTSweepTests.obj
 0001:0000df50       ?sweepCapsule_BoxGeom_Precise@@YA_NAEBVPxGeometry@physx@@AEBV?$PxTransformT@M@2@AEBVPxCapsuleGeometry@2@1AEBVCapsule@Gu@2@AEBV?$PxVec3T@M@2@MAEAUPxGeomSweepHit@2@V?$PxFlags@W4Enum@PxHitFlag@physx@@G@2@MPEAUPxQueryThreadContext@2@@Z 000000018000ef50 f   GuCCTSweepTests.obj
 0001:0000e5e0       ??0?$CacheMap@UCachedEdge@Gu@physx@@$0IA@@Gu@physx@@QEAA@XZ 000000018000f5e0 f i GuGeometryQuery.obj
 0001:0000e6a0       ??0?$CacheMap@UCachedVertex@Gu@physx@@$0IA@@Gu@physx@@QEAA@XZ 000000018000f6a0 f i GuGeometryQuery.obj
 0001:0000e760       ??0MultiplePersistentContactManifold@Gu@physx@@QEAA@XZ 000000018000f760 f i GuGeometryQuery.obj
 0001:0000e7c0       ??0PCMMeshContactGeneration@Gu@physx@@QEAA@AEBT__m128@@0AEBVPxTransformV@aos@2@1AEAVMultiplePersistentContactManifold@12@AEAVPxContactBuffer@2@PEAV?$PxInlineArray@I$0DMA@V?$PxReflectionAllocator@I@physx@@@2@PEAVPxRenderOutput@2@@Z 000000018000f7c0 f i GuGeometryQuery.obj
 0001:0000f0f0       ??0PolygonalBox@Gu@physx@@QEAA@AEBV012@@Z 00000001800100f0 f i GuGeometryQuery.obj
 0001:0000f370       ??4MultiplePersistentContactManifold@Gu@physx@@QEAAAEAV012@$$QEAV012@@Z 0000000180010370 f i GuGeometryQuery.obj
 0001:0000f680       ??4MultiplePersistentContactManifold@Gu@physx@@QEAAAEAV012@AEBV012@@Z 0000000180010680 f i GuGeometryQuery.obj
 0001:0000f6a0       ??_E?$SupportLocalImpl@VBoxV@Gu@physx@@@Gu@physx@@UEAAPEAXI@Z 00000001800106a0 f i GuGeometryQuery.obj
 0001:0000f6a0       ??_E?$SupportLocalImpl@VConvexHullNoScaleV@Gu@physx@@@Gu@physx@@UEAAPEAXI@Z 00000001800106a0 f i GuMTD.obj
 0001:0000f6a0       ??_E?$SupportLocalImpl@VConvexHullV@Gu@physx@@@Gu@physx@@UEAAPEAXI@Z 00000001800106a0 f i GuGeometryQuery.obj
 0001:0000f6a0       ??_E?$SupportLocalImpl@VTriangleV@Gu@physx@@@Gu@physx@@UEAAPEAXI@Z 00000001800106a0 f i GuPCMContactConvexCommon.obj
 0001:0000f6a0       ??_G?$SupportLocalImpl@VBoxV@Gu@physx@@@Gu@physx@@UEAAPEAXI@Z 00000001800106a0 f i GuGeometryQuery.obj
 0001:0000f6a0       ??_G?$SupportLocalImpl@VConvexHullNoScaleV@Gu@physx@@@Gu@physx@@UEAAPEAXI@Z 00000001800106a0 f i GuMTD.obj
 0001:0000f6a0       ??_G?$SupportLocalImpl@VConvexHullV@Gu@physx@@@Gu@physx@@UEAAPEAXI@Z 00000001800106a0 f i GuGeometryQuery.obj
 0001:0000f6a0       ??_G?$SupportLocalImpl@VTriangleV@Gu@physx@@@Gu@physx@@UEAAPEAXI@Z 00000001800106a0 f i GuPCMContactConvexCommon.obj
 0001:0000f6d0       ??_ESupportLocal@Gu@physx@@UEAAPEAXI@Z 00000001800106d0 f i GuGeometryQuery.obj
 0001:0000f6d0       ??_GSupportLocal@Gu@physx@@UEAAPEAXI@Z 00000001800106d0 f i GuGeometryQuery.obj
 0001:0000f700       ?clearManifold@MultiplePersistentContactManifold@Gu@physx@@QEAAXXZ 0000000180010700 f i GuGeometryQuery.obj
 0001:0000f760       ?computeGeomBounds@PxGeometryQuery@physx@@SAXAEAVPxBounds3@2@AEBVPxGeometry@2@AEBV?$PxTransformT@M@2@MMV?$PxFlags@W4Enum@PxGeometryQueryFlag@physx@@I@2@@Z 0000000180010760 f   GuGeometryQuery.obj
 0001:0000f7e0       ?computePenetration@PxGeometryQuery@physx@@SA_NAEAV?$PxVec3T@M@2@AEAMAEBVPxGeometry@2@AEBV?$PxTransformT@M@2@23V?$PxFlags@W4Enum@PxGeometryQueryFlag@physx@@I@2@@Z 00000001800107e0 f   GuGeometryQuery.obj
 0001:0000f960       ?doSupport@?$SupportLocalImpl@VBoxV@Gu@physx@@@Gu@physx@@UEBA?AT__m128@@AEBT4@@Z 0000000180010960 f i GuGeometryQuery.obj
 0001:0000f990       ?doSupport@?$SupportLocalImpl@VBoxV@Gu@physx@@@Gu@physx@@UEBAXAEBT__m128@@AEAT4@1@Z 0000000180010990 f i GuGeometryQuery.obj
 0001:0000f9e0       ?doSupport@?$SupportLocalImpl@VConvexHullV@Gu@physx@@@Gu@physx@@UEBA?AT__m128@@AEBT4@@Z 00000001800109e0 f i GuGeometryQuery.obj
 0001:0000fac0       ?doSupport@?$SupportLocalImpl@VConvexHullV@Gu@physx@@@Gu@physx@@UEBAXAEBT__m128@@AEAT4@1@Z 0000000180010ac0 f i GuGeometryQuery.obj
 0001:0000fe20       ?generateTriangleContacts@PxGeometryQuery@physx@@SA_NAEBVPxGeometry@2@AEBV?$PxTransformT@M@2@QEBV?$PxVec3T@M@2@IMMMAEAVPxContactBuffer@2@@Z 0000000180010e20 f   GuGeometryQuery.obj
 0001:000117d0       ?getEmptyManifold@MultiplePersistentContactManifold@Gu@physx@@QEAAPEAVSinglePersistentContactManifold@23@XZ 00000001800127d0 f i GuGeometryQuery.obj
 0001:000117f0       ?getManifold@MultiplePersistentContactManifold@Gu@physx@@QEAAPEAVSinglePersistentContactManifold@23@I@Z 00000001800127f0 f i GuGeometryQuery.obj
 0001:000117f0       ?getManifold@MultiplePersistentContactManifold@Gu@physx@@QEBAPEBVSinglePersistentContactManifold@23@I@Z 00000001800127f0 f i GuGeometryQuery.obj
 0001:00011810       ?getUniqueID@PxCustomGeometry@physx@@SAIXZ 0000000180012810 f   GuGeometryQuery.obj
 0001:00011830       ?hillClimbing@ConvexHullV@Gu@physx@@QEBAIAEBT__m128@@@Z 0000000180012830 f i GuGeometryQuery.obj
 0001:00011a60       ?initialize@MultiplePersistentContactManifold@Gu@physx@@QEAAXXZ 0000000180012a60 f i GuGeometryQuery.obj
 0001:00011ac0       ?invalidate@MultiplePersistentContactManifold@Gu@physx@@QEBAIAEBVPxTransformV@aos@3@AEBT__m128@@1@Z 0000000180012ac0 f i GuGeometryQuery.obj
 0001:00011b30       ?invalidate@MultiplePersistentContactManifold@Gu@physx@@QEBAIAEBVPxTransformV@aos@3@AEBT__m128@@@Z 0000000180012b30 f i GuGeometryQuery.obj
 0001:00011ba0       ?isUnit@?$PxQuatT@M@physx@@QEBA_NXZ 0000000180012ba0 f i GuGeometryQuery.obj
 0001:00011c60       ?isValid@PxGeometryQuery@physx@@SA_NAEBVPxGeometry@2@@Z 0000000180012c60 f   GuGeometryQuery.obj
 0001:00011f50       ?maxTransformPositionDelta@MultiplePersistentContactManifold@Gu@physx@@QEBA?AT__m128@@AEBT4@@Z 0000000180012f50 f i GuGeometryQuery.obj
 0001:00011f90       ?maxTransformQuatDelta@MultiplePersistentContactManifold@Gu@physx@@QEBA?AT__m128@@AEBT4@@Z 0000000180012f90 f i GuGeometryQuery.obj
 0001:00011fd0       ?overlap@PxGeometryQuery@physx@@SA_NAEBVPxGeometry@2@AEBV?$PxTransformT@M@2@01V?$PxFlags@W4Enum@PxGeometryQueryFlag@physx@@I@2@PEAUPxQueryThreadContext@2@@Z 0000000180012fd0 f   GuGeometryQuery.obj
 0001:000120a0       ?pointDistance@PxGeometryQuery@physx@@SAMAEBV?$PxVec3T@M@2@AEBVPxGeometry@2@AEBV?$PxTransformT@M@2@PEAV32@PEAIV?$PxFlags@W4Enum@PxGeometryQueryFlag@physx@@I@2@@Z 00000001800130a0 f   GuGeometryQuery.obj
 0001:00012830       ?populateVerts@?$SupportLocalImpl@VBoxV@Gu@physx@@@Gu@physx@@UEBAXPEBEIPEBV?$PxVec3T@M@3@PEAT__m128@@@Z 0000000180013830 f i GuGeometryQuery.obj
 0001:00012870       ?populateVerts@?$SupportLocalImpl@VConvexHullV@Gu@physx@@@Gu@physx@@UEBAXPEBEIPEBV?$PxVec3T@M@3@PEAT__m128@@@Z 0000000180013870 f i GuGeometryQuery.obj
 0001:000128d0       ?raycast@PxGeometryQuery@physx@@SAIAEBV?$PxVec3T@M@2@0AEBVPxGeometry@2@AEBV?$PxTransformT@M@2@MV?$PxFlags@W4Enum@PxHitFlag@physx@@G@2@IPEIAUPxGeomRaycastHit@2@IV?$PxFlags@W4Enum@PxGeometryQueryFlag@physx@@I@2@PEAUPxQueryThreadContext@2@@Z 00000001800138d0 f   GuGeometryQuery.obj
 0001:000129d0       ?reduceManifoldContactsInDifferentPatches@MultiplePersistentContactManifold@Gu@physx@@QEBAIPEAPEAUPCMContactPatch@23@IPEAVMeshPersistentContact@23@IAEBT__m128@@@Z 00000001800139d0 f i GuGeometryQuery.obj
 0001:00012b40       ?refineContactPatchConnective@MultiplePersistentContactManifold@Gu@physx@@QEBAXPEAPEAUPCMContactPatch@23@IPEAVMeshPersistentContact@23@AEBT__m128@@@Z 0000000180013b40 f i GuGeometryQuery.obj
 0001:00012c30       ?refreshManifold@MultiplePersistentContactManifold@Gu@physx@@QEAAXAEBVPxMatTransformV@aos@3@AEBT__m128@@1@Z 0000000180013c30 f i GuGeometryQuery.obj
 0001:00012d30       ?setRelativeTransform@MultiplePersistentContactManifold@Gu@physx@@QEAAXAEBVPxTransformV@aos@3@@Z 0000000180013d30 f i GuGeometryQuery.obj
 0001:00012d40       ?supportVertexIndex@ConvexHullV@Gu@physx@@QEBAIAEBT__m128@@@Z 0000000180013d40 f i GuGeometryQuery.obj
 0001:00012fc0       ?sweep@PxGeometryQuery@physx@@SA_NAEBV?$PxVec3T@M@2@MAEBVPxGeometry@2@AEBV?$PxTransformT@M@2@12AEAUPxGeomSweepHit@2@V?$PxFlags@W4Enum@PxHitFlag@physx@@G@2@MV?$PxFlags@W4Enum@PxGeometryQueryFlag@physx@@I@2@PEAUPxQueryThreadContext@2@@Z 0000000180013fc0 f   GuGeometryQuery.obj
 0001:00013450       ?computeBoxPoints@Gu@physx@@YAXAEBVPxBounds3@2@PEIAV?$PxVec3T@M@2@@Z 0000000180014450 f   GuInternal.obj
 0001:000134f0       ?computeSweptBox@Gu@physx@@YAXAEAVBox@12@AEBV?$PxVec3T@M@2@1AEBV?$PxMat33T@M@2@1M@Z 00000001800144f0 f   GuInternal.obj
 0001:00013a30       ?getPlane@Gu@physx@@YA?AVPxPlane@2@AEBV?$PxTransformT@M@2@@Z 0000000180014a30 f   GuInternal.obj
 0001:00013e80       ??_ECallbackRaycast@RTree@Gu@physx@@UEAAPEAXI@Z 0000000180014e80 f i GuMidphaseRTree.obj
 0001:00013e80       ??_ECallbackRefit@RTree@Gu@physx@@UEAAPEAXI@Z 0000000180014e80 f i GuTriangleMeshRTree.obj
 0001:00013e80       ??_EPxInsertionCallback@physx@@MEAAPEAXI@Z 0000000180014e80 f i GuMeshFactory.obj
 0001:00013e80       ??_GCallbackRaycast@RTree@Gu@physx@@UEAAPEAXI@Z 0000000180014e80 f i GuMidphaseRTree.obj
 0001:00013e80       ??_GCallbackRefit@RTree@Gu@physx@@UEAAPEAXI@Z 0000000180014e80 f i GuTriangleMeshRTree.obj
 0001:00013e80       ??_GPxInsertionCallback@physx@@MEAAPEAXI@Z 0000000180014e80 f i GuMeshFactory.obj
 0001:00013eb0       ??$copy@V?$PxReflectionAllocator@USlab@NodeAllocator@Gu@physx@@@physx@@@?$PxArray@USlab@NodeAllocator@Gu@physx@@V?$PxReflectionAllocator@USlab@NodeAllocator@Gu@physx@@@4@@physx@@IEAAXAEBV01@@Z 0000000180014eb0 f i GuMeshFactory.obj
 0001:00013f70       ??0AABBTreeBounds@Gu@physx@@QEAA@XZ 0000000180014f70 f i GuMeshFactory.obj
 0001:00013f80       ??0AABBTreeBuildNode@Gu@physx@@QEAA@AEBV012@@Z 0000000180014f80 f i GuMeshFactory.obj
 0001:00013f80       ??4AABBTreeBuildNode@Gu@physx@@QEAAAEAV012@AEBV012@@Z 0000000180014f80 f i GuMeshFactory.obj
 0001:00013fc0       ??0AABBTreeBuildParams@Gu@physx@@QEAA@IIPEBVAABBTreeBounds@12@W4BVHBuildStrategy@12@@Z 0000000180014fc0 f i GuMeshFactory.obj
 0001:00013fe0       ??0MeshFactory@Gu@physx@@QEAA@XZ 0000000180014fe0 f   GuMeshFactory.obj
 0001:000141e0       ??0NodeAllocator@Gu@physx@@QEAA@AEBV012@@Z 00000001800151e0 f i GuMeshFactory.obj
 0001:00014220       ??0TriangleMeshData@Gu@physx@@QEAA@XZ 0000000180015220 f i GuMeshFactory.obj
 0001:00014330       ??1AABBTreeBounds@Gu@physx@@QEAA@XZ 0000000180015330 f i GuMeshFactory.obj
 0001:00014340       ??1AABBTreeBuildParams@Gu@physx@@QEAA@XZ 0000000180015340 f i GuMeshFactory.obj
 0001:00014340       ?reset@AABBTreeBuildParams@Gu@physx@@QEAAXXZ 0000000180015340 f i GuMeshFactory.obj
 0001:00014390       ??1CollisionMeshMappingData@Gu@physx@@UEAA@XZ 0000000180015390 f i GuMeshFactory.obj
 0001:000144e0       ??1MeshDataBase@Gu@physx@@UEAA@XZ 00000001800154e0 f i GuMeshFactory.obj
 0001:00014620       ??1MeshFactory@Gu@physx@@MEAA@XZ 0000000180015620 f   GuMeshFactory.obj
 0001:00014760       ??1RTreeTriangleData@Gu@physx@@UEAA@XZ 0000000180015760 f i GuMeshFactory.obj
 0001:000147d0       ??1SoftBodyCollisionData@Gu@physx@@UEAA@XZ 00000001800157d0 f i GuMeshFactory.obj
 0001:00014910       ??1SoftBodySimulationData@Gu@physx@@UEAA@XZ 0000000180015910 f i GuMeshFactory.obj
 0001:00014a30       ??1TetrahedronMeshData@Gu@physx@@QEAA@XZ 0000000180015a30 f i GuMeshFactory.obj
 0001:00014ac0       ??1TriangleMeshData@Gu@physx@@UEAA@XZ 0000000180015ac0 f i GuMeshFactory.obj
 0001:00014bf0       ??4NodeAllocator@Gu@physx@@QEAAAEAV012@AEBV012@@Z 0000000180015bf0 f i GuMeshFactory.obj
 0001:00014ca0       ??_EMeshFactory@Gu@physx@@MEAAPEAXI@Z 0000000180015ca0 f i GuMeshFactory.obj
 0001:00014dc0       ??_FAABBTreeBuildParams@Gu@physx@@QEAAXXZ 0000000180015dc0 f i GuMeshFactory.obj
 0001:00014de0       ??_EBV4TriangleData@Gu@physx@@UEAAPEAXI@Z 0000000180015de0 f i GuMeshFactory.obj
 0001:00014de0       ??_GBV4TriangleData@Gu@physx@@UEAAPEAXI@Z 0000000180015de0 f i GuMeshFactory.obj
 0001:00014e70       ??_ECollisionMeshMappingData@Gu@physx@@UEAAPEAXI@Z 0000000180015e70 f i GuMeshFactory.obj
 0001:00014e70       ??_GCollisionMeshMappingData@Gu@physx@@UEAAPEAXI@Z 0000000180015e70 f i GuMeshFactory.obj
 0001:00014ee0       ??_EMeshDataBase@Gu@physx@@UEAAPEAXI@Z 0000000180015ee0 f i GuMeshFactory.obj
 0001:00014ee0       ??_GMeshDataBase@Gu@physx@@UEAAPEAXI@Z 0000000180015ee0 f i GuMeshFactory.obj
 0001:00014f50       ??_EPxCollisionMeshMappingData@physx@@UEAAPEAXI@Z 0000000180015f50 f i GuMeshFactory.obj
 0001:00014f50       ??_GPxCollisionMeshMappingData@physx@@UEAAPEAXI@Z 0000000180015f50 f i GuMeshFactory.obj
 0001:00014fa0       ??_ERTreeTriangleData@Gu@physx@@UEAAPEAXI@Z 0000000180015fa0 f i GuMeshFactory.obj
 0001:00014fa0       ??_GRTreeTriangleData@Gu@physx@@UEAAPEAXI@Z 0000000180015fa0 f i GuMeshFactory.obj
 0001:00015050       ??_ESoftBodyCollisionData@Gu@physx@@UEAAPEAXI@Z 0000000180016050 f i GuMeshFactory.obj
 0001:00015050       ??_GSoftBodyCollisionData@Gu@physx@@UEAAPEAXI@Z 0000000180016050 f i GuMeshFactory.obj
 0001:000150c0       ??_ESoftBodySimulationData@Gu@physx@@UEAAPEAXI@Z 00000001800160c0 f i GuMeshFactory.obj
 0001:000150c0       ??_GSoftBodySimulationData@Gu@physx@@UEAAPEAXI@Z 00000001800160c0 f i GuMeshFactory.obj
 0001:00015130       ??_ETriangleMeshData@Gu@physx@@UEAAPEAXI@Z 0000000180016130 f i GuMeshFactory.obj
 0001:00015130       ??_GTriangleMeshData@Gu@physx@@UEAAPEAXI@Z 0000000180016130 f i GuMeshFactory.obj
 0001:000151a0       ??_V@YAXPEAX_K@Z           00000001800161a0 f i LIBCMT:delete_array_size.obj
 0001:000151a0       ?__global_delete@@YAXPEAX_K@Z 00000001800161a0 f i GuMeshFactory.obj
 0001:000151b0       ?addBVH@MeshFactory@Gu@physx@@QEAAXPEAVBVH@23@_N@Z 00000001800161b0 f   GuMeshFactory.obj
 0001:00015230       ?addConvexMesh@MeshFactory@Gu@physx@@QEAAXPEAVConvexMesh@23@_N@Z 0000000180016230 f   GuMeshFactory.obj
 0001:000152b0       ?addFactoryListener@MeshFactory@Gu@physx@@QEAAXAEAVMeshFactoryListener@23@@Z 00000001800162b0 f   GuMeshFactory.obj
 0001:00015320       ?addHeightField@MeshFactory@Gu@physx@@QEAAXPEAVHeightField@23@_N@Z 0000000180016320 f   GuMeshFactory.obj
 0001:000153a0       ?addSoftBodyMesh@MeshFactory@Gu@physx@@QEAAXPEAVSoftBodyMesh@23@_N@Z 00000001800163a0 f   GuMeshFactory.obj
 0001:00015420       ?addTetrahedronMesh@MeshFactory@Gu@physx@@QEAAXPEAVTetrahedronMesh@23@_N@Z 0000000180016420 f   GuMeshFactory.obj
 0001:000154a0       ?addTriangleMesh@MeshFactory@Gu@physx@@QEAAXPEAVTriangleMesh@23@_N@Z 00000001800164a0 f   GuMeshFactory.obj
 0001:00015520       ?allocate@?$PxArray@USlab@NodeAllocator@Gu@physx@@V?$PxReflectionAllocator@USlab@NodeAllocator@Gu@physx@@@4@@physx@@IEAAPEAUSlab@NodeAllocator@Gu@2@I@Z 0000000180016520 f i GuMeshFactory.obj
 0001:000155b0       ?allocateAdjacencies@TriangleMeshData@Gu@physx@@QEAAPEAIXZ 00000001800165b0 f i GuMeshFactory.obj
 0001:00015620       ?allocateExtraTrigData@TriangleMeshData@Gu@physx@@QEAAPEAEXZ 0000000180016620 f i GuMeshFactory.obj
 0001:00015690       ?allocateFaceRemap@TriangleMeshData@Gu@physx@@QEAAPEAIXZ 0000000180016690 f i GuMeshFactory.obj
 0001:00015700       ?allocateGridModelData@SoftBodySimulationData@Gu@physx@@QEAAXIIIIIII@Z 0000000180016700 f i GuMeshFactory.obj
 0001:00015980       ?allocateMaterials@TetrahedronMeshData@Gu@physx@@QEAAPEAGXZ 0000000180016980 f i GuMeshFactory.obj
 0001:000159f0       ?allocateMaterials@TriangleMeshData@Gu@physx@@QEAAPEAGXZ 00000001800169f0 f i GuMeshFactory.obj
 0001:00015a60       ?allocateTetrahedrons@TetrahedronMeshData@Gu@physx@@QEAAXII@Z 0000000180016a60 f i GuMeshFactory.obj
 0001:00015af0       ?allocateTriangles@TriangleMeshData@Gu@physx@@QEAAPEAXI_NI@Z 0000000180016af0 f i GuMeshFactory.obj
 0001:00015be0       ?allocateVertices@MeshDataBase@Gu@physx@@QEAAPEAV?$PxVec3T@M@3@I@Z 0000000180016be0 f i GuMeshFactory.obj
 0001:00015c50       ?allocateVertices@TetrahedronMeshData@Gu@physx@@QEAAPEAV?$PxVec3T@M@3@II@Z 0000000180016c50 f i GuMeshFactory.obj
 0001:00015cf0       ?allocatemappingData@CollisionMeshMappingData@Gu@physx@@QEAAXIIII@Z 0000000180016cf0 f i GuMeshFactory.obj
 0001:00015ed0       ?create@?$PxHashBase@PEAVBVH@Gu@physx@@PEAV123@U?$PxHash@PEAVBVH@Gu@physx@@@3@UGetKey@?$PxHashSetBase@PEAVBVH@Gu@physx@@U?$PxHash@PEAVBVH@Gu@physx@@@3@VPxAllocator@3@$00@3@VPxAllocator@3@$00@physx@@QEAAPEAPEAVBVH@Gu@2@AEBQEAV342@AEA_N@Z 0000000180016ed0 f i GuMeshFactory.obj
 0001:00015ed0       ?create@?$PxHashBase@PEAVConvexMesh@Gu@physx@@PEAV123@U?$PxHash@PEAVConvexMesh@Gu@physx@@@3@UGetKey@?$PxHashSetBase@PEAVConvexMesh@Gu@physx@@U?$PxHash@PEAVConvexMesh@Gu@physx@@@3@VPxAllocator@3@$00@3@VPxAllocator@3@$00@physx@@QEAAPEAPEAVConvexMesh@Gu@2@AEBQEAV342@AEA_N@Z 0000000180016ed0 f i GuMeshFactory.obj
 0001:00015ed0       ?create@?$PxHashBase@PEAVHeightField@Gu@physx@@PEAV123@U?$PxHash@PEAVHeightField@Gu@physx@@@3@UGetKey@?$PxHashSetBase@PEAVHeightField@Gu@physx@@U?$PxHash@PEAVHeightField@Gu@physx@@@3@VPxAllocator@3@$00@3@VPxAllocator@3@$00@physx@@QEAAPEAPEAVHeightField@Gu@2@AEBQEAV342@AEA_N@Z 0000000180016ed0 f i GuMeshFactory.obj
 0001:00015ed0       ?create@?$PxHashBase@PEAVSoftBodyMesh@Gu@physx@@PEAV123@U?$PxHash@PEAVSoftBodyMesh@Gu@physx@@@3@UGetKey@?$PxHashSetBase@PEAVSoftBodyMesh@Gu@physx@@U?$PxHash@PEAVSoftBodyMesh@Gu@physx@@@3@VPxAllocator@3@$00@3@VPxAllocator@3@$00@physx@@QEAAPEAPEAVSoftBodyMesh@Gu@2@AEBQEAV342@AEA_N@Z 0000000180016ed0 f i GuMeshFactory.obj
 0001:00015ed0       ?create@?$PxHashBase@PEAVTetrahedronMesh@Gu@physx@@PEAV123@U?$PxHash@PEAVTetrahedronMesh@Gu@physx@@@3@UGetKey@?$PxHashSetBase@PEAVTetrahedronMesh@Gu@physx@@U?$PxHash@PEAVTetrahedronMesh@Gu@physx@@@3@VPxAllocator@3@$00@3@VPxAllocator@3@$00@physx@@QEAAPEAPEAVTetrahedronMesh@Gu@2@AEBQEAV342@AEA_N@Z 0000000180016ed0 f i GuMeshFactory.obj
 0001:00015ed0       ?create@?$PxHashBase@PEAVTriangleMesh@Gu@physx@@PEAV123@U?$PxHash@PEAVTriangleMesh@Gu@physx@@@3@UGetKey@?$PxHashSetBase@PEAVTriangleMesh@Gu@physx@@U?$PxHash@PEAVTriangleMesh@Gu@physx@@@3@VPxAllocator@3@$00@3@VPxAllocator@3@$00@physx@@QEAAPEAPEAVTriangleMesh@Gu@2@AEBQEAV342@AEA_N@Z 0000000180016ed0 f i GuMeshFactory.obj
 0001:00016060       ?createBVH@MeshFactory@Gu@physx@@IEAAPEAVPxBVH@3@AEAVBVHData@23@@Z 0000000180017060 f   GuMeshFactory.obj
 0001:00016150       ?createBVH@MeshFactory@Gu@physx@@QEAAPEAVPxBVH@3@AEAVPxInputStream@3@@Z 0000000180017150 f   GuMeshFactory.obj
 0001:00016270       ?createBVH@MeshFactory@Gu@physx@@QEAAPEAVPxBVH@3@PEAX@Z 0000000180017270 f   GuMeshFactory.obj
 0001:00016280       ?createConvexMesh@MeshFactory@Gu@physx@@IEAAPEAVPxConvexMesh@3@AEAUConvexHullInitData@23@@Z 0000000180017280 f   GuMeshFactory.obj
 0001:00016370       ?createConvexMesh@MeshFactory@Gu@physx@@QEAAPEAVPxConvexMesh@3@AEAVPxInputStream@3@@Z 0000000180017370 f   GuMeshFactory.obj
 0001:00016480       ?createConvexMesh@MeshFactory@Gu@physx@@QEAAPEAVPxConvexMesh@3@PEAX@Z 0000000180017480 f   GuMeshFactory.obj
 0001:00016490       ?createHeightField@MeshFactory@Gu@physx@@QEAAPEAVPxHeightField@3@AEAVPxInputStream@3@@Z 0000000180017490 f   GuMeshFactory.obj
 0001:000165a0       ?createHeightField@MeshFactory@Gu@physx@@QEAAPEAVPxHeightField@3@PEAX@Z 00000001800175a0 f   GuMeshFactory.obj
 0001:00016690       ?createSoftBodyMesh@MeshFactory@Gu@physx@@IEAAPEAVPxSoftBodyMesh@3@AEAVSoftBodyMeshData@23@@Z 0000000180017690 f   GuMeshFactory.obj
 0001:00016780       ?createSoftBodyMesh@MeshFactory@Gu@physx@@QEAAPEAVPxSoftBodyMesh@3@AEAVPxInputStream@3@@Z 0000000180017780 f   GuMeshFactory.obj
 0001:00016d80       ?createSoftBodyMesh@MeshFactory@Gu@physx@@QEAAPEAVPxSoftBodyMesh@3@PEAX@Z 0000000180017d80 f   GuMeshFactory.obj
 0001:00016d90       ?createTetrahedronMesh@MeshFactory@Gu@physx@@IEAAPEAVPxTetrahedronMesh@3@AEAVTetrahedronMeshData@23@@Z 0000000180017d90 f   GuMeshFactory.obj
 0001:00016e80       ?createTetrahedronMesh@MeshFactory@Gu@physx@@QEAAPEAVPxTetrahedronMesh@3@AEAVPxInputStream@3@@Z 0000000180017e80 f   GuMeshFactory.obj
 0001:00016ef0       ?createTetrahedronMesh@MeshFactory@Gu@physx@@QEAAPEAVPxTetrahedronMesh@3@PEAX@Z 0000000180017ef0 f   GuMeshFactory.obj
 0001:00016f00       ?createTriangleMesh@MeshFactory@Gu@physx@@IEAAPEAVPxTriangleMesh@3@AEAVTriangleMeshData@23@@Z 0000000180017f00 f   GuMeshFactory.obj
 0001:00017080       ?createTriangleMesh@MeshFactory@Gu@physx@@QEAAPEAVPxTriangleMesh@3@AEAVPxInputStream@3@@Z 0000000180018080 f   GuMeshFactory.obj
 0001:000170e0       ?createTriangleMesh@MeshFactory@Gu@physx@@QEAAPEAVPxTriangleMesh@3@PEAX@Z 00000001800180e0 f   GuMeshFactory.obj
 0001:000170f0       ?erase@?$PxHashBase@PEAVBVH@Gu@physx@@PEAV123@U?$PxHash@PEAVBVH@Gu@physx@@@3@UGetKey@?$PxHashSetBase@PEAVBVH@Gu@physx@@U?$PxHash@PEAVBVH@Gu@physx@@@3@VPxAllocator@3@$00@3@VPxAllocator@3@$00@physx@@QEAA_NAEBQEAVBVH@Gu@2@@Z 00000001800180f0 f i GuMeshFactory.obj
 0001:000170f0       ?erase@?$PxHashBase@PEAVConvexMesh@Gu@physx@@PEAV123@U?$PxHash@PEAVConvexMesh@Gu@physx@@@3@UGetKey@?$PxHashSetBase@PEAVConvexMesh@Gu@physx@@U?$PxHash@PEAVConvexMesh@Gu@physx@@@3@VPxAllocator@3@$00@3@VPxAllocator@3@$00@physx@@QEAA_NAEBQEAVConvexMesh@Gu@2@@Z 00000001800180f0 f i GuMeshFactory.obj
 0001:000170f0       ?erase@?$PxHashBase@PEAVHeightField@Gu@physx@@PEAV123@U?$PxHash@PEAVHeightField@Gu@physx@@@3@UGetKey@?$PxHashSetBase@PEAVHeightField@Gu@physx@@U?$PxHash@PEAVHeightField@Gu@physx@@@3@VPxAllocator@3@$00@3@VPxAllocator@3@$00@physx@@QEAA_NAEBQEAVHeightField@Gu@2@@Z 00000001800180f0 f i GuMeshFactory.obj
 0001:000170f0       ?erase@?$PxHashBase@PEAVSoftBodyMesh@Gu@physx@@PEAV123@U?$PxHash@PEAVSoftBodyMesh@Gu@physx@@@3@UGetKey@?$PxHashSetBase@PEAVSoftBodyMesh@Gu@physx@@U?$PxHash@PEAVSoftBodyMesh@Gu@physx@@@3@VPxAllocator@3@$00@3@VPxAllocator@3@$00@physx@@QEAA_NAEBQEAVSoftBodyMesh@Gu@2@@Z 00000001800180f0 f i GuMeshFactory.obj
 0001:000170f0       ?erase@?$PxHashBase@PEAVTetrahedronMesh@Gu@physx@@PEAV123@U?$PxHash@PEAVTetrahedronMesh@Gu@physx@@@3@UGetKey@?$PxHashSetBase@PEAVTetrahedronMesh@Gu@physx@@U?$PxHash@PEAVTetrahedronMesh@Gu@physx@@@3@VPxAllocator@3@$00@3@VPxAllocator@3@$00@physx@@QEAA_NAEBQEAVTetrahedronMesh@Gu@2@@Z 00000001800180f0 f i GuMeshFactory.obj
 0001:000170f0       ?erase@?$PxHashBase@PEAVTriangleMesh@Gu@physx@@PEAV123@U?$PxHash@PEAVTriangleMesh@Gu@physx@@@3@UGetKey@?$PxHashSetBase@PEAVTriangleMesh@Gu@physx@@U?$PxHash@PEAVTriangleMesh@Gu@physx@@@3@VPxAllocator@3@$00@3@VPxAllocator@3@$00@physx@@QEAA_NAEBQEAVTriangleMesh@Gu@2@@Z 00000001800180f0 f i GuMeshFactory.obj
 0001:00017270       ?getBVHs@MeshFactory@Gu@physx@@QEBAIPEAPEAVPxBVH@3@II@Z 0000000180018270 f   GuMeshFactory.obj
 0001:00017310       ?getBounds@AABBTreeBounds@Gu@physx@@QEAAPEAVPxBounds3@3@XZ 0000000180018310 f i GuMeshFactory.obj
 0001:00017310       ?getBounds@AABBTreeBounds@Gu@physx@@QEBAPEBVPxBounds3@3@XZ 0000000180018310 f i GuMeshFactory.obj
 0001:00017320       ?getConvexMeshes@MeshFactory@Gu@physx@@QEBAIPEAPEAVPxConvexMesh@3@II@Z 0000000180018320 f   GuMeshFactory.obj
 0001:000173c0       ?getHeightFields@MeshFactory@Gu@physx@@QEBAIPEAPEAVPxHeightField@3@II@Z 00000001800183c0 f   GuMeshFactory.obj
 0001:00017460       ?getNbBVHs@MeshFactory@Gu@physx@@QEBAIXZ 0000000180018460 f   GuMeshFactory.obj
 0001:000174a0       ?getNbConvexMeshes@MeshFactory@Gu@physx@@QEBAIXZ 00000001800184a0 f   GuMeshFactory.obj
 0001:000174e0       ?getNbHeightFields@MeshFactory@Gu@physx@@QEBAIXZ 00000001800184e0 f   GuMeshFactory.obj
 0001:00017520       ?getNbPrimitives@AABBTreeBuildNode@Gu@physx@@QEBAIXZ 0000000180018520 f i GuMeshFactory.obj
 0001:00017520       ?getNbRuntimePrimitives@AABBTreeBuildNode@Gu@physx@@QEBAIXZ 0000000180018520 f i GuMeshFactory.obj
 0001:00017530       ?getNbSoftBodyMeshes@MeshFactory@Gu@physx@@QEBAIXZ 0000000180018530 f   GuMeshFactory.obj
 0001:00017570       ?getNbTetrahedronMeshes@MeshFactory@Gu@physx@@QEBAIXZ 0000000180018570 f   GuMeshFactory.obj
 0001:000175b0       ?getNbTriangleMeshes@MeshFactory@Gu@physx@@QEBAIXZ 00000001800185b0 f   GuMeshFactory.obj
 0001:000175f0       ?getNeg@AABBTreeBuildNode@Gu@physx@@QEBAPEBV123@XZ 00000001800185f0 f i GuMeshFactory.obj
 0001:00017610       ?getPrimitives@AABBTreeBuildNode@Gu@physx@@QEAAPEAIPEAI@Z 0000000180018610 f i GuMeshFactory.obj
 0001:00017610       ?getPrimitives@AABBTreeBuildNode@Gu@physx@@QEBAPEBIPEBI@Z 0000000180018610 f i GuMeshFactory.obj
 0001:00017620       ?getSoftBodyMeshes@MeshFactory@Gu@physx@@QEBAIPEAPEAVPxSoftBodyMesh@3@II@Z 0000000180018620 f   GuMeshFactory.obj
 0001:000176c0       ?getTetrahedronMeshes@MeshFactory@Gu@physx@@QEBAIPEAPEAVPxTetrahedronMesh@3@II@Z 00000001800186c0 f   GuMeshFactory.obj
 0001:00017750       ?getTriangleMeshes@MeshFactory@Gu@physx@@QEBAIPEAPEAVPxTriangleMesh@3@II@Z 0000000180018750 f   GuMeshFactory.obj
 0001:000177e0       ?growAndPushBack@?$PxArray@PEAVMeshFactoryListener@Gu@physx@@V?$PxReflectionAllocator@PEAVMeshFactoryListener@Gu@physx@@@3@@physx@@IEAAAEAPEAVMeshFactoryListener@Gu@2@AEBQEAV342@@Z 00000001800187e0 f i GuMeshFactory.obj
 0001:00017900       ?isLeaf@AABBTreeBuildNode@Gu@physx@@QEBA_NXZ 0000000180018900 f i GuMeshFactory.obj
 0001:000193c0       ?moveFrom@AABBTreeBounds@Gu@physx@@QEAAXAEAV123@@Z 000000018001a3c0 f i GuMeshFactory.obj
 0001:000193d0       ?notifyFactoryListener@MeshFactory@Gu@physx@@QEAAXPEBVPxBase@3@G@Z 000000018001a3d0 f   GuMeshFactory.obj
 0001:00019440       ?ownsMemory@AABBTreeBounds@Gu@physx@@QEBA_NXZ 000000018001a440 f i GuMeshFactory.obj
 0001:00019720       ?recreate@?$PxArray@USlab@NodeAllocator@Gu@physx@@V?$PxReflectionAllocator@USlab@NodeAllocator@Gu@physx@@@4@@physx@@IEAAXI@Z 000000018001a720 f i GuMeshFactory.obj
 0001:000197d0       ?release@CollisionMeshMappingData@Gu@physx@@UEAAXXZ 000000018001a7d0 f i GuMeshFactory.obj
 0001:000197f0       ?release@MeshFactory@Gu@physx@@QEAAXXZ 000000018001a7f0 f   GuMeshFactory.obj
 0001:000198f0       ?remove@MeshFactory@Gu@physx@@QEAA_NAEAVPxBase@3@@Z 000000018001a8f0 f   GuMeshFactory.obj
 0001:000199f0       ?removeBVH@MeshFactory@Gu@physx@@QEAA_NAEAVPxBVH@3@@Z 000000018001a9f0 f   GuMeshFactory.obj
 0001:00019a40       ?removeConvexMesh@MeshFactory@Gu@physx@@QEAA_NAEAVPxConvexMesh@3@@Z 000000018001aa40 f   GuMeshFactory.obj
 0001:00019a90       ?removeFactoryListener@MeshFactory@Gu@physx@@QEAAXAEAVMeshFactoryListener@23@@Z 000000018001aa90 f   GuMeshFactory.obj
 0001:00019b20       ?removeHeightField@MeshFactory@Gu@physx@@QEAA_NAEAVPxHeightField@3@@Z 000000018001ab20 f   GuMeshFactory.obj
 0001:00019b70       ?removeSoftBodyMesh@MeshFactory@Gu@physx@@QEAA_NAEAVPxSoftBodyMesh@3@@Z 000000018001ab70 f   GuMeshFactory.obj
 0001:00019bc0       ?removeTetrahedronMesh@MeshFactory@Gu@physx@@QEAA_NAEAVPxTetrahedronMesh@3@@Z 000000018001abc0 f   GuMeshFactory.obj
 0001:00019c10       ?removeTriangleMesh@MeshFactory@Gu@physx@@QEAA_NAEAVPxTriangleMesh@3@@Z 000000018001ac10 f   GuMeshFactory.obj
 0001:00019c60       ?reserveInternal@?$PxHashBase@PEAVBVH@Gu@physx@@PEAV123@U?$PxHash@PEAVBVH@Gu@physx@@@3@UGetKey@?$PxHashSetBase@PEAVBVH@Gu@physx@@U?$PxHash@PEAVBVH@Gu@physx@@@3@VPxAllocator@3@$00@3@VPxAllocator@3@$00@physx@@AEAAXI@Z 000000018001ac60 f i GuMeshFactory.obj
 0001:00019c60       ?reserveInternal@?$PxHashBase@PEAVConvexMesh@Gu@physx@@PEAV123@U?$PxHash@PEAVConvexMesh@Gu@physx@@@3@UGetKey@?$PxHashSetBase@PEAVConvexMesh@Gu@physx@@U?$PxHash@PEAVConvexMesh@Gu@physx@@@3@VPxAllocator@3@$00@3@VPxAllocator@3@$00@physx@@AEAAXI@Z 000000018001ac60 f i GuMeshFactory.obj
 0001:00019c60       ?reserveInternal@?$PxHashBase@PEAVHeightField@Gu@physx@@PEAV123@U?$PxHash@PEAVHeightField@Gu@physx@@@3@UGetKey@?$PxHashSetBase@PEAVHeightField@Gu@physx@@U?$PxHash@PEAVHeightField@Gu@physx@@@3@VPxAllocator@3@$00@3@VPxAllocator@3@$00@physx@@AEAAXI@Z 000000018001ac60 f i GuMeshFactory.obj
 0001:00019c60       ?reserveInternal@?$PxHashBase@PEAVSoftBodyMesh@Gu@physx@@PEAV123@U?$PxHash@PEAVSoftBodyMesh@Gu@physx@@@3@UGetKey@?$PxHashSetBase@PEAVSoftBodyMesh@Gu@physx@@U?$PxHash@PEAVSoftBodyMesh@Gu@physx@@@3@VPxAllocator@3@$00@3@VPxAllocator@3@$00@physx@@AEAAXI@Z 000000018001ac60 f i GuMeshFactory.obj
 0001:00019c60       ?reserveInternal@?$PxHashBase@PEAVTetrahedronMesh@Gu@physx@@PEAV123@U?$PxHash@PEAVTetrahedronMesh@Gu@physx@@@3@UGetKey@?$PxHashSetBase@PEAVTetrahedronMesh@Gu@physx@@U?$PxHash@PEAVTetrahedronMesh@Gu@physx@@@3@VPxAllocator@3@$00@3@VPxAllocator@3@$00@physx@@AEAAXI@Z 000000018001ac60 f i GuMeshFactory.obj
 0001:00019c60       ?reserveInternal@?$PxHashBase@PEAVTriangleMesh@Gu@physx@@PEAV123@U?$PxHash@PEAVTriangleMesh@Gu@physx@@@3@UGetKey@?$PxHashSetBase@PEAVTriangleMesh@Gu@physx@@U?$PxHash@PEAVTriangleMesh@Gu@physx@@@3@VPxAllocator@3@$00@3@VPxAllocator@3@$00@physx@@AEAAXI@Z 000000018001ac60 f i GuMeshFactory.obj
 0001:00019e30       ?setBounds@AABBTreeBounds@Gu@physx@@QEAAXPEAVPxBounds3@3@@Z 000000018001ae30 f i GuMeshFactory.obj
 0001:00019e40       ?setNbRunTimePrimitives@AABBTreeBuildNode@Gu@physx@@QEAAXI@Z 000000018001ae40 f i GuMeshFactory.obj
 0001:00019e50       ?takeOwnership@AABBTreeBounds@Gu@physx@@QEAAXXZ 000000018001ae50 f i GuMeshFactory.obj
 0001:00019e60       getInsertionCallback       000000018001ae60 f   GuMeshFactory.obj
 0001:00019e70       ??4BigConvexData@physx@@QEAAAEAV01@AEBV01@@Z 000000018001ae70 f i GuMetaData.obj
 0001:00019e90       ?GetAdjacentVerts@BigConvexData@physx@@QEBAPEBEXZ 000000018001ae90 f i GuMetaData.obj
 0001:00019e90       ?getSoftBodyAuxData@SoftBodyMesh@Gu@physx@@UEAAPEAVPxSoftBodyAuxData@3@XZ 000000018001ae90 f i GuTetrahedronMesh.obj
 0001:00019e90       ?getSoftBodyAuxData@SoftBodyMesh@Gu@physx@@UEBAPEBVPxSoftBodyAuxData@3@XZ 000000018001ae90 f i GuTetrahedronMesh.obj
 0001:00019e90       ?getTransforms@PruningPool@Gu@physx@@QEAAPEAV?$PxTransformT@M@3@XZ 000000018001ae90 f i GuIncrementalAABBPrunerCore.obj
 0001:00019e90       ?getTransforms@PruningPool@Gu@physx@@QEBAPEBV?$PxTransformT@M@3@XZ 000000018001ae90 f i GuIncrementalAABBPrunerCore.obj
 0001:00019e90       ?getTriangles@TriangleMesh@Gu@physx@@UEBAPEBXXZ 000000018001ae90 f i GuTriangleMesh.obj
 0001:00019ea0       ?GetNbNeighbors@BigConvexData@physx@@QEBAGI@Z 000000018001aea0 f i GuMetaData.obj
 0001:00019ea0       ?GetValency@BigConvexData@physx@@QEBAGI@Z 000000018001aea0 f i GuMetaData.obj
 0001:00019eb0       ?GetNbSamples@BigConvexData@physx@@QEBAIXZ 000000018001aeb0 f i GuMetaData.obj
 0001:00019ec0       ?GetNbVerts@BigConvexData@physx@@QEBAIXZ 000000018001aec0 f i GuMetaData.obj
 0001:00019ec0       ?getNbVertices@TetrahedronMesh@Gu@physx@@UEBAIXZ 000000018001aec0 f i GuTetrahedronMesh.obj
 0001:00019ec0       ?getNbVertices@TriangleMesh@Gu@physx@@UEBAIXZ 000000018001aec0 f i GuTriangleMesh.obj
 0001:00019ec0       ?length@pcharNode@@UEBAHXZ 000000018001aec0 f i libvcruntime:undname.obj
 0001:00019ec0       ?raw_length@pcharNode@@UEBAHXZ 000000018001aec0 f i libvcruntime:undname.obj
 0001:00019ed0       ?GetNeighbors@BigConvexData@physx@@QEBAPEBEI@Z 000000018001aed0 f i GuMetaData.obj
 0001:00019ee0       ?GetOffset@BigConvexData@physx@@QEBAGI@Z 000000018001aee0 f i GuMetaData.obj
 0001:00019ef0       ?GetSubdiv@BigConvexData@physx@@QEBAIXZ 000000018001aef0 f i GuMetaData.obj
 0001:00019f00       ?getBinaryMetaData@BV4Tree@Gu@physx@@SAXAEAVPxOutputStream@3@@Z 000000018001af00 f   GuMetaData.obj
 0001:0001a4a0       ?getBinaryMetaData@BV4TriangleMesh@Gu@physx@@SAXAEAVPxOutputStream@3@@Z 000000018001b4a0 f   GuMetaData.obj
 0001:0001a820       ?getBinaryMetaData@BigConvexData@physx@@SAXAEAVPxOutputStream@2@@Z 000000018001b820 f   GuMetaData.obj
 0001:0001aae0       ?getBinaryMetaData@ConvexMesh@Gu@physx@@SAXAEAVPxOutputStream@3@@Z 000000018001bae0 f   GuMetaData.obj
 0001:0001b170       ?getBinaryMetaData@HeightField@Gu@physx@@SAXAEAVPxOutputStream@3@@Z 000000018001c170 f   GuMetaData.obj
 0001:0001b560       ?getBinaryMetaData@RTree@Gu@physx@@SAXAEAVPxOutputStream@3@@Z 000000018001c560 f   GuMetaData.obj
 0001:0001b890       ?getBinaryMetaData@RTreeTriangleMesh@Gu@physx@@SAXAEAVPxOutputStream@3@@Z 000000018001c890 f   GuMetaData.obj
 0001:0001b970       ?getBinaryMetaData@TriangleMesh@Gu@physx@@SAXAEAVPxOutputStream@3@@Z 000000018001c970 f   GuMetaData.obj
 0001:0001d4b0       ?doSupport@?$SupportLocalImpl@VConvexHullNoScaleV@Gu@physx@@@Gu@physx@@UEBA?AT__m128@@AEBT4@@Z 000000018001e4b0 f i GuMTD.obj
 0001:0001d500       ?doSupport@?$SupportLocalImpl@VConvexHullNoScaleV@Gu@physx@@@Gu@physx@@UEBAXAEBT__m128@@AEAT4@1@Z 000000018001e500 f i GuMTD.obj
 0001:0001d680       ?populateVerts@?$SupportLocalImpl@VConvexHullNoScaleV@Gu@physx@@@Gu@physx@@UEBAXPEBEIPEBV?$PxVec3T@M@3@PEAT__m128@@@Z 000000018001e680 f i GuMTD.obj
 0001:0001d6c0       ?getInternalData@TriangleMesh@Gu@physx@@UEBA_NAEAUPxTriangleMeshInternalData@3@_N@Z 000000018001e6c0 f   GuTriangleMesh.obj
 0001:0001d6c0       ?isDynamic@Pruner@Gu@physx@@UEBA_NXZ 000000018001e6c0 f   GuIncrementalAABBPruner.obj
 0001:0001f500       ??$gjk@U?$LocalConvex@VCapsuleV@Gu@physx@@@Gu@physx@@U?$LocalConvex@VConvexHullV@Gu@physx@@@23@@Gu@physx@@YA?AW4GjkStatus@01@AEBU?$LocalConvex@VCapsuleV@Gu@physx@@@01@AEBU?$LocalConvex@VConvexHullV@Gu@physx@@@01@AEBT__m128@@2AEAT5@333@Z 0000000180020500 f i GuMTD.obj
 0001:00020260       ??0SeparatingAxes@Gu@physx@@QEAA@$$QEAV012@@Z 0000000180021260 f i GuMTD.obj
 0001:00020260       ??0SeparatingAxes@Gu@physx@@QEAA@AEBV012@@Z 0000000180021260 f i GuMTD.obj
 0001:00020370       ??0SeparatingAxes@Gu@physx@@QEAA@XZ 0000000180021370 f i GuMTD.obj
 0001:00020380       ??4SeparatingAxes@Gu@physx@@QEAAAEAV012@$$QEAV012@@Z 0000000180021380 f i GuMTD.obj
 0001:00020380       ??4SeparatingAxes@Gu@physx@@QEAAAEAV012@AEBV012@@Z 0000000180021380 f i GuMTD.obj
 0001:00020490       ??_E?$LocalConvex@UCustomConvexV@@@Gu@physx@@UEAAPEAXI@Z 0000000180021490 f i GuGjkQuery.obj
 0001:00020490       ??_E?$LocalConvex@UPointConvexV@@@Gu@physx@@UEAAPEAXI@Z 0000000180021490 f i GuGjkQuery.obj
 0001:00020490       ??_E?$LocalConvex@VBoxV@Gu@physx@@@Gu@physx@@UEAAPEAXI@Z 0000000180021490 f i GuSweepTests.obj
 0001:00020490       ??_E?$LocalConvex@VCapsuleV@Gu@physx@@@Gu@physx@@UEAAPEAXI@Z 0000000180021490 f i GuMTD.obj
 0001:00020490       ??_E?$LocalConvex@VConvexHullNoScaleV@Gu@physx@@@Gu@physx@@UEAAPEAXI@Z 0000000180021490 f i GuPCMContactBoxConvex.obj
 0001:00020490       ??_E?$LocalConvex@VConvexHullV@Gu@physx@@@Gu@physx@@UEAAPEAXI@Z 0000000180021490 f i GuMTD.obj
 0001:00020490       ??_E?$LocalConvex@VTetrahedronV@Gu@physx@@@Gu@physx@@UEAAPEAXI@Z 0000000180021490 f i GuCookingTetrahedronMesh.obj
 0001:00020490       ??_E?$LocalConvex@VTriangleV@Gu@physx@@@Gu@physx@@UEAAPEAXI@Z 0000000180021490 f i GuSweepTests.obj
 0001:00020490       ??_EGjkConvex@Gu@physx@@UEAAPEAXI@Z 0000000180021490 f i GuMTD.obj
 0001:00020490       ??_G?$LocalConvex@UCustomConvexV@@@Gu@physx@@UEAAPEAXI@Z 0000000180021490 f i GuGjkQuery.obj
 0001:00020490       ??_G?$LocalConvex@UPointConvexV@@@Gu@physx@@UEAAPEAXI@Z 0000000180021490 f i GuGjkQuery.obj
 0001:00020490       ??_G?$LocalConvex@VBoxV@Gu@physx@@@Gu@physx@@UEAAPEAXI@Z 0000000180021490 f i GuSweepTests.obj
 0001:00020490       ??_G?$LocalConvex@VCapsuleV@Gu@physx@@@Gu@physx@@UEAAPEAXI@Z 0000000180021490 f i GuMTD.obj
 0001:00020490       ??_G?$LocalConvex@VConvexHullNoScaleV@Gu@physx@@@Gu@physx@@UEAAPEAXI@Z 0000000180021490 f i GuPCMContactBoxConvex.obj
 0001:00020490       ??_G?$LocalConvex@VConvexHullV@Gu@physx@@@Gu@physx@@UEAAPEAXI@Z 0000000180021490 f i GuMTD.obj
 0001:00020490       ??_G?$LocalConvex@VTetrahedronV@Gu@physx@@@Gu@physx@@UEAAPEAXI@Z 0000000180021490 f i GuCookingTetrahedronMesh.obj
 0001:00020490       ??_G?$LocalConvex@VTriangleV@Gu@physx@@@Gu@physx@@UEAAPEAXI@Z 0000000180021490 f i GuSweepTests.obj
 0001:00020490       ??_GGjkConvex@Gu@physx@@UEAAPEAXI@Z 0000000180021490 f i GuMTD.obj
 0001:00024620       ?getAxes@SeparatingAxes@Gu@physx@@QEBAPEBV?$PxVec3T@M@3@XZ 0000000180025620 f i GuMTD.obj
 0001:00024630       ?getCenter@?$LocalConvex@UCustomConvexV@@@Gu@physx@@UEBA?AT__m128@@XZ 0000000180025630 f i GuGjkQuery.obj
 0001:00024630       ?getCenter@?$LocalConvex@UPointConvexV@@@Gu@physx@@UEBA?AT__m128@@XZ 0000000180025630 f i GuGjkQuery.obj
 0001:00024630       ?getCenter@?$LocalConvex@VBoxV@Gu@physx@@@Gu@physx@@UEBA?AT__m128@@XZ 0000000180025630 f i GuSweepTests.obj
 0001:00024630       ?getCenter@?$LocalConvex@VCapsuleV@Gu@physx@@@Gu@physx@@UEBA?AT__m128@@XZ 0000000180025630 f i GuMTD.obj
 0001:00024630       ?getCenter@?$LocalConvex@VConvexHullNoScaleV@Gu@physx@@@Gu@physx@@UEBA?AT__m128@@XZ 0000000180025630 f i GuPCMContactBoxConvex.obj
 0001:00024630       ?getCenter@?$LocalConvex@VConvexHullV@Gu@physx@@@Gu@physx@@UEBA?AT__m128@@XZ 0000000180025630 f i GuMTD.obj
 0001:00024630       ?getCenter@?$LocalConvex@VTetrahedronV@Gu@physx@@@Gu@physx@@UEBA?AT__m128@@XZ 0000000180025630 f i GuCookingTetrahedronMesh.obj
 0001:00024630       ?getCenter@?$LocalConvex@VTriangleV@Gu@physx@@@Gu@physx@@UEBA?AT__m128@@XZ 0000000180025630 f i GuSweepTests.obj
 0001:00024640       ?getCount@BuildStats@Gu@physx@@QEBAIXZ 0000000180025640 f i GuBV4Build.obj
 0001:00024640       ?getNbActiveObjects@PruningPool@Gu@physx@@QEBAIXZ 0000000180025640 f i GuIncrementalAABBPrunerCore.obj
 0001:00024640       ?getNumAxes@SeparatingAxes@Gu@physx@@QEBAIXZ 0000000180025640 f i GuMTD.obj
 0001:00024650       ?getSweepMargin@?$LocalConvex@VCapsuleV@Gu@physx@@@Gu@physx@@UEBA?AT__m128@@XZ 0000000180025650 f i GuMTD.obj
 0001:00024650       ?getSweepMargin@?$RelativeConvex@VCapsuleV@Gu@physx@@@Gu@physx@@UEBA?AT__m128@@XZ 0000000180025650 f i GuCCDSweepPrimitives.obj
 0001:00024660       ?getSweepMargin@?$LocalConvex@UCustomConvexV@@@Gu@physx@@UEBA?AT__m128@@XZ 0000000180025660 f i GuGjkQuery.obj
 0001:00024660       ?getSweepMargin@?$LocalConvex@UPointConvexV@@@Gu@physx@@UEBA?AT__m128@@XZ 0000000180025660 f i GuGjkQuery.obj
 0001:00024660       ?getSweepMargin@?$LocalConvex@VBoxV@Gu@physx@@@Gu@physx@@UEBA?AT__m128@@XZ 0000000180025660 f i GuSweepTests.obj
 0001:00024660       ?getSweepMargin@?$LocalConvex@VConvexHullNoScaleV@Gu@physx@@@Gu@physx@@UEBA?AT__m128@@XZ 0000000180025660 f i GuPCMContactBoxConvex.obj
 0001:00024660       ?getSweepMargin@?$LocalConvex@VConvexHullV@Gu@physx@@@Gu@physx@@UEBA?AT__m128@@XZ 0000000180025660 f i GuMTD.obj
 0001:00024660       ?getSweepMargin@?$RelativeConvex@UCustomConvexV@@@Gu@physx@@UEBA?AT__m128@@XZ 0000000180025660 f i GuGjkQuery.obj
 0001:00024660       ?getSweepMargin@?$RelativeConvex@VBoxV@Gu@physx@@@Gu@physx@@UEBA?AT__m128@@XZ 0000000180025660 f i GuOverlapTests.obj
 0001:00024660       ?getSweepMargin@?$RelativeConvex@VConvexHullNoScaleV@Gu@physx@@@Gu@physx@@UEBA?AT__m128@@XZ 0000000180025660 f i GuPCMContactConvexConvex.obj
 0001:00024660       ?getSweepMargin@?$RelativeConvex@VConvexHullV@Gu@physx@@@Gu@physx@@UEBA?AT__m128@@XZ 0000000180025660 f i GuOverlapTests.obj
 0001:00024680       ?getSweepMargin@GjkConvex@Gu@physx@@UEBA?AT__m128@@XZ 0000000180025680 f i GuMTD.obj
 0001:000246a0       ?pointConvexDistance@@YA_NAEAV?$PxVec3T@M@physx@@0AEAMAEBV12@PEBVConvexMesh@Gu@2@AEBVPxMeshScale@2@AEBUPxTransformPadded@2@@Z 00000001800256a0 f   GuMTD.obj
 0001:00025400       ?reset@SeparatingAxes@Gu@physx@@QEAAXXZ 0000000180026400 f i GuMTD.obj
 0001:00025410       ?support@?$LocalConvex@VCapsuleV@Gu@physx@@@Gu@physx@@UEBA?AT__m128@@AEBT4@@Z 0000000180026410 f i GuMTD.obj
 0001:00025470       ?support@?$LocalConvex@VCapsuleV@Gu@physx@@@Gu@physx@@UEBA?AT__m128@@AEBT4@AEAH@Z 0000000180026470 f i GuMTD.obj
 0001:000254e0       ?support@?$LocalConvex@VConvexHullV@Gu@physx@@@Gu@physx@@UEBA?AT__m128@@AEBT4@@Z 00000001800264e0 f i GuMTD.obj
 0001:000255c0       ?support@?$LocalConvex@VConvexHullV@Gu@physx@@@Gu@physx@@UEBA?AT__m128@@AEBT4@AEAH@Z 00000001800265c0 f i GuMTD.obj
 0001:00025690       ?support@GjkConvex@Gu@physx@@UEBA?AT__m128@@AEBT4@@Z 0000000180026690 f i GuMTD.obj
 0001:000256b0       ?support@GjkConvex@Gu@physx@@UEBA?AT__m128@@AEBT4@AEAH@Z 00000001800266b0 f i GuMTD.obj
 0001:000256d0       ?supportPoint@?$LocalConvex@VCapsuleV@Gu@physx@@@Gu@physx@@UEBA?AT__m128@@H@Z 00000001800266d0 f i GuMTD.obj
 0001:00025700       ?supportPoint@?$LocalConvex@VConvexHullV@Gu@physx@@@Gu@physx@@UEBA?AT__m128@@H@Z 0000000180026700 f i GuMTD.obj
 0001:00025750       ?supportPoint@GjkConvex@Gu@physx@@UEBA?AT__m128@@H@Z 0000000180026750 f i GuMTD.obj
 0001:00025770       ?supportPoint@?$RelativeConvex@VBoxV@Gu@physx@@@Gu@physx@@UEBA?AT__m128@@H@Z 0000000180026770 f i GuOverlapTests.obj
 0001:000257e0       ?support@?$RelativeConvex@VBoxV@Gu@physx@@@Gu@physx@@UEBA?AT__m128@@AEBT4@@Z 00000001800267e0 f i GuOverlapTests.obj
 0001:00025860       ?support@?$RelativeConvex@VBoxV@Gu@physx@@@Gu@physx@@UEBA?AT__m128@@AEBT4@AEAH@Z 0000000180026860 f i GuOverlapTests.obj
 0001:000258f0       ?getCenter@?$RelativeConvex@UCustomConvexV@@@Gu@physx@@UEBA?AT__m128@@XZ 00000001800268f0 f i GuGjkQuery.obj
 0001:000258f0       ?getCenter@?$RelativeConvex@VBoxV@Gu@physx@@@Gu@physx@@UEBA?AT__m128@@XZ 00000001800268f0 f i GuOverlapTests.obj
 0001:000258f0       ?getCenter@?$RelativeConvex@VCapsuleV@Gu@physx@@@Gu@physx@@UEBA?AT__m128@@XZ 00000001800268f0 f i GuCCDSweepPrimitives.obj
 0001:000258f0       ?getCenter@?$RelativeConvex@VConvexHullNoScaleV@Gu@physx@@@Gu@physx@@UEBA?AT__m128@@XZ 00000001800268f0 f i GuPCMContactConvexConvex.obj
 0001:000258f0       ?getCenter@?$RelativeConvex@VConvexHullV@Gu@physx@@@Gu@physx@@UEBA?AT__m128@@XZ 00000001800268f0 f i GuOverlapTests.obj
 0001:000258f0       ?getCenter@?$RelativeConvex@VTriangleV@Gu@physx@@@Gu@physx@@UEBA?AT__m128@@XZ 00000001800268f0 f i GuCCDSweepPrimitives.obj
 0001:00025930       ??_E?$RelativeConvex@UCustomConvexV@@@Gu@physx@@UEAAPEAXI@Z 0000000180026930 f i GuGjkQuery.obj
 0001:00025930       ??_E?$RelativeConvex@VBoxV@Gu@physx@@@Gu@physx@@UEAAPEAXI@Z 0000000180026930 f i GuOverlapTests.obj
 0001:00025930       ??_E?$RelativeConvex@VCapsuleV@Gu@physx@@@Gu@physx@@UEAAPEAXI@Z 0000000180026930 f i GuCCDSweepPrimitives.obj
 0001:00025930       ??_E?$RelativeConvex@VConvexHullNoScaleV@Gu@physx@@@Gu@physx@@UEAAPEAXI@Z 0000000180026930 f i GuPCMContactConvexConvex.obj
 0001:00025930       ??_E?$RelativeConvex@VConvexHullV@Gu@physx@@@Gu@physx@@UEAAPEAXI@Z 0000000180026930 f i GuOverlapTests.obj
 0001:00025930       ??_E?$RelativeConvex@VTriangleV@Gu@physx@@@Gu@physx@@UEAAPEAXI@Z 0000000180026930 f i GuCCDSweepPrimitives.obj
 0001:00025930       ??_G?$RelativeConvex@UCustomConvexV@@@Gu@physx@@UEAAPEAXI@Z 0000000180026930 f i GuGjkQuery.obj
 0001:00025930       ??_G?$RelativeConvex@VBoxV@Gu@physx@@@Gu@physx@@UEAAPEAXI@Z 0000000180026930 f i GuOverlapTests.obj
 0001:00025930       ??_G?$RelativeConvex@VCapsuleV@Gu@physx@@@Gu@physx@@UEAAPEAXI@Z 0000000180026930 f i GuCCDSweepPrimitives.obj
 0001:00025930       ??_G?$RelativeConvex@VConvexHullNoScaleV@Gu@physx@@@Gu@physx@@UEAAPEAXI@Z 0000000180026930 f i GuPCMContactConvexConvex.obj
 0001:00025930       ??_G?$RelativeConvex@VConvexHullV@Gu@physx@@@Gu@physx@@UEAAPEAXI@Z 0000000180026930 f i GuOverlapTests.obj
 0001:00025930       ??_G?$RelativeConvex@VTriangleV@Gu@physx@@@Gu@physx@@UEAAPEAXI@Z 0000000180026930 f i GuCCDSweepPrimitives.obj
 0001:00027ae0       ?supportPoint@?$RelativeConvex@VConvexHullV@Gu@physx@@@Gu@physx@@UEBA?AT__m128@@H@Z 0000000180028ae0 f i GuOverlapTests.obj
 0001:00027b60       ?support@?$RelativeConvex@VConvexHullV@Gu@physx@@@Gu@physx@@UEBA?AT__m128@@AEBT4@@Z 0000000180028b60 f i GuOverlapTests.obj
 0001:00027c90       ?support@?$RelativeConvex@VConvexHullV@Gu@physx@@@Gu@physx@@UEBA?AT__m128@@AEBT4@AEAH@Z 0000000180028c90 f i GuOverlapTests.obj
 0001:00027e20       ??$gjk@U?$RelativeConvex@VBoxV@Gu@physx@@@Gu@physx@@U?$LocalConvex@VConvexHullV@Gu@physx@@@23@@Gu@physx@@YA?AW4GjkStatus@01@AEBU?$RelativeConvex@VBoxV@Gu@physx@@@01@AEBU?$LocalConvex@VConvexHullV@Gu@physx@@@01@AEBT__m128@@2AEAT5@333@Z 0000000180028e20 f i GuOverlapTests.obj
 0001:00028bd0       ??$gjk@U?$RelativeConvex@VConvexHullV@Gu@physx@@@Gu@physx@@U?$LocalConvex@VConvexHullV@Gu@physx@@@23@@Gu@physx@@YA?AW4GjkStatus@01@AEBU?$RelativeConvex@VConvexHullV@Gu@physx@@@01@AEBU?$LocalConvex@VConvexHullV@Gu@physx@@@01@AEBT__m128@@2AEAT5@333@Z 0000000180029bd0 f i GuOverlapTests.obj
 0001:00029a50       ?ComputeCubemapNearestOffset@physx@@YAIAEBV?$PxVec3T@M@1@I@Z 000000018002aa50 f i GuOverlapTests.obj
 0001:00029b50       ?getOverlapFuncTable@Gu@physx@@YAPEAY0L@Q6A_NAEBVPxGeometry@2@AEBV?$PxTransformT@M@2@01PEAUTriggerCache@12@PEAUPxQueryThreadContext@2@@ZXZ 000000018002ab50 f   GuOverlapTests.obj
 0001:0002b6f0       ?raycast_box@@YAIAEBVPxGeometry@physx@@AEBV?$PxTransformT@M@2@AEBV?$PxVec3T@M@2@2MV?$PxFlags@W4Enum@PxHitFlag@physx@@G@2@IPEIAUPxGeomRaycastHit@2@IPEAUPxQueryThreadContext@2@@Z 000000018002c6f0 f   GuRaycastTests.obj
 0001:0002bd20       ?raycast_sphere@@YAIAEBVPxGeometry@physx@@AEBV?$PxTransformT@M@2@AEBV?$PxVec3T@M@2@2MV?$PxFlags@W4Enum@PxHitFlag@physx@@G@2@IPEIAUPxGeomRaycastHit@2@IPEAUPxQueryThreadContext@2@@Z 000000018002cd20 f   GuRaycastTests.obj
 0001:0002beb0       ?raycast_capsule@@YAIAEBVPxGeometry@physx@@AEBV?$PxTransformT@M@2@AEBV?$PxVec3T@M@2@2MV?$PxFlags@W4Enum@PxHitFlag@physx@@G@2@IPEIAUPxGeomRaycastHit@2@IPEAUPxQueryThreadContext@2@@Z 000000018002ceb0 f   GuRaycastTests.obj
 0001:0002c410       ?raycast_plane@@YAIAEBVPxGeometry@physx@@AEBV?$PxTransformT@M@2@AEBV?$PxVec3T@M@2@2MV?$PxFlags@W4Enum@PxHitFlag@physx@@G@2@IPEIAUPxGeomRaycastHit@2@IPEAUPxQueryThreadContext@2@@Z 000000018002d410 f   GuRaycastTests.obj
 0001:0002c580       ?raycast_convexMesh@@YAIAEBVPxGeometry@physx@@AEBV?$PxTransformT@M@2@AEBV?$PxVec3T@M@2@2MV?$PxFlags@W4Enum@PxHitFlag@physx@@G@2@IPEIAUPxGeomRaycastHit@2@IPEAUPxQueryThreadContext@2@@Z 000000018002d580 f   GuRaycastTests.obj
 0001:0002d080       ?getMidphaseID@RTreeTriangleMesh@Gu@physx@@UEBA?AW4Enum@PxMeshMidPhase@3@XZ 000000018002e080 f   GuTriangleMeshRTree.obj
 0001:0002d080       ?getMidphaseID@RTreeTriangleMeshBuilder@physx@@UEBA?AW4Enum@PxMeshMidPhase@2@XZ 000000018002e080 f   GuCookingTriangleMesh.obj
 0001:0002d080       ?getTetrahedraRemap@TetrahedronMesh@Gu@physx@@UEBAPEBIXZ 000000018002e080 f   GuTetrahedronMesh.obj
 0001:0002d080       ?raycast_hairsystem@@YAIAEBVPxGeometry@physx@@AEBV?$PxTransformT@M@2@AEBV?$PxVec3T@M@2@2MV?$PxFlags@W4Enum@PxHitFlag@physx@@G@2@IPEIAUPxGeomRaycastHit@2@IPEAUPxQueryThreadContext@2@@Z 000000018002e080 f   GuRaycastTests.obj
 0001:0002d080       ?raycast_particlesystem@@YAIAEBVPxGeometry@physx@@AEBV?$PxTransformT@M@2@AEBV?$PxVec3T@M@2@2MV?$PxFlags@W4Enum@PxHitFlag@physx@@G@2@IPEIAUPxGeomRaycastHit@2@IPEAUPxQueryThreadContext@2@@Z 000000018002e080 f   GuRaycastTests.obj
 0001:0002d080       ?raycast_softbody@@YAIAEBVPxGeometry@physx@@AEBV?$PxTransformT@M@2@AEBV?$PxVec3T@M@2@2MV?$PxFlags@W4Enum@PxHitFlag@physx@@G@2@IPEIAUPxGeomRaycastHit@2@IPEAUPxQueryThreadContext@2@@Z 000000018002e080 f   GuRaycastTests.obj
 0001:0002d090       ?raycast_triangleMesh@@YAIAEBVPxGeometry@physx@@AEBV?$PxTransformT@M@2@AEBV?$PxVec3T@M@2@2MV?$PxFlags@W4Enum@PxHitFlag@physx@@G@2@IPEIAUPxGeomRaycastHit@2@IPEAUPxQueryThreadContext@2@@Z 000000018002e090 f   GuRaycastTests.obj
 0001:0002d120       ?raycast_heightField@@YAIAEBVPxGeometry@physx@@AEBV?$PxTransformT@M@2@AEBV?$PxVec3T@M@2@2MV?$PxFlags@W4Enum@PxHitFlag@physx@@G@2@IPEIAUPxGeomRaycastHit@2@IPEAUPxQueryThreadContext@2@@Z 000000018002e120 f   GuRaycastTests.obj
 0001:0002eb70       ??Dphysx@@YA?AV?$PxMat34T@M@0@AEBVPxMeshScale@0@AEBV?$PxTransformT@M@0@@Z 000000018002fb70 f i GuRaycastTests.obj
 0001:0002f650       ?getRaycastFuncTable@Gu@physx@@YAAEAY0L@Q6AIAEBVPxGeometry@2@AEBV?$PxTransformT@M@2@AEBV?$PxVec3T@M@2@2MV?$PxFlags@W4Enum@PxHitFlag@physx@@G@2@IPEIAUPxGeomRaycastHit@2@IPEAUPxQueryThreadContext@2@@ZXZ 0000000180030650 f   GuRaycastTests.obj
 0001:0002f660       ??Dphysx@@YA?AV?$PxMat34T@M@0@AEBV?$PxTransformT@M@0@AEBVPxMeshScale@0@@Z 0000000180030660 f i GuSweepMTD.obj
 0001:0002fba0       ??_E?$MeshHitCallback@UPxGeomRaycastHit@physx@@@Gu@physx@@UEAAPEAXI@Z 0000000180030ba0 f i GuSweepMTD.obj
 0001:0002fba0       ??_G?$MeshHitCallback@UPxGeomRaycastHit@physx@@@Gu@physx@@UEAAPEAXI@Z 0000000180030ba0 f i GuSweepMTD.obj
 0001:0002fbd0       ??_EMeshMTDGenerationCallback@@UEAAPEAXI@Z 0000000180030bd0 f i GuSweepMTD.obj
 0001:0002fbd0       ??_GMeshMTDGenerationCallback@@UEAAPEAXI@Z 0000000180030bd0 f i GuSweepMTD.obj
 0001:0002fc00       ??_EMidPhaseQueryLocalReport@@UEAAPEAXI@Z 0000000180030c00 f i GuSweepMTD.obj
 0001:0002fc00       ??_ERTreeCookerRemap@@UEAAPEAXI@Z 0000000180030c00 f i GuCookingTriangleMesh.obj
 0001:0002fc00       ??_GMidPhaseQueryLocalReport@@UEAAPEAXI@Z 0000000180030c00 f i GuSweepMTD.obj
 0001:0002fc00       ??_GRTreeCookerRemap@@UEAAPEAXI@Z 0000000180030c00 f i GuCookingTriangleMesh.obj
 0001:0002fc30       ?allocate@?$PxArray@IV?$PxReflectionAllocator@I@physx@@@physx@@IEAAPEAII@Z 0000000180030c30 f i GuSweepMTD.obj
 0001:0002fcc0       ?computeBox_HeightFieldMTD@Gu@physx@@YA_NAEBVPxHeightFieldGeometry@2@AEBV?$PxTransformT@M@2@AEBVBox@12@1M_NAEAUPxGeomSweepHit@2@@Z 0000000180030cc0 f   GuSweepMTD.obj
 0001:00030a80       ?computeBox_TriangleMeshMTD@Gu@physx@@YA_NAEBVPxTriangleMeshGeometry@2@AEBV?$PxTransformT@M@2@AEBVBox@12@1M_NAEAUPxGeomSweepHit@2@@Z 0000000180031a80 f   GuSweepMTD.obj
 0001:00031ac0       ?computeCapsule_CapsuleMTD@Gu@physx@@YA_NAEBVCapsule@12@0AEAUPxGeomSweepHit@2@@Z 0000000180032ac0 f   GuSweepMTD.obj
 0001:00031d00       ?computeCapsule_HeightFieldMTD@Gu@physx@@YA_NAEBVPxHeightFieldGeometry@2@AEBV?$PxTransformT@M@2@AEAVCapsuleV@12@M_NAEAUPxGeomSweepHit@2@@Z 0000000180032d00 f   GuSweepMTD.obj
 0001:000324d0       ?computeCapsule_TriangleMeshMTD@Gu@physx@@YA_NAEBVPxTriangleMeshGeometry@2@AEBV?$PxTransformT@M@2@AEAVCapsuleV@12@M_NAEAUPxGeomSweepHit@2@@Z 00000001800334d0 f   GuSweepMTD.obj
 0001:00032d80       ?computeConvex_HeightFieldMTD@Gu@physx@@YA_NAEBVPxHeightFieldGeometry@2@AEBV?$PxTransformT@M@2@AEBVPxConvexMeshGeometry@2@1M_NAEAUPxGeomSweepHit@2@@Z 0000000180033d80 f   GuSweepMTD.obj
 0001:00034050       ?computeConvex_TriangleMeshMTD@Gu@physx@@YA_NAEBVPxTriangleMeshGeometry@2@AEBV?$PxTransformT@M@2@AEBVPxConvexMeshGeometry@2@1M_NAEAUPxGeomSweepHit@2@@Z 0000000180035050 f   GuSweepMTD.obj
 0001:00035620       ?computePlane_BoxMTD@Gu@physx@@YA_NAEBVPxPlane@2@AEBVBox@12@AEAUPxGeomSweepHit@2@@Z 0000000180036620 f   GuSweepMTD.obj
 0001:000358c0       ?computePlane_CapsuleMTD@Gu@physx@@YA_NAEBVPxPlane@2@AEBVCapsule@12@AEAUPxGeomSweepHit@2@@Z 00000001800368c0 f   GuSweepMTD.obj
 0001:000359e0       ?computePlane_ConvexMTD@Gu@physx@@YA_NAEBVPxPlane@2@AEBVPxConvexMeshGeometry@2@AEBV?$PxTransformT@M@2@AEAUPxGeomSweepHit@2@@Z 00000001800369e0 f   GuSweepMTD.obj
 0001:00036530       ?computeSphere_CapsuleMTD@Gu@physx@@YA_NAEBVSphere@12@AEBVCapsule@12@AEAUPxGeomSweepHit@2@@Z 0000000180037530 f   GuSweepMTD.obj
 0001:000366e0       ?computeSphere_SphereMTD@Gu@physx@@YA_NAEBVSphere@12@0AEAUPxGeomSweepHit@2@@Z 00000001800376e0 f   GuSweepMTD.obj
 0001:000367d0       ?getInverse@?$PxMat33T@M@physx@@QEBA?BV12@XZ 00000001800377d0 f i GuSweepMTD.obj
 0001:00036a20       ?growAndPushBack@?$PxArray@IV?$PxReflectionAllocator@I@physx@@@physx@@IEAAAEAIAEBI@Z 0000000180037a20 f i GuSweepMTD.obj
 0001:00036ae0       ?init@FastVertex2ShapeScaling@Cm@physx@@QEAAXAEBV?$PxVec3T@M@3@AEBV?$PxQuatT@M@3@@Z 0000000180037ae0 f i GuSweepMTD.obj
 0001:000373d0       ?processHit@MeshMTDGenerationCallback@@UEAA_NAEBUPxGeomRaycastHit@physx@@AEBV?$PxVec3T@M@3@11AEAMPEBI@Z 00000001800383d0 f i GuSweepMTD.obj
 0001:00037420       ?recreate@?$PxArray@IV?$PxReflectionAllocator@I@physx@@@physx@@IEAAXI@Z 0000000180038420 f i GuSweepMTD.obj
 0001:000374c0       ?reportTouchedTris@MidPhaseQueryLocalReport@@UEAA_NIPEBI@Z 00000001800384c0 f i GuSweepMTD.obj
 0001:00037530       ??$gjkPenetration@U?$LocalConvex@VCapsuleV@Gu@physx@@@Gu@physx@@U?$LocalConvex@VConvexHullV@Gu@physx@@@23@@Gu@physx@@YA?AW4GjkStatus@01@AEBU?$LocalConvex@VCapsuleV@Gu@physx@@@01@AEBU?$LocalConvex@VConvexHullV@Gu@physx@@@01@AEBT__m128@@2_NPEIAE4AEAEAEAUGjkOutput@01@@Z 0000000180038530 f i GuSweepSharedTests.obj
 0001:000375a0       ??$gjkPenetration@U?$LocalConvex@VCapsuleV@Gu@physx@@@Gu@physx@@U?$LocalConvex@VConvexHullV@Gu@physx@@@23@@Gu@physx@@YA?AW4GjkStatus@01@AEBU?$LocalConvex@VCapsuleV@Gu@physx@@@01@AEBU?$LocalConvex@VConvexHullV@Gu@physx@@@01@AEBT__m128@@2_NPEIAE4PEIAT5@5AEAEAEAUGjkOutput@01@@Z 00000001800385a0 f i GuSweepSharedTests.obj
 0001:00038ad0       ??$gjkPenetration@U?$RelativeConvex@VBoxV@Gu@physx@@@Gu@physx@@U?$LocalConvex@VConvexHullV@Gu@physx@@@23@@Gu@physx@@YA?AW4GjkStatus@01@AEBU?$RelativeConvex@VBoxV@Gu@physx@@@01@AEBU?$LocalConvex@VConvexHullV@Gu@physx@@@01@AEBT__m128@@2_NPEIAE4AEAEAEAUGjkOutput@01@@Z 0000000180039ad0 f i GuSweepSharedTests.obj
 0001:00038b40       ??$gjkPenetration@U?$RelativeConvex@VBoxV@Gu@physx@@@Gu@physx@@U?$LocalConvex@VConvexHullV@Gu@physx@@@23@@Gu@physx@@YA?AW4GjkStatus@01@AEBU?$RelativeConvex@VBoxV@Gu@physx@@@01@AEBU?$LocalConvex@VConvexHullV@Gu@physx@@@01@AEBT__m128@@2_NPEIAE4PEIAT5@5AEAEAEAUGjkOutput@01@@Z 0000000180039b40 f i GuSweepSharedTests.obj
 0001:0003a0b0       ??$gjkPenetration@U?$RelativeConvex@VConvexHullV@Gu@physx@@@Gu@physx@@U?$LocalConvex@VConvexHullV@Gu@physx@@@23@@Gu@physx@@YA?AW4GjkStatus@01@AEBU?$RelativeConvex@VConvexHullV@Gu@physx@@@01@AEBU?$LocalConvex@VConvexHullV@Gu@physx@@@01@AEBT__m128@@2_NPEIAE4AEAEAEAUGjkOutput@01@@Z 000000018003b0b0 f i GuSweepSharedTests.obj
 0001:0003a120       ??$gjkPenetration@U?$RelativeConvex@VConvexHullV@Gu@physx@@@Gu@physx@@U?$LocalConvex@VConvexHullV@Gu@physx@@@23@@Gu@physx@@YA?AW4GjkStatus@01@AEBU?$RelativeConvex@VConvexHullV@Gu@physx@@@01@AEBU?$LocalConvex@VConvexHullV@Gu@physx@@@01@AEBT__m128@@2_NPEIAE4PEIAT5@5AEAEAEAUGjkOutput@01@@Z 000000018003b120 f i GuSweepSharedTests.obj
 0001:0003b740       ??$gjkRaycast@U?$LocalConvex@VCapsuleV@Gu@physx@@@Gu@physx@@U?$LocalConvex@VConvexHullV@Gu@physx@@@23@@Gu@physx@@YA_NAEBU?$LocalConvex@VCapsuleV@Gu@physx@@@01@AEBU?$LocalConvex@VConvexHullV@Gu@physx@@@01@AEBT__m128@@222AEAT4@33M@Z 000000018003c740 f i GuSweepSharedTests.obj
 0001:0003c490       ??$gjkRaycast@U?$RelativeConvex@VBoxV@Gu@physx@@@Gu@physx@@U?$LocalConvex@VConvexHullV@Gu@physx@@@23@@Gu@physx@@YA_NAEBU?$RelativeConvex@VBoxV@Gu@physx@@@01@AEBU?$LocalConvex@VConvexHullV@Gu@physx@@@01@AEBT__m128@@222AEAT4@33M@Z 000000018003d490 f i GuSweepSharedTests.obj
 0001:0003d280       ??$gjkRaycast@U?$RelativeConvex@VConvexHullV@Gu@physx@@@Gu@physx@@U?$LocalConvex@VConvexHullV@Gu@physx@@@23@@Gu@physx@@YA_NAEBU?$RelativeConvex@VConvexHullV@Gu@physx@@@01@AEBU?$LocalConvex@VConvexHullV@Gu@physx@@@01@AEBT__m128@@222AEAT4@33M@Z 000000018003e280 f i GuSweepSharedTests.obj
 0001:0003e060       ??$gjkRaycastPenetration@U?$RelativeConvex@VConvexHullV@Gu@physx@@@Gu@physx@@U?$LocalConvex@VConvexHullV@Gu@physx@@@23@@Gu@physx@@YA_NAEBU?$RelativeConvex@VConvexHullV@Gu@physx@@@01@AEBU?$LocalConvex@VConvexHullV@Gu@physx@@@01@AEBT__m128@@222AEAT4@33M_N@Z 000000018003f060 f i GuSweepSharedTests.obj
 0001:0003ec30       ?sweepBox_ConvexGeom@@YA_NAEBVPxGeometry@physx@@AEBV?$PxTransformT@M@2@AEBVPxBoxGeometry@2@1AEBVBox@Gu@2@AEBV?$PxVec3T@M@2@MAEAUPxGeomSweepHit@2@V?$PxFlags@W4Enum@PxHitFlag@physx@@G@2@MPEAUPxQueryThreadContext@2@@Z 000000018003fc30 f   GuSweepSharedTests.obj
 0001:0003fa50       ?sweepBox_PlaneGeom@@YA_NAEBVPxGeometry@physx@@AEBV?$PxTransformT@M@2@AEBVPxBoxGeometry@2@1AEBVBox@Gu@2@AEBV?$PxVec3T@M@2@MAEAUPxGeomSweepHit@2@V?$PxFlags@W4Enum@PxHitFlag@physx@@G@2@MPEAUPxQueryThreadContext@2@@Z 0000000180040a50 f   GuSweepSharedTests.obj
 0001:0003fe20       ?sweepCapsuleTriangles@Gu@physx@@YA_NIPEBVPxTriangle@2@_NAEBVPxCapsuleGeometry@2@AEBV?$PxTransformT@M@2@AEBV?$PxVec3T@M@2@MAEAUPxGeomSweepHit@2@PEBIMV?$PxFlags@W4Enum@PxHitFlag@physx@@G@2@@Z 0000000180040e20 f   GuSweepSharedTests.obj
 0001:00040010       ?sweepCapsule_CapsuleGeom@@YA_NAEBVPxGeometry@physx@@AEBV?$PxTransformT@M@2@AEBVPxCapsuleGeometry@2@1AEBVCapsule@Gu@2@AEBV?$PxVec3T@M@2@MAEAUPxGeomSweepHit@2@V?$PxFlags@W4Enum@PxHitFlag@physx@@G@2@MPEAUPxQueryThreadContext@2@@Z 0000000180041010 f   GuSweepSharedTests.obj
 0001:000401f0       ?sweepCapsule_ConvexGeom@@YA_NAEBVPxGeometry@physx@@AEBV?$PxTransformT@M@2@AEBVPxCapsuleGeometry@2@1AEBVCapsule@Gu@2@AEBV?$PxVec3T@M@2@MAEAUPxGeomSweepHit@2@V?$PxFlags@W4Enum@PxHitFlag@physx@@G@2@MPEAUPxQueryThreadContext@2@@Z 00000001800411f0 f   GuSweepSharedTests.obj
 0001:00040f20       ?sweepCapsule_PlaneGeom@@YA_NAEBVPxGeometry@physx@@AEBV?$PxTransformT@M@2@AEBVPxCapsuleGeometry@2@1AEBVCapsule@Gu@2@AEBV?$PxVec3T@M@2@MAEAUPxGeomSweepHit@2@V?$PxFlags@W4Enum@PxHitFlag@physx@@G@2@MPEAUPxQueryThreadContext@2@@Z 0000000180041f20 f   GuSweepSharedTests.obj
 0001:00041200       ?sweepCapsule_SphereGeom@@YA_NAEBVPxGeometry@physx@@AEBV?$PxTransformT@M@2@AEBVPxCapsuleGeometry@2@1AEBVCapsule@Gu@2@AEBV?$PxVec3T@M@2@MAEAUPxGeomSweepHit@2@V?$PxFlags@W4Enum@PxHitFlag@physx@@G@2@MPEAUPxQueryThreadContext@2@@Z 0000000180042200 f   GuSweepSharedTests.obj
 0001:000413a0       ?sweepConvex_BoxGeom@@YA_NAEBVPxGeometry@physx@@AEBV?$PxTransformT@M@2@AEBVPxConvexMeshGeometry@2@1AEBV?$PxVec3T@M@2@MAEAUPxGeomSweepHit@2@V?$PxFlags@W4Enum@PxHitFlag@physx@@G@2@MPEAUPxQueryThreadContext@2@@Z 00000001800423a0 f   GuSweepSharedTests.obj
 0001:000415c0       ?sweepConvex_CapsuleGeom@@YA_NAEBVPxGeometry@physx@@AEBV?$PxTransformT@M@2@AEBVPxConvexMeshGeometry@2@1AEBV?$PxVec3T@M@2@MAEAUPxGeomSweepHit@2@V?$PxFlags@W4Enum@PxHitFlag@physx@@G@2@MPEAUPxQueryThreadContext@2@@Z 00000001800425c0 f   GuSweepSharedTests.obj
 0001:000417f0       ?sweepConvex_ConvexGeom@@YA_NAEBVPxGeometry@physx@@AEBV?$PxTransformT@M@2@AEBVPxConvexMeshGeometry@2@1AEBV?$PxVec3T@M@2@MAEAUPxGeomSweepHit@2@V?$PxFlags@W4Enum@PxHitFlag@physx@@G@2@MPEAUPxQueryThreadContext@2@@Z 00000001800427f0 f   GuSweepSharedTests.obj
 0001:000427c0       ?sweepConvex_PlaneGeom@@YA_NAEBVPxGeometry@physx@@AEBV?$PxTransformT@M@2@AEBVPxConvexMeshGeometry@2@1AEBV?$PxVec3T@M@2@MAEAUPxGeomSweepHit@2@V?$PxFlags@W4Enum@PxHitFlag@physx@@G@2@MPEAUPxQueryThreadContext@2@@Z 00000001800437c0 f   GuSweepSharedTests.obj
 0001:00042c00       ?sweepConvex_SphereGeom@@YA_NAEBVPxGeometry@physx@@AEBV?$PxTransformT@M@2@AEBVPxConvexMeshGeometry@2@1AEBV?$PxVec3T@M@2@MAEAUPxGeomSweepHit@2@V?$PxFlags@W4Enum@PxHitFlag@physx@@G@2@MPEAUPxQueryThreadContext@2@@Z 0000000180043c00 f   GuSweepSharedTests.obj
 0001:00043800       ?sweepCapsule_BoxGeom@@YA_NAEBVPxGeometry@physx@@AEBV?$PxTransformT@M@2@AEBVPxCapsuleGeometry@2@1AEBVCapsule@Gu@2@AEBV?$PxVec3T@M@2@MAEAUPxGeomSweepHit@2@V?$PxFlags@W4Enum@PxHitFlag@physx@@G@2@MPEAUPxQueryThreadContext@2@@Z 0000000180044800 f   GuSweepTests.obj
 0001:000440b0       ?sweepBox_SphereGeom@@YA_NAEBVPxGeometry@physx@@AEBV?$PxTransformT@M@2@AEBVPxBoxGeometry@2@1AEBVBox@Gu@2@AEBV?$PxVec3T@M@2@MAEAUPxGeomSweepHit@2@V?$PxFlags@W4Enum@PxHitFlag@physx@@G@2@MPEAUPxQueryThreadContext@2@@Z 00000001800450b0 f   GuSweepTests.obj
 0001:00044790       ?sweepBox_CapsuleGeom@@YA_NAEBVPxGeometry@physx@@AEBV?$PxTransformT@M@2@AEBVPxBoxGeometry@2@1AEBVBox@Gu@2@AEBV?$PxVec3T@M@2@MAEAUPxGeomSweepHit@2@V?$PxFlags@W4Enum@PxHitFlag@physx@@G@2@MPEAUPxQueryThreadContext@2@@Z 0000000180045790 f   GuSweepTests.obj
 0001:00045060       ?sweepBox_BoxGeom@@YA_NAEBVPxGeometry@physx@@AEBV?$PxTransformT@M@2@AEBVPxBoxGeometry@2@1AEBVBox@Gu@2@AEBV?$PxVec3T@M@2@MAEAUPxGeomSweepHit@2@V?$PxFlags@W4Enum@PxHitFlag@physx@@G@2@MPEAUPxQueryThreadContext@2@@Z 0000000180046060 f   GuSweepTests.obj
 0001:00045a60       ??$gjkPenetration@U?$LocalConvex@VCapsuleV@Gu@physx@@@Gu@physx@@U?$LocalConvex@VBoxV@Gu@physx@@@23@@Gu@physx@@YA?AW4GjkStatus@01@AEBU?$LocalConvex@VCapsuleV@Gu@physx@@@01@AEBU?$LocalConvex@VBoxV@Gu@physx@@@01@AEBT__m128@@2_NPEIAE4AEAEAEAUGjkOutput@01@@Z 0000000180046a60 f i GuSweepTests.obj
 0001:00045ad0       ??$gjkPenetration@U?$LocalConvex@VCapsuleV@Gu@physx@@@Gu@physx@@U?$LocalConvex@VBoxV@Gu@physx@@@23@@Gu@physx@@YA?AW4GjkStatus@01@AEBU?$LocalConvex@VCapsuleV@Gu@physx@@@01@AEBU?$LocalConvex@VBoxV@Gu@physx@@@01@AEBT__m128@@2_NPEIAE4PEIAT5@5AEAEAEAUGjkOutput@01@@Z 0000000180046ad0 f i GuSweepTests.obj
 0001:00046f50       ??$gjkPenetration@U?$RelativeConvex@VBoxV@Gu@physx@@@Gu@physx@@U?$LocalConvex@VBoxV@Gu@physx@@@23@@Gu@physx@@YA?AW4GjkStatus@01@AEBU?$RelativeConvex@VBoxV@Gu@physx@@@01@AEBU?$LocalConvex@VBoxV@Gu@physx@@@01@AEBT__m128@@2_NPEIAE4AEAEAEAUGjkOutput@01@@Z 0000000180047f50 f i GuSweepTests.obj
 0001:00046fc0       ??$gjkPenetration@U?$RelativeConvex@VBoxV@Gu@physx@@@Gu@physx@@U?$LocalConvex@VBoxV@Gu@physx@@@23@@Gu@physx@@YA?AW4GjkStatus@01@AEBU?$RelativeConvex@VBoxV@Gu@physx@@@01@AEBU?$LocalConvex@VBoxV@Gu@physx@@@01@AEBT__m128@@2_NPEIAE4PEIAT5@5AEAEAEAUGjkOutput@01@@Z 0000000180047fc0 f i GuSweepTests.obj
 0001:00048470       ??$gjkRaycast@U?$LocalConvex@VCapsuleV@Gu@physx@@@Gu@physx@@U?$LocalConvex@VBoxV@Gu@physx@@@23@@Gu@physx@@YA_NAEBU?$LocalConvex@VCapsuleV@Gu@physx@@@01@AEBU?$LocalConvex@VBoxV@Gu@physx@@@01@AEBT__m128@@222AEAT4@33M@Z 0000000180049470 f i GuSweepTests.obj
 0001:00049040       ??$gjkRaycast@U?$LocalConvex@VTriangleV@Gu@physx@@@Gu@physx@@U?$LocalConvex@VBoxV@Gu@physx@@@23@@Gu@physx@@YA_NAEBU?$LocalConvex@VTriangleV@Gu@physx@@@01@AEBU?$LocalConvex@VBoxV@Gu@physx@@@01@AEBT__m128@@222AEAT4@33M@Z 000000018004a040 f i GuSweepTests.obj
 0001:00049c90       ??$gjkRaycast@U?$RelativeConvex@VBoxV@Gu@physx@@@Gu@physx@@U?$LocalConvex@VBoxV@Gu@physx@@@23@@Gu@physx@@YA_NAEBU?$RelativeConvex@VBoxV@Gu@physx@@@01@AEBU?$LocalConvex@VBoxV@Gu@physx@@@01@AEBT__m128@@222AEAT4@33M@Z 000000018004ac90 f i GuSweepTests.obj
 0001:0004a8c0       ?getSweepFuncTable@Gu@physx@@YAAEBUGeomSweepFuncs@12@XZ 000000018004b8c0 f   GuSweepTests.obj
 0001:0004a8d0       ?getSweepMargin@?$LocalConvex@VTetrahedronV@Gu@physx@@@Gu@physx@@UEBA?AT__m128@@XZ 000000018004b8d0 f i GuCookingTetrahedronMesh.obj
 0001:0004a8d0       ?getSweepMargin@?$LocalConvex@VTriangleV@Gu@physx@@@Gu@physx@@UEBA?AT__m128@@XZ 000000018004b8d0 f i GuSweepTests.obj
 0001:0004a8d0       ?getSweepMargin@?$RelativeConvex@VTriangleV@Gu@physx@@@Gu@physx@@UEBA?AT__m128@@XZ 000000018004b8d0 f i GuCCDSweepPrimitives.obj
 0001:0004a8e0       ?support@?$LocalConvex@VBoxV@Gu@physx@@@Gu@physx@@UEBA?AT__m128@@AEBT4@@Z 000000018004b8e0 f i GuSweepTests.obj
 0001:0004a910       ?support@?$LocalConvex@VBoxV@Gu@physx@@@Gu@physx@@UEBA?AT__m128@@AEBT4@AEAH@Z 000000018004b910 f i GuSweepTests.obj
 0001:0004a950       ?support@?$LocalConvex@VTriangleV@Gu@physx@@@Gu@physx@@UEBA?AT__m128@@AEBT4@@Z 000000018004b950 f i GuSweepTests.obj
 0001:0004a9e0       ?support@?$LocalConvex@VTriangleV@Gu@physx@@@Gu@physx@@UEBA?AT__m128@@AEBT4@AEAH@Z 000000018004b9e0 f i GuSweepTests.obj
 0001:0004aac0       ?supportPoint@?$LocalConvex@VBoxV@Gu@physx@@@Gu@physx@@UEBA?AT__m128@@H@Z 000000018004bac0 f i GuSweepTests.obj
 0001:0004ab00       ?supportPoint@?$LocalConvex@VTetrahedronV@Gu@physx@@@Gu@physx@@UEBA?AT__m128@@H@Z 000000018004bb00 f i GuCookingTetrahedronMesh.obj
 0001:0004ab00       ?supportPoint@?$LocalConvex@VTriangleV@Gu@physx@@@Gu@physx@@UEBA?AT__m128@@H@Z 000000018004bb00 f i GuSweepTests.obj
 0001:0004ab20       ?sweepBoxTriangles@Gu@physx@@YA_NIPEBVPxTriangle@2@_NAEBVPxBoxGeometry@2@AEBV?$PxTransformT@M@2@AEBV?$PxVec3T@M@2@MAEAUPxGeomSweepHit@2@PEBIMV?$PxFlags@W4Enum@PxHitFlag@physx@@G@2@@Z 000000018004bb20 f   GuSweepTests.obj
 0001:0004b590       ??$PxSmallSort@H$$CBU?$Comparer@V?$PxVec3T@M@physx@@@MeshAnalyzer@Gu@physx@@@physx@@YAXPEAHHHAEBU?$Comparer@V?$PxVec3T@M@physx@@@MeshAnalyzer@Gu@0@@Z 000000018004c590 f i GuSDF.obj
 0001:0004b7b0       ??$PxSort@HU?$Comparer@V?$PxVec3T@M@physx@@@MeshAnalyzer@Gu@physx@@V?$PxReflectionAllocator@H@4@@physx@@YAXPEAHIAEBU?$Comparer@V?$PxVec3T@M@physx@@@MeshAnalyzer@Gu@0@AEBV?$PxReflectionAllocator@H@0@I@Z 000000018004c7b0 f i GuSDF.obj
 0001:0004bc30       ??$PxSort@HU?$PxLess@H@physx@@V?$PxReflectionAllocator@H@2@@physx@@YAXPEAHIAEBU?$PxLess@H@0@AEBV?$PxReflectionAllocator@H@0@I@Z 000000018004cc30 f i GuSDF.obj
 0001:0004c080       ??$mapDuplicatePoints@V?$PxVec3T@M@physx@@M@MeshAnalyzer@Gu@physx@@SAXPEBV?$PxVec3T@M@2@IAEAV?$PxArray@HV?$PxReflectionAllocator@H@physx@@@2@M@Z 000000018004d080 f i GuSDF.obj
 0001:0004c400       ??$splitRanges@V?$PxVec3T@M@physx@@M@MeshAnalyzer@Gu@physx@@CAXAEAV?$PxArray@URange@MeshAnalyzer@Gu@physx@@V?$PxReflectionAllocator@URange@MeshAnalyzer@Gu@physx@@@4@@2@AEBV?$PxArray@HV?$PxReflectionAllocator@H@physx@@@2@PEBV?$PxVec3T@M@2@HM@Z 000000018004d400 f i GuSDF.obj
 0001:0004c670       ??$traverseBVH@VClosestDistanceToTrimeshTraversalController@Gu@physx@@@Gu@physx@@YAXPEBUBVHNode@01@AEAVClosestDistanceToTrimeshTraversalController@01@H@Z 000000018004d670 f i GuSDF.obj
 0001:0004ca60       ??$traverseBVH@VLineSegmentTrimeshIntersectionTraversalController@Gu@physx@@@Gu@physx@@YAXPEBUBVHNode@01@AEAVLineSegmentTrimeshIntersectionTraversalController@01@H@Z 000000018004da60 f i GuSDF.obj
 0001:0004cf60       ??1SDF@Gu@physx@@QEAA@XZ   000000018004df60 f   GuSDF.obj
 0001:0004cff0       ??_E?$PxThreadT@V?$PxReflectionAllocator@VPxThreadImpl@physx@@@physx@@@physx@@UEAAPEAXI@Z 000000018004dff0 f i GuSDF.obj
 0001:0004cff0       ??_G?$PxThreadT@V?$PxReflectionAllocator@VPxThreadImpl@physx@@@physx@@@physx@@UEAAPEAXI@Z 000000018004dff0 f i GuSDF.obj
 0001:0004d0a0       ??_EPxRunnable@physx@@UEAAPEAXI@Z 000000018004e0a0 f i GuSDF.obj
 0001:0004d0a0       ??_GPxRunnable@physx@@UEAAPEAXI@Z 000000018004e0a0 f i GuSDF.obj
 0001:0004d0d0       ?PxCreatePointOntoTriangleMeshProjector@Gu@physx@@YAPEAVPxPointOntoTriangleMeshProjector@12@PEBV?$PxVec3T@M@2@PEBII@Z 000000018004e0d0 f   GuSDF.obj
 0001:0004d1d0       ?SDFUsingWindingNumbers@Gu@physx@@YAXAEAV?$PxArray@UBVHNode@Gu@physx@@V?$PxReflectionAllocator@UBVHNode@Gu@physx@@@3@@2@AEAV?$PxHashMap@IU?$ClusterApproximationT@MV?$PxVec3T@M@physx@@@Gu@physx@@U?$PxHash@I@3@VPxAllocator@3@@2@PEBV?$PxVec3T@M@2@PEBIIIIIPEAMAEAUGridQueryPointSampler@12@PEAV52@I_N7@Z 000000018004e1d0 f   GuSDF.obj
 0001:0004d6f0       ?SDFUsingWindingNumbers@Gu@physx@@YAXPEBV?$PxVec3T@M@2@PEBIIIIIPEAMV32@3PEAV32@_NIPEAVPxSDFBuilder@2@@Z 000000018004e6f0 f   GuSDF.obj
 0001:0004dbc0       ?SDFUsingWindingNumbersSparse@Gu@physx@@YAXPEBV?$PxVec3T@M@2@PEBIIIIIAEBV32@2MIAEAV?$PxArray@MV?$PxReflectionAllocator@M@physx@@@2@AEAV?$PxArray@IV?$PxReflectionAllocator@I@physx@@@2@33AEAM5IPEAVPxSDFBuilder@2@@Z 000000018004ebc0 f   GuSDF.obj
 0001:0004e650       ?allocate@?$PxArray@HV?$PxInlineAllocator@$0EAA@V?$PxReflectionAllocator@H@physx@@@physx@@@physx@@IEAAPEAHI@Z 000000018004f650 f i GuSDF.obj
 0001:0004e710       ?allocate@?$PxArray@MV?$PxReflectionAllocator@M@physx@@@physx@@IEAAPEAMI@Z 000000018004f710 f i GuSDF.obj
 0001:0004e7a0       ?allocateSdfs@SDF@Gu@physx@@QEAAPEAMAEBV?$PxVec3T@M@3@AEBMIIIIIIIMMI@Z 000000018004f7a0 f   GuSDF.obj
 0001:0004e9b0       ?analyzeAndFixMesh@Gu@physx@@YAXPEBV?$PxVec3T@M@2@PEBIIAEAV?$PxArray@IV?$PxReflectionAllocator@I@physx@@@2@@Z 000000018004f9b0 f   GuSDF.obj
 0001:0004f200       ?buildTree@Gu@physx@@YAXPEBIIPEBV?$PxVec3T@M@2@AEAV?$PxArray@UBVHNode@Gu@physx@@V?$PxReflectionAllocator@UBVHNode@Gu@physx@@@3@@2@M@Z 0000000180050200 f   GuSDF.obj
 0001:0004f430       ?computeSDFThreadJob@Gu@physx@@YAPEAXPEAX@Z 0000000180050430 f   GuSDF.obj
 0001:0004fee0       ?convertSparseSDFTo3DTextureLayout@Gu@physx@@YAXIIIIPEAIPEBMIAEAV?$PxArray@MV?$PxReflectionAllocator@M@physx@@@2@AEAI33@Z 0000000180050ee0 f   GuSDF.obj
 0001:00050290       ?create@?$PxHashBase@V?$PxPair@$$CBUSortedTriangle@Gu@physx@@H@physx@@USortedTriangle@Gu@2@UTriangleHash@42@UGetKey@?$PxHashMapBase@USortedTriangle@Gu@physx@@HUTriangleHash@23@VPxAllocator@3@@2@VPxAllocator@2@$00@physx@@QEAAPEAV?$PxPair@$$CBUSortedTriangle@Gu@physx@@H@2@AEBUSortedTriangle@Gu@2@AEA_N@Z 0000000180051290 f i GuSDF.obj
 0001:000503c0       ?create@?$PxHashBase@V?$PxPair@$$CB_KH@physx@@_KU?$PxHash@_K@2@UGetKey@?$PxHashMapBase@_KHU?$PxHash@_K@physx@@VPxAllocator@2@@2@VPxAllocator@2@$00@physx@@QEAAPEAV?$PxPair@$$CB_KH@2@AEB_KAEA_N@Z 00000001800513c0 f i GuMeshAnalysis.obj
 0001:000503c0       ?create@?$PxHashBase@V?$PxPair@$$CB_KI@physx@@_KU?$PxHash@_K@2@UGetKey@?$PxHashMapBase@_KIU?$PxHash@_K@physx@@VPxAllocator@2@@2@VPxAllocator@2@$00@physx@@QEAAPEAV?$PxPair@$$CB_KI@2@AEB_KAEA_N@Z 00000001800513c0 f i GuSDF.obj
 0001:00050550       ?createTriangles@Gu@physx@@YAXHHHMQEAMAEBV?$PxHashMap@_KIU?$PxHash@_K@physx@@VPxAllocator@2@@2@AEBV?$PxArray@V?$PxVec3T@M@physx@@V?$PxReflectionAllocator@V?$PxVec3T@M@physx@@@2@@2@AEAV?$PxArray@IV?$PxReflectionAllocator@I@physx@@@2@@Z 0000000180051550 f   GuSDF.obj
 0001:00050e00       ?decodeDense@SDF@Gu@physx@@QEBAMHHH@Z 0000000180051e00 f   GuSDF.obj
 0001:00050e50       ?decodeSparse@SDF@Gu@physx@@QEBAMHHH@Z 0000000180051e50 f   GuSDF.obj
 0001:000510f0       ?extractIsosurfaceFromSDF@Gu@physx@@YAXAEBVSDF@12@AEAV?$PxArray@V?$PxVec3T@M@physx@@V?$PxReflectionAllocator@V?$PxVec3T@M@physx@@@2@@2@AEAV?$PxArray@IV?$PxReflectionAllocator@I@physx@@@2@@Z 00000001800520f0 f   GuSDF.obj
 0001:00051e50       ?fixSdfForNonClosedGeometry@Gu@physx@@YAXIIIPEAMAEBV?$PxVec3T@M@2@@Z 0000000180052e50 f   GuSDF.obj
 0001:00052f30       ?generatePointInCell@Gu@physx@@YA_NAEBVSDF@12@HHHAEAV?$PxVec3T@M@2@QEAY111M@Z 0000000180053f30 f   GuSDF.obj
 0001:00053380       ?growAndPushBack@?$PxArray@HV?$PxInlineAllocator@$0EAA@V?$PxReflectionAllocator@H@physx@@@physx@@@physx@@IEAAAEAHAEBH@Z 0000000180054380 f i GuSDF.obj
 0001:00053470       ?growAndPushBack@?$PxArray@MV?$PxReflectionAllocator@M@physx@@@physx@@IEAAAEAMAEBM@Z 0000000180054470 f i GuSDF.obj
 0001:00053550       ?growAndPushBack@?$PxArray@PEAV?$PxThreadT@V?$PxReflectionAllocator@VPxThreadImpl@physx@@@physx@@@physx@@V?$PxReflectionAllocator@PEAV?$PxThreadT@V?$PxReflectionAllocator@VPxThreadImpl@physx@@@physx@@@physx@@@2@@physx@@IEAAAEAPEAV?$PxThreadT@V?$PxReflectionAllocator@VPxThreadImpl@physx@@@physx@@@2@AEBQEAV32@@Z 0000000180054550 f i GuSDF.obj
 0001:00053670       ?growAndPushBack@?$PxArray@UMutation@Gu@physx@@V?$PxReflectionAllocator@UMutation@Gu@physx@@@3@@physx@@IEAAAEAUMutation@Gu@2@AEBU342@@Z 0000000180054670 f i GuSDF.obj
 0001:00053790       ?growAndPushBack@?$PxArray@URange@Gu@physx@@V?$PxReflectionAllocator@URange@Gu@physx@@@3@@physx@@IEAAAEAURange@Gu@2@AEBU342@@Z 0000000180054790 f i GuSDF.obj
 0001:000538c0       ?growAndPushBack@?$PxArray@URange@MeshAnalyzer@Gu@physx@@V?$PxReflectionAllocator@URange@MeshAnalyzer@Gu@physx@@@4@@physx@@IEAAAEAURange@MeshAnalyzer@Gu@2@AEBU3452@@Z 00000001800548c0 f i GuSDF.obj
 0001:000539e0       ?growAndPushBack@?$PxArray@USDFCalculationData@Gu@physx@@V?$PxReflectionAllocator@USDFCalculationData@Gu@physx@@@3@@physx@@IEAAAEAUSDFCalculationData@Gu@2@AEBU342@@Z 00000001800549e0 f i GuSDF.obj
 0001:00053b60       ?growAndPushBack@?$PxArray@V?$PxVec3T@M@physx@@V?$PxReflectionAllocator@V?$PxVec3T@M@physx@@@2@@physx@@IEAAAEAV?$PxVec3T@M@2@AEBV32@@Z 0000000180054b60 f i GuSDF.obj
 0001:00053d40       ?projectPoint@PointOntoTriangleMeshProjector@Gu@physx@@UEAA?AV?$PxVec3T@M@3@AEBV43@@Z 0000000180054d40 f i GuSDF.obj
 0001:00053db0       ?projectPoint@PointOntoTriangleMeshProjector@Gu@physx@@UEAA?AV?$PxVec3T@M@3@AEBV43@AEAI@Z 0000000180054db0 f i GuSDF.obj
 0001:00053e30       ?recreate@?$PxArray@HV?$PxReflectionAllocator@H@physx@@@physx@@IEAAXI@Z 0000000180054e30 f i GuSDF.obj
 0001:00053f20       ?recreate@?$PxArray@MV?$PxReflectionAllocator@M@physx@@@physx@@IEAAXI@Z 0000000180054f20 f i GuSDF.obj
 0001:00054000       ?recreate@?$PxArray@UBVHNode@Gu@physx@@V?$PxReflectionAllocator@UBVHNode@Gu@physx@@@3@@physx@@IEAAXI@Z 0000000180055000 f i GuSDF.obj
 0001:00054240       ?release@PointOntoTriangleMeshProjector@Gu@physx@@UEAAXXZ 0000000180055240 f i GuSDF.obj
 0001:00054290       ?reserveInternal@?$PxHashBase@V?$PxPair@$$CBIU?$ClusterApproximationT@MV?$PxVec3T@M@physx@@@Gu@physx@@@physx@@IU?$PxHash@I@2@UGetKey@?$PxHashMapBase@IU?$ClusterApproximationT@MV?$PxVec3T@M@physx@@@Gu@physx@@U?$PxHash@I@3@VPxAllocator@3@@2@VPxAllocator@2@$00@physx@@AEAAXI@Z 0000000180055290 f i GuSDF.obj
 0001:00054490       ?reserveInternal@?$PxHashBase@V?$PxPair@$$CBUSortedTriangle@Gu@physx@@H@physx@@USortedTriangle@Gu@2@UTriangleHash@42@UGetKey@?$PxHashMapBase@USortedTriangle@Gu@physx@@HUTriangleHash@23@VPxAllocator@3@@2@VPxAllocator@2@$00@physx@@AEAAXI@Z 0000000180055490 f i GuSDF.obj
 0001:00054630       ?reserveInternal@?$PxHashBase@V?$PxPair@$$CB_KH@physx@@_KU?$PxHash@_K@2@UGetKey@?$PxHashMapBase@_KHU?$PxHash@_K@physx@@VPxAllocator@2@@2@VPxAllocator@2@$00@physx@@AEAAXI@Z 0000000180055630 f i GuSDF.obj
 0001:00054630       ?reserveInternal@?$PxHashBase@V?$PxPair@$$CB_KI@physx@@_KU?$PxHash@_K@2@UGetKey@?$PxHashMapBase@_KIU?$PxHash@_K@physx@@VPxAllocator@2@@2@VPxAllocator@2@$00@physx@@AEAAXI@Z 0000000180055630 f i GuSDF.obj
 0001:00054810       ?resize@?$PxArray@IV?$PxReflectionAllocator@I@physx@@@physx@@QEAAXIAEBI@Z 0000000180055810 f i GuSDF.obj
 0001:000548d0       ?resize@?$PxArray@MV?$PxReflectionAllocator@M@physx@@@physx@@QEAAXIAEBM@Z 00000001800558d0 f i GuSDF.obj
 0001:000549d0       ?resize@?$PxArray@UBVHNode@Gu@physx@@V?$PxReflectionAllocator@UBVHNode@Gu@physx@@@3@@physx@@QEAAXIAEBUBVHNode@Gu@2@@Z 00000001800559d0 f i GuSDF.obj
 0001:00054b50       ?sampleSDFDirect@DenseSDF@Gu@physx@@QEAAMAEBV?$PxVec3T@M@3@@Z 0000000180055b50 f i GuSDF.obj
 0001:00054cf0       ?signedVolume@Gu@physx@@YAMPEBV?$PxVec3T@M@2@PEBII1I@Z 0000000180055cf0 f   GuSDF.obj
 0001:00055230       ?windingNumbers@Gu@physx@@YAXPEBV?$PxVec3T@M@2@PEBIIIIIPEAMV32@3PEAV32@@Z 0000000180056230 f   GuSDF.obj
 0001:00055680       ?windingNumbersInsideCheck@Gu@physx@@YAXPEBV?$PxVec3T@M@2@PEBIIIIIPEA_NV32@3PEAV32@@Z 0000000180056680 f   GuSDF.obj
 0001:00056040       ??0MeshData@physx@@QEAA@AEBVPxTriangleMeshDesc@1@@Z 0000000180057040 f i GuCookingSDF.obj
 0001:00056120       ?GetBounds@MeshData@physx@@QEBAXAEAV?$PxVec3T@M@2@0@Z 0000000180057120 f i GuCookingSDF.obj
 0001:000563c0       ?buildSDF@physx@@YA_NAEAVPxTriangleMeshDesc@1@AEAV?$PxArray@MV?$PxReflectionAllocator@M@physx@@@1@AEAV?$PxArray@EV?$PxReflectionAllocator@E@physx@@@1@AEAV?$PxArray@IV?$PxReflectionAllocator@I@physx@@@1@@Z 00000001800573c0 f   GuCookingSDF.obj
 0001:00056400       ?convert16To32Bits@physx@@YAXVPxSimpleTriangleMesh@1@AEAV?$PxArray@IV?$PxReflectionAllocator@I@physx@@@1@@Z 0000000180057400 f   GuCookingSDF.obj
 0001:00057420       ?quantizeSparseSDF@physx@@YAXW4Enum@PxSdfBitsPerSubgridPixel@1@AEBV?$PxArray@MV?$PxReflectionAllocator@M@physx@@@1@AEAV?$PxArray@EV?$PxReflectionAllocator@E@physx@@@1@MM@Z 0000000180058420 f   GuCookingSDF.obj
 0001:00057500       ?recreate@?$PxArray@EV?$PxReflectionAllocator@E@physx@@@physx@@IEAAXI@Z 0000000180058500 f i GuCookingSDF.obj
 0001:000575f0       ?recreate@?$PxArray@V?$PxVec3T@M@physx@@V?$PxReflectionAllocator@V?$PxVec3T@M@physx@@@2@@physx@@IEAAXI@Z 00000001800585f0 f i GuCookingSDF.obj
 0001:00057790       ?resize@?$PxArray@EV?$PxReflectionAllocator@E@physx@@@physx@@QEAAXIAEBE@Z 0000000180058790 f i GuCookingSDF.obj
 0001:00057850       ?resize@?$PxArray@V?$PxVec3T@M@physx@@V?$PxReflectionAllocator@V?$PxVec3T@M@physx@@@2@@physx@@QEAAXIAEBV?$PxVec3T@M@2@@Z 0000000180058850 f i GuCookingSDF.obj
 0001:00057940       ??$gjk@U?$RelativeConvex@UCustomConvexV@@@Gu@physx@@U?$LocalConvex@UCustomConvexV@@@23@@Gu@physx@@YA?AW4GjkStatus@01@AEBU?$RelativeConvex@UCustomConvexV@@@01@AEBU?$LocalConvex@UCustomConvexV@@@01@AEBT__m128@@2AEAT5@333@Z 0000000180058940 f i GuGjkQuery.obj
 0001:000586d0       ??$gjkPenetration@U?$RelativeConvex@UCustomConvexV@@@Gu@physx@@U?$LocalConvex@UCustomConvexV@@@23@@Gu@physx@@YA?AW4GjkStatus@01@AEBU?$RelativeConvex@UCustomConvexV@@@01@AEBU?$LocalConvex@UCustomConvexV@@@01@AEBT__m128@@2_NPEIAE4PEIAT5@5AEAEAEAUGjkOutput@01@@Z 00000001800596d0 f i GuGjkQuery.obj
 0001:00059c40       ??$gjkPenetration@U?$RelativeConvex@UCustomConvexV@@@Gu@physx@@U?$LocalConvex@UCustomConvexV@@@23@@Gu@physx@@YA?AW4GjkStatus@01@AEBU?$RelativeConvex@UCustomConvexV@@@01@AEBU?$LocalConvex@UCustomConvexV@@@01@AEBT__m128@@2_NPEIAT5@4AEAEAEAUGjkOutput@01@@Z 000000018005ac40 f i GuGjkQuery.obj
 0001:00059ca0       ??$gjkRaycast@U?$RelativeConvex@UCustomConvexV@@@Gu@physx@@U?$LocalConvex@UCustomConvexV@@@23@@Gu@physx@@YA_NAEBU?$RelativeConvex@UCustomConvexV@@@01@AEBU?$LocalConvex@UCustomConvexV@@@01@AEBT__m128@@222AEAT4@33M@Z 000000018005aca0 f i GuGjkQuery.obj
 0001:0005aa00       ??$gjkRaycast@U?$RelativeConvex@UCustomConvexV@@@Gu@physx@@U?$LocalConvex@UPointConvexV@@@23@@Gu@physx@@YA_NAEBU?$RelativeConvex@UCustomConvexV@@@01@AEBU?$LocalConvex@UPointConvexV@@@01@AEBT__m128@@222AEAT4@33M@Z 000000018005ba00 f i GuGjkQuery.obj
 0001:0005b640       ?overlap@PxGjkQuery@physx@@SA_NAEBUSupport@12@0AEBV?$PxTransformT@M@2@1@Z 000000018005c640 f   GuGjkQuery.obj
 0001:0005b9d0       ?proximityInfo@PxGjkQuery@physx@@SA_NAEBUSupport@12@0AEBV?$PxTransformT@M@2@1MMAEAV?$PxVec3T@M@2@22AEAM@Z 000000018005c9d0 f   GuGjkQuery.obj
 0001:0005c790       ?raycast@PxGjkQuery@physx@@SA_NAEBUSupport@12@AEBV?$PxTransformT@M@2@AEBV?$PxVec3T@M@2@2MAEAMAEAV52@4@Z 000000018005d790 f   GuGjkQuery.obj
 0001:0005cc80       ?support@?$LocalConvex@UCustomConvexV@@@Gu@physx@@UEBA?AT__m128@@AEBT4@@Z 000000018005dc80 f i GuGjkQuery.obj
 0001:0005cd00       ?support@?$LocalConvex@UCustomConvexV@@@Gu@physx@@UEBA?AT__m128@@AEBT4@AEAH@Z 000000018005dd00 f i GuGjkQuery.obj
 0001:0005cd80       ?support@?$LocalConvex@UPointConvexV@@@Gu@physx@@UEBA?AT__m128@@AEBT4@@Z 000000018005dd80 f i GuGjkQuery.obj
 0001:0005cd80       ?supportPoint@?$LocalConvex@UPointConvexV@@@Gu@physx@@UEBA?AT__m128@@H@Z 000000018005dd80 f i GuGjkQuery.obj
 0001:0005cd90       ?support@?$LocalConvex@UPointConvexV@@@Gu@physx@@UEBA?AT__m128@@AEBT4@AEAH@Z 000000018005dd90 f i GuGjkQuery.obj
 0001:0005cdb0       ?support@?$RelativeConvex@UCustomConvexV@@@Gu@physx@@UEBA?AT__m128@@AEBT4@@Z 000000018005ddb0 f i GuGjkQuery.obj
 0001:0005ce80       ?support@?$RelativeConvex@UCustomConvexV@@@Gu@physx@@UEBA?AT__m128@@AEBT4@AEAH@Z 000000018005de80 f i GuGjkQuery.obj
 0001:0005cf60       ?supportPoint@?$LocalConvex@UCustomConvexV@@@Gu@physx@@UEBA?AT__m128@@H@Z 000000018005df60 f i GuGjkQuery.obj
 0001:0005cfd0       ?supportPoint@?$RelativeConvex@UCustomConvexV@@@Gu@physx@@UEBA?AT__m128@@H@Z 000000018005dfd0 f i GuGjkQuery.obj
 0001:0005d070       ?sweep@PxGjkQuery@physx@@SA_NAEBUSupport@12@0AEBV?$PxTransformT@M@2@1AEBV?$PxVec3T@M@2@MAEAMAEAV52@4@Z 000000018005e070 f   GuGjkQuery.obj
 0001:0005d830       ??$approximateCluster@MV?$PxVec3T@M@physx@@@Gu@physx@@YAXAEBV?$PxArray@HV?$PxReflectionAllocator@H@physx@@@1@IIPEBIPEBV?$PxVec3T@M@1@AEBV?$PxArray@MV?$PxReflectionAllocator@M@physx@@@1@AEBV?$PxArray@V?$PxVec3T@M@physx@@V?$PxReflectionAllocator@V?$PxVec3T@M@physx@@@2@@1@4AEAU?$ClusterApproximationT@MV?$PxVec3T@M@physx@@@01@@Z 000000018005e830 f i GuWindingNumber.obj
 0001:0005de70       ??$copy@V?$PxReflectionAllocator@M@physx@@@?$PxArray@MV?$PxReflectionAllocator@M@physx@@@physx@@IEAAXAEBV01@@Z 000000018005ee70 f i GuWindingNumber.obj
 0001:0005ded0       ??$precomputeClusterInformation@MV?$PxVec3T@M@physx@@@Gu@physx@@YAXHPEBUBVHNode@01@PEBIIPEBV?$PxVec3T@M@1@AEAV?$PxHashMap@IU?$ClusterApproximationT@MV?$PxVec3T@M@physx@@@Gu@physx@@U?$PxHash@I@3@VPxAllocator@3@@1@V?$PxArray@MV?$PxReflectionAllocator@M@physx@@@1@AEBV?$PxArray@V?$PxVec3T@M@physx@@V?$PxReflectionAllocator@V?$PxVec3T@M@physx@@@2@@1@5@Z 000000018005eed0 f i GuWindingNumber.obj
 0001:0005e2a0       ??$precomputeClusterInformation@MV?$PxVec3T@M@physx@@@Gu@physx@@YAXPEBUBVHNode@01@PEBIIPEBV?$PxVec3T@M@1@AEAV?$PxHashMap@IU?$ClusterApproximationT@MV?$PxVec3T@M@physx@@@Gu@physx@@U?$PxHash@I@3@VPxAllocator@3@@1@H@Z 000000018005f2a0 f i GuWindingNumber.obj
 0001:0005e6b0       ??$traverseBVH@V?$WindingNumberTraversalController@MV?$PxVec3T@M@physx@@@Gu@physx@@@Gu@physx@@YAXPEBUBVHNode@01@AEAV?$WindingNumberTraversalController@MV?$PxVec3T@M@physx@@@01@H@Z 000000018005f6b0 f i GuWindingNumber.obj
 0001:0005ec00       ?allocate@?$PxArray@HV?$PxReflectionAllocator@H@physx@@@physx@@IEAAPEAHI@Z 000000018005fc00 f i GuWindingNumber.obj
 0001:0005ec90       ?computeWindingNumber@Gu@physx@@YAMAEBV?$PxVec3T@M@2@PEBIIPEBV32@@Z 000000018005fc90 f   GuWindingNumber.obj
 0001:0005efc0       ?computeWindingNumber@Gu@physx@@YAMPEBUBVHNode@12@AEBV?$PxVec3T@M@2@AEBV?$PxHashMap@IU?$ClusterApproximationT@MV?$PxVec3T@M@physx@@@Gu@physx@@U?$PxHash@I@3@VPxAllocator@3@@2@PEBIPEBV42@@Z 000000018005ffc0 f   GuWindingNumber.obj
 0001:0005f030       ?computeWindingNumber@Gu@physx@@YAMPEBUBVHNode@12@AEBV?$PxVec3T@M@2@MAEBV?$PxHashMap@IU?$ClusterApproximationT@MV?$PxVec3T@M@physx@@@Gu@physx@@U?$PxHash@I@3@VPxAllocator@3@@2@PEBIPEBV42@@Z 0000000180060030 f   GuWindingNumber.obj
 0001:0005f0a0       ?copy@?$PxArray@MV?$PxReflectionAllocator@M@physx@@@physx@@KAXPEAM0PEBM@Z 00000001800600a0 f i GuWindingNumber.obj
 0001:0005f100       ?create@?$PxHashBase@V?$PxPair@$$CBIU?$ClusterApproximationT@MV?$PxVec3T@M@physx@@@Gu@physx@@@physx@@IU?$PxHash@I@2@UGetKey@?$PxHashMapBase@IU?$ClusterApproximationT@MV?$PxVec3T@M@physx@@@Gu@physx@@U?$PxHash@I@3@VPxAllocator@3@@2@VPxAllocator@2@$00@physx@@QEAAPEAV?$PxPair@$$CBIU?$ClusterApproximationT@MV?$PxVec3T@M@physx@@@Gu@physx@@@2@AEBIAEA_N@Z 0000000180060100 f i GuWindingNumber.obj
 0001:0005f250       ?growAndPushBack@?$PxArray@HV?$PxReflectionAllocator@H@physx@@@physx@@IEAAAEAHAEBH@Z 0000000180060250 f i GuWindingNumber.obj
 0001:0005f310       ?growAndPushBack@?$PxArray@USection@Gu@physx@@V?$PxReflectionAllocator@USection@Gu@physx@@@3@@physx@@IEAAAEAUSection@Gu@2@AEBU342@@Z 0000000180060310 f i GuWindingNumber.obj
 0001:0005f430       ?precomputeClusterInformation@Gu@physx@@YAXPEBUBVHNode@12@PEBIIPEBV?$PxVec3T@M@2@AEAV?$PxHashMap@IU?$ClusterApproximationT@MV?$PxVec3T@M@physx@@@Gu@physx@@U?$PxHash@I@3@VPxAllocator@3@@2@H@Z 0000000180060430 f   GuWindingNumber.obj
 0001:0005f4d0       ?SweepAnyShapeHeightfield@Gu@physx@@YAMAEBUCCDShape@12@0AEBUPxTransformPadded@2@111MAEAV?$PxVec3T@M@2@2MAEAIM@Z 00000001800604d0 f   GuCCDSweepConvexMesh.obj
 0001:00060a40       ?SweepAnyShapeMesh@Gu@physx@@YAMAEBUCCDShape@12@0AEBUPxTransformPadded@2@111MAEAV?$PxVec3T@M@2@2MAEAIM@Z 0000000180061a40 f   GuCCDSweepConvexMesh.obj
 0001:00062000       ?SweepEstimateAnyShapeHeightfield@Gu@physx@@YAMAEBUCCDShape@12@0MM@Z 0000000180063000 f   GuCCDSweepConvexMesh.obj
 0001:00062c60       ?SweepEstimateAnyShapeMesh@Gu@physx@@YAMAEBUCCDShape@12@0MM@Z 0000000180063c60 f   GuCCDSweepConvexMesh.obj
 0001:00062f00       ?allocate@?$PxArray@IV?$PxInlineAllocator@$0BAA@V?$PxReflectionAllocator@I@physx@@@physx@@@physx@@IEAAPEAII@Z 0000000180063f00 f i GuCCDSweepConvexMesh.obj
 0001:000639e0       ?growAndPushBack@?$PxArray@IV?$PxInlineAllocator@$0BAA@V?$PxReflectionAllocator@I@physx@@@physx@@@physx@@IEAAAEAIAEBI@Z 00000001800649e0 f i GuCCDSweepConvexMesh.obj
 0001:00064020       ?recreate@?$PxArray@IV?$PxInlineAllocator@$0BAA@V?$PxReflectionAllocator@I@physx@@@physx@@@physx@@IEAAXI@Z 0000000180065020 f i GuCCDSweepConvexMesh.obj
 0001:00064160       ?resize@?$PxArray@IV?$PxInlineAllocator@$0BAA@V?$PxReflectionAllocator@I@physx@@@physx@@@physx@@QEAAXIAEBI@Z 0000000180065160 f i GuCCDSweepConvexMesh.obj
 0001:00064230       ?transformBoxOrthonormal@physx@@YA?AVBox@Gu@1@AEBV231@AEBV?$PxTransformT@M@1@@Z 0000000180065230 f i GuCCDSweepConvexMesh.obj
 0001:000646c0       ?UnimplementedSweep@Gu@physx@@YAMAEBUCCDShape@12@0AEBUPxTransformPadded@2@111MAEAV?$PxVec3T@M@2@2MAEAIM@Z 00000001800656c0 f   GuCCDSweepPrimitives.obj
 0001:000683f0       ?UnimplementedTriangleSweep@Gu@physx@@YAMAEBVPxGeometry@2@0AEBUPxTransformPadded@2@111MAEAV?$PxVec3T@M@2@2AEBVFastVertex2ShapeScaling@Cm@2@AEAVTriangleV@12@M@Z 00000001800693f0 f   GuCCDSweepPrimitives.obj
 0001:00068400       ??$SweepGeomTriangles@VCapsuleV@Gu@physx@@@Gu@physx@@YAMAEBVPxGeometry@1@0AEBUPxTransformPadded@1@111MAEAV?$PxVec3T@M@1@2AEBVFastVertex2ShapeScaling@Cm@1@AEAVTriangleV@01@M@Z 0000000180069400 f i GuCCDSweepPrimitives.obj
 0001:00068b30       ??$SweepGeomTriangles@VBoxV@Gu@physx@@@Gu@physx@@YAMAEBVPxGeometry@1@0AEBUPxTransformPadded@1@111MAEAV?$PxVec3T@M@1@2AEBVFastVertex2ShapeScaling@Cm@1@AEAVTriangleV@01@M@Z 0000000180069b30 f i GuCCDSweepPrimitives.obj
 0001:00069280       ??$SweepGeomTriangles@VConvexHullV@Gu@physx@@@Gu@physx@@YAMAEBVPxGeometry@1@0AEBUPxTransformPadded@1@111MAEAV?$PxVec3T@M@1@2AEBVFastVertex2ShapeScaling@Cm@1@AEAVTriangleV@01@M@Z 000000018006a280 f i GuCCDSweepPrimitives.obj
 0001:00069d60       ?supportPoint@?$RelativeConvex@VCapsuleV@Gu@physx@@@Gu@physx@@UEBA?AT__m128@@H@Z 000000018006ad60 f i GuCCDSweepPrimitives.obj
 0001:00069dc0       ?support@?$RelativeConvex@VCapsuleV@Gu@physx@@@Gu@physx@@UEBA?AT__m128@@AEBT4@@Z 000000018006adc0 f i GuCCDSweepPrimitives.obj
 0001:00069e70       ?support@?$RelativeConvex@VCapsuleV@Gu@physx@@@Gu@physx@@UEBA?AT__m128@@AEBT4@AEAH@Z 000000018006ae70 f i GuCCDSweepPrimitives.obj
 0001:00069f30       ?supportPoint@?$RelativeConvex@VTriangleV@Gu@physx@@@Gu@physx@@UEBA?AT__m128@@H@Z 000000018006af30 f i GuCCDSweepPrimitives.obj
 0001:00069f80       ?support@?$RelativeConvex@VTriangleV@Gu@physx@@@Gu@physx@@UEBA?AT__m128@@AEBT4@@Z 000000018006af80 f i GuCCDSweepPrimitives.obj
 0001:0006a080       ?support@?$RelativeConvex@VTriangleV@Gu@physx@@@Gu@physx@@UEBA?AT__m128@@AEBT4@AEAH@Z 000000018006b080 f i GuCCDSweepPrimitives.obj
 0001:0006a1c0       ??$gjkPenetration@U?$RelativeConvex@VCapsuleV@Gu@physx@@@Gu@physx@@U?$LocalConvex@VBoxV@Gu@physx@@@23@@Gu@physx@@YA?AW4GjkStatus@01@AEBU?$RelativeConvex@VCapsuleV@Gu@physx@@@01@AEBU?$LocalConvex@VBoxV@Gu@physx@@@01@AEBT__m128@@2_NPEIAE4AEAEAEAUGjkOutput@01@@Z 000000018006b1c0 f i GuCCDSweepPrimitives.obj
 0001:0006a230       ??$gjkPenetration@U?$RelativeConvex@VCapsuleV@Gu@physx@@@Gu@physx@@U?$LocalConvex@VBoxV@Gu@physx@@@23@@Gu@physx@@YA?AW4GjkStatus@01@AEBU?$RelativeConvex@VCapsuleV@Gu@physx@@@01@AEBU?$LocalConvex@VBoxV@Gu@physx@@@01@AEBT__m128@@2_NPEIAE4PEIAT5@5AEAEAEAUGjkOutput@01@@Z 000000018006b230 f i GuCCDSweepPrimitives.obj
 0001:0006b730       ??$gjkPenetration@U?$RelativeConvex@VCapsuleV@Gu@physx@@@Gu@physx@@U?$LocalConvex@VCapsuleV@Gu@physx@@@23@@Gu@physx@@YA?AW4GjkStatus@01@AEBU?$RelativeConvex@VCapsuleV@Gu@physx@@@01@AEBU?$LocalConvex@VCapsuleV@Gu@physx@@@01@AEBT__m128@@2_NPEIAE4AEAEAEAUGjkOutput@01@@Z 000000018006c730 f i GuCCDSweepPrimitives.obj
 0001:0006b7a0       ??$gjkPenetration@U?$RelativeConvex@VCapsuleV@Gu@physx@@@Gu@physx@@U?$LocalConvex@VCapsuleV@Gu@physx@@@23@@Gu@physx@@YA?AW4GjkStatus@01@AEBU?$RelativeConvex@VCapsuleV@Gu@physx@@@01@AEBU?$LocalConvex@VCapsuleV@Gu@physx@@@01@AEBT__m128@@2_NPEIAE4PEIAT5@5AEAEAEAUGjkOutput@01@@Z 000000018006c7a0 f i GuCCDSweepPrimitives.obj
 0001:0006cc90       ??$gjkPenetration@U?$RelativeConvex@VCapsuleV@Gu@physx@@@Gu@physx@@U?$LocalConvex@VConvexHullV@Gu@physx@@@23@@Gu@physx@@YA?AW4GjkStatus@01@AEBU?$RelativeConvex@VCapsuleV@Gu@physx@@@01@AEBU?$LocalConvex@VConvexHullV@Gu@physx@@@01@AEBT__m128@@2_NPEIAE4AEAEAEAUGjkOutput@01@@Z 000000018006dc90 f i GuCCDSweepPrimitives.obj
 0001:0006cd00       ??$gjkPenetration@U?$RelativeConvex@VCapsuleV@Gu@physx@@@Gu@physx@@U?$LocalConvex@VConvexHullV@Gu@physx@@@23@@Gu@physx@@YA?AW4GjkStatus@01@AEBU?$RelativeConvex@VCapsuleV@Gu@physx@@@01@AEBU?$LocalConvex@VConvexHullV@Gu@physx@@@01@AEBT__m128@@2_NPEIAE4PEIAT5@5AEAEAEAUGjkOutput@01@@Z 000000018006dd00 f i GuCCDSweepPrimitives.obj
 0001:0006e2a0       ??$gjkPenetration@U?$RelativeConvex@VTriangleV@Gu@physx@@@Gu@physx@@U?$LocalConvex@VBoxV@Gu@physx@@@23@@Gu@physx@@YA?AW4GjkStatus@01@AEBU?$RelativeConvex@VTriangleV@Gu@physx@@@01@AEBU?$LocalConvex@VBoxV@Gu@physx@@@01@AEBT__m128@@2_NPEIAE4AEAEAEAUGjkOutput@01@@Z 000000018006f2a0 f i GuCCDSweepPrimitives.obj
 0001:0006e310       ??$gjkPenetration@U?$RelativeConvex@VTriangleV@Gu@physx@@@Gu@physx@@U?$LocalConvex@VBoxV@Gu@physx@@@23@@Gu@physx@@YA?AW4GjkStatus@01@AEBU?$RelativeConvex@VTriangleV@Gu@physx@@@01@AEBU?$LocalConvex@VBoxV@Gu@physx@@@01@AEBT__m128@@2_NPEIAE4PEIAT5@5AEAEAEAUGjkOutput@01@@Z 000000018006f310 f i GuCCDSweepPrimitives.obj
 0001:0006f830       ??$gjkPenetration@U?$RelativeConvex@VTriangleV@Gu@physx@@@Gu@physx@@U?$LocalConvex@VCapsuleV@Gu@physx@@@23@@Gu@physx@@YA?AW4GjkStatus@01@AEBU?$RelativeConvex@VTriangleV@Gu@physx@@@01@AEBU?$LocalConvex@VCapsuleV@Gu@physx@@@01@AEBT__m128@@2_NPEIAE4AEAEAEAUGjkOutput@01@@Z 0000000180070830 f i GuCCDSweepPrimitives.obj
 0001:0006f8a0       ??$gjkPenetration@U?$RelativeConvex@VTriangleV@Gu@physx@@@Gu@physx@@U?$LocalConvex@VCapsuleV@Gu@physx@@@23@@Gu@physx@@YA?AW4GjkStatus@01@AEBU?$RelativeConvex@VTriangleV@Gu@physx@@@01@AEBU?$LocalConvex@VCapsuleV@Gu@physx@@@01@AEBT__m128@@2_NPEIAE4PEIAT5@5AEAEAEAUGjkOutput@01@@Z 00000001800708a0 f i GuCCDSweepPrimitives.obj
 0001:00070db0       ??$gjkPenetration@U?$RelativeConvex@VTriangleV@Gu@physx@@@Gu@physx@@U?$LocalConvex@VConvexHullV@Gu@physx@@@23@@Gu@physx@@YA?AW4GjkStatus@01@AEBU?$RelativeConvex@VTriangleV@Gu@physx@@@01@AEBU?$LocalConvex@VConvexHullV@Gu@physx@@@01@AEBT__m128@@2_NPEIAE4AEAEAEAUGjkOutput@01@@Z 0000000180071db0 f i GuCCDSweepPrimitives.obj
 0001:00070e20       ??$gjkPenetration@U?$RelativeConvex@VTriangleV@Gu@physx@@@Gu@physx@@U?$LocalConvex@VConvexHullV@Gu@physx@@@23@@Gu@physx@@YA?AW4GjkStatus@01@AEBU?$RelativeConvex@VTriangleV@Gu@physx@@@01@AEBU?$LocalConvex@VConvexHullV@Gu@physx@@@01@AEBT__m128@@2_NPEIAE4PEIAT5@5AEAEAEAUGjkOutput@01@@Z 0000000180071e20 f i GuCCDSweepPrimitives.obj
 0001:000723d0       ??$gjkRaycast@U?$RelativeConvex@VCapsuleV@Gu@physx@@@Gu@physx@@U?$LocalConvex@VBoxV@Gu@physx@@@23@@Gu@physx@@YA_NAEBU?$RelativeConvex@VCapsuleV@Gu@physx@@@01@AEBU?$LocalConvex@VBoxV@Gu@physx@@@01@AEBT__m128@@222AEAT4@33M@Z 00000001800733d0 f i GuCCDSweepPrimitives.obj
 0001:00073040       ??$gjkRaycast@U?$RelativeConvex@VCapsuleV@Gu@physx@@@Gu@physx@@U?$LocalConvex@VCapsuleV@Gu@physx@@@23@@Gu@physx@@YA_NAEBU?$RelativeConvex@VCapsuleV@Gu@physx@@@01@AEBU?$LocalConvex@VCapsuleV@Gu@physx@@@01@AEBT__m128@@222AEAT4@33M@Z 0000000180074040 f i GuCCDSweepPrimitives.obj
 0001:00073d30       ??$gjkRaycast@U?$RelativeConvex@VCapsuleV@Gu@physx@@@Gu@physx@@U?$LocalConvex@VConvexHullV@Gu@physx@@@23@@Gu@physx@@YA_NAEBU?$RelativeConvex@VCapsuleV@Gu@physx@@@01@AEBU?$LocalConvex@VConvexHullV@Gu@physx@@@01@AEBT__m128@@222AEAT4@33M@Z 0000000180074d30 f i GuCCDSweepPrimitives.obj
 0001:00074b30       ??$gjkRaycast@U?$RelativeConvex@VTriangleV@Gu@physx@@@Gu@physx@@U?$LocalConvex@VBoxV@Gu@physx@@@23@@Gu@physx@@YA_NAEBU?$RelativeConvex@VTriangleV@Gu@physx@@@01@AEBU?$LocalConvex@VBoxV@Gu@physx@@@01@AEBT__m128@@222AEAT4@33M@Z 0000000180075b30 f i GuCCDSweepPrimitives.obj
 0001:00075840       ??$gjkRaycast@U?$RelativeConvex@VTriangleV@Gu@physx@@@Gu@physx@@U?$LocalConvex@VCapsuleV@Gu@physx@@@23@@Gu@physx@@YA_NAEBU?$RelativeConvex@VTriangleV@Gu@physx@@@01@AEBU?$LocalConvex@VCapsuleV@Gu@physx@@@01@AEBT__m128@@222AEAT4@33M@Z 0000000180076840 f i GuCCDSweepPrimitives.obj
 0001:000765c0       ??$gjkRaycast@U?$RelativeConvex@VTriangleV@Gu@physx@@@Gu@physx@@U?$LocalConvex@VConvexHullV@Gu@physx@@@23@@Gu@physx@@YA_NAEBU?$RelativeConvex@VTriangleV@Gu@physx@@@01@AEBU?$LocalConvex@VConvexHullV@Gu@physx@@@01@AEBT__m128@@222AEAT4@33M@Z 00000001800775c0 f i GuCCDSweepPrimitives.obj
 0001:00077480       ?SweepShapeShape@Gu@physx@@YAMAEBUCCDShape@12@0AEBUPxTransformPadded@2@111MAEAV?$PxVec3T@M@2@2MAEAIM@Z 0000000180078480 f   GuCCDSweepPrimitives.obj
 0001:000774a0       ?SweepShapeTriangle@Gu@physx@@YAMAEBVPxGeometry@2@0AEBUPxTransformPadded@2@111MAEAV?$PxVec3T@M@2@2AEBVFastVertex2ShapeScaling@Cm@2@AEAVTriangleV@12@M@Z 00000001800784a0 f   GuCCDSweepPrimitives.obj
 0001:000774c0       ?barycentricCoordinates@Gu@physx@@YAXAEBT__m128@@000AEAT3@1@Z 00000001800784c0 f   GuBarycentricCoordinates.obj
 0001:00077600       ?barycentricCoordinates@Gu@physx@@YAXAEBT__m128@@00AEAT3@@Z 0000000180078600 f   GuBarycentricCoordinates.obj
 0001:00077670       ??$?_UV?$PxReflectionAllocator@VAdjTriangle@Gu@physx@@@physx@@@PxUserAllocated@physx@@SAPEAX_KV?$PxReflectionAllocator@VAdjTriangle@Gu@physx@@@1@PEBDH@Z 0000000180078670 f i GuAdjacencies.obj
 0001:00077750       ??0AdjacenciesBuilder@Gu@physx@@QEAA@XZ 0000000180078750 f   GuAdjacencies.obj
 0001:00077760       ??1AdjacenciesBuilder@Gu@physx@@QEAA@XZ 0000000180078760 f   GuAdjacencies.obj
 0001:000778b0       ?ComputeNbBoundaryEdges@Adjacencies@Gu@physx@@QEBAIXZ 00000001800788b0 f   GuAdjacencies.obj
 0001:00077b40       ?Init@AdjacenciesBuilder@Gu@physx@@QEAA_NAEBUADJACENCIESCREATE@23@@Z 0000000180078b40 f   GuAdjacencies.obj
 0001:000780a0       ??0EdgeList@Gu@physx@@QEAA@XZ 00000001800790a0 f   GuEdgeList.obj
 0001:000780c0       ??1EdgeList@Gu@physx@@QEAA@XZ 00000001800790c0 f   GuEdgeList.obj
 0001:00078170       ?computeActiveEdges@EdgeList@Gu@physx@@AEAA_NIPEBIPEBGPEBV?$PxVec3T@M@3@M@Z 0000000180079170 f   GuEdgeList.obj
 0001:000794f0       ?createEdgesToFaces@EdgeList@Gu@physx@@AEAA_NIPEBIPEBG@Z 000000018007a4f0 f   GuEdgeList.obj
 0001:00079750       ?createFacesToEdges@EdgeList@Gu@physx@@AEAA_NIPEBIPEBG@Z 000000018007a750 f   GuEdgeList.obj
 0001:00079b20       ?init@EdgeList@Gu@physx@@QEAA_NAEBUEDGELISTCREATE@23@@Z 000000018007ab20 f   GuEdgeList.obj
 0001:00079c50       ?addAxis@SeparatingAxes@Gu@physx@@QEAA_NAEBV?$PxVec3T@M@3@@Z 000000018007ac50 f   GuSeparatingAxes.obj
 0001:00079d10       ??$kmeans_cluster@V?$PxVec3T@M@physx@@M@@YAIPEBV?$PxVec3T@M@physx@@IIPEAV01@PEAIMM@Z 000000018007ad10 f i GuQuantizer.obj
 0001:0007a6d0       ??_EQuantizer@Gu@physx@@MEAAPEAXI@Z 000000018007b6d0 f i GuQuantizer.obj
 0001:0007a6d0       ??_GQuantizer@Gu@physx@@MEAAPEAXI@Z 000000018007b6d0 f i GuQuantizer.obj
 0001:0007a700       ??_EQuantizerImpl@@EEAAPEAXI@Z 000000018007b700 f i GuQuantizer.obj
 0001:0007a700       ??_GQuantizerImpl@@EEAAPEAXI@Z 000000018007b700 f i GuQuantizer.obj
 0001:0007a7d0       ?createQuantizer@Gu@physx@@YAPEAVQuantizer@12@XZ 000000018007b7d0 f   GuQuantizer.obj
 0001:0007a880       ?getDenormalizeCenter@QuantizerImpl@@UEBAAEBV?$PxVec3T@M@physx@@XZ 000000018007b880 f i GuQuantizer.obj
 0001:0007a890       ?getCurrentAABBTreeBounds@PruningPool@Gu@physx@@QEBAAEBVAABBTreeBounds@23@XZ 000000018007b890 f i GuIncrementalAABBPrunerCore.obj
 0001:0007a890       ?getDenormalizeScale@QuantizerImpl@@UEBAAEBV?$PxVec3T@M@physx@@XZ 000000018007b890 f i GuQuantizer.obj
 0001:0007a8a0       ?kmeansQuantize3D@QuantizerImpl@@UEAAPEBV?$PxVec3T@M@physx@@IPEBV23@I_NIAEAI@Z 000000018007b8a0 f i GuQuantizer.obj
 0001:0007ab10       ?normalizeInput@QuantizerImpl@@AEAAXIPEBV?$PxVec3T@M@physx@@I@Z 000000018007bb10 f i GuQuantizer.obj
 0001:0007af60       ?release@QuantizerImpl@@UEAAXXZ 000000018007bf60 f i GuQuantizer.obj
 0001:0007af80       ??0MeshCleaner@Gu@physx@@QEAA@IPEBV?$PxVec3T@M@2@IPEBIMM@Z 000000018007bf80 f   GuMeshCleaner.obj
 0001:0007b950       ??1MeshCleaner@Gu@physx@@QEAA@XZ 000000018007c950 f   GuMeshCleaner.obj
 0001:0007b9e0       ??0ReducedVertexCloud@Gu@physx@@QEAA@PEBV?$PxVec3T@M@2@I@Z 000000018007c9e0 f   GuVertexReducer.obj
 0001:0007ba00       ??1ReducedVertexCloud@Gu@physx@@QEAA@XZ 000000018007ca00 f   GuVertexReducer.obj
 0001:0007ba10       ?clean@ReducedVertexCloud@Gu@physx@@QEAAAEAV123@XZ 000000018007ca10 f   GuVertexReducer.obj
 0001:0007ba80       ?reduce@ReducedVertexCloud@Gu@physx@@QEAA_NPEAUREDUCEDCLOUD@23@@Z 000000018007ca80 f   GuVertexReducer.obj
 0001:0007bd20       ??$copy@V?$PxReflectionAllocator@I@physx@@@?$PxArray@IV?$PxReflectionAllocator@I@physx@@@physx@@IEAAXAEBV01@@Z 000000018007cd20 f i GuMeshAnalysis.obj
 0001:0007bd90       ?buildConsistentTriangleOrientationMap@MeshAnalyzer@Gu@physx@@SA_NPEBU?$IndexedTriangleT@H@23@IAEAV?$PxArray@_NV?$PxReflectionAllocator@_N@physx@@@3@AEAV?$PxHashMap@_KHU?$PxHash@_K@physx@@VPxAllocator@2@@3@AEAV?$PxArray@V?$PxArray@IV?$PxReflectionAllocator@I@physx@@@physx@@V?$PxReflectionAllocator@V?$PxArray@IV?$PxReflectionAllocator@I@physx@@@physx@@@2@@3@@Z 000000018007cd90 f   GuMeshAnalysis.obj
 0001:0007c2d0       ?buildTriangleAdjacency@MeshAnalyzer@Gu@physx@@SA_NPEBU?$IndexedTriangleT@H@23@IAEAV?$PxArray@HV?$PxReflectionAllocator@H@physx@@@3@AEAV?$PxHashMap@_KHU?$PxHash@_K@physx@@VPxAllocator@2@@3@@Z 000000018007d2d0 f   GuMeshAnalysis.obj
 0001:0007c5d0       ?checkConsistentTriangleOrientation@MeshAnalyzer@Gu@physx@@SA_NPEBU?$IndexedTriangleT@H@23@I@Z 000000018007d5d0 f   GuMeshAnalysis.obj
 0001:0007c720       ?checkMeshWatertightness@MeshAnalyzer@Gu@physx@@SA_NPEBU?$IndexedTriangleT@H@23@I_N@Z 000000018007d720 f   GuMeshAnalysis.obj
 0001:0007c8f0       ?destroy@?$PxArray@V?$PxArray@IV?$PxReflectionAllocator@I@physx@@@physx@@V?$PxReflectionAllocator@V?$PxArray@IV?$PxReflectionAllocator@I@physx@@@physx@@@2@@physx@@KAXPEAV?$PxArray@IV?$PxReflectionAllocator@I@physx@@@2@0@Z 000000018007d8f0 f i GuMeshAnalysis.obj
 0001:0007c960       ?erase@?$PxHashBase@V?$PxPair@$$CB_KH@physx@@_KU?$PxHash@_K@2@UGetKey@?$PxHashMapBase@_KHU?$PxHash@_K@physx@@VPxAllocator@2@@2@VPxAllocator@2@$00@physx@@QEAA_NAEB_K@Z 000000018007d960 f i GuMeshAnalysis.obj
 0001:0007cb10       ?growAndPushBack@?$PxArray@V?$PxArray@IV?$PxReflectionAllocator@I@physx@@@physx@@V?$PxReflectionAllocator@V?$PxArray@IV?$PxReflectionAllocator@I@physx@@@physx@@@2@@physx@@IEAAAEAV?$PxArray@IV?$PxReflectionAllocator@I@physx@@@2@AEBV32@@Z 000000018007db10 f i GuMeshAnalysis.obj
 0001:0007cc60       ?makeTriOrientationConsistent@MeshAnalyzer@Gu@physx@@SA_NPEAU?$IndexedTriangleT@H@23@I_N@Z 000000018007dc60 f   GuMeshAnalysis.obj
 0001:0007cdd0       ?recreate@?$PxArray@_NV?$PxReflectionAllocator@_N@physx@@@physx@@IEAAXI@Z 000000018007ddd0 f i GuMeshAnalysis.obj
 0001:0007cec0       ?resize@?$PxArray@HV?$PxReflectionAllocator@H@physx@@@physx@@QEAAXIAEBH@Z 000000018007dec0 f i GuMeshAnalysis.obj
 0001:0007cf80       ?resize@?$PxArray@_NV?$PxReflectionAllocator@_N@physx@@@physx@@QEAAXIAEB_N@Z 000000018007df80 f i GuMeshAnalysis.obj
 0001:0007d040       ?contactBoxBox@Gu@physx@@YA_NAEBVPxGeometry@2@0AEBUPxTransformPadded@2@1AEBUNarrowPhaseParams@12@AEAUCache@12@AEAVPxContactBuffer@2@PEAVPxRenderOutput@2@@Z 000000018007e040 f   GuContactBoxBox.obj
 0001:000811d0       ?contactCapsuleBox@Gu@physx@@YA_NAEBVPxGeometry@2@0AEBUPxTransformPadded@2@1AEBUNarrowPhaseParams@12@AEAUCache@12@AEAVPxContactBuffer@2@PEAVPxRenderOutput@2@@Z 00000001800821d0 f   GuContactCapsuleBox.obj
 0001:000819e0       ?contactCapsuleCapsule@Gu@physx@@YA_NAEBVPxGeometry@2@0AEBUPxTransformPadded@2@1AEBUNarrowPhaseParams@12@AEAUCache@12@AEAVPxContactBuffer@2@PEAVPxRenderOutput@2@@Z 00000001800829e0 f   GuContactCapsuleCapsule.obj
 0001:000843d0       ?contactCapsuleConvex@Gu@physx@@YA_NAEBVPxGeometry@2@0AEBUPxTransformPadded@2@1AEBUNarrowPhaseParams@12@AEAUCache@12@AEAVPxContactBuffer@2@PEAVPxRenderOutput@2@@Z 00000001800853d0 f   GuContactCapsuleConvex.obj
 0001:00086910       ?contactCapsuleHeightfield@Gu@physx@@YA_NAEBVPxGeometry@2@0AEBUPxTransformPadded@2@1AEBUNarrowPhaseParams@12@AEAUCache@12@AEAVPxContactBuffer@2@PEAVPxRenderOutput@2@@Z 0000000180087910 f   GuContactCapsuleMesh.obj
 0001:00087120       ?contactCapsuleMesh@Gu@physx@@YA_NAEBVPxGeometry@2@0AEBUPxTransformPadded@2@1AEBUNarrowPhaseParams@12@AEAUCache@12@AEAVPxContactBuffer@2@PEAVPxRenderOutput@2@@Z 0000000180088120 f   GuContactCapsuleMesh.obj
 0001:00088500       ?transformQueryBounds@FastVertex2ShapeScaling@Cm@physx@@QEBAXAEAV?$PxVec3T@M@3@0AEAV?$PxMat33T@M@3@@Z 0000000180089500 f i GuContactCapsuleMesh.obj
 0001:0008c7a0       ?contactBoxConvex@Gu@physx@@YA_NAEBVPxGeometry@2@0AEBUPxTransformPadded@2@1AEBUNarrowPhaseParams@12@AEAUCache@12@AEAVPxContactBuffer@2@PEAVPxRenderOutput@2@@Z 000000018008d7a0 f   GuContactConvexConvex.obj
 0001:0008c970       ?contactConvexConvex@Gu@physx@@YA_NAEBVPxGeometry@2@0AEBUPxTransformPadded@2@1AEBUNarrowPhaseParams@12@AEAUCache@12@AEAVPxContactBuffer@2@PEAVPxRenderOutput@2@@Z 000000018008d970 f   GuContactConvexConvex.obj
 0001:0008cdf0       ?transformPlaneToShapeSpace@FastVertex2ShapeScaling@Cm@physx@@QEBAXAEBV?$PxVec3T@M@3@MAEAV43@AEAM@Z 000000018008ddf0 f i GuContactConvexConvex.obj
 0001:0008d2a0       ??_EConvexMeshContactGenerationCallback@@UEAAPEAXI@Z 000000018008e2a0 f i GuContactConvexMesh.obj
 0001:0008d2a0       ??_GConvexMeshContactGenerationCallback@@UEAAPEAXI@Z 000000018008e2a0 f i GuContactConvexMesh.obj
 0001:0008d300       ?addData@?$CacheMap@UCachedEdge@Gu@physx@@$0IA@@Gu@physx@@QEAA_NAEBUCachedEdge@23@@Z 000000018008e300 f i GuContactConvexMesh.obj
 0001:0008d3e0       ?addData@?$CacheMap@UCachedVertex@Gu@physx@@$0IA@@Gu@physx@@QEAA_NAEBUCachedVertex@23@@Z 000000018008e3e0 f i GuContactConvexMesh.obj
 0001:0008d470       ?allocate@?$PxArray@IV?$PxInlineAllocator@$0BBAA@V?$PxReflectionAllocator@I@physx@@@physx@@@physx@@IEAAPEAII@Z 000000018008e470 f i GuContactConvexMesh.obj
 0001:0008d870       ?contactBoxHeightfield@Gu@physx@@YA_NAEBVPxGeometry@2@0AEBUPxTransformPadded@2@1AEBUNarrowPhaseParams@12@AEAUCache@12@AEAVPxContactBuffer@2@PEAVPxRenderOutput@2@@Z 000000018008e870 f   GuContactConvexMesh.obj
 0001:0008d9f0       ?contactBoxMesh@Gu@physx@@YA_NAEBVPxGeometry@2@0AEBUPxTransformPadded@2@1AEBUNarrowPhaseParams@12@AEAUCache@12@AEAVPxContactBuffer@2@PEAVPxRenderOutput@2@@Z 000000018008e9f0 f   GuContactConvexMesh.obj
 0001:0008dbc0       ?contactConvexHeightfield@Gu@physx@@YA_NAEBVPxGeometry@2@0AEBUPxTransformPadded@2@1AEBUNarrowPhaseParams@12@AEAUCache@12@AEAVPxContactBuffer@2@PEAVPxRenderOutput@2@@Z 000000018008ebc0 f   GuContactConvexMesh.obj
 0001:0008dd10       ?contactConvexMesh@Gu@physx@@YA_NAEBVPxGeometry@2@0AEBUPxTransformPadded@2@1AEBUNarrowPhaseParams@12@AEAUCache@12@AEAVPxContactBuffer@2@PEAVPxRenderOutput@2@@Z 000000018008ed10 f   GuContactConvexMesh.obj
 0001:00091420       ?processHit@ConvexMeshContactGenerationCallback@@UEAA_NAEBUPxGeomRaycastHit@physx@@AEBV?$PxVec3T@M@3@11AEAMPEBI@Z 0000000180092420 f i GuContactConvexMesh.obj
 0001:00091de0       ?recreate@?$PxArray@IV?$PxInlineAllocator@$0BBAA@V?$PxReflectionAllocator@I@physx@@@physx@@@physx@@IEAAXI@Z 0000000180092de0 f i GuContactConvexMesh.obj
 0001:000934c0       ?contactPlaneBox@Gu@physx@@YA_NAEBVPxGeometry@2@0AEBUPxTransformPadded@2@1AEBUNarrowPhaseParams@12@AEAUCache@12@AEAVPxContactBuffer@2@PEAVPxRenderOutput@2@@Z 00000001800944c0 f   GuContactPlaneBox.obj
 0001:00094180       ?contactPlaneCapsule@Gu@physx@@YA_NAEBVPxGeometry@2@0AEBUPxTransformPadded@2@1AEBUNarrowPhaseParams@12@AEAUCache@12@AEAVPxContactBuffer@2@PEAVPxRenderOutput@2@@Z 0000000180095180 f   GuContactPlaneCapsule.obj
 0001:00094850       ?contactPlaneConvex@Gu@physx@@YA_NAEBVPxGeometry@2@0AEBUPxTransformPadded@2@1AEBUNarrowPhaseParams@12@AEAUCache@12@AEAVPxContactBuffer@2@PEAVPxRenderOutput@2@@Z 0000000180095850 f   GuContactPlaneConvex.obj
 0001:00096590       ?contactPolygonPolygonExt@Gu@physx@@YA_NIPEBV?$PxVec3T@M@2@PEBEAEBV?$PxMat34T@M@2@AEBVPxPlane@2@AEBV?$PxMat33T@M@2@I01234AEBV32@22IIAEAVPxContactBuffer@2@_N5M@Z 0000000180097590 f   GuContactPolygonPolygon.obj
 0001:00097d00       ?findRotationMatrixFromZ@Gu@physx@@YA?AV?$PxMat33T@M@2@AEBV?$PxVec3T@M@2@@Z 0000000180098d00 f   GuContactPolygonPolygon.obj
 0001:00098720       ?contactSphereBox@Gu@physx@@YA_NAEBVPxGeometry@2@0AEBUPxTransformPadded@2@1AEBUNarrowPhaseParams@12@AEAUCache@12@AEAVPxContactBuffer@2@PEAVPxRenderOutput@2@@Z 0000000180099720 f   GuContactSphereBox.obj
 0001:00098cf0       ?contactSphereCapsule@Gu@physx@@YA_NAEBVPxGeometry@2@0AEBUPxTransformPadded@2@1AEBUNarrowPhaseParams@12@AEAUCache@12@AEAVPxContactBuffer@2@PEAVPxRenderOutput@2@@Z 0000000180099cf0 f   GuContactSphereCapsule.obj
 0001:00099ad0       ?contactSphereHeightfield@Gu@physx@@YA_NAEBVPxGeometry@2@0AEBUPxTransformPadded@2@1AEBUNarrowPhaseParams@12@AEAUCache@12@AEAVPxContactBuffer@2@PEAVPxRenderOutput@2@@Z 000000018009aad0 f   GuContactSphereMesh.obj
 0001:0009a4d0       ?contactSphereMesh@Gu@physx@@YA_NAEBVPxGeometry@2@0AEBUPxTransformPadded@2@1AEBUNarrowPhaseParams@12@AEAUCache@12@AEAVPxContactBuffer@2@PEAVPxRenderOutput@2@@Z 000000018009b4d0 f   GuContactSphereMesh.obj
 0001:0009c850       ?contactSpherePlane@Gu@physx@@YA_NAEBVPxGeometry@2@0AEBUPxTransformPadded@2@1AEBUNarrowPhaseParams@12@AEAUCache@12@AEAVPxContactBuffer@2@PEAVPxRenderOutput@2@@Z 000000018009d850 f   GuContactSpherePlane.obj
 0001:0009ca60       ?contactSphereSphere@Gu@physx@@YA_NAEBVPxGeometry@2@0AEBUPxTransformPadded@2@1AEBUNarrowPhaseParams@12@AEAUCache@12@AEAVPxContactBuffer@2@PEAVPxRenderOutput@2@@Z 000000018009da60 f   GuContactSphereSphere.obj
 0001:0009cbe0       ?contactCustomGeometryGeometry@Gu@physx@@YA_NAEBVPxGeometry@2@0AEBUPxTransformPadded@2@1AEBUNarrowPhaseParams@12@AEAUCache@12@AEAVPxContactBuffer@2@PEAVPxRenderOutput@2@@Z 000000018009dbe0 f   GuContactCustomGeometry.obj
 0001:0009cc40       ?contactGeometryCustomGeometry@Gu@physx@@YA_NAEBVPxGeometry@2@0AEBUPxTransformPadded@2@1AEBUNarrowPhaseParams@12@AEAUCache@12@AEAVPxContactBuffer@2@PEAVPxRenderOutput@2@@Z 000000018009dc40 f   GuContactCustomGeometry.obj
 0001:0009cd00       ?selectNormal@Gu@physx@@YA_NEMM@Z 000000018009dd00 f   GuFeatureCode.obj
 0001:0009cd80       ??0BigConvexData@physx@@QEAA@XZ 000000018009dd80 f   GuBigConvexData.obj
 0001:0009cda0       ??1BigConvexData@physx@@QEAA@XZ 000000018009dda0 f   GuBigConvexData.obj
 0001:0009ce60       ?ComputeNearestOffset@BigConvexData@physx@@QEBAIAEBV?$PxVec3T@M@2@@Z 000000018009de60 f   GuBigConvexData.obj
 0001:0009cf60       ?ComputeOffset@BigConvexData@physx@@QEBAIAEBV?$PxVec3T@M@2@@Z 000000018009df60 f   GuBigConvexData.obj
 0001:0009d060       ?CreateOffsets@BigConvexData@physx@@IEAAXXZ 000000018009e060 f   GuBigConvexData.obj
 0001:0009d0b0       ?Load@BigConvexData@physx@@QEAA_NAEAVPxInputStream@2@@Z 000000018009e0b0 f   GuBigConvexData.obj
 0001:0009d1c0       ?VLoad@BigConvexData@physx@@IEAA_NAEAVPxInputStream@2@@Z 000000018009e1c0 f   GuBigConvexData.obj
 0001:0009d360       ?exportExtraData@BigConvexData@physx@@QEAAXAEAVPxSerializationContext@2@@Z 000000018009e360 f   GuBigConvexData.obj
 0001:0009d3e0       ?importExtraData@BigConvexData@physx@@QEAAXAEAVPxDeserializationContext@2@@Z 000000018009e3e0 f   GuBigConvexData.obj
 0001:0009d450       ?findUniqueConvexEdges@Gu@physx@@YAIIPEIAUConvexEdge@12@IPEIBUHullPolygonData@12@PEIBE@Z 000000018009e450 f   GuConvexHelper.obj
 0001:0009d590       ?getConvexData@Gu@physx@@YA_NAEBVPxConvexMeshGeometry@2@AEAVFastVertex2ShapeScaling@Cm@2@AEAVPxBounds3@2@AEAUPolygonalData@12@@Z 000000018009e590 f   GuConvexHelper.obj
 0001:0009d810       ?getScaledConvex@Gu@physx@@YAXAEAPEAV?$PxVec3T@M@2@AEAPEAEPEAV32@PEAE_NPEBV32@PEBEIAEBVFastVertex2ShapeScaling@Cm@2@@Z 000000018009e810 f   GuConvexHelper.obj
 0001:0009d940       ??0ConvexMesh@Gu@physx@@QEAA@PEAVMeshFactory@12@@Z 000000018009e940 f   GuConvexMesh.obj
 0001:0009d9d0       ??0ConvexMesh@Gu@physx@@QEAA@PEAVMeshFactory@12@AEAUConvexHullInitData@12@@Z 000000018009e9d0 f   GuConvexMesh.obj
 0001:0009daf0       ??_EConvexMesh@Gu@physx@@UEAAPEAXI@Z 000000018009eaf0 f i GuConvexMesh.obj
 0001:0009daf0       ??_GConvexMesh@Gu@physx@@UEAAPEAXI@Z 000000018009eaf0 f i GuConvexMesh.obj
 0001:0009dc00       ??_EPxBVH@physx@@MEAAPEAXI@Z 000000018009ec00 f i GuBVH.obj
 0001:0009dc00       ??_EPxBase@physx@@MEAAPEAXI@Z 000000018009ec00 f i GuConvexMesh.obj
 0001:0009dc00       ??_GPxBVH@physx@@MEAAPEAXI@Z 000000018009ec00 f i GuBVH.obj
 0001:0009dc00       ??_GPxBase@physx@@MEAAPEAXI@Z 000000018009ec00 f i GuConvexMesh.obj
 0001:0009dc30       ?acquireReference@ConvexMesh@Gu@physx@@UEAAXXZ 000000018009ec30 f   GuConvexMesh.obj
 0001:0009dc30       ?acquireReference@HeightField@Gu@physx@@UEAAXXZ 000000018009ec30 f   GuHeightField.obj
 0001:0009dc30       ?acquireReference@SoftBodyAuxData@Gu@physx@@UEAAXXZ 000000018009ec30 f   GuTetrahedronMesh.obj
 0001:0009dc30       ?acquireReference@SoftBodyMesh@Gu@physx@@UEAAXXZ 000000018009ec30 f   GuTetrahedronMesh.obj
 0001:0009dc30       ?acquireReference@TetrahedronMesh@Gu@physx@@UEAAXXZ 000000018009ec30 f   GuTetrahedronMesh.obj
 0001:0009dc30       ?acquireReference@TriangleMesh@Gu@physx@@UEAAXXZ 000000018009ec30 f   GuTriangleMesh.obj
 0001:0009e0f0       ?createObject@ConvexMesh@Gu@physx@@SAPEAV123@AEAPEAEAEAVPxDeserializationContext@3@@Z 000000018009f0f0 f   GuConvexMesh.obj
 0001:0009e1d0       ?exportExtraData@ConvexMesh@Gu@physx@@UEAAXAEAVPxSerializationContext@3@@Z 000000018009f1d0 f   GuConvexMesh.obj
 0001:0009e2a0       ?getConcreteTypeName@PxConvexMesh@physx@@UEBAPEBDXZ 000000018009f2a0 f i GuConvexMesh.obj
 0001:0009e2b0       ?getIndexBuffer@ConvexMesh@Gu@physx@@UEBAPEBEXZ 000000018009f2b0 f i GuConvexMesh.obj
 0001:0009e2f0       ?getLocalBounds@ConvexMesh@Gu@physx@@UEBA?AVPxBounds3@3@XZ 000000018009f2f0 f   GuConvexMesh.obj
 0001:0009e380       ?getMassInformation@ConvexMesh@Gu@physx@@UEBAXAEAMAEAV?$PxMat33T@M@3@AEAV?$PxVec3T@M@3@@Z 000000018009f380 f   GuConvexMesh.obj
 0001:0009e3f0       ?getNbPolygons@ConvexMesh@Gu@physx@@UEBAIXZ 000000018009f3f0 f i GuConvexMesh.obj
 0001:0009e400       ?getNbVertices@ConvexMesh@Gu@physx@@UEBAIXZ 000000018009f400 f i GuConvexMesh.obj
 0001:0009e410       ?getPolygonData@ConvexMesh@Gu@physx@@UEBA_NIAEAUPxHullPolygon@3@@Z 000000018009f410 f   GuConvexMesh.obj
 0001:0009e460       ?getReferenceCount@ConvexMesh@Gu@physx@@UEBAIXZ 000000018009f460 f   GuConvexMesh.obj
 0001:0009e460       ?getReferenceCount@HeightField@Gu@physx@@UEBAIXZ 000000018009f460 f   GuHeightField.obj
 0001:0009e460       ?getReferenceCount@SoftBodyAuxData@Gu@physx@@UEBAIXZ 000000018009f460 f   GuTetrahedronMesh.obj
 0001:0009e460       ?getReferenceCount@SoftBodyMesh@Gu@physx@@UEBAIXZ 000000018009f460 f   GuTetrahedronMesh.obj
 0001:0009e460       ?getReferenceCount@TetrahedronMesh@Gu@physx@@UEBAIXZ 000000018009f460 f   GuTetrahedronMesh.obj
 0001:0009e460       ?getReferenceCount@TriangleMesh@Gu@physx@@UEBAIXZ 000000018009f460 f   GuTriangleMesh.obj
 0001:0009e460       ?length@DNameStatusNode@@UEBAHXZ 000000018009f460 f   libvcruntime:undname.obj
 0001:0009e460       ?raw_length@DNameStatusNode@@UEBAHXZ 000000018009f460 f   libvcruntime:undname.obj
 0001:0009e470       ?getSDF@ConvexMesh@Gu@physx@@UEBAPEBMXZ 000000018009f470 f   GuConvexMesh.obj
 0001:0009e480       ?getVertices@ConvexMesh@Gu@physx@@UEBAPEBV?$PxVec3T@M@3@XZ 000000018009f480 f i GuConvexMesh.obj
 0001:0009e4a0       ?isGpuCompatible@ConvexMesh@Gu@physx@@UEBA_NXZ 000000018009f4a0 f   GuConvexMesh.obj
 0001:0009e4e0       ?isKindOf@PxBase@physx@@MEBA_NPEBD@Z 000000018009f4e0 f i GuConvexMesh.obj
 0001:0009e500       ?isKindOf@PxConvexMesh@physx@@MEBA_NPEBD@Z 000000018009f500 f i GuConvexMesh.obj
 0001:0009e590       ?isReleasable@PxBase@physx@@UEBA_NXZ 000000018009f590 f i GuConvexMesh.obj
 0001:0009e5a0       ?load@ConvexMesh@Gu@physx@@QEAA_NAEAVPxInputStream@3@@Z 000000018009f5a0 f   GuConvexMesh.obj
 0001:0009eaf0       ?onRefCountZero@ConvexMesh@Gu@physx@@UEAAXXZ 000000018009faf0 f   GuConvexMesh.obj
 0001:0009ec20       ?release@ConvexMesh@Gu@physx@@UEAAXXZ 000000018009fc20 f   GuConvexMesh.obj
 0001:0009ec20       ?release@HeightField@Gu@physx@@UEAAXXZ 000000018009fc20 f   GuHeightField.obj
 0001:0009ec20       ?release@SoftBodyAuxData@Gu@physx@@UEAAXXZ 000000018009fc20 f   GuTetrahedronMesh.obj
 0001:0009ec20       ?release@SoftBodyMesh@Gu@physx@@UEAAXXZ 000000018009fc20 f   GuTetrahedronMesh.obj
 0001:0009ec20       ?release@TetrahedronMesh@Gu@physx@@UEAAXXZ 000000018009fc20 f   GuTetrahedronMesh.obj
 0001:0009ec20       ?release@TriangleMesh@Gu@physx@@UEAAXXZ 000000018009fc20 f   GuTriangleMesh.obj
 0001:0009ec50       ??Dphysx@@YA?AV?$PxMat34T@M@0@AEBVPxMeshScale@0@AEBV10@@Z 000000018009fc50 f i GuConvexUtilsInternal.obj
 0001:0009f1c0       ?computeHullOBB@Gu@physx@@YAXAEAVBox@12@AEBVPxBounds3@2@MAEBV?$PxMat34T@M@2@2AEBVFastVertex2ShapeScaling@Cm@2@_N@Z 00000001800a01c0 f   GuConvexUtilsInternal.obj
 0001:0009f670       ?computeOBBAroundConvex@Gu@physx@@YAXAEAVBox@12@AEBVPxConvexMeshGeometry@2@PEBVPxConvexMesh@2@AEBV?$PxTransformT@M@2@@Z 00000001800a0670 f   GuConvexUtilsInternal.obj
 0001:0009fec0       ?computeVertexSpaceOBB@Gu@physx@@YAXAEAVBox@12@AEBV312@AEBV?$PxTransformT@M@2@AEBVPxMeshScale@2@@Z 00000001800a0ec0 f   GuConvexUtilsInternal.obj
 0001:000a01f0       ?transform@physx@@YA?AVBox@Gu@1@AEBV?$PxMat34T@M@1@AEBV231@@Z 00000001800a11f0 f i GuConvexUtilsInternal.obj
 0001:000a0440       ?localSearch@physx@@YAXAEAIAEBV?$PxVec3T@M@1@PEBV21@PEBUBigConvexRawData@Gu@1@@Z 00000001800a1440 f   GuHillClimbing.obj
 0001:000a0580       ??0PCMPolygonalBox@Gu@physx@@QEAA@AEBV?$PxVec3T@M@2@@Z 00000001800a1580 f   GuPCMShapeConvex.obj
 0001:000a0580       ??0PolygonalBox@Gu@physx@@QEAA@AEBV?$PxVec3T@M@2@@Z 00000001800a1580 f   GuShapeConvex.obj
 0001:000a1a40       ?getPolygonalData@PolygonalBox@Gu@physx@@QEBAXPEIAUPolygonalData@23@@Z 00000001800a2a40 f   GuShapeConvex.obj
 0001:000a1ab0       ?getPolygonalData_Convex@Gu@physx@@YAXPEIAUPolygonalData@12@PEIBUConvexHullData@12@AEBVFastVertex2ShapeScaling@Cm@2@@Z 00000001800a2ab0 f   GuShapeConvex.obj
 0001:000a1c10       ?distancePointBoxSquared@Gu@physx@@YAMAEBV?$PxVec3T@M@2@00AEBV?$PxMat33T@M@2@PEAV32@@Z 00000001800a2c10 f   GuDistancePointBox.obj
 0001:000a1d60       ?closestPtPointTriangle@Gu@physx@@YA?AV?$PxVec3T@M@2@AEBV32@000AEAM1@Z 00000001800a2d60 f   GuDistancePointTriangle.obj
 0001:000a2280       ?distancePointTriangleSquared2UnitBox@Gu@physx@@YA?AT__m128@@AEBT3@000AEAT3@11@Z 00000001800a3280 f   GuDistancePointTriangle.obj
 0001:000a23a0       ?distancePointTriangleSquared@Gu@physx@@YA?AT__m128@@AEBT3@000AEAT3@11@Z 00000001800a33a0 f   GuDistancePointTriangle.obj
 0001:000a30f0       ?distanceSegmentBoxSquared@Gu@physx@@YAMAEBV?$PxVec3T@M@2@000AEBV?$PxMat33T@M@2@PEAMPEAV32@@Z 00000001800a40f0 f   GuDistanceSegmentBox.obj
 0001:000a3970       ?distanceSegmentSegmentSquared4@Gu@physx@@YA?AT__m128@@AEBT3@000000000AEAT3@1@Z 00000001800a4970 f   GuDistanceSegmentSegment.obj
 0001:000a3c80       ?distanceSegmentSegmentSquared@Gu@physx@@YA?AT__m128@@AEBT3@000AEAT3@1@Z 00000001800a4c80 f   GuDistanceSegmentSegment.obj
 0001:000a3e40       ?distanceSegmentSegmentSquared@Gu@physx@@YAMAEBV?$PxVec3T@M@2@000PEAM1@Z 00000001800a4e40 f   GuDistanceSegmentSegment.obj
 0001:000a40d0       ?distanceSegmentSegmentSquared@Gu@physx@@YAMAEBV?$PxVec3T@M@2@0M00MPEAM1@Z 00000001800a50d0 f   GuDistanceSegmentSegment.obj
 0001:000a4810       ?distanceSegmentTriangleSquared@Gu@physx@@YA?AT__m128@@AEBT3@0000AEAT3@1@Z 00000001800a5810 f   GuDistanceSegmentTriangle.obj
 0001:000a4f50       ?distanceSegmentTriangleSquared@Gu@physx@@YAMAEBV?$PxVec3T@M@2@0000PEAM11@Z 00000001800a5f50 f   GuDistanceSegmentTriangle.obj
 0001:000a65c0       ?distanceTriangleTriangleSquared@Gu@physx@@YAMAEAV?$PxVec3T@M@2@0QEBVPxVec3Padded@2@1@Z 00000001800a75c0 f   GuDistanceTriangleTriangle.obj
 0001:000a70f0       ?PointOutsideOfPlane4@Gu@physx@@YA?AV?$PxVec4T@M@2@AEBV?$PxVec3T@M@2@0000@Z 00000001800a80f0 f   GuDistancePointTetrahedron.obj
 0001:000a7560       ?closestPtPointTetrahedron@Gu@physx@@YA?AV?$PxVec3T@M@2@AEBV32@0000AEBV?$PxVec4T@M@2@@Z 00000001800a8560 f   GuDistancePointTetrahedron.obj
 0001:000a8650       ?PenetrationDepth@EPA@Gu@physx@@QEAA?AW4GjkStatus@23@AEBUGjkConvex@23@0PEIBT__m128@@1E_NT6@AEAUGjkOutput@23@@Z 00000001800a9650 f   GuEPA.obj
 0001:000a9110       ?addFacet@EPA@Gu@physx@@QEAAPEAVFacet@23@IIIAEBT__m128@@@Z 00000001800aa110 f   GuEPA.obj
 0001:000a9540       ?epaPenetration@Gu@physx@@YA?AW4GjkStatus@12@AEBUGjkConvex@12@0PEIBE1E_NT__m128@@AEAUGjkOutput@12@@Z 00000001800aa540 f   GuEPA.obj
 0001:000a96b0       ?epaPenetration@Gu@physx@@YA?AW4GjkStatus@12@AEBUGjkConvex@12@0PEIBT__m128@@1E_NT5@AEAUGjkOutput@12@@Z 00000001800aa6b0 f   GuEPA.obj
 0001:000a9760       ?silhouette@Facet@Gu@physx@@QEAAXAEBT__m128@@PEIBT4@1AEAVEdgeBuffer@23@AEAV?$InlineDeferredIDPool@$0EA@@Cm@3@@Z 00000001800aa760 f   GuEPA.obj
 0001:000a9930       ?closestPtPointTetrahedron@Gu@physx@@YA?AT__m128@@PEIAT3@00AEAI@Z 00000001800aa930 f   GuGJKSimplex.obj
 0001:000aa0a0       ?closestPtPointTetrahedron@Gu@physx@@YA?AT__m128@@PEIAT3@00PEIAH1AEAI@Z 00000001800ab0a0 f   GuGJKSimplex.obj
 0001:000abb20       ??$gjk@UGjkConvex@Gu@physx@@U123@@Gu@physx@@YA?AW4GjkStatus@01@AEBUGjkConvex@01@0AEBT__m128@@1AEAT4@222@Z 00000001800acb20 f i GuGJKTest.obj
 0001:000ac740       ??$gjkPenetration@UGjkConvex@Gu@physx@@U123@@Gu@physx@@YA?AW4GjkStatus@01@AEBUGjkConvex@01@0AEBT__m128@@1_NPEIAE3AEAEAEAUGjkOutput@01@@Z 00000001800ad740 f i GuGJKTest.obj
 0001:000ac7b0       ??$gjkPenetration@UGjkConvex@Gu@physx@@U123@@Gu@physx@@YA?AW4GjkStatus@01@AEBUGjkConvex@01@0AEBT__m128@@1_NPEIAE3PEIAT4@4AEAEAEAUGjkOutput@01@@Z 00000001800ad7b0 f i GuGJKTest.obj
 0001:000adc00       ?testEpaPenetration@Gu@physx@@YA?AW4GjkStatus@12@AEBUGjkConvex@12@0PEBE1EAEAUGjkOutput@12@@Z 00000001800aec00 f   GuGJKTest.obj
 0001:000adc50       ?testGjk@Gu@physx@@YA?AW4GjkStatus@12@AEBUGjkConvex@12@0AEBT__m128@@1AEAT5@222@Z 00000001800aec50 f   GuGJKTest.obj
 0001:000adc60       ?testGjkPenetration@Gu@physx@@YA?AW4GjkStatus@12@AEBUGjkConvex@12@0AEBT__m128@@1PEAE2AEAEAEAUGjkOutput@12@@Z 00000001800aec60 f   GuGJKTest.obj
 0001:000adcb0       ??0HeightField@Gu@physx@@QEAA@PEAVMeshFactory@12@@Z 00000001800aecb0 f   GuHeightField.obj
 0001:000add00       ??0HeightField@Gu@physx@@QEAA@PEAVMeshFactory@12@AEAUHeightFieldData@12@@Z 00000001800aed00 f   GuHeightField.obj
 0001:000addb0       ??1HeightField@Gu@physx@@UEAA@XZ 00000001800aedb0 f   GuHeightField.obj
 0001:000ade30       ??_EHeightField@Gu@physx@@UEAAPEAXI@Z 00000001800aee30 f i GuHeightField.obj
 0001:000ade30       ??_GHeightField@Gu@physx@@UEAAPEAXI@Z 00000001800aee30 f i GuHeightField.obj
 0001:000adee0       ?computeCellCoordinates@HeightField@Gu@physx@@QEBAIMMAEAM0@Z 00000001800aeee0 f   GuHeightField.obj
 0001:000ae000       ?createObject@HeightField@Gu@physx@@SAPEAV123@AEAPEAEAEAVPxDeserializationContext@3@@Z 00000001800af000 f   GuHeightField.obj
 0001:000ae050       ?exportExtraData@HeightField@Gu@physx@@UEAAXAEAVPxSerializationContext@3@@Z 00000001800af050 f   GuHeightField.obj
 0001:000ae0a0       ?getConcreteTypeName@PxHeightField@physx@@UEBAPEBDXZ 00000001800af0a0 f i GuHeightField.obj
 0001:000ae0b0       ?getConvexEdgeThreshold@HeightField@Gu@physx@@UEBAMXZ 00000001800af0b0 f i GuHeightField.obj
 0001:000ae0c0       ?getFlags@HeightField@Gu@physx@@UEBA?AV?$PxFlags@W4Enum@PxHeightFieldFlag@physx@@G@3@XZ 00000001800af0c0 f i GuHeightField.obj
 0001:000ae0d0       ?getFormat@HeightField@Gu@physx@@UEBA?AW4Enum@PxHeightFieldFormat@3@XZ 00000001800af0d0 f i GuHeightField.obj
 0001:000ae0e0       ?getHeight@HeightField@Gu@physx@@UEBAMMM@Z 00000001800af0e0 f i GuHeightField.obj
 0001:000ae200       ?getNbColumns@HeightField@Gu@physx@@UEBAIXZ 00000001800af200 f i GuHeightField.obj
 0001:000ae210       ?getNbBounds@BVH@Gu@physx@@UEBAIXZ 00000001800af210 f i GuBVH.obj
 0001:000ae210       ?getNbPrimitives@SourceMesh@Gu@physx@@UEBAIXZ 00000001800af210 f i GuBV4.obj
 0001:000ae210       ?getNbPrimitives@TetrahedronSourceMesh@Gu@physx@@UEBAIXZ 00000001800af210 f i GuBV4.obj
 0001:000ae210       ?getNbRows@HeightField@Gu@physx@@UEBAIXZ 00000001800af210 f i GuHeightField.obj
 0001:000ae220       ?getSample@HeightField@Gu@physx@@UEBAAEBUPxHeightFieldSample@3@II@Z 00000001800af220 f i GuHeightField.obj
 0001:000ae230       ?getSampleStride@HeightField@Gu@physx@@UEBAIXZ 00000001800af230 f i GuHeightField.obj
 0001:000ae240       ?getTimestamp@HeightField@Gu@physx@@UEBAIXZ 00000001800af240 f i GuHeightField.obj
 0001:000ae250       ?getTriangleMaterialIndex@HeightField@Gu@physx@@UEBAGI@Z 00000001800af250 f i GuHeightField.obj
 0001:000ae280       ?getTriangleNormal@HeightField@Gu@physx@@UEBA?AV?$PxVec3T@M@3@I@Z 00000001800af280 f i GuHeightField.obj
 0001:000ae2a0       ?getTriangleNormalInternal@HeightField@Gu@physx@@QEBA?AV?$PxVec3T@M@3@I@Z 00000001800af2a0 f i GuHeightField.obj
 0001:000ae5d0       ?isCollisionVertexPreca@HeightField@Gu@physx@@QEBA_NIIIG@Z 00000001800af5d0 f   GuHeightField.obj
 0001:000ae670       ?isConvexVertex@HeightField@Gu@physx@@QEBA_NIII@Z 00000001800af670 f i GuHeightField.obj
 0001:000ae740       ?isKindOf@PxHeightField@physx@@MEBA_NPEBD@Z 00000001800af740 f i GuHeightField.obj
 0001:000ae7d0       ?isSolidVertex@HeightField@Gu@physx@@QEBA_NIIIGAEA_N@Z 00000001800af7d0 f   GuHeightField.obj
 0001:000aea70       ?load@HeightField@Gu@physx@@QEAA_NAEAVPxInputStream@3@@Z 00000001800afa70 f   GuHeightField.obj
 0001:000aedd0       ?loadFromDesc@HeightField@Gu@physx@@QEAA_NAEBVPxHeightFieldDesc@3@@Z 00000001800afdd0 f   GuHeightField.obj
 0001:000aefd0       ?modifySamples@HeightField@Gu@physx@@UEAA_NHHAEBVPxHeightFieldDesc@3@_N@Z 00000001800affd0 f   GuHeightField.obj
 0001:000af340       ?onRefCountZero@HeightField@Gu@physx@@UEAAXXZ 00000001800b0340 f   GuHeightField.obj
 0001:000af410       ?parseTrianglesForCollisionVertices@HeightField@Gu@physx@@QEAAXG@Z 00000001800b0410 f   GuHeightField.obj
 0001:000af920       ?releaseMemory@HeightField@Gu@physx@@QEAAXXZ 00000001800b0920 f   GuHeightField.obj
 0001:000af970       ?resizeAndClear@?$PxBitMapBase@VPxAllocator@physx@@@physx@@QEAAXI@Z 00000001800b0970 f i GuHeightField.obj
 0001:000afa20       ?save@HeightField@Gu@physx@@QEAA_NAEAVPxOutputStream@3@_N@Z 00000001800b0a20 f   GuHeightField.obj
 0001:000afc60       ?saveCells@HeightField@Gu@physx@@UEBAIPEAXI@Z 00000001800b0c60 f   GuHeightField.obj
 0001:000afca0       ?computeLocalBounds@HeightFieldUtil@Gu@physx@@QEBAXAEAVPxBounds3@3@@Z 00000001800b0ca0 f   GuHeightFieldUtil.obj
 0001:000b0160       ?getTriangle@HeightFieldUtil@Gu@physx@@QEBAIAEBV?$PxTransformT@M@3@AEAVPxTriangle@3@PEAI2I_N3@Z 00000001800b1160 f   GuHeightFieldUtil.obj
 0001:000b0c60       ?getTriangleAdjacencyIndices@HeightField@Gu@physx@@QEBAXIIIIAEAI00@Z 00000001800b1c60 f i GuHeightFieldUtil.obj
 0001:000b0e10       ?getTriangleVertexIndices@HeightField@Gu@physx@@QEBAXIAEAI00@Z 00000001800b1e10 f i GuHeightFieldUtil.obj
 0001:000b0ed0       ?overlapAABBTriangles@HeightFieldUtil@Gu@physx@@QEBAXAEBVPxBounds3@3@AEAVOverlapReport@23@I@Z 00000001800b1ed0 f   GuHeightFieldUtil.obj
 0001:000b1330       ??$gjk@U?$RelativeConvex@VTriangleV@Gu@physx@@@Gu@physx@@U?$LocalConvex@VConvexHullV@Gu@physx@@@23@@Gu@physx@@YA?AW4GjkStatus@01@AEBU?$RelativeConvex@VTriangleV@Gu@physx@@@01@AEBU?$LocalConvex@VConvexHullV@Gu@physx@@@01@AEBT__m128@@2AEAT5@333@Z 00000001800b2330 f i GuOverlapTestsHF.obj
 0001:000b2270       ?GeomOverlapCallback_BoxHeightfield@@YA_NAEBVPxGeometry@physx@@AEBV?$PxTransformT@M@2@01PEAUTriggerCache@Gu@2@PEAUPxQueryThreadContext@2@@Z 00000001800b3270 f   GuOverlapTestsHF.obj
 0001:000b27d0       ?GeomOverlapCallback_CapsuleHeightfield@@YA_NAEBVPxGeometry@physx@@AEBV?$PxTransformT@M@2@01PEAUTriggerCache@Gu@2@PEAUPxQueryThreadContext@2@@Z 00000001800b37d0 f   GuOverlapTestsHF.obj
 0001:000b2dd0       ?GeomOverlapCallback_ConvexHeightfield@@YA_NAEBVPxGeometry@physx@@AEBV?$PxTransformT@M@2@01PEAUTriggerCache@Gu@2@PEAUPxQueryThreadContext@2@@Z 00000001800b3dd0 f   GuOverlapTestsHF.obj
 0001:000b3810       ?GeomOverlapCallback_SphereHeightfield@@YA_NAEBVPxGeometry@physx@@AEBV?$PxTransformT@M@2@01PEAUTriggerCache@Gu@2@PEAUPxQueryThreadContext@2@@Z 00000001800b4810 f   GuOverlapTestsHF.obj
 0001:000b43d0       ??$gjkRaycast@U?$LocalConvex@VTriangleV@Gu@physx@@@Gu@physx@@U?$LocalConvex@VConvexHullV@Gu@physx@@@23@@Gu@physx@@YA_NAEBU?$LocalConvex@VTriangleV@Gu@physx@@@01@AEBU?$LocalConvex@VConvexHullV@Gu@physx@@@01@AEBT__m128@@222AEAT4@33M@Z 00000001800b53d0 f i GuSweepsHF.obj
 0001:000b51d0       ??$traceSegment@VBoxTraceSegmentReport@@$0A@$00@HeightFieldTraceUtil@Gu@physx@@QEBAXAEBV?$PxVec3T@M@2@0MPEAVBoxTraceSegmentReport@@AEBVPxBounds3@2@_NPEBV32@@Z 00000001800b61d0 f i GuSweepsHF.obj
 0001:000b51d0       ??$traceSegment@VCapsuleTraceSegmentReport@@$0A@$00@HeightFieldTraceUtil@Gu@physx@@QEBAXAEBV?$PxVec3T@M@2@0MPEAVCapsuleTraceSegmentReport@@AEBVPxBounds3@2@_NPEBV32@@Z 00000001800b61d0 f i GuSweepsHF.obj
 0001:000b51d0       ??$traceSegment@VConvexTraceSegmentReport@@$0A@$00@HeightFieldTraceUtil@Gu@physx@@QEBAXAEBV?$PxVec3T@M@2@0MPEAVConvexTraceSegmentReport@@AEBVPxBounds3@2@_NPEBV32@@Z 00000001800b61d0 f i GuSweepsHF.obj
 0001:000b59a0       ??0ConvexTraceSegmentReport@@QEAA@AEBVHeightFieldUtil@Gu@physx@@AEBUConvexHullData@23@AEBVPxMeshScale@3@AEBV?$PxTransformT@M@3@3AEBV?$PxVec3T@M@3@MV?$PxFlags@W4Enum@PxHitFlag@physx@@G@3@M@Z 00000001800b69a0 f i GuSweepsHF.obj
 0001:000b6320       ??_EBoxTraceSegmentReport@@UEAAPEAXI@Z 00000001800b7320 f i GuSweepsHF.obj
 0001:000b6320       ??_GBoxTraceSegmentReport@@UEAAPEAXI@Z 00000001800b7320 f i GuSweepsHF.obj
 0001:000b6350       ??_ECapsuleTraceSegmentReport@@UEAAPEAXI@Z 00000001800b7350 f i GuSweepsHF.obj
 0001:000b6350       ??_GCapsuleTraceSegmentReport@@UEAAPEAXI@Z 00000001800b7350 f i GuSweepsHF.obj
 0001:000b6380       ??_EConvexTraceSegmentReport@@UEAAPEAXI@Z 00000001800b7380 f i GuSweepsHF.obj
 0001:000b6380       ??_GConvexTraceSegmentReport@@UEAAPEAXI@Z 00000001800b7380 f i GuSweepsHF.obj
 0001:000b63b0       ??_EHeightFieldTraceSegmentReport@@UEAAPEAXI@Z 00000001800b73b0 f i GuSweepsHF.obj
 0001:000b63b0       ??_GHeightFieldTraceSegmentReport@@UEAAPEAXI@Z 00000001800b73b0 f i GuSweepsHF.obj
 0001:000b63e0       ?finalizeHit@ConvexTraceSegmentReport@@QEAA_NAEAUPxGeomSweepHit@physx@@AEBVPxHeightFieldGeometry@3@AEBV?$PxTransformT@M@3@AEBVPxConvexMeshGeometry@3@2AEBV?$PxVec3T@M@3@M@Z 00000001800b73e0 f i GuSweepsHF.obj
 0001:000b6600       ?onEvent@BoxTraceSegmentReport@@UEAA_NIPEBI@Z 00000001800b7600 f i GuSweepsHF.obj
 0001:000b6a50       ?onEvent@CapsuleTraceSegmentReport@@UEAA_NIPEBI@Z 00000001800b7a50 f i GuSweepsHF.obj
 0001:000b6c70       ?onEvent@ConvexTraceSegmentReport@@UEAA_NIPEBI@Z 00000001800b7c70 f i GuSweepsHF.obj
 0001:000b7230       ?prepare@?$OverlapTraceSegment@VBoxTraceSegmentReport@@@HeightFieldTraceUtil@Gu@physx@@QEAAXAEBV?$PxVec3T@M@4@00AEAM1@Z 00000001800b8230 f i GuSweepsHF.obj
 0001:000b7230       ?prepare@?$OverlapTraceSegment@VCapsuleTraceSegmentReport@@@HeightFieldTraceUtil@Gu@physx@@QEAAXAEBV?$PxVec3T@M@4@00AEAM1@Z 00000001800b8230 f i GuSweepsHF.obj
 0001:000b7230       ?prepare@?$OverlapTraceSegment@VConvexTraceSegmentReport@@@HeightFieldTraceUtil@Gu@physx@@QEAAXAEBV?$PxVec3T@M@4@00AEAM1@Z 00000001800b8230 f i GuSweepsHF.obj
 0001:000b74f0       ?sweepBox_HeightFieldGeom@@YA_NAEBVPxGeometry@physx@@AEBV?$PxTransformT@M@2@AEBVPxBoxGeometry@2@1AEBVBox@Gu@2@AEBV?$PxVec3T@M@2@MAEAUPxGeomSweepHit@2@V?$PxFlags@W4Enum@PxHitFlag@physx@@G@2@MPEAUPxQueryThreadContext@2@@Z 00000001800b84f0 f   GuSweepsHF.obj
 0001:000b8330       ?sweepCapsule_HeightFieldGeom@@YA_NAEBVPxGeometry@physx@@AEBV?$PxTransformT@M@2@AEBVPxCapsuleGeometry@2@1AEBVCapsule@Gu@2@AEBV?$PxVec3T@M@2@MAEAUPxGeomSweepHit@2@V?$PxFlags@W4Enum@PxHitFlag@physx@@G@2@MPEAUPxQueryThreadContext@2@@Z 00000001800b9330 f   GuSweepsHF.obj
 0001:000b8c80       ?sweepConvex_HeightFieldGeom@@YA_NAEBVPxGeometry@physx@@AEBV?$PxTransformT@M@2@AEBVPxConvexMeshGeometry@2@1AEBV?$PxVec3T@M@2@MAEAUPxGeomSweepHit@2@V?$PxFlags@W4Enum@PxHitFlag@physx@@G@2@MPEAUPxQueryThreadContext@2@@Z 00000001800b9c80 f   GuSweepsHF.obj
 0001:000b9640       ?testVertexIndex@?$OverlapTraceSegment@VBoxTraceSegmentReport@@@HeightFieldTraceUtil@Gu@physx@@QEAA_NI@Z 00000001800ba640 f i GuSweepsHF.obj
 0001:000b9640       ?testVertexIndex@?$OverlapTraceSegment@VCapsuleTraceSegmentReport@@@HeightFieldTraceUtil@Gu@physx@@QEAA_NI@Z 00000001800ba640 f i GuSweepsHF.obj
 0001:000b9640       ?testVertexIndex@?$OverlapTraceSegment@VConvexTraceSegmentReport@@@HeightFieldTraceUtil@Gu@physx@@QEAA_NI@Z 00000001800ba640 f i GuSweepsHF.obj
 0001:000b97a0       ?transformFast@PxBounds3@physx@@SA?AV12@AEBV?$PxTransformT@M@2@AEBV12@@Z 00000001800ba7a0 f i GuSweepsHF.obj
 0001:000b9b80       ?visitCells@?$OverlapTraceSegment@VBoxTraceSegmentReport@@@HeightFieldTraceUtil@Gu@physx@@QEAA_NAEBUOverlapRectangle@1234@@Z 00000001800bab80 f i GuSweepsHF.obj
 0001:000b9b80       ?visitCells@?$OverlapTraceSegment@VCapsuleTraceSegmentReport@@@HeightFieldTraceUtil@Gu@physx@@QEAA_NAEBUOverlapRectangle@1234@@Z 00000001800bab80 f i GuSweepsHF.obj
 0001:000b9b80       ?visitCells@?$OverlapTraceSegment@VConvexTraceSegmentReport@@@HeightFieldTraceUtil@Gu@physx@@QEAA_NAEBUOverlapRectangle@1234@@Z 00000001800bab80 f i GuSweepsHF.obj
 0001:000b9d70       ?intersectOBBOBB@Gu@physx@@YA_NAEBV?$PxVec3T@M@2@0AEBV?$PxMat33T@M@2@001_N@Z 00000001800bad70 f   GuIntersectionBoxBox.obj
 0001:000ba3c0       ?intersectCapsuleTriangle@Gu@physx@@YA_NAEBV?$PxVec3T@M@2@000AEBVCapsule@12@AEBUCapsuleTriangleOverlapData@12@@Z 00000001800bb3c0 f   GuIntersectionCapsuleTriangle.obj
 0001:000bafb0       ?intersectEdgeEdge@Gu@physx@@YA_NAEBV?$PxVec3T@M@2@0000AEAMAEAV32@@Z 00000001800bbfb0 f   GuIntersectionEdgeEdge.obj
 0001:000bb2e0       ?intersectRayAABB2@Gu@physx@@YA_NAEBT__m128@@0000AEAT3@1@Z 00000001800bc2e0 f   GuIntersectionRayBox.obj
 0001:000bb3a0       ?intersectRayAABB2@Gu@physx@@YA_NAEBV?$PxVec3T@M@2@000MAEAM1@Z 00000001800bc3a0 f   GuIntersectionRayBox.obj
 0001:000bb550       ?intersectRayAABB@Gu@physx@@YAHAEBV?$PxVec3T@M@2@000AEAM1@Z 00000001800bc550 f   GuIntersectionRayBox.obj
 0001:000bb660       ?rayAABBIntersect2@Gu@physx@@YAIAEBV?$PxVec3T@M@2@000AEAV32@AEAM@Z 00000001800bc660 f   GuIntersectionRayBox.obj
 0001:000bb860       ?intersectRayCapsuleInternal@Gu@physx@@YAIAEBV?$PxVec3T@M@2@000MQEAM@Z 00000001800bc860 f   GuIntersectionRayCapsule.obj
 0001:000bbd20       ?intersectRaySphere@Gu@physx@@YA_NAEBV?$PxVec3T@M@2@0M0MAEAMPEAV32@@Z 00000001800bcd20 f   GuIntersectionRaySphere.obj
 0001:000bbe10       ?intersectRaySphereBasic@Gu@physx@@YA_NAEBV?$PxVec3T@M@2@0M0MAEAMPEAV32@@Z 00000001800bce10 f   GuIntersectionRaySphere.obj
 0001:000bbf70       ?intersectSphereBox@Gu@physx@@YA_NAEBVSphere@12@AEBVBox@12@@Z 00000001800bcf70 f   GuIntersectionSphereBox.obj
 0001:000bc1a0       ?intersectTetrahedronBox@Gu@physx@@YA_NAEBV?$PxVec3T@M@2@000AEBVPxBounds3@2@@Z 00000001800bd1a0 f   GuIntersectionTetrahedronBox.obj
 0001:000bc570       ?intersectTriangleBox@Gu@physx@@YAHAEBVBoxPadded@12@AEBV?$PxVec3T@M@2@11@Z 00000001800bd570 f   GuIntersectionTriangleBox.obj
 0001:000bcb40       ?intersectTriangleBoxBV4@@YAHAEBV?$PxVec3T@M@physx@@00AEBV?$PxMat33T@M@2@00@Z 00000001800bdb40 f   GuIntersectionTriangleBox.obj
 0001:000bcf80       ?intersectTriangleBox_ReferenceCode@Gu@physx@@YAHAEBV?$PxVec3T@M@2@0000@Z 00000001800bdf80 f   GuIntersectionTriangleBox.obj
 0001:000bd750       ?intersectTriangleBox_Unsafe@Gu@physx@@YAHAEBV?$PxVec3T@M@2@0000@Z 00000001800be750 f   GuIntersectionTriangleBox.obj
 0001:000bdb10       ?trianglesIntersect@Gu@physx@@YA_NAEBV?$PxVec3T@M@2@00000_N@Z 00000001800beb10 f   GuIntersectionTriangleTriangle.obj
 0001:000bef30       ??0BV4Tree@Gu@physx@@QEAA@W4PxEMPTY@2@@Z 00000001800bff30 f   GuBV4.obj
 0001:000bef40       ??0BV4Tree@Gu@physx@@QEAA@XZ 00000001800bff40 f   GuBV4.obj
 0001:000bef70       ??0SourceMesh@Gu@physx@@QEAA@XZ 00000001800bff70 f   GuBV4.obj
 0001:000befa0       ??0TetrahedronSourceMesh@Gu@physx@@QEAA@XZ 00000001800bffa0 f   GuBV4.obj
 0001:000befd0       ??1BV4Tree@Gu@physx@@QEAA@XZ 00000001800bffd0 f   GuBV4.obj
 0001:000bf030       ??1SourceMesh@Gu@physx@@UEAA@XZ 00000001800c0030 f   GuBV4.obj
 0001:000bf030       ??1TetrahedronSourceMesh@Gu@physx@@UEAA@XZ 00000001800c0030 f   GuBV4.obj
 0001:000bf080       ??4BV4Tree@Gu@physx@@QEAAXAEAV012@@Z 00000001800c0080 f   GuBV4.obj
 0001:000bf110       ??4SourceMesh@Gu@physx@@QEAAXAEAV012@@Z 00000001800c0110 f   GuBV4.obj
 0001:000bf160       ??_ESourceMesh@Gu@physx@@UEAAPEAXI@Z 00000001800c0160 f i GuBV4.obj
 0001:000bf160       ??_ETetrahedronSourceMesh@Gu@physx@@UEAAPEAXI@Z 00000001800c0160 f i GuBV4.obj
 0001:000bf160       ??_GSourceMesh@Gu@physx@@UEAAPEAXI@Z 00000001800c0160 f i GuBV4.obj
 0001:000bf160       ??_GTetrahedronSourceMesh@Gu@physx@@UEAAPEAXI@Z 00000001800c0160 f i GuBV4.obj
 0001:000bf200       ??_ESourceMeshBase@Gu@physx@@UEAAPEAXI@Z 00000001800c0200 f i GuBV4.obj
 0001:000bf200       ??_GSourceMeshBase@Gu@physx@@UEAAPEAXI@Z 00000001800c0200 f i GuBV4.obj
 0001:000bf2a0       ?exportExtraData@BV4Tree@Gu@physx@@QEAAXAEAVPxSerializationContext@3@@Z 00000001800c02a0 f   GuBV4.obj
 0001:000bf300       ?getPrimitiveBox@SourceMesh@Gu@physx@@UEAAXIAEAT__m128@@0@Z 00000001800c0300 f   GuBV4.obj
 0001:000bf3a0       ?getPrimitiveBox@TetrahedronSourceMesh@Gu@physx@@UEAAXIAEAT__m128@@0@Z 00000001800c03a0 f   GuBV4.obj
 0001:000bf460       ?importExtraData@BV4Tree@Gu@physx@@QEAAXAEAVPxDeserializationContext@3@@Z 00000001800c0460 f   GuBV4.obj
 0001:000bf4b0       ?init@BV32Tree@Gu@physx@@QEAA_NPEAVSourceMeshBase@23@AEBVPxBounds3@3@@Z 00000001800c04b0 f   GuBV32.obj
 0001:000bf4b0       ?init@BV4Tree@Gu@physx@@QEAA_NPEAVSourceMeshBase@23@AEBVPxBounds3@3@@Z 00000001800c04b0 f   GuBV4.obj
 0001:000bf550       ?load@BV4Tree@Gu@physx@@QEAA_NAEAVPxInputStream@3@_N@Z 00000001800c0550 f   GuBV4.obj
 0001:000bf790       ?refit@BV4Tree@Gu@physx@@QEAA_NAEAVPxBounds3@3@M@Z 00000001800c0790 f   GuBV4.obj
 0001:000bfe10       ?refit@SourceMesh@Gu@physx@@UEAAXIAEAVPxBounds3@3@@Z 00000001800c0e10 f   GuBV4.obj
 0001:000bffb0       ?refit@TetrahedronSourceMesh@Gu@physx@@UEAAXIAEAVPxBounds3@3@@Z 00000001800c0fb0 f   GuBV4.obj
 0001:000c01d0       ?remapTopology@SourceMesh@Gu@physx@@UEAAXPEBI@Z 00000001800c11d0 f   GuBV4.obj
 0001:000c0460       ?remapTopology@TetrahedronSourceMesh@Gu@physx@@UEAAXPEBI@Z 00000001800c1460 f   GuBV4.obj
 0001:000c06e0       ??0BV4_AABBTree@Gu@physx@@QEAA@XZ 00000001800c16e0 f   GuBV4Build.obj
 0001:000c06f0       ??0BVData@@QEAA@XZ         00000001800c16f0 f   GuBV4Build.obj
 0001:000c0720       ??0BuildStats@Gu@physx@@QEAA@XZ 00000001800c1720 f i GuBV4Build.obj
 0001:000c0730       ??1BV4_AABBTree@Gu@physx@@QEAA@XZ 00000001800c1730 f   GuBV4Build.obj
 0001:000c0740       ??4BuildStats@Gu@physx@@QEAAAEAU012@$$QEAU012@@Z 00000001800c1740 f i GuBV4Build.obj
 0001:000c0750       ??4BuildStats@Gu@physx@@QEAAAEAU012@AEBU012@@Z 00000001800c1750 f i GuBV4Build.obj
 0001:000c0760       ?BuildBV4Ex@Gu@physx@@YA_NAEAVBV4Tree@12@AEAVSourceMeshBase@12@MI_NW4BV4_BuildStrategy@12@@Z 00000001800c1760 f   GuBV4Build.obj
 0001:000c1630       ?allocateNode@BV4BuildParams@@QEAAPEAUBV4Node@@XZ 00000001800c2630 f   GuBV4Build.obj
 0001:000c1aa0       ?buildFromMesh@BV4_AABBTree@Gu@physx@@QEAA_NAEAVSourceMeshBase@23@IW4BV4_BuildStrategy@23@@Z 00000001800c2aa0 f   GuBV4Build.obj
 0001:000c29d0       ?increaseCount@BuildStats@Gu@physx@@QEAAXI@Z 00000001800c39d0 f i GuBV4Build.obj
 0001:000c3420       ?release@BV4_AABBTree@Gu@physx@@QEAAXXZ 00000001800c4420 f   GuBV4Build.obj
 0001:000c34d0       ?releaseNodes@BV4BuildParams@@QEAAXXZ 00000001800c44d0 f   GuBV4Build.obj
 0001:000c3540       ?reset@BuildStats@Gu@physx@@QEAAXXZ 00000001800c4540 f i GuBV4Build.obj
 0001:000c3550       ?setCount@BuildStats@Gu@physx@@QEAAXI@Z 00000001800c4550 f i GuBV4Build.obj
 0001:000c3bb0       ?walk@BV4_AABBTree@Gu@physx@@QEBAIP6A_NPEBVAABBTreeNode@23@IPEAX@Z1@Z 00000001800c4bb0 f   GuBV4Build.obj
 0001:000c3c70       ?walkDistance@BV4_AABBTree@Gu@physx@@QEBAIP6A_NPEBVAABBTreeNode@23@IPEAX@ZP6A_N01@Z1@Z 00000001800c4c70 f   GuBV4Build.obj
 0001:000c7ca0       ?GenericSweep_AABB_CB@@YAXAEBVBox@Gu@physx@@AEBV?$PxVec3T@M@3@MAEBVBV4Tree@23@P6A_NPEAX111IAEAM@Z3I@Z 00000001800c8ca0 f   GuBV4_AABBSweep.obj
 0001:000c7e00       ?Sweep_AABB_BV4@@YAHAEBVBox@Gu@physx@@AEBV?$PxVec3T@M@3@MAEBVBV4Tree@23@PEIAVSweepHit@23@I@Z 00000001800c8e00 f   GuBV4_AABBSweep.obj
 0001:000d0b80       ?BV4_OverlapBoxAll@@YAIAEBVBox@Gu@physx@@AEBVBV4Tree@23@PEIBV?$PxMat44T@M@3@PEAIIAEA_N@Z 00000001800d1b80 f   GuBV4_BoxOverlap.obj
 0001:000d1390       ?BV4_OverlapBoxAny@@YAHAEBVBox@Gu@physx@@AEBVBV4Tree@23@PEIBV?$PxMat44T@M@3@@Z 00000001800d2390 f   GuBV4_BoxOverlap.obj
 0001:000d1b90       ?BV4_OverlapBoxCB@@YAXAEBVBox@Gu@physx@@AEBVBV4Tree@23@P6A_NPEAXAEBV?$PxVec3T@M@3@333IPEBI@Z2@Z 00000001800d2b90 f   GuBV4_BoxOverlap.obj
 0001:000d2240       ?BV4_OverlapBoxCB@@YAXAEBVBox@Gu@physx@@AEBVBV4Tree@23@P6A_NPEAXAEBV?$PxVec3T@M@3@33IPEBI@Z2@Z 00000001800d3240 f   GuBV4_BoxOverlap.obj
 0001:000d26f0       ?BV4_OverlapCapsuleAll@@YAIAEBVCapsule@Gu@physx@@AEBVBV4Tree@23@PEIBV?$PxMat44T@M@3@PEAIIAEA_N@Z 00000001800d36f0 f   GuBV4_BoxOverlap.obj
 0001:000d2e10       ?BV4_OverlapCapsuleAny@@YAHAEBVCapsule@Gu@physx@@AEBVBV4Tree@23@PEIBV?$PxMat44T@M@3@@Z 00000001800d3e10 f   GuBV4_BoxOverlap.obj
 0001:000d5cc0       ?BV4_CapsuleSweepSingle@@YAHAEBVCapsule@Gu@physx@@AEBV?$PxVec3T@M@3@MAEBVBV4Tree@23@PEIAVSweepHit@23@I@Z 00000001800d6cc0 f   GuBV4_CapsuleSweep.obj
 0001:000d9d60       ?BV4_CapsuleSweepSingleAA@@YAHAEBVCapsule@Gu@physx@@AEBV?$PxVec3T@M@3@MAEBVBV4Tree@23@PEIAVSweepHit@23@I@Z 00000001800dad60 f   GuBV4_CapsuleSweepAA.obj
 0001:000ea120       ?BV4_OverlapMeshVsMesh@@YA_NAEAV?$PxReportCallback@UPxGeomIndexPair@physx@@@physx@@AEBVBV4Tree@Gu@2@1PEBV?$PxMat44T@M@2@2AEBV?$PxTransformT@M@2@3AEBVPxMeshScale@2@4V?$PxFlags@W4Enum@PxMeshMeshQueryFlag@physx@@I@2@M@Z 00000001800eb120 f   GuBV4_MeshMeshOverlap.obj
 0001:000ea360       ?BV4_OverlapMeshVsMesh@@YA_NAEAV?$PxReportCallback@UPxGeomIndexPair@physx@@@physx@@AEBVBV4Tree@Gu@2@1PEBV?$PxMat44T@M@2@2V?$PxFlags@W4Enum@PxMeshMeshQueryFlag@physx@@I@2@M@Z 00000001800eb360 f   GuBV4_MeshMeshOverlap.obj
 0001:000f3b10       ??D?$PxMat33T@M@physx@@QEBA?BV?$PxVec3T@M@1@AEBV21@@Z 00000001800f4b10 f i GuBV4_OBBSweep.obj
 0001:000f3ba0       ?BV4_BoxSweepSingle@@YAHAEBVBox@Gu@physx@@AEBV?$PxVec3T@M@3@MAEBVBV4Tree@23@PEIBV?$PxMat44T@M@3@PEIAVSweepHit@23@I@Z 00000001800f4ba0 f   GuBV4_OBBSweep.obj
 0001:000f42d0       ?BV4_GenericSweepCB@@YAXAEBVBox@Gu@physx@@AEBV?$PxVec3T@M@3@MAEBVBV4Tree@23@P6A_NPEAX111IAEAM@Z3_N@Z 00000001800f52d0 f   GuBV4_OBBSweep.obj
 0001:000f4500       ?Sweep_OBB_BV4@@YAHAEBVBox@Gu@physx@@AEBV?$PxVec3T@M@3@MAEBVBV4Tree@23@PEIAVSweepHit@23@I@Z 00000001800f5500 f   GuBV4_OBBSweep.obj
 0001:000f7060       ?BV4_RaycastCB@@YAXAEBV?$PxVec3T@M@physx@@0AEBVBV4Tree@Gu@2@PEIBV?$PxMat44T@M@2@MMIP6A?AW4HitCode@42@PEAX000IMMM@Z3@Z 00000001800f8060 f   GuBV4_Raycast.obj
 0001:000f74a0       ?BV4_RaycastSingle@@YAHAEBV?$PxVec3T@M@physx@@0AEBVBV4Tree@Gu@2@PEIBV?$PxMat44T@M@2@PEIAUPxGeomRaycastHit@2@MMIV?$PxFlags@W4Enum@PxHitFlag@physx@@G@2@@Z 00000001800f84a0 f   GuBV4_Raycast.obj
 0001:000f99d0       ?BV4_OverlapSphereAll@@YAIAEBVSphere@Gu@physx@@AEBVBV4Tree@23@PEIBV?$PxMat44T@M@3@PEAIIAEA_N@Z 00000001800fa9d0 f   GuBV4_SphereOverlap.obj
 0001:000f9cf0       ?BV4_OverlapSphereAny@@YAHAEBVSphere@Gu@physx@@AEBVBV4Tree@23@PEIBV?$PxMat44T@M@3@@Z 00000001800facf0 f   GuBV4_SphereOverlap.obj
 0001:000f9fd0       ?BV4_PointDistance@@YAXAEBV?$PxVec3T@M@physx@@AEBVBV4Tree@Gu@2@MAEAIAEAMAEAV12@@Z 00000001800fafd0 f   GuBV4_SphereOverlap.obj
 0001:00100980       ?BV4_GenericSweepCB_Old@@YAXAEBV?$PxVec3T@M@physx@@00MAEBVBV4Tree@Gu@2@PEIBV?$PxMat44T@M@2@P6A_NPEAX000IAEAM@Z3@Z 0000000180101980 f   GuBV4_SphereSweep.obj
 0001:00100d80       ?BV4_SphereSweepSingle@@YAHAEBVSphere@Gu@physx@@AEBV?$PxVec3T@M@3@MAEBVBV4Tree@23@PEIBV?$PxMat44T@M@3@PEIAVSweepHit@23@I@Z 0000000180101d80 f   GuBV4_SphereSweep.obj
 0001:00102080       ?computeSweepData@physx@@YAMAEBVPxTriangleMeshGeometry@1@AEAV?$PxVec3T@M@1@11M@Z 0000000180103080 f i GuMidphaseBV4.obj
 0001:001034a0       ?intersectBoxVsMesh_BV4@Gu@physx@@YA_NAEBVBox@12@AEBVTriangleMesh@12@AEBV?$PxTransformT@M@2@AEBVPxMeshScale@2@PEAULimitedResults@12@@Z 00000001801044a0 f   GuMidphaseBV4.obj
 0001:00103fa0       ?intersectCapsuleVsMesh_BV4@Gu@physx@@YA_NAEBVCapsule@12@AEBVTriangleMesh@12@AEBV?$PxTransformT@M@2@AEBVPxMeshScale@2@PEAULimitedResults@12@@Z 0000000180104fa0 f   GuMidphaseBV4.obj
 0001:001047e0       ?intersectMeshVsMesh_BV4@Gu@physx@@YA_NAEAV?$PxReportCallback@UPxGeomIndexPair@physx@@@2@AEBVTriangleMesh@12@AEBV?$PxTransformT@M@2@AEBVPxMeshScale@2@123V?$PxFlags@W4Enum@PxMeshMeshQueryFlag@physx@@I@2@M@Z 00000001801057e0 f   GuMidphaseBV4.obj
 0001:001050e0       ?intersectOBB_BV4@Gu@physx@@YAXPEBVTetrahedronMesh@12@AEBVBox@12@AEAU?$TetMeshHitCallback@UPxGeomRaycastHit@physx@@@12@@Z 00000001801060e0 f   GuMidphaseBV4.obj
 0001:00105100       ?intersectOBB_BV4@Gu@physx@@YAXPEBVTriangleMesh@12@AEBVBox@12@AEAU?$MeshHitCallback@UPxGeomRaycastHit@physx@@@12@_N3@Z 0000000180106100 f   GuMidphaseBV4.obj
 0001:00105120       ?intersectSphereVsMesh_BV4@Gu@physx@@YA_NAEBVSphere@12@AEBVTriangleMesh@12@AEBV?$PxTransformT@M@2@AEBVPxMeshScale@2@PEAULimitedResults@12@@Z 0000000180106120 f   GuMidphaseBV4.obj
 0001:00105850       ?pointMeshDistance_BV4@Gu@physx@@YAXPEBVTriangleMesh@12@AEBVPxTriangleMeshGeometry@2@AEBV?$PxTransformT@M@2@AEBV?$PxVec3T@M@2@MAEAIAEAMAEAV62@@Z 0000000180106850 f   GuMidphaseBV4.obj
 0001:00105f00       ?raycast_triangleMesh_BV4@Gu@physx@@YAIPEBVTriangleMesh@12@AEBVPxTriangleMeshGeometry@2@AEBV?$PxTransformT@M@2@AEBV?$PxVec3T@M@2@3MV?$PxFlags@W4Enum@PxHitFlag@physx@@G@2@IPEIAUPxGeomRaycastHit@2@I@Z 0000000180106f00 f   GuMidphaseBV4.obj
 0001:00106d10       ?sweepBox_MeshGeom_BV4@Gu@physx@@YA_NPEBVTriangleMesh@12@AEBVPxTriangleMeshGeometry@2@AEBV?$PxTransformT@M@2@AEBVBox@12@AEBV?$PxVec3T@M@2@MAEAUPxGeomSweepHit@2@V?$PxFlags@W4Enum@PxHitFlag@physx@@G@2@M@Z 0000000180107d10 f   GuMidphaseBV4.obj
 0001:00108370       ?sweepCapsule_MeshGeom_BV4@Gu@physx@@YA_NPEBVTriangleMesh@12@AEBVPxTriangleMeshGeometry@2@AEBV?$PxTransformT@M@2@AEBVCapsule@12@AEBV?$PxVec3T@M@2@MAEAUPxGeomSweepHit@2@V?$PxFlags@W4Enum@PxHitFlag@physx@@G@2@M@Z 0000000180109370 f   GuMidphaseBV4.obj
 0001:00108e80       ?sweepConvex_MeshGeom_BV4@Gu@physx@@YAXPEBVTriangleMesh@12@AEBVBox@12@AEBV?$PxVec3T@M@2@MAEAUSweepConvexMeshHitCallback@12@_N@Z 0000000180109e80 f   GuMidphaseBV4.obj
 0001:00108ec0       ?transform@PxMeshScale@physx@@QEBA?AV?$PxVec3T@M@2@AEBV32@@Z 0000000180109ec0 f i GuMidphaseBV4.obj
 0001:00109100       ?findOverlapHeightField@PxMeshQuery@physx@@SAIAEBVPxGeometry@2@AEBV?$PxTransformT@M@2@AEBVPxHeightFieldGeometry@2@1PEAIIIAEA_NV?$PxFlags@W4Enum@PxGeometryQueryFlag@physx@@I@2@@Z 000000018010a100 f   GuMeshQuery.obj
 0001:00109870       ?findOverlapTriangleMesh@PxMeshQuery@physx@@SAIAEBVPxGeometry@2@AEBV?$PxTransformT@M@2@AEBVPxTriangleMeshGeometry@2@1PEAIIIAEA_NV?$PxFlags@W4Enum@PxGeometryQueryFlag@physx@@I@2@@Z 000000018010a870 f   GuMeshQuery.obj
 0001:00109b90       ?findOverlapTriangleMesh@PxMeshQuery@physx@@SA_NAEAV?$PxReportCallback@UPxGeomIndexPair@physx@@@2@AEBVPxTriangleMeshGeometry@2@AEBV?$PxTransformT@M@2@12V?$PxFlags@W4Enum@PxGeometryQueryFlag@physx@@I@2@V?$PxFlags@W4Enum@PxMeshMeshQueryFlag@physx@@I@2@M@Z 000000018010ab90 f   GuMeshQuery.obj
 0001:00109cc0       ?getTriangle@PxMeshQuery@physx@@SAXAEBVPxHeightFieldGeometry@2@AEBV?$PxTransformT@M@2@IAEAVPxTriangle@2@PEAI3@Z 000000018010acc0 f   GuMeshQuery.obj
 0001:00109d40       ?getTriangle@PxMeshQuery@physx@@SAXAEBVPxTriangleMeshGeometry@2@AEBV?$PxTransformT@M@2@IAEAVPxTriangle@2@PEAI3@Z 000000018010ad40 f   GuMeshQuery.obj
 0001:0010a240       ?sweep@PxMeshQuery@physx@@SA_NAEBV?$PxVec3T@M@2@MAEBVPxGeometry@2@AEBV?$PxTransformT@M@2@IPEBVPxTriangle@2@AEAUPxGeomSweepHit@2@V?$PxFlags@W4Enum@PxHitFlag@physx@@G@2@PEBIM_NV?$PxFlags@W4Enum@PxGeometryQueryFlag@physx@@I@2@@Z 000000018010b240 f   GuMeshQuery.obj
 0001:0010a4c0       ??$collide@$00$00@MeshRayCollider@@SAXAEBV?$PxVec3T@M@physx@@0M_NPEBVRTreeTriangleMesh@Gu@2@AEAU?$MeshHitCallback@UPxGeomRaycastHit@physx@@@42@PEBV12@@Z 000000018010b4c0 f i GuMidphaseRTree.obj
 0001:0010a830       ??$collide@$00$0A@@MeshRayCollider@@SAXAEBV?$PxVec3T@M@physx@@0M_NPEBVRTreeTriangleMesh@Gu@2@AEAU?$MeshHitCallback@UPxGeomRaycastHit@physx@@@42@PEBV12@@Z 000000018010b830 f i GuMidphaseRTree.obj
 0001:0010aa70       ??$collide@$0A@$00@MeshRayCollider@@SAXAEBV?$PxVec3T@M@physx@@0M_NPEBVRTreeTriangleMesh@Gu@2@AEAU?$MeshHitCallback@UPxGeomRaycastHit@physx@@@42@PEBV12@@Z 000000018010ba70 f i GuMidphaseRTree.obj
 0001:0010cdd0       ??0?$RayRTreeCallback@$00$0A@@@QEAA@MAEAU?$MeshHitCallback@UPxGeomRaycastHit@physx@@@Gu@physx@@HPEBXPEBV?$PxVec3T@M@3@AEBV43@3M_N2@Z 000000018010ddd0 f i GuMidphaseRTree.obj
 0001:0010cef0       ??1?$RayRTreeCallback@$00$00@@UEAA@XZ 000000018010def0 f i GuMidphaseRTree.obj
 0001:0010cf80       ??1?$RayRTreeCallback@$00$0A@@@UEAA@XZ 000000018010df80 f i GuMidphaseRTree.obj
 0001:0010cf80       ??1?$RayRTreeCallback@$0A@$0A@@@UEAA@XZ 000000018010df80 f i GuMidphaseRTree.obj
 0001:0010d010       ??1?$RayRTreeCallback@$0A@$00@@UEAA@XZ 000000018010e010 f i GuMidphaseRTree.obj
 0001:0010d098       ??_E?$RayRTreeCallback@$00$00@@W7EAAPEAXI@Z 000000018010e098 f i GuMidphaseRTree.obj
 0001:0010d0a4       ??_E?$RayRTreeCallback@$00$0A@@@W7EAAPEAXI@Z 000000018010e0a4 f i GuMidphaseRTree.obj
 0001:0010d0a4       ??_E?$RayRTreeCallback@$0A@$0A@@@W7EAAPEAXI@Z 000000018010e0a4 f i GuMidphaseRTree.obj
 0001:0010d0b0       ??_E?$RayRTreeCallback@$0A@$00@@W7EAAPEAXI@Z 000000018010e0b0 f i GuMidphaseRTree.obj
 0001:0010d120       ??_E?$RayRTreeCallback@$00$00@@UEAAPEAXI@Z 000000018010e120 f i GuMidphaseRTree.obj
 0001:0010d120       ??_G?$RayRTreeCallback@$00$00@@UEAAPEAXI@Z 000000018010e120 f i GuMidphaseRTree.obj
 0001:0010d160       ??_E?$RayRTreeCallback@$00$0A@@@UEAAPEAXI@Z 000000018010e160 f i GuMidphaseRTree.obj
 0001:0010d160       ??_E?$RayRTreeCallback@$0A@$0A@@@UEAAPEAXI@Z 000000018010e160 f i GuMidphaseRTree.obj
 0001:0010d160       ??_G?$RayRTreeCallback@$00$0A@@@UEAAPEAXI@Z 000000018010e160 f i GuMidphaseRTree.obj
 0001:0010d160       ??_G?$RayRTreeCallback@$0A@$0A@@@UEAAPEAXI@Z 000000018010e160 f i GuMidphaseRTree.obj
 0001:0010d1a0       ??_E?$RayRTreeCallback@$0A@$00@@UEAAPEAXI@Z 000000018010e1a0 f i GuMidphaseRTree.obj
 0001:0010d1a0       ??_G?$RayRTreeCallback@$0A@$00@@UEAAPEAXI@Z 000000018010e1a0 f i GuMidphaseRTree.obj
 0001:0010d1e0       ??_ECallback@RTree@Gu@physx@@UEAAPEAXI@Z 000000018010e1e0 f i GuMidphaseRTree.obj
 0001:0010d1e0       ??_GCallback@RTree@Gu@physx@@UEAAPEAXI@Z 000000018010e1e0 f i GuMidphaseRTree.obj
 0001:0010d210       ??_ERayMeshColliderCallback@@UEAAPEAXI@Z 000000018010e210 f i GuMidphaseRTree.obj
 0001:0010d210       ??_ESweepCapsuleMeshHitCallback@Gu@physx@@UEAAPEAXI@Z 000000018010e210 f i GuSweepsMesh.obj
 0001:0010d210       ??_GRayMeshColliderCallback@@UEAAPEAXI@Z 000000018010e210 f i GuMidphaseRTree.obj
 0001:0010d210       ??_GSweepCapsuleMeshHitCallback@Gu@physx@@UEAAPEAXI@Z 000000018010e210 f i GuSweepsMesh.obj
 0001:0010d240       ?collideOBB@MeshRayCollider@@SAXAEBVBox@Gu@physx@@_NPEBVRTreeTriangleMesh@34@AEAU?$MeshHitCallback@UPxGeomRaycastHit@physx@@@34@1@Z 000000018010e240 f   GuMidphaseRTree.obj
 0001:0010d710       ?intersectBoxVsMesh_RTREE@Gu@physx@@YA_NAEBVBox@12@AEBVTriangleMesh@12@AEBV?$PxTransformT@M@2@AEBVPxMeshScale@2@PEAULimitedResults@12@@Z 000000018010e710 f   GuMidphaseRTree.obj
 0001:0010d780       ?intersectCapsuleVsMesh_RTREE@Gu@physx@@YA_NAEBVCapsule@12@AEBVTriangleMesh@12@AEBV?$PxTransformT@M@2@AEBVPxMeshScale@2@PEAULimitedResults@12@@Z 000000018010e780 f   GuMidphaseRTree.obj
 0001:0010d800       ?intersectOBB_RTREE@Gu@physx@@YAXPEBVTriangleMesh@12@AEBVBox@12@AEAU?$MeshHitCallback@UPxGeomRaycastHit@physx@@@12@_N3@Z 000000018010e800 f   GuMidphaseRTree.obj
 0001:0010d830       ?intersectSphereVsMesh_RTREE@Gu@physx@@YA_NAEBVSphere@12@AEBVTriangleMesh@12@AEBV?$PxTransformT@M@2@AEBVPxMeshScale@2@PEAULimitedResults@12@@Z 000000018010e830 f   GuMidphaseRTree.obj
 0001:0010d860       ?pointMeshDistance_RTREE@Gu@physx@@YAXPEBVTriangleMesh@12@AEBVPxTriangleMeshGeometry@2@AEBV?$PxTransformT@M@2@AEBV?$PxVec3T@M@2@MAEAIAEAMAEAV62@@Z 000000018010e860 f   GuMidphaseRTree.obj
 0001:0010e650       ?processHit@RayMeshColliderCallback@@UEAA_NAEBUPxGeomRaycastHit@physx@@AEBV?$PxVec3T@M@3@11AEAMPEBI@Z 000000018010f650 f i GuMidphaseRTree.obj
 0001:0010edf0       ?processResults@?$RayRTreeCallback@$00$00@@UEAA_NIPEAI@Z 000000018010fdf0 f i GuMidphaseRTree.obj
 0001:0010f170       ?processResults@?$RayRTreeCallback@$00$00@@UEAA_NIPEAIAEAM@Z 0000000180110170 f i GuMidphaseRTree.obj
 0001:0010f510       ?processResults@?$RayRTreeCallback@$00$0A@@@UEAA_NIPEAI@Z 0000000180110510 f i GuMidphaseRTree.obj
 0001:0010f510       ?processResults@?$RayRTreeCallback@$0A@$0A@@@UEAA_NIPEAI@Z 0000000180110510 f i GuMidphaseRTree.obj
 0001:0010f770       ?processResults@?$RayRTreeCallback@$00$0A@@@UEAA_NIPEAIAEAM@Z 0000000180110770 f i GuMidphaseRTree.obj
 0001:0010f770       ?processResults@?$RayRTreeCallback@$0A@$0A@@@UEAA_NIPEAIAEAM@Z 0000000180110770 f i GuMidphaseRTree.obj
 0001:0010fa00       ?processResults@?$RayRTreeCallback@$0A@$00@@UEAA_NIPEAI@Z 0000000180110a00 f i GuMidphaseRTree.obj
 0001:00110040       ?processResults@?$RayRTreeCallback@$0A@$00@@UEAA_NIPEAIAEAM@Z 0000000180111040 f i GuMidphaseRTree.obj
 0001:00110690       ?raycast_triangleMesh_RTREE@Gu@physx@@YAIPEBVTriangleMesh@12@AEBVPxTriangleMeshGeometry@2@AEBV?$PxTransformT@M@2@AEBV?$PxVec3T@M@2@3MV?$PxFlags@W4Enum@PxHitFlag@physx@@G@2@IPEIAUPxGeomRaycastHit@2@I@Z 0000000180111690 f   GuMidphaseRTree.obj
 0001:00110e10       ?sweepBox_MeshGeom_RTREE@Gu@physx@@YA_NPEBVTriangleMesh@12@AEBVPxTriangleMeshGeometry@2@AEBV?$PxTransformT@M@2@AEBVBox@12@AEBV?$PxVec3T@M@2@MAEAUPxGeomSweepHit@2@V?$PxFlags@W4Enum@PxHitFlag@physx@@G@2@M@Z 0000000180111e10 f   GuMidphaseRTree.obj
 0001:001122a0       ?sweepCapsule_MeshGeom_RTREE@Gu@physx@@YA_NPEBVTriangleMesh@12@AEBVPxTriangleMeshGeometry@2@AEBV?$PxTransformT@M@2@AEBVCapsule@12@AEBV?$PxVec3T@M@2@MAEAUPxGeomSweepHit@2@V?$PxFlags@W4Enum@PxHitFlag@physx@@G@2@M@Z 00000001801132a0 f   GuMidphaseRTree.obj
 0001:00112a50       ?sweepConvex_MeshGeom_RTREE@Gu@physx@@YAXPEBVTriangleMesh@12@AEBVBox@12@AEBV?$PxVec3T@M@2@MAEAUSweepConvexMeshHitCallback@12@_N@Z 0000000180113a50 f   GuMidphaseRTree.obj
 0001:00113400       ??_E?$PxReportCallback@UPxGeomIndexPair@physx@@@physx@@UEAAPEAXI@Z 0000000180114400 f i GuOverlapTestsMesh.obj
 0001:00113400       ??_G?$PxReportCallback@UPxGeomIndexPair@physx@@@physx@@UEAAPEAXI@Z 0000000180114400 f i GuOverlapTestsMesh.obj
 0001:00113490       ?GeomOverlapCallback_BoxMesh@@YA_NAEBVPxGeometry@physx@@AEBV?$PxTransformT@M@2@01PEAUTriggerCache@Gu@2@PEAUPxQueryThreadContext@2@@Z 0000000180114490 f   GuOverlapTestsMesh.obj
 0001:001135a0       ?GeomOverlapCallback_CapsuleMesh@@YA_NAEBVPxGeometry@physx@@AEBV?$PxTransformT@M@2@01PEAUTriggerCache@Gu@2@PEAUPxQueryThreadContext@2@@Z 00000001801145a0 f   GuOverlapTestsMesh.obj
 0001:001136b0       ?GeomOverlapCallback_ConvexMesh@@YA_NAEBVPxGeometry@physx@@AEBV?$PxTransformT@M@2@01PEAUTriggerCache@Gu@2@PEAUPxQueryThreadContext@2@@Z 00000001801146b0 f   GuOverlapTestsMesh.obj
 0001:00113bb0       ?GeomOverlapCallback_MeshMesh@@YA_NAEBVPxGeometry@physx@@AEBV?$PxTransformT@M@2@01PEAUTriggerCache@Gu@2@PEAUPxQueryThreadContext@2@@Z 0000000180114bb0 f   GuOverlapTestsMesh.obj
 0001:00113c80       ?GeomOverlapCallback_SphereMesh@@YA_NAEBVPxGeometry@physx@@AEBV?$PxTransformT@M@2@01PEAUTriggerCache@Gu@2@PEAUPxQueryThreadContext@2@@Z 0000000180114c80 f   GuOverlapTestsMesh.obj
 0001:00114070       ??0RTree@Gu@physx@@QEAA@W4PxEMPTY@2@@Z 0000000180115070 f   GuRTree.obj
 0001:00114080       ?exportExtraData@RTree@Gu@physx@@QEAAXAEAVPxSerializationContext@3@@Z 0000000180115080 f   GuRTree.obj
 0001:001140c0       ?importExtraData@RTree@Gu@physx@@QEAAXAEAVPxDeserializationContext@3@@Z 00000001801150c0 f   GuRTree.obj
 0001:001140f0       ?load@RTree@Gu@physx@@QEAA_NAEAVPxInputStream@3@I_N@Z 00000001801150f0 f   GuRTree.obj
 0001:001143f0       ?refitAllStaticTree@RTree@Gu@physx@@QEAAXAEAUCallbackRefit@123@PEAVPxBounds3@3@@Z 00000001801153f0 f   GuRTree.obj
 0001:00114940       ?validate@RTree@Gu@physx@@QEAAXPEAUCallbackRefit@123@@Z 0000000180115940 f   GuRTree.obj
 0001:00114b80       ?validateRecursive@RTree@Gu@physx@@IEAAXIURTreeNodeQ@23@PEAURTreePage@23@PEAUCallbackRefit@123@@Z 0000000180115b80 f   GuRTree.obj
 0001:00114d40       ??$traverseRay@$00@RTree@Gu@physx@@QEBAXAEBV?$PxVec3T@M@2@0IPEAIPEAUCallbackRaycast@012@PEBV32@M@Z 0000000180115d40 f i GuRTreeQueries.obj
 0001:001150e0       ??$traverseRay@$0A@@RTree@Gu@physx@@QEBAXAEBV?$PxVec3T@M@2@0IPEAIPEAUCallbackRaycast@012@PEBV32@M@Z 00000001801160e0 f i GuRTreeQueries.obj
 0001:00115420       ?traverseAABB@RTree@Gu@physx@@QEBAXAEBV?$PxVec3T@M@3@0IPEAIPEAUCallback@123@@Z 0000000180116420 f   GuRTreeQueries.obj
 0001:001155e0       ?traverseOBB@RTree@Gu@physx@@QEBAXAEBVBox@23@IPEAIPEAUCallback@123@@Z 00000001801165e0 f   GuRTreeQueries.obj
 0001:00115eb0       ??0SweepBoxMeshHitCallback@Gu@physx@@QEAA@W4Enum@CallbackMode@12@AEBVPxMat34Padded@2@M_NAEBVBox@12@AEBV?$PxVec3T@M@2@44AEBV?$PxFlags@W4Enum@PxHitFlag@physx@@G@2@M2M@Z 0000000180116eb0 f   GuSweepsMesh.obj
 0001:00115fc0       ??0SweepCapsuleMeshHitCallback@Gu@physx@@QEAA@AEAUPxGeomSweepHit@2@AEBV?$PxMat34T@M@2@M_NAEBVCapsule@12@AEBV?$PxVec3T@M@2@AEBV?$PxFlags@W4Enum@PxHitFlag@physx@@G@2@2M@Z 0000000180116fc0 f   GuSweepsMesh.obj
 0001:00116090       ??0SweepConvexMeshHitCallback@Gu@physx@@QEAA@AEBUConvexHullData@12@AEBVPxMeshScale@2@AEBVFastVertex2ShapeScaling@Cm@2@AEBV?$PxTransformT@M@2@3AEBV?$PxVec3T@M@2@MV?$PxFlags@W4Enum@PxHitFlag@physx@@G@2@_NM6M@Z 0000000180117090 f   GuSweepsMesh.obj
 0001:001169f0       ??_ESweepBoxMeshHitCallback@Gu@physx@@UEAAPEAXI@Z 00000001801179f0 f i GuSweepsMesh.obj
 0001:001169f0       ??_GSweepBoxMeshHitCallback@Gu@physx@@UEAAPEAXI@Z 00000001801179f0 f i GuSweepsMesh.obj
 0001:00116a20       ??_ESweepConvexMeshHitCallback@Gu@physx@@UEAAPEAXI@Z 0000000180117a20 f i GuSweepsMesh.obj
 0001:00116a20       ??_GSweepConvexMeshHitCallback@Gu@physx@@UEAAPEAXI@Z 0000000180117a20 f i GuSweepsMesh.obj
 0001:00116a50       ??_ESweepShapeMeshHitCallback@Gu@physx@@UEAAPEAXI@Z 0000000180117a50 f i GuSweepsMesh.obj
 0001:00116a50       ??_GSweepShapeMeshHitCallback@Gu@physx@@UEAAPEAXI@Z 0000000180117a50 f i GuSweepsMesh.obj
 0001:00116a80       ?finalizeHit@SweepBoxMeshHitCallback@Gu@physx@@QEBA_NAEAUPxGeomSweepHit@3@AEBVPxTriangleMeshGeometry@3@AEBV?$PxTransformT@M@3@2AEBV?$PxVec3T@M@3@_N4@Z 0000000180117a80 f   GuSweepsMesh.obj
 0001:00117140       ?finalizeHit@SweepCapsuleMeshHitCallback@Gu@physx@@QEBA_NAEAUPxGeomSweepHit@3@AEBVCapsule@23@AEBVPxTriangleMeshGeometry@3@AEBV?$PxTransformT@M@3@_N@Z 0000000180118140 f   GuSweepsMesh.obj
 0001:001172f0       ?finalizeHit@SweepConvexMeshHitCallback@Gu@physx@@QEAA_NAEAUPxGeomSweepHit@3@AEBVPxTriangleMeshGeometry@3@AEBV?$PxTransformT@M@3@AEBVPxConvexMeshGeometry@3@2AEBV?$PxVec3T@M@3@M_N555@Z 00000001801182f0 f   GuSweepsMesh.obj
 0001:001177c0       ?processHit@SweepBoxMeshHitCallback@Gu@physx@@UEAA_NAEBUPxGeomRaycastHit@3@AEBV?$PxVec3T@M@3@11AEAMPEBI@Z 00000001801187c0 f   GuSweepsMesh.obj
 0001:00117fa0       ?processHit@SweepCapsuleMeshHitCallback@Gu@physx@@UEAA_NAEBUPxGeomRaycastHit@3@AEBV?$PxVec3T@M@3@11AEAMPEBI@Z 0000000180118fa0 f   GuSweepsMesh.obj
 0001:00118500       ?processHit@SweepConvexMeshHitCallback@Gu@physx@@UEAA_NAEBUPxGeomRaycastHit@3@AEBV?$PxVec3T@M@3@11AEAMPEBI@Z 0000000180119500 f   GuSweepsMesh.obj
 0001:00118c50       ?sweepBox_MeshGeom@@YA_NAEBVPxGeometry@physx@@AEBV?$PxTransformT@M@2@AEBVPxBoxGeometry@2@1AEBVBox@Gu@2@AEBV?$PxVec3T@M@2@MAEAUPxGeomSweepHit@2@V?$PxFlags@W4Enum@PxHitFlag@physx@@G@2@MPEAUPxQueryThreadContext@2@@Z 0000000180119c50 f   GuSweepsMesh.obj
 0001:00118ce0       ?sweepCapsule_MeshGeom@@YA_NAEBVPxGeometry@physx@@AEBV?$PxTransformT@M@2@AEBVPxCapsuleGeometry@2@1AEBVCapsule@Gu@2@AEBV?$PxVec3T@M@2@MAEAUPxGeomSweepHit@2@V?$PxFlags@W4Enum@PxHitFlag@physx@@G@2@MPEAUPxQueryThreadContext@2@@Z 0000000180119ce0 f   GuSweepsMesh.obj
 0001:00118d70       ?sweepConvex_MeshGeom@@YA_NAEBVPxGeometry@physx@@AEBV?$PxTransformT@M@2@AEBVPxConvexMeshGeometry@2@1AEBV?$PxVec3T@M@2@MAEAUPxGeomSweepHit@2@V?$PxFlags@W4Enum@PxHitFlag@physx@@G@2@MPEAUPxQueryThreadContext@2@@Z 0000000180119d70 f   GuSweepsMesh.obj
 0001:001198b0       ??0TriangleMesh@Gu@physx@@QEAA@AEBUPxTriangleMeshInternalData@2@@Z 000000018011a8b0 f   GuTriangleMesh.obj
 0001:00119990       ??0TriangleMesh@Gu@physx@@QEAA@PEAVMeshFactory@12@AEAVTriangleMeshData@12@@Z 000000018011a990 f   GuTriangleMesh.obj
 0001:00119d10       ??1TriangleMesh@Gu@physx@@UEAA@XZ 000000018011ad10 f   GuTriangleMesh.obj
 0001:00119f80       ??_ETriangleMesh@Gu@physx@@UEAAPEAXI@Z 000000018011af80 f i GuTriangleMesh.obj
 0001:00119f80       ??_GTriangleMesh@Gu@physx@@UEAAPEAXI@Z 000000018011af80 f i GuTriangleMesh.obj
 0001:00119ff0       ?exportExtraData@TriangleMesh@Gu@physx@@UEAAXAEAVPxSerializationContext@3@@Z 000000018011aff0 f   GuTriangleMesh.obj
 0001:0011a1c0       ?getLocalBounds@TriangleMesh@Gu@physx@@UEBA?AVPxBounds3@3@XZ 000000018011b1c0 f i GuTriangleMesh.obj
 0001:0011a250       ?getMassInformation@TriangleMesh@Gu@physx@@UEBAXAEAMAEAV?$PxMat33T@M@3@AEAV?$PxVec3T@M@3@@Z 000000018011b250 f i GuTriangleMesh.obj
 0001:0011a2d0       ?getNbTriangles@TriangleMesh@Gu@physx@@UEBAIXZ 000000018011b2d0 f i GuTriangleMesh.obj
 0001:0011a2e0       ?getPreferSDFProjection@TriangleMesh@Gu@physx@@UEBA_NXZ 000000018011b2e0 f i GuTriangleMesh.obj
 0001:0011a2f0       ?getSDF@TriangleMesh@Gu@physx@@UEBAPEBMXZ 000000018011b2f0 f i GuTriangleMesh.obj
 0001:0011a300       ?getSDFDimensions@TriangleMesh@Gu@physx@@UEBAXAEAI00@Z 000000018011b300 f i GuTriangleMesh.obj
 0001:0011a330       ?getTriangleMaterialIndex@TriangleMesh@Gu@physx@@UEBAGI@Z 000000018011b330 f i GuTriangleMesh.obj
 0001:0011a350       ?getTriangleMeshFlags@TriangleMesh@Gu@physx@@UEBA?AV?$PxFlags@W4Enum@PxTriangleMeshFlag@physx@@E@3@XZ 000000018011b350 f i GuTriangleMesh.obj
 0001:0011a360       ?getTrianglesRemap@TriangleMesh@Gu@physx@@UEBAPEBIXZ 000000018011b360 f i GuTriangleMesh.obj
 0001:0011a370       ?getVerticesForModification@TriangleMesh@Gu@physx@@UEAAPEAV?$PxVec3T@M@3@XZ 000000018011b370 f   GuTriangleMesh.obj
 0001:0011a3b0       ?importExtraData@TriangleMesh@Gu@physx@@QEAAXAEAVPxDeserializationContext@3@@Z 000000018011b3b0 f   GuTriangleMesh.obj
 0001:0011a540       ?isKindOf@PxTriangleMesh@physx@@MEBA_NPEBD@Z 000000018011b540 f i GuTriangleMesh.obj
 0001:0011a5d0       ?onRefCountZero@TriangleMesh@Gu@physx@@UEAAXXZ 000000018011b5d0 f   GuTriangleMesh.obj
 0001:0011a6a0       ?refitBVH@TriangleMesh@Gu@physx@@UEAA?AVPxBounds3@3@XZ 000000018011b6a0 f   GuTriangleMesh.obj
 0001:0011a770       ?requestEdgeList@TriangleMesh@Gu@physx@@QEBAPEBVEdgeList@23@XZ 000000018011b770 f   GuTriangleMesh.obj
 0001:0011a850       ?setAllEdgesActive@TriangleMesh@Gu@physx@@QEAAXXZ 000000018011b850 f   GuTriangleMesh.obj
 0001:0011a940       ?setPreferSDFProjection@TriangleMesh@Gu@physx@@UEAAX_N@Z 000000018011b940 f i GuTriangleMesh.obj
 0001:0011a970       ??0BV4TriangleMesh@Gu@physx@@QEAA@AEBUPxTriangleMeshInternalData@2@@Z 000000018011b970 f   GuTriangleMeshBV4.obj
 0001:0011aad0       ??0BV4TriangleMesh@Gu@physx@@QEAA@PEAVMeshFactory@12@AEAVTriangleMeshData@12@@Z 000000018011bad0 f   GuTriangleMeshBV4.obj
 0001:0011ab60       ??_EBV4TriangleMesh@Gu@physx@@UEAAPEAXI@Z 000000018011bb60 f i GuTriangleMeshBV4.obj
 0001:0011ab60       ??_GBV4TriangleMesh@Gu@physx@@UEAAPEAXI@Z 000000018011bb60 f i GuTriangleMeshBV4.obj
 0001:0011abf0       ?createObject@BV4TriangleMesh@Gu@physx@@SAPEAVTriangleMesh@23@AEAPEAEAEAVPxDeserializationContext@3@@Z 000000018011bbf0 f   GuTriangleMeshBV4.obj
 0001:0011acd0       ?exportExtraData@BV4TriangleMesh@Gu@physx@@UEAAXAEAVPxSerializationContext@3@@Z 000000018011bcd0 f   GuTriangleMeshBV4.obj
 0001:0011ad10       ?getConcreteTypeName@BV4TriangleMesh@Gu@physx@@UEBAPEBDXZ 000000018011bd10 f i GuTriangleMeshBV4.obj
 0001:0011ad20       ?getInternalData@BV4TriangleMesh@Gu@physx@@UEBA_NAEAUPxTriangleMeshInternalData@3@_N@Z 000000018011bd20 f   GuTriangleMeshBV4.obj
 0001:0011ae10       ?getMidphaseID@BV4TriangleMesh@Gu@physx@@UEBA?AW4Enum@PxMeshMidPhase@3@XZ 000000018011be10 f i GuTriangleMeshBV4.obj
 0001:0011ae10       ?getMidphaseID@BV4TriangleMeshBuilder@physx@@UEBA?AW4Enum@PxMeshMidPhase@2@XZ 000000018011be10 f i GuCookingTriangleMesh.obj
 0001:0011ae10       ?length@charNode@@UEBAHXZ  000000018011be10 f i libvcruntime:undname.obj
 0001:0011ae10       ?raw_length@charNode@@UEBAHXZ 000000018011be10 f i libvcruntime:undname.obj
 0001:0011ae10       DllMain                    000000018011be10 f i LIBCMT:dll_dllmain_stub.obj
 0001:0011ae10       _get_startup_argv_mode     000000018011be10 f i LIBCMT:argv_mode.obj
 0001:0011ae20       ?getVerticesForModification@BV4TriangleMesh@Gu@physx@@UEAAPEAV?$PxVec3T@M@3@XZ 000000018011be20 f   GuTriangleMeshBV4.obj
 0001:0011ae20       ?getVerticesForModification@RTreeTriangleMesh@Gu@physx@@UEAAPEAV?$PxVec3T@M@3@XZ 000000018011be20 f   GuTriangleMeshRTree.obj
 0001:0011ae30       ?refitBVH@BV4TriangleMesh@Gu@physx@@UEAA?AVPxBounds3@3@XZ 000000018011be30 f   GuTriangleMeshBV4.obj
 0001:0011afa0       PxGetTriangleMeshInternalData 000000018011bfa0 f   GuTriangleMeshBV4.obj
 0001:0011afc0       ??0RTreeTriangleMesh@Gu@physx@@QEAA@PEAVMeshFactory@12@AEAVTriangleMeshData@12@@Z 000000018011bfc0 f   GuTriangleMeshRTree.obj
 0001:0011b130       ??_E?$RefitCallback@G@physx@@UEAAPEAXI@Z 000000018011c130 f i GuTriangleMeshRTree.obj
 0001:0011b130       ??_E?$RefitCallback@I@physx@@UEAAPEAXI@Z 000000018011c130 f i GuTriangleMeshRTree.obj
 0001:0011b130       ??_G?$RefitCallback@G@physx@@UEAAPEAXI@Z 000000018011c130 f i GuTriangleMeshRTree.obj
 0001:0011b130       ??_G?$RefitCallback@I@physx@@UEAAPEAXI@Z 000000018011c130 f i GuTriangleMeshRTree.obj
 0001:0011b160       ??_ERTreeTriangleMesh@Gu@physx@@UEAAPEAXI@Z 000000018011c160 f i GuTriangleMeshRTree.obj
 0001:0011b160       ??_GRTreeTriangleMesh@Gu@physx@@UEAAPEAXI@Z 000000018011c160 f i GuTriangleMeshRTree.obj
 0001:0011b210       ?createObject@RTreeTriangleMesh@Gu@physx@@SAPEAVTriangleMesh@23@AEAPEAEAEAVPxDeserializationContext@3@@Z 000000018011c210 f   GuTriangleMeshRTree.obj
 0001:0011b2a0       ?exportExtraData@RTreeTriangleMesh@Gu@physx@@UEAAXAEAVPxSerializationContext@3@@Z 000000018011c2a0 f   GuTriangleMeshRTree.obj
 0001:0011b2e0       ?getConcreteTypeName@RTreeTriangleMesh@Gu@physx@@UEBAPEBDXZ 000000018011c2e0 f i GuTriangleMeshRTree.obj
 0001:0011b2f0       ?recomputeBounds@?$RefitCallback@G@physx@@UEAAXIAEAT__m128@@0@Z 000000018011c2f0 f i GuTriangleMeshRTree.obj
 0001:0011b620       ?recomputeBounds@?$RefitCallback@I@physx@@UEAAXIAEAT__m128@@0@Z 000000018011c620 f i GuTriangleMeshRTree.obj
 0001:0011b940       ?refitBVH@RTreeTriangleMesh@Gu@physx@@UEAA?AVPxBounds3@3@XZ 000000018011c940 f   GuTriangleMeshRTree.obj
 0001:0011ba60       ??0BV32Tree@Gu@physx@@QEAA@XZ 000000018011ca60 f   GuBV32.obj
 0001:0011ba90       ??1BV32Tree@Gu@physx@@QEAA@XZ 000000018011ca90 f   GuBV32.obj
 0001:0011baa0       ?createSOAformatNode@BV32Tree@Gu@physx@@QEAAXAEAUBV32DataPacked@23@AEBUBV32Data@23@IAEAI2@Z 000000018011caa0 f   GuBV32.obj
 0001:0011bf00       ?load@BV32Tree@Gu@physx@@QEAA_NAEAVPxInputStream@3@_N@Z 000000018011cf00 f   GuBV32.obj
 0001:0011c240       ?release@BV32Tree@Gu@physx@@QEAAXXZ 000000018011d240 f   GuBV32.obj
 0001:0011c300       ??0BV32Node@@QEAA@XZ       000000018011d300 f i GuBV32Build.obj
 0001:0011c780       ?BuildBV32Ex@Gu@physx@@YA_NAEAVBV32Tree@12@AEAVSourceMeshBase@12@MI@Z 000000018011d780 f   GuBV32Build.obj
 0001:0011d770       ??0BVTetrahedronMesh@Gu@physx@@QEAA@AEAVTetrahedronMeshData@12@AEAVSoftBodyCollisionData@12@PEAVMeshFactory@12@@Z 000000018011e770 f   GuTetrahedronMesh.obj
 0001:0011d9d0       ??0SoftBodyMesh@Gu@physx@@QEAA@PEAVMeshFactory@12@AEAVSoftBodyMeshData@12@@Z 000000018011e9d0 f   GuTetrahedronMesh.obj
 0001:0011dd70       ??0TetrahedronMesh@Gu@physx@@QEAA@PEAVMeshFactory@12@AEAVTetrahedronMeshData@12@@Z 000000018011ed70 f   GuTetrahedronMesh.obj
 0001:0011de60       ??1SoftBodyAuxData@Gu@physx@@UEAA@XZ 000000018011ee60 f   GuTetrahedronMesh.obj
 0001:0011e0e0       ??1TetrahedronMesh@Gu@physx@@UEAA@XZ 000000018011f0e0 f   GuTetrahedronMesh.obj
 0001:0011e180       ??_EBVTetrahedronMesh@Gu@physx@@UEAAPEAXI@Z 000000018011f180 f i GuTetrahedronMesh.obj
 0001:0011e180       ??_GBVTetrahedronMesh@Gu@physx@@UEAAPEAXI@Z 000000018011f180 f i GuTetrahedronMesh.obj
 0001:0011e300       ??_ESoftBodyAuxData@Gu@physx@@UEAAPEAXI@Z 000000018011f300 f i GuTetrahedronMesh.obj
 0001:0011e300       ??_GSoftBodyAuxData@Gu@physx@@UEAAPEAXI@Z 000000018011f300 f i GuTetrahedronMesh.obj
 0001:0011e370       ??_ESoftBodyMesh@Gu@physx@@UEAAPEAXI@Z 000000018011f370 f i GuTetrahedronMesh.obj
 0001:0011e370       ??_GSoftBodyMesh@Gu@physx@@UEAAPEAXI@Z 000000018011f370 f i GuTetrahedronMesh.obj
 0001:0011e440       ??_ETetrahedronMesh@Gu@physx@@UEAAPEAXI@Z 000000018011f440 f i GuTetrahedronMesh.obj
 0001:0011e440       ??_GTetrahedronMesh@Gu@physx@@UEAAPEAXI@Z 000000018011f440 f i GuTetrahedronMesh.obj
 0001:0011e4b0       ?exportExtraData@SoftBodyMesh@Gu@physx@@UEAAXAEAVPxSerializationContext@3@@Z 000000018011f4b0 f   GuTetrahedronMesh.obj
 0001:0011e5a0       ?getConcreteTypeName@SoftBodyAuxData@Gu@physx@@UEBAPEBDXZ 000000018011f5a0 f i GuTetrahedronMesh.obj
 0001:0011e5b0       ?getConcreteTypeName@SoftBodyMesh@Gu@physx@@UEBAPEBDXZ 000000018011f5b0 f i GuTetrahedronMesh.obj
 0001:0011e5c0       ?getConcreteTypeName@TetrahedronMesh@Gu@physx@@UEBAPEBDXZ 000000018011f5c0 f i GuTetrahedronMesh.obj
 0001:0011e5d0       ?getLocalBounds@TetrahedronMesh@Gu@physx@@UEBA?AVPxBounds3@3@XZ 000000018011f5d0 f i GuTetrahedronMesh.obj
 0001:0011e660       ?getNbTetrahedrons@TetrahedronMesh@Gu@physx@@UEBAIXZ 000000018011f660 f i GuTetrahedronMesh.obj
 0001:0011e670       ?getBounds@BVH@Gu@physx@@UEBAPEBVPxBounds3@3@XZ 000000018011f670 f i GuBVH.obj
 0001:0011e670       ?getTetrahedraRemap@BVTetrahedronMesh@Gu@physx@@UEBAPEBIXZ 000000018011f670 f i GuTetrahedronMesh.obj
 0001:0011e680       ?getTetrahedronMeshFlags@TetrahedronMesh@Gu@physx@@UEBA?AV?$PxFlags@W4Enum@PxTetrahedronMeshFlag@physx@@E@3@XZ 000000018011f680 f i GuTetrahedronMesh.obj
 0001:0011e690       ?getTetrahedrons@TetrahedronMesh@Gu@physx@@UEBAPEBXXZ 000000018011f690 f i GuTetrahedronMesh.obj
 0001:0011e6a0       ?isKindOf@PxSoftBodyAuxData@physx@@MEBA_NPEBD@Z 000000018011f6a0 f i GuTetrahedronMesh.obj
 0001:0011e730       ?isKindOf@PxSoftBodyMesh@physx@@MEBA_NPEBD@Z 000000018011f730 f i GuTetrahedronMesh.obj
 0001:0011e7c0       ?isKindOf@PxTetrahedronMesh@physx@@MEBA_NPEBD@Z 000000018011f7c0 f i GuTetrahedronMesh.obj
 0001:0011e850       ?onRefCountZero@SoftBodyAuxData@Gu@physx@@UEAAXXZ 000000018011f850 f i GuTetrahedronMesh.obj
 0001:0011e850       ?release@SimulationTetrahedronMeshData@Gu@physx@@UEAAXXZ 000000018011f850 f i GuCookingTetrahedronMesh.obj
 0001:0011e870       ?onRefCountZero@SoftBodyMesh@Gu@physx@@UEAAXXZ 000000018011f870 f   GuTetrahedronMesh.obj
 0001:0011e910       ?onRefCountZero@TetrahedronMesh@Gu@physx@@UEAAXXZ 000000018011f910 f   GuTetrahedronMesh.obj
 0001:0011e9b0       ?addAxisToSimMeshBarycentric@Gu@physx@@YA?AV?$PxVec4T@M@2@AEBVPxTetrahedronMesh@2@IAEBV32@AEBV?$PxVec3T@M@2@@Z 000000018011f9b0 f   GuTetrahedronMeshUtils.obj
 0001:0011ec70       ?closestPtPointTetrahedron@Gu@physx@@YA?AV?$PxVec3T@M@2@AEBV32@0000@Z 000000018011fc70 f i GuTetrahedronMeshUtils.obj
 0001:0011fdb0       ?computeBarycentric@physx@@YAXAEBV?$PxVec3T@M@1@0000AEAV?$PxVec4T@M@1@@Z 0000000180120db0 f i GuTetrahedronMeshUtils.obj
 0001:00120060       ?convertSoftbodyCollisionToSimMeshTets@Gu@physx@@YAXAEBVPxTetrahedronMesh@2@AEBVSoftBodyAuxData@12@AEBVBVTetrahedronMesh@12@IAEBV?$PxVec4T@M@2@AEAIAEAV62@@Z 0000000180121060 f   GuTetrahedronMeshUtils.obj
 0001:00122c40       ?pcmContactBoxBox@Gu@physx@@YA_NAEBVPxGeometry@2@0AEBUPxTransformPadded@2@1AEBUNarrowPhaseParams@12@AEAUCache@12@AEAVPxContactBuffer@2@PEAVPxRenderOutput@2@@Z 0000000180123c40 f   GuPCMContactBoxBox.obj
 0001:00123ae0       ??$gjkPenetration@U?$RelativeConvex@VBoxV@Gu@physx@@@Gu@physx@@U?$LocalConvex@VConvexHullNoScaleV@Gu@physx@@@23@@Gu@physx@@YA?AW4GjkStatus@01@AEBU?$RelativeConvex@VBoxV@Gu@physx@@@01@AEBU?$LocalConvex@VConvexHullNoScaleV@Gu@physx@@@01@AEBT__m128@@2_NPEIAE4AEAEAEAUGjkOutput@01@@Z 0000000180124ae0 f i GuPCMContactBoxConvex.obj
 0001:00123b50       ??$gjkPenetration@U?$RelativeConvex@VBoxV@Gu@physx@@@Gu@physx@@U?$LocalConvex@VConvexHullNoScaleV@Gu@physx@@@23@@Gu@physx@@YA?AW4GjkStatus@01@AEBU?$RelativeConvex@VBoxV@Gu@physx@@@01@AEBU?$LocalConvex@VConvexHullNoScaleV@Gu@physx@@@01@AEBT__m128@@2_NPEIAE4PEIAT5@5AEAEAEAUGjkOutput@01@@Z 0000000180124b50 f i GuPCMContactBoxConvex.obj
 0001:00125730       ?pcmContactBoxConvex@Gu@physx@@YA_NAEBVPxGeometry@2@0AEBUPxTransformPadded@2@1AEBUNarrowPhaseParams@12@AEAUCache@12@AEAVPxContactBuffer@2@PEAVPxRenderOutput@2@@Z 0000000180126730 f   GuPCMContactBoxConvex.obj
 0001:00126530       ?support@?$LocalConvex@VConvexHullNoScaleV@Gu@physx@@@Gu@physx@@UEBA?AT__m128@@AEBT4@@Z 0000000180127530 f i GuPCMContactBoxConvex.obj
 0001:00126580       ?support@?$LocalConvex@VConvexHullNoScaleV@Gu@physx@@@Gu@physx@@UEBA?AT__m128@@AEBT4@AEAH@Z 0000000180127580 f i GuPCMContactBoxConvex.obj
 0001:001265e0       ?supportPoint@?$LocalConvex@VConvexHullNoScaleV@Gu@physx@@@Gu@physx@@UEBA?AT__m128@@H@Z 00000001801275e0 f i GuPCMContactBoxConvex.obj
 0001:00126610       ?pcmContactCapsuleBox@Gu@physx@@YA_NAEBVPxGeometry@2@0AEBUPxTransformPadded@2@1AEBUNarrowPhaseParams@12@AEAUCache@12@AEAVPxContactBuffer@2@PEAVPxRenderOutput@2@@Z 0000000180127610 f   GuPCMContactCapsuleBox.obj
 0001:00127570       ?pcmContactCapsuleCapsule@Gu@physx@@YA_NAEBVPxGeometry@2@0AEBUPxTransformPadded@2@1AEBUNarrowPhaseParams@12@AEAUCache@12@AEAVPxContactBuffer@2@PEAVPxRenderOutput@2@@Z 0000000180128570 f   GuPCMContactCapsuleCapsule.obj
 0001:00127d10       ??$gjkPenetration@U?$LocalConvex@VCapsuleV@Gu@physx@@@Gu@physx@@U?$LocalConvex@VConvexHullNoScaleV@Gu@physx@@@23@@Gu@physx@@YA?AW4GjkStatus@01@AEBU?$LocalConvex@VCapsuleV@Gu@physx@@@01@AEBU?$LocalConvex@VConvexHullNoScaleV@Gu@physx@@@01@AEBT__m128@@2_NPEIAE4AEAEAEAUGjkOutput@01@@Z 0000000180128d10 f i GuPCMContactCapsuleConvex.obj
 0001:00127d80       ??$gjkPenetration@U?$LocalConvex@VCapsuleV@Gu@physx@@@Gu@physx@@U?$LocalConvex@VConvexHullNoScaleV@Gu@physx@@@23@@Gu@physx@@YA?AW4GjkStatus@01@AEBU?$LocalConvex@VCapsuleV@Gu@physx@@@01@AEBU?$LocalConvex@VConvexHullNoScaleV@Gu@physx@@@01@AEBT__m128@@2_NPEIAE4PEIAT5@5AEAEAEAUGjkOutput@01@@Z 0000000180128d80 f i GuPCMContactCapsuleConvex.obj
 0001:00129440       ?pcmContactCapsuleConvex@Gu@physx@@YA_NAEBVPxGeometry@2@0AEBUPxTransformPadded@2@1AEBUNarrowPhaseParams@12@AEAUCache@12@AEAVPxContactBuffer@2@PEAVPxRenderOutput@2@@Z 000000018012a440 f   GuPCMContactCapsuleConvex.obj
 0001:0012a630       ??_EPCMCapsuleVsHeightfieldContactGenerationCallback@@UEAAPEAXI@Z 000000018012b630 f i GuPCMContactCapsuleHeightField.obj
 0001:0012a630       ??_GPCMCapsuleVsHeightfieldContactGenerationCallback@@UEAAPEAXI@Z 000000018012b630 f i GuPCMContactCapsuleHeightField.obj
 0001:0012a660       ?pcmContactCapsuleHeightField@Gu@physx@@YA_NAEBVPxGeometry@2@0AEBUPxTransformPadded@2@1AEBUNarrowPhaseParams@12@AEAUCache@12@AEAVPxContactBuffer@2@PEAVPxRenderOutput@2@@Z 000000018012b660 f   GuPCMContactCapsuleHeightField.obj
 0001:0012b570       ?reportTouchedTris@?$PCMHeightfieldContactGenerationCallback@UPCMCapsuleVsHeightfieldContactGenerationCallback@@@Gu@physx@@UEAA_NIPEBI@Z 000000018012c570 f i GuPCMContactCapsuleHeightField.obj
 0001:0012bbe0       ?generateContacts@PCMCapsuleVsMeshContactGeneration@Gu@physx@@SAXAEBT__m128@@0000I000PEAVMeshPersistentContact@23@AEAI@Z 000000018012cbe0 f   GuPCMContactCapsuleMesh.obj
 0001:0012c000       ?generateEE@PCMCapsuleVsMeshContactGeneration@Gu@physx@@QEAAXAEBT__m128@@000I00PEAVMeshPersistentContact@23@AEAI@Z 000000018012d000 f   GuPCMContactCapsuleMesh.obj
 0001:0012c270       ?generateEEMTD@PCMCapsuleVsMeshContactGeneration@Gu@physx@@SAXAEBT__m128@@000I00PEAVMeshPersistentContact@23@AEAI@Z 000000018012d270 f   GuPCMContactCapsuleMesh.obj
 0001:0012c4a0       ?pcmContactCapsuleMesh@Gu@physx@@YA_NAEBVPxGeometry@2@0AEBUPxTransformPadded@2@1AEBUNarrowPhaseParams@12@AEAUCache@12@AEAVPxContactBuffer@2@PEAVPxRenderOutput@2@@Z 000000018012d4a0 f   GuPCMContactCapsuleMesh.obj
 0001:0012dd10       ?pcmDistanceSegmentTriangleSquaredExported@@YA?AT__m128@@AEBT1@0000AEAT1@11@Z 000000018012ed10 f   GuPCMContactCapsuleMesh.obj
 0001:0012e170       ?processTriangle@PCMCapsuleVsMeshContactGeneration@Gu@physx@@QEAA_NPEBV?$PxVec3T@M@3@IEPEBI@Z 000000018012f170 f   GuPCMContactCapsuleMesh.obj
 0001:0012ed70       ?processTriangle@PCMCapsuleVsMeshContactGeneration@Gu@physx@@SA_NAEBVTriangleV@23@IAEBVCapsuleV@23@AEBT__m128@@EPEAVMeshPersistentContact@23@AEAI@Z 000000018012fd70 f   GuPCMContactCapsuleMesh.obj
 0001:0012f0a0       ?addContactsToPatch@PCMConvexVsMeshContactGeneration@Gu@physx@@QEAAXAEBT__m128@@I@Z 00000001801300a0 f   GuPCMContactConvexCommon.obj
 0001:0012f9e0       ?doSupport@?$SupportLocalImpl@VTriangleV@Gu@physx@@@Gu@physx@@UEBA?AT__m128@@AEBT4@@Z 00000001801309e0 f i GuPCMContactConvexCommon.obj
 0001:0012fa70       ?doSupport@?$SupportLocalImpl@VTriangleV@Gu@physx@@@Gu@physx@@UEBAXAEBT__m128@@AEAT4@1@Z 0000000180130a70 f i GuPCMContactConvexCommon.obj
 0001:0012fae0       ?generateLastContacts@PCMConvexVsMeshContactGeneration@Gu@physx@@QEAAXXZ 0000000180130ae0 f   GuPCMContactConvexCommon.obj
 0001:00130040       ?populateVerts@?$SupportLocalImpl@VTriangleV@Gu@physx@@@Gu@physx@@UEBAXPEBEIPEBV?$PxVec3T@M@3@PEAT__m128@@@Z 0000000180131040 f i GuPCMContactConvexCommon.obj
 0001:00130180       ?processTriangle@PCMConvexVsMeshContactGeneration@Gu@physx@@QEAA_NPEBV?$PxVec3T@M@3@IEPEBI@Z 0000000180131180 f   GuPCMContactConvexCommon.obj
 0001:001306d0       ?processTriangle@PCMConvexVsMeshContactGeneration@Gu@physx@@SA_NAEBUPolygonalData@23@PEBVSupportLocal@23@PEBV?$PxVec3T@M@3@IEAEBT__m128@@_NAEBVPxTransformV@aos@3@AEBVPxMatTransformV@93@PEAVMeshPersistentContact@23@AEAI@Z 00000001801316d0 f   GuPCMContactConvexCommon.obj
 0001:00130950       ??$gjkPenetration@U?$RelativeConvex@VConvexHullNoScaleV@Gu@physx@@@Gu@physx@@U?$LocalConvex@VConvexHullNoScaleV@Gu@physx@@@23@@Gu@physx@@YA?AW4GjkStatus@01@AEBU?$RelativeConvex@VConvexHullNoScaleV@Gu@physx@@@01@AEBU?$LocalConvex@VConvexHullNoScaleV@Gu@physx@@@01@AEBT__m128@@2_NPEIAE4AEAEAEAUGjkOutput@01@@Z 0000000180131950 f i GuPCMContactConvexConvex.obj
 0001:001309c0       ??$gjkPenetration@U?$RelativeConvex@VConvexHullNoScaleV@Gu@physx@@@Gu@physx@@U?$LocalConvex@VConvexHullNoScaleV@Gu@physx@@@23@@Gu@physx@@YA?AW4GjkStatus@01@AEBU?$RelativeConvex@VConvexHullNoScaleV@Gu@physx@@@01@AEBU?$LocalConvex@VConvexHullNoScaleV@Gu@physx@@@01@AEBT__m128@@2_NPEIAE4PEIAT5@5AEAEAEAUGjkOutput@01@@Z 00000001801319c0 f i GuPCMContactConvexConvex.obj
 0001:00131ed0       ??$gjkPenetration@U?$RelativeConvex@VConvexHullNoScaleV@Gu@physx@@@Gu@physx@@U?$LocalConvex@VConvexHullV@Gu@physx@@@23@@Gu@physx@@YA?AW4GjkStatus@01@AEBU?$RelativeConvex@VConvexHullNoScaleV@Gu@physx@@@01@AEBU?$LocalConvex@VConvexHullV@Gu@physx@@@01@AEBT__m128@@2_NPEIAE4AEAEAEAUGjkOutput@01@@Z 0000000180132ed0 f i GuPCMContactConvexConvex.obj
 0001:00131f40       ??$gjkPenetration@U?$RelativeConvex@VConvexHullNoScaleV@Gu@physx@@@Gu@physx@@U?$LocalConvex@VConvexHullV@Gu@physx@@@23@@Gu@physx@@YA?AW4GjkStatus@01@AEBU?$RelativeConvex@VConvexHullNoScaleV@Gu@physx@@@01@AEBU?$LocalConvex@VConvexHullV@Gu@physx@@@01@AEBT__m128@@2_NPEIAE4PEIAT5@5AEAEAEAUGjkOutput@01@@Z 0000000180132f40 f i GuPCMContactConvexConvex.obj
 0001:001334e0       ??$gjkPenetration@U?$RelativeConvex@VConvexHullV@Gu@physx@@@Gu@physx@@U?$LocalConvex@VConvexHullNoScaleV@Gu@physx@@@23@@Gu@physx@@YA?AW4GjkStatus@01@AEBU?$RelativeConvex@VConvexHullV@Gu@physx@@@01@AEBU?$LocalConvex@VConvexHullNoScaleV@Gu@physx@@@01@AEBT__m128@@2_NPEIAE4AEAEAEAUGjkOutput@01@@Z 00000001801344e0 f i GuPCMContactConvexConvex.obj
 0001:00133550       ??$gjkPenetration@U?$RelativeConvex@VConvexHullV@Gu@physx@@@Gu@physx@@U?$LocalConvex@VConvexHullNoScaleV@Gu@physx@@@23@@Gu@physx@@YA?AW4GjkStatus@01@AEBU?$RelativeConvex@VConvexHullV@Gu@physx@@@01@AEBU?$LocalConvex@VConvexHullNoScaleV@Gu@physx@@@01@AEBT__m128@@2_NPEIAE4PEIAT5@5AEAEAEAUGjkOutput@01@@Z 0000000180134550 f i GuPCMContactConvexConvex.obj
 0001:00135540       ?pcmContactConvexConvex@Gu@physx@@YA_NAEBVPxGeometry@2@0AEBUPxTransformPadded@2@1AEBUNarrowPhaseParams@12@AEAUCache@12@AEAVPxContactBuffer@2@PEAVPxRenderOutput@2@@Z 0000000180136540 f   GuPCMContactConvexConvex.obj
 0001:00136650       ?support@?$RelativeConvex@VConvexHullNoScaleV@Gu@physx@@@Gu@physx@@UEBA?AT__m128@@AEBT4@@Z 0000000180137650 f i GuPCMContactConvexConvex.obj
 0001:00136700       ?support@?$RelativeConvex@VConvexHullNoScaleV@Gu@physx@@@Gu@physx@@UEBA?AT__m128@@AEBT4@AEAH@Z 0000000180137700 f i GuPCMContactConvexConvex.obj
 0001:001367c0       ?supportPoint@?$RelativeConvex@VConvexHullNoScaleV@Gu@physx@@@Gu@physx@@UEBA?AT__m128@@H@Z 00000001801377c0 f i GuPCMContactConvexConvex.obj
 0001:00136850       ?PCMContactConvexHeightfield@Gu@physx@@YA_NAEBUPolygonalData@12@PEBVSupportLocal@12@AEBT__m128@@AEBVPxBounds3@2@AEBVPxHeightFieldGeometry@2@AEBV?$PxTransformT@M@2@5MAEAVPxContactBuffer@2@AEBVFastVertex2ShapeScaling@Cm@2@_NAEAVMultiplePersistentContactManifold@12@PEAVPxRenderOutput@2@@Z 0000000180137850 f   GuPCMContactConvexHeightField.obj
 0001:001376d0       ?pcmContactBoxHeightField@Gu@physx@@YA_NAEBVPxGeometry@2@0AEBUPxTransformPadded@2@1AEBUNarrowPhaseParams@12@AEAUCache@12@AEAVPxContactBuffer@2@PEAVPxRenderOutput@2@@Z 00000001801386d0 f   GuPCMContactConvexHeightField.obj
 0001:00137970       ?pcmContactConvexHeightField@Gu@physx@@YA_NAEBVPxGeometry@2@0AEBUPxTransformPadded@2@1AEBUNarrowPhaseParams@12@AEAUCache@12@AEAVPxContactBuffer@2@PEAVPxRenderOutput@2@@Z 0000000180138970 f   GuPCMContactConvexHeightField.obj
 0001:001386c0       ?PCMContactConvexMesh@Gu@physx@@YA_NAEBUPolygonalData@12@PEBVSupportLocal@12@AEBT__m128@@AEBVPxBounds3@2@AEBVPxTriangleMeshGeometry@2@AEBV?$PxTransformT@M@2@5MAEAVPxContactBuffer@2@AEBVFastVertex2ShapeScaling@Cm@2@7_N8AEAVMultiplePersistentContactManifold@12@PEAVPxRenderOutput@2@@Z 00000001801396c0 f   GuPCMContactConvexMesh.obj
 0001:001391c0       ?pcmContactBoxMesh@Gu@physx@@YA_NAEBVPxGeometry@2@0AEBUPxTransformPadded@2@1AEBUNarrowPhaseParams@12@AEAUCache@12@AEAVPxContactBuffer@2@PEAVPxRenderOutput@2@@Z 000000018013a1c0 f   GuPCMContactConvexMesh.obj
 0001:00139500       ?pcmContactConvexMesh@Gu@physx@@YA_NAEBVPxGeometry@2@0AEBUPxTransformPadded@2@1AEBUNarrowPhaseParams@12@AEAUCache@12@AEAVPxContactBuffer@2@PEAVPxRenderOutput@2@@Z 000000018013a500 f   GuPCMContactConvexMesh.obj
 0001:0013a110       ?addGJKEPAContacts@Gu@physx@@YA_NPEBUGjkConvex@12@0AEBVPxMatTransformV@aos@2@W4GjkStatus@12@PEAVPersistentContact@12@T__m128@@4AEAUGjkOutput@12@AEAVPersistentContactManifold@12@@Z 000000018013b110 f   GuPCMContactGenBoxConvex.obj
 0001:0013a5c0       ?computeMTD@Gu@physx@@YA_NAEBUPolygonalData@12@0PEBVSupportLocal@12@1AEAT__m128@@2@Z 000000018013b5c0 f   GuPCMContactGenBoxConvex.obj
 0001:0013abf0       ?generateFullContactManifold@Gu@physx@@YA_NAEBUPolygonalData@12@0PEBVSupportLocal@12@1PEAVPersistentContact@12@AEAIAEBT__m128@@444MM_NPEAVPxRenderOutput@2@M@Z 000000018013bbf0 f   GuPCMContactGenBoxConvex.obj
 0001:0013cb60       ?computeMTD@Gu@physx@@YA_NAEBVCapsuleV@12@AEBUPolygonalData@12@PEBVSupportLocal@12@AEAT__m128@@3@Z 000000018013db60 f   GuPCMContactGenSphereCapsule.obj
 0001:0013cc50       ?generateCapsuleBoxFullContactManifold@Gu@physx@@YA_NAEBVCapsuleV@12@AEBUPolygonalData@12@PEBVSupportLocal@12@AEBVPxMatTransformV@aos@2@PEAVPersistentContact@12@AEAIAEBT__m128@@AEAT9@6M_NMPEAVPxRenderOutput@2@@Z 000000018013dc50 f   GuPCMContactGenSphereCapsule.obj
 0001:0013cdf0       ?generateFullContactManifold@Gu@physx@@YA_NAEBVCapsuleV@12@AEBUPolygonalData@12@PEBVSupportLocal@12@AEBVPxMatTransformV@aos@2@PEAVPersistentContact@12@AEAIAEBT__m128@@AEAT9@6M_NM@Z 000000018013ddf0 f   GuPCMContactGenSphereCapsule.obj
 0001:0013cfe0       ?generateSphereFullContactManifold@Gu@physx@@YA_NAEBVCapsuleV@12@AEBUPolygonalData@12@PEBVSupportLocal@12@PEAVPersistentContact@12@AEAIAEBT__m128@@AEAT7@_N@Z 000000018013dfe0 f   GuPCMContactGenSphereCapsule.obj
 0001:0013e4e0       ?pcmContactPlaneBox@Gu@physx@@YA_NAEBVPxGeometry@2@0AEBUPxTransformPadded@2@1AEBUNarrowPhaseParams@12@AEAUCache@12@AEAVPxContactBuffer@2@PEAVPxRenderOutput@2@@Z 000000018013f4e0 f   GuPCMContactPlaneBox.obj
 0001:0013f0a0       ?pcmContactPlaneCapsule@Gu@physx@@YA_NAEBVPxGeometry@2@0AEBUPxTransformPadded@2@1AEBUNarrowPhaseParams@12@AEAUCache@12@AEAVPxContactBuffer@2@PEAVPxRenderOutput@2@@Z 00000001801400a0 f   GuPCMContactPlaneCapsule.obj
 0001:0013f820       ?pcmContactPlaneConvex@Gu@physx@@YA_NAEBVPxGeometry@2@0AEBUPxTransformPadded@2@1AEBUNarrowPhaseParams@12@AEAUCache@12@AEAVPxContactBuffer@2@PEAVPxRenderOutput@2@@Z 0000000180140820 f   GuPCMContactPlaneConvex.obj
 0001:001404a0       ?pcmContactSphereBox@Gu@physx@@YA_NAEBVPxGeometry@2@0AEBUPxTransformPadded@2@1AEBUNarrowPhaseParams@12@AEAUCache@12@AEAVPxContactBuffer@2@PEAVPxRenderOutput@2@@Z 00000001801414a0 f   GuPCMContactSphereBox.obj
 0001:00140900       ?pcmContactSphereCapsule@Gu@physx@@YA_NAEBVPxGeometry@2@0AEBUPxTransformPadded@2@1AEBUNarrowPhaseParams@12@AEAUCache@12@AEAVPxContactBuffer@2@PEAVPxRenderOutput@2@@Z 0000000180141900 f   GuPCMContactSphereCapsule.obj
 0001:00140d70       ?pcmContactSphereConvex@Gu@physx@@YA_NAEBVPxGeometry@2@0AEBUPxTransformPadded@2@1AEBUNarrowPhaseParams@12@AEAUCache@12@AEAVPxContactBuffer@2@PEAVPxRenderOutput@2@@Z 0000000180141d70 f   GuPCMContactSphereConvex.obj
 0001:00141a40       ??1?$PxArray@USortedTriangle@Gu@physx@@V?$PxInlineAllocator@$0IAA@V?$PxReflectionAllocator@USortedTriangle@Gu@physx@@@physx@@@3@@physx@@QEAA@XZ 0000000180142a40 f i GuPCMContactSphereHeightField.obj
 0001:00141b00       ?pcmContactSphereHeightField@Gu@physx@@YA_NAEBVPxGeometry@2@0AEBUPxTransformPadded@2@1AEBUNarrowPhaseParams@12@AEAUCache@12@AEAVPxContactBuffer@2@PEAVPxRenderOutput@2@@Z 0000000180142b00 f   GuPCMContactSphereHeightField.obj
 0001:00142b70       ??$PxSort@USortedTriangle@Gu@physx@@U?$PxLess@USortedTriangle@Gu@physx@@@3@V?$PxReflectionAllocator@USortedTriangle@Gu@physx@@@3@@physx@@YAXPEAUSortedTriangle@Gu@0@IAEBU?$PxLess@USortedTriangle@Gu@physx@@@0@AEBV?$PxReflectionAllocator@USortedTriangle@Gu@physx@@@0@I@Z 0000000180143b70 f i GuPCMContactSphereMesh.obj
 0001:00143090       ??$processTriangleCache@$0BA@VPCMSphereVsMeshContactGeneration@Gu@physx@@@PCMMeshContactGeneration@Gu@physx@@QEAA_NAEAU?$TriangleCache@$0BA@@12@@Z 0000000180144090 f i GuPCMContactSphereMesh.obj
 0001:00143560       ?addToPatch@PCMSphereVsMeshContactGeneration@Gu@physx@@QEAAXAEBT__m128@@0T4@I@Z 0000000180144560 f   GuPCMContactSphereMesh.obj
 0001:00143c20       ?allocate@?$PxArray@IV?$PxInlineAllocator@$0PAA@V?$PxReflectionAllocator@I@physx@@@physx@@@physx@@IEAAPEAII@Z 0000000180144c20 f i GuPCMContactSphereMesh.obj
 0001:00143ce0       ?allocate@?$PxArray@USortedTriangle@Gu@physx@@V?$PxInlineAllocator@$0IAA@V?$PxReflectionAllocator@USortedTriangle@Gu@physx@@@physx@@@3@@physx@@IEAAPEAUSortedTriangle@Gu@2@I@Z 0000000180144ce0 f i GuPCMContactSphereMesh.obj
 0001:00143da0       ?generateLastContacts@PCMSphereVsMeshContactGeneration@Gu@physx@@QEAAXXZ 0000000180144da0 f   GuPCMContactSphereMesh.obj
 0001:001443d0       ?growAndPushBack@?$PxArray@USortedTriangle@Gu@physx@@V?$PxInlineAllocator@$0IAA@V?$PxReflectionAllocator@USortedTriangle@Gu@physx@@@physx@@@3@@physx@@IEAAAEAUSortedTriangle@Gu@2@AEBU342@@Z 00000001801453d0 f i GuPCMContactSphereMesh.obj
 0001:001444e0       ?pcmContactSphereMesh@Gu@physx@@YA_NAEBVPxGeometry@2@0AEBUPxTransformPadded@2@1AEBUNarrowPhaseParams@12@AEAUCache@12@AEAVPxContactBuffer@2@PEAVPxRenderOutput@2@@Z 00000001801454e0 f   GuPCMContactSphereMesh.obj
 0001:00145a50       ?processTriangle@PCMSphereVsMeshContactGeneration@Gu@physx@@QEAA_NPEBV?$PxVec3T@M@3@IEPEBI@Z 0000000180146a50 f   GuPCMContactSphereMesh.obj
 0001:00145e40       ?recreate@?$PxArray@IV?$PxInlineAllocator@$0PAA@V?$PxReflectionAllocator@I@physx@@@physx@@@physx@@IEAAXI@Z 0000000180146e40 f i GuPCMContactSphereMesh.obj
 0001:00145f00       ?pcmContactSpherePlane@Gu@physx@@YA_NAEBVPxGeometry@2@0AEBUPxTransformPadded@2@1AEBUNarrowPhaseParams@12@AEAUCache@12@AEAVPxContactBuffer@2@PEAVPxRenderOutput@2@@Z 0000000180146f00 f   GuPCMContactSpherePlane.obj
 0001:00146080       ?pcmContactSphereSphere@Gu@physx@@YA_NAEBVPxGeometry@2@0AEBUPxTransformPadded@2@1AEBUNarrowPhaseParams@12@AEAUCache@12@AEAVPxContactBuffer@2@PEAVPxRenderOutput@2@@Z 0000000180147080 f   GuPCMContactSphereSphere.obj
 0001:00146950       ?pcmContactGeometryCustomGeometry@Gu@physx@@YA_NAEBVPxGeometry@2@0AEBUPxTransformPadded@2@1AEBUNarrowPhaseParams@12@AEAUCache@12@AEAVPxContactBuffer@2@PEAVPxRenderOutput@2@@Z 0000000180147950 f   GuPCMContactCustomGeometry.obj
 0001:00146a00       ?getPCMConvexData@Gu@physx@@YAXAEBVConvexHullV@12@_NAEAUPolygonalData@12@@Z 0000000180147a00 f   GuPCMShapeConvex.obj
 0001:00146a40       ?getPCMConvexData@Gu@physx@@YA_NAEBVPxConvexMeshGeometry@2@AEAVFastVertex2ShapeScaling@Cm@2@AEAVPxBounds3@2@AEAUPolygonalData@12@@Z 0000000180147a40 f   GuPCMShapeConvex.obj
 0001:00146f90       ?getPolygonalData@PCMPolygonalBox@Gu@physx@@QEBAXPEIAUPolygonalData@23@@Z 0000000180147f90 f   GuPCMShapeConvex.obj
 0001:00147010       ?generatePolyDataContactManifold@PCMConvexVsMeshContactGeneration@Gu@physx@@QEAA_NAEBVTriangleV@23@IIEPEAVMeshPersistentContact@23@AEAIAEBT__m128@@AEAT6@@Z 0000000180148010 f   GuPCMTriangleContactGen.obj
 0001:00147130       ?generateTriangleFullContactManifold@PCMConvexVsMeshContactGeneration@Gu@physx@@QEAA_NAEBVTriangleV@23@IPEBIEAEBUPolygonalData@23@PEBV?$SupportLocalImpl@VTriangleV@Gu@physx@@@23@PEBVSupportLocal@23@PEAVMeshPersistentContact@23@AEAIAEBT__m128@@AEAT9@@Z 0000000180148130 f   GuPCMTriangleContactGen.obj
 0001:00147660       ?generateTriangleFullContactManifold@PCMConvexVsMeshContactGeneration@Gu@physx@@SA_NAEBVTriangleV@23@IEAEBUPolygonalData@23@PEBV?$SupportLocalImpl@VTriangleV@Gu@physx@@@23@PEBVSupportLocal@23@PEAVMeshPersistentContact@23@AEAIAEBT__m128@@AEAT9@PEAVPxRenderOutput@3@@Z 0000000180148660 f   GuPCMTriangleContactGen.obj
 0001:001496e0       ?addBatchManifoldContacts2@PersistentContactManifold@Gu@physx@@QEAAXPEBVPersistentContact@23@I@Z 000000018014a6e0 f   GuPersistentContactManifold.obj
 0001:00149750       ?addBatchManifoldContacts@PersistentContactManifold@Gu@physx@@QEAAXPEBVPersistentContact@23@IM@Z 000000018014a750 f   GuPersistentContactManifold.obj
 0001:001497d0       ?addBatchManifoldContactsCluster@PersistentContactManifold@Gu@physx@@QEAAXPEBVPersistentContact@23@I@Z 000000018014a7d0 f   GuPersistentContactManifold.obj
 0001:00149a50       ?addManifoldContactPoints@MultiplePersistentContactManifold@Gu@physx@@QEAAXPEAVMeshPersistentContact@23@IPEAPEAUPCMContactPatch@23@IAEBT__m128@@2E@Z 000000018014aa50 f   GuPersistentContactManifold.obj
 0001:00149e40       ?addManifoldContactsToContactBuffer@MultiplePersistentContactManifold@Gu@physx@@QEAA_NAEAVPxContactBuffer@3@AEBVPxTransformV@aos@3@1AEBT__m128@@@Z 000000018014ae40 f   GuPersistentContactManifold.obj
 0001:0014a100       ?addManifoldContactsToContactBuffer@MultiplePersistentContactManifold@Gu@physx@@QEAA_NAEAVPxContactBuffer@3@AEBVPxTransformV@aos@3@@Z 000000018014b100 f   GuPersistentContactManifold.obj
 0001:0014a390       ?addManifoldContactsToContactBuffer@PersistentContactManifold@Gu@physx@@QEAAXAEAVPxContactBuffer@3@AEBT__m128@@1AEBVPxTransformV@aos@3@11@Z 000000018014b390 f   GuPersistentContactManifold.obj
 0001:0014a520       ?addManifoldContactsToContactBuffer@PersistentContactManifold@Gu@physx@@QEAAXAEAVPxContactBuffer@3@AEBT__m128@@AEBVPxMatTransformV@aos@3@@Z 000000018014b520 f   GuPersistentContactManifold.obj
 0001:0014a5d0       ?addManifoldContactsToContactBuffer@PersistentContactManifold@Gu@physx@@QEAAXAEAVPxContactBuffer@3@AEBT__m128@@AEBVPxTransformV@aos@3@1@Z 000000018014b5d0 f   GuPersistentContactManifold.obj
 0001:0014a730       ?addManifoldPoint2@PersistentContactManifold@Gu@physx@@QEAAIAEBT__m128@@000@Z 000000018014b730 f   GuPersistentContactManifold.obj
 0001:0014a860       ?addManifoldPoint@Gu@physx@@YAXPEAVPersistentContact@12@AEAVPersistentContactManifold@12@AEAUGjkOutput@12@AEBVPxMatTransformV@aos@2@T__m128@@@Z 000000018014b860 f   GuPersistentContactManifold.obj
 0001:0014aa10       ?addManifoldPoint@PersistentContactManifold@Gu@physx@@QEAAIAEBT__m128@@000@Z 000000018014ba10 f   GuPersistentContactManifold.obj
 0001:0014ae50       ?drawLine@MultiplePersistentContactManifold@Gu@physx@@SAXAEAVPxRenderOutput@3@AEBT__m128@@1I@Z 000000018014be50 f   GuPersistentContactManifold.obj
 0001:0014af00       ?drawLine@MultiplePersistentContactManifold@Gu@physx@@SAXAEAVPxRenderOutput@3@V?$PxVec3T@M@3@1I@Z 000000018014bf00 f   GuPersistentContactManifold.obj
 0001:0014af70       ?drawManifold@MultiplePersistentContactManifold@Gu@physx@@QEBAXAEAVPxRenderOutput@3@AEBVPxTransformV@aos@3@1@Z 000000018014bf70 f   GuPersistentContactManifold.obj
 0001:0014b600       ?drawPoint@MultiplePersistentContactManifold@Gu@physx@@SAXAEAVPxRenderOutput@3@AEBT__m128@@MI@Z 000000018014c600 f   GuPersistentContactManifold.obj
 0001:0014b810       ?drawPolygon@MultiplePersistentContactManifold@Gu@physx@@SAXAEAVPxRenderOutput@3@AEBVPxTransformV@aos@3@PEAT__m128@@II@Z 000000018014c810 f   GuPersistentContactManifold.obj
 0001:0014ba90       ?findRotationMatrixFromZAxis@Gu@physx@@YA?AUMat33V@aos@2@AEBT__m128@@@Z 000000018014ca90 f   GuPersistentContactManifold.obj
 0001:0014bd10       ?fromBuffer@MultiplePersistentContactManifold@Gu@physx@@QEAAXPEIAE@Z 000000018014cd10 f   GuPersistentContactManifold.obj
 0001:0014be70       ?reduceBatchContacts2@PersistentContactManifold@Gu@physx@@QEAAXPEBVPersistentContact@23@I@Z 000000018014ce70 f   GuPersistentContactManifold.obj
 0001:0014c070       ?reduceBatchContacts@PersistentContactManifold@Gu@physx@@QEAAXPEBVPersistentContact@23@IM@Z 000000018014d070 f   GuPersistentContactManifold.obj
 0001:0014c530       ?reduceBatchContactsCapsule@SinglePersistentContactManifold@Gu@physx@@QEAA?AT__m128@@PEBVMeshPersistentContact@23@IAEAUPCMContactPatch@23@@Z 000000018014d530 f   GuPersistentContactManifold.obj
 0001:0014c7c0       ?reduceBatchContactsCluster@PersistentContactManifold@Gu@physx@@QEAAXPEBVPersistentContact@23@I@Z 000000018014d7c0 f   GuPersistentContactManifold.obj
 0001:0014cc50       ?reduceBatchContactsConvex@SinglePersistentContactManifold@Gu@physx@@QEAA?AT__m128@@PEBVMeshPersistentContact@23@IAEAUPCMContactPatch@23@@Z 000000018014dc50 f   GuPersistentContactManifold.obj
 0001:0014d240       ?reduceContacts@SinglePersistentContactManifold@Gu@physx@@SAIPEAVMeshPersistentContact@23@I@Z 000000018014e240 f   GuPersistentContactManifold.obj
 0001:0014d7c0       ?reduceContactsForPCM@PersistentContactManifold@Gu@physx@@QEAAIAEBT__m128@@00@Z 000000018014e7c0 f   GuPersistentContactManifold.obj
 0001:0014dd60       ?refreshContactPoints@SinglePersistentContactManifold@Gu@physx@@QEAA?AT__m128@@AEBVPxMatTransformV@aos@3@AEBT4@1@Z 000000018014ed60 f   GuPersistentContactManifold.obj
 0001:0014deb0       ?replaceManifoldPoint@PersistentContactManifold@Gu@physx@@QEAA_NAEBT__m128@@000@Z 000000018014eeb0 f   GuPersistentContactManifold.obj
 0001:0014df70       ?toBuffer@MultiplePersistentContactManifold@Gu@physx@@QEBAXPEIAE@Z 000000018014ef70 f   GuPersistentContactManifold.obj
 0001:0014e050       ?contains@Gu@physx@@YA_NPEAT__m128@@IAEBT3@11@Z 000000018014f050 f   GuPCMContactGenUtil.obj
 0001:0014e210       ?getPolygonIndex@Gu@physx@@YAHAEBUPolygonalData@12@PEBVSupportLocal@12@AEBT__m128@@AEAH@Z 000000018014f210 f   GuPCMContactGenUtil.obj
 0001:0014e4b0       ?getWitnessPolygonIndex@Gu@physx@@YAIAEBUPolygonalData@12@PEBVSupportLocal@12@AEBT__m128@@2M@Z 000000018014f4b0 f   GuPCMContactGenUtil.obj
 0001:0014ea00       ?sweepBoxBox@Gu@physx@@YA_NAEBVBox@12@0AEBV?$PxVec3T@M@2@MV?$PxFlags@W4Enum@PxHitFlag@physx@@G@2@AEAUPxGeomSweepHit@2@@Z 000000018014fa00 f   GuSweepBoxBox.obj
 0001:00150040       ?sweepBoxSphere@Gu@physx@@YA_NAEBVBox@12@MAEBV?$PxVec3T@M@2@1MAEAMAEAV42@V?$PxFlags@W4Enum@PxHitFlag@physx@@G@2@@Z 0000000180151040 f   GuSweepBoxSphere.obj
 0001:00150cf0       ?sweepBoxTriangle@Gu@physx@@YA_NAEBVPxTriangle@2@AEBVPxBounds3@2@AEBV?$PxVec3T@M@2@2AEAV52@3AEAM_N@Z 0000000180151cf0 f   GuSweepBoxTriangle_FeatureBased.obj
 0001:00152410       ?triBoxSweepTestBoxSpace@Gu@physx@@YAHAEBVPxTriangle@2@AEBV?$PxVec3T@M@2@11MAEAM_N@Z 0000000180153410 f   GuSweepBoxTriangle_SAT.obj
 0001:00153d30       ?sweepCapsuleBox@Gu@physx@@YA_NAEBVCapsule@12@AEBV?$PxTransformT@M@2@AEBV?$PxVec3T@M@2@2MAEAV52@AEAM3V?$PxFlags@W4Enum@PxHitFlag@physx@@G@2@@Z 0000000180154d30 f   GuSweepCapsuleBox.obj
 0001:00154080       ?distancePointSegmentSquared@Gu@physx@@YAMAEBVSegment@12@AEBV?$PxVec3T@M@2@PEAM@Z 0000000180155080 f i GuSweepCapsuleCapsule.obj
 0001:00154190       ?edgeEdgeDist@@YAXAEAV?$PxVec3T@M@physx@@0AEBV12@111@Z 0000000180155190 f   GuSweepCapsuleCapsule.obj
 0001:00154400       ?sweepCapsuleCapsule@Gu@physx@@YA_NAEBVCapsule@12@0AEBV?$PxVec3T@M@2@MAEAMAEAV42@3IAEAG@Z 0000000180155400 f   GuSweepCapsuleCapsule.obj
 0001:00155210       ?sweepCapsuleTriangles_Precise@Gu@physx@@YA_NIPEIBVPxTriangle@2@AEBVCapsule@12@AEBV?$PxVec3T@M@2@MPEIBIAEAUPxGeomSweepHit@2@AEAV52@V?$PxFlags@W4Enum@PxHitFlag@physx@@G@2@_NPEBVBoxPadded@12@@Z 0000000180156210 f   GuSweepCapsuleTriangle.obj
 0001:00157370       ?sweepSphereCapsule@Gu@physx@@YA_NAEBVSphere@12@AEBVCapsule@12@AEBV?$PxVec3T@M@2@MAEAMAEAV52@4V?$PxFlags@W4Enum@PxHitFlag@physx@@G@2@@Z 0000000180158370 f   GuSweepSphereCapsule.obj
 0001:00157a10       ?sweepSphereSphere@Gu@physx@@YA_NAEBV?$PxVec3T@M@2@M0M0AEAMAEAV32@@Z 0000000180158a10 f   GuSweepSphereSphere.obj
 0001:00157c80       ?sweepSphereTriangles@Gu@physx@@YA_NIPEIBVPxTriangle@2@AEBV?$PxVec3T@M@2@M1MPEIBIAEAUPxGeomSweepHit@2@AEAV42@_N555@Z 0000000180158c80 f   GuSweepSphereTriangle.obj
 0001:00158550       ?sweepSphereVSQuad@Gu@physx@@YA_NPEIBV?$PxVec3T@M@2@AEBV32@1M1AEAM@Z 0000000180159550 f   GuSweepSphereTriangle.obj
 0001:00159530       ?sweepSphereVSTri@Gu@physx@@YA_NPEIBV?$PxVec3T@M@2@AEBV32@1M1AEAMAEA_N_N@Z 000000018015a530 f   GuSweepSphereTriangle.obj
 0001:0015a240       ??$gjk@U?$LocalConvex@VTriangleV@Gu@physx@@@Gu@physx@@U?$LocalConvex@VBoxV@Gu@physx@@@23@@Gu@physx@@YA?AW4GjkStatus@01@AEBU?$LocalConvex@VTriangleV@Gu@physx@@@01@AEBU?$LocalConvex@VBoxV@Gu@physx@@@01@AEBT__m128@@2AEAT5@333@Z 000000018015b240 f i GuSweepTriangleUtils.obj
 0001:0015af20       ?computeBoxTriImpactData@Gu@physx@@YAXAEAV?$PxVec3T@M@2@0AEBV32@1AEBVPxTriangle@2@M@Z 000000018015bf20 f   GuSweepTriangleUtils.obj
 0001:0015b1a0       ?computeEdgeEdgeNormal@Gu@physx@@YAXAEAV?$PxVec3T@M@2@AEBV32@1111M@Z 000000018015c1a0 f   GuSweepTriangleUtils.obj
 0001:0015b450       ?computeSphereTriImpactData@Gu@physx@@YAXAEAV?$PxVec3T@M@2@0AEBV32@1MAEBVPxTriangle@2@@Z 000000018015c450 f   GuSweepTriangleUtils.obj
 0001:0015b930       ??0ShapeData@Gu@physx@@QEAA@AEBVPxGeometry@2@AEBV?$PxTransformT@M@2@M@Z 000000018015c930 f   GuBounds.obj
 0001:0015bea0       ?computeBounds@Gu@physx@@YAXAEAVPxBounds3@2@AEBVPxGeometry@2@AEBV?$PxTransformT@M@2@MM@Z 000000018015cea0 f   GuBounds.obj
 0001:0015ca30       ?computeBoundsAroundVertices@Gu@physx@@YAXAEAVPxBounds3@2@IPEIBV?$PxVec3T@M@2@@Z 000000018015da30 f   GuBounds.obj
 0001:0015cac0       ?computeGlobalBox@Gu@physx@@YAXAEAVPxBounds3@2@IPEIBV32@PEIBI@Z 000000018015dac0 f   GuBounds.obj
 0001:0015cb30       ?computeLocalBoundsAndGeomEpsilon@Gu@physx@@YAXPEBV?$PxVec3T@M@2@IAEAVPxBounds3@2@AEAM@Z 000000018015db30 f   GuBounds.obj
 0001:0015dc60       ?computeTightBounds@Gu@physx@@YAXAEAVPxBounds3@2@IPEIBV?$PxVec3T@M@2@AEBV?$PxTransformT@M@2@AEBVPxMeshScale@2@MM@Z 000000018015ec60 f   GuBounds.obj
 0001:0015e020       ??0AABBTree@Gu@physx@@QEAA@XZ 000000018015f020 f   GuAABBTree.obj
 0001:0015e050       ??0BVHPartialRefitData@Gu@physx@@QEAA@XZ 000000018015f050 f   GuAABBTree.obj
 0001:0015e080       ??0NodeAllocator@Gu@physx@@QEAA@XZ 000000018015f080 f   GuAABBTree.obj
 0001:0015e0a0       ??1AABBTree@Gu@physx@@QEAA@XZ 000000018015f0a0 f   GuAABBTree.obj
 0001:0015e0c0       ??1BVHPartialRefitData@Gu@physx@@QEAA@XZ 000000018015f0c0 f   GuAABBTree.obj
 0001:0015e160       ??1NodeAllocator@Gu@physx@@QEAA@XZ 000000018015f160 f   GuAABBTree.obj
 0001:0015e1b0       ?_buildHierarchy@AABBTreeBuildNode@Gu@physx@@QEAAXAEBVAABBTreeBuildParams@23@AEAUBuildStats@23@AEAVNodeAllocator@23@QEAI@Z 000000018015f1b0 f   GuAABBTree.obj
 0001:0015e240       ?_buildHierarchySAH@AABBTreeBuildNode@Gu@physx@@QEAAXAEBVAABBTreeBuildParams@23@AEAUSAH_Buffers@23@AEAUBuildStats@23@AEAVNodeAllocator@23@QEAI@Z 000000018015f240 f   GuAABBTree.obj
 0001:0015e2f0       ?addRuntimeChilds@AABBTree@Gu@physx@@AEAAXAEAIAEBVAABBTreeMergeData@23@@Z 000000018015f2f0 f   GuAABBTree.obj
 0001:0015e3f0       ?build@AABBTree@Gu@physx@@QEAA_NAEBVAABBTreeBuildParams@23@AEAVNodeAllocator@23@@Z 000000018015f3f0 f   GuAABBTree.obj
 0001:0015e610       ?buildAABBTree@Gu@physx@@YAPEAIAEBVAABBTreeBuildParams@12@AEAVNodeAllocator@12@AEAUBuildStats@12@@Z 000000018015f610 f   GuAABBTree.obj
 0001:0015e6b0       ?buildAABBTree@Gu@physx@@YAXIAEBVAABBTreeBounds@12@AEAV?$PxArray@UBVHNode@Gu@physx@@V?$PxReflectionAllocator@UBVHNode@Gu@physx@@@3@@2@@Z 000000018015f6b0 f   GuAABBTree.obj
 0001:0015ea80       ?buildEnd@AABBTree@Gu@physx@@AEAAXAEBVAABBTreeBuildParams@23@AEAVNodeAllocator@23@AEBUBuildStats@23@@Z 000000018015fa80 f   GuAABBTree.obj
 0001:0015eca0       ?createUpdateMap@BVHPartialRefitData@Gu@physx@@QEAAXI@Z 000000018015fca0 f   GuAABBTree.obj
 0001:0015edc0       ?flattenTree@Gu@physx@@YAXAEBVNodeAllocator@12@PEAUBVHNode@12@PEBI@Z 000000018015fdc0 f   GuAABBTree.obj
 0001:0015efb0       ?fullRefit@BVHCoreData@Gu@physx@@QEAAXPEBVPxBounds3@3@@Z 000000018015ffb0 f   GuAABBTree.obj
 0001:0015f170       ?getBiNode@NodeAllocator@Gu@physx@@QEAAPEAVAABBTreeBuildNode@23@XZ 0000000180160170 f   GuAABBTree.obj
 0001:0015f2a0       ?getParentIndices@BVHPartialRefitData@Gu@physx@@IEAAPEAIXZ 00000001801602a0 f   GuAABBTree.obj
 0001:0015f330       ?growAndPushBack@?$PxArray@PEAVAABBTreeBuildNode@Gu@physx@@V?$PxReflectionAllocator@PEAVAABBTreeBuildNode@Gu@physx@@@3@@physx@@IEAAAEAPEAVAABBTreeBuildNode@Gu@2@AEBQEAV342@@Z 0000000180160330 f i GuAABBTree.obj
 0001:0015f450       ?growAndPushBack@?$PxArray@USlab@NodeAllocator@Gu@physx@@V?$PxReflectionAllocator@USlab@NodeAllocator@Gu@physx@@@4@@physx@@IEAAAEAUSlab@NodeAllocator@Gu@2@AEBU3452@@Z 0000000180160450 f i GuAABBTree.obj
 0001:0015f510       ?init@AABBTreeBounds@Gu@physx@@QEAAXIPEBVPxBounds3@3@@Z 0000000180160510 f   GuAABBTree.obj
 0001:0015f5d0       ?init@NodeAllocator@Gu@physx@@QEAAXII@Z 00000001801605d0 f   GuAABBTree.obj
 0001:0015f910       ?initTree@AABBTree@Gu@physx@@QEAAXAEBVAABBTreeMergeData@23@@Z 0000000180160910 f   GuAABBTree.obj
 0001:0015fa40       ?markNodeForRefit@BVHPartialRefitData@Gu@physx@@QEAAXI@Z 0000000180160a40 f   GuAABBTree.obj
 0001:0015fb50       ?mergeRuntimeLeaf@AABBTree@Gu@physx@@AEAAXAEAUBVHNode@23@AEBVAABBTreeMergeData@23@I@Z 0000000180160b50 f   GuAABBTree.obj
 0001:0015fda0       ?mergeRuntimeNode@AABBTree@Gu@physx@@AEAAXAEAUBVHNode@23@AEBVAABBTreeMergeData@23@I@Z 0000000180160da0 f   GuAABBTree.obj
 0001:001600c0       ?mergeTree@AABBTree@Gu@physx@@QEAAXAEBVAABBTreeMergeData@23@@Z 00000001801610c0 f   GuAABBTree.obj
 0001:00160350       ?progressiveBuild@AABBTree@Gu@physx@@QEAAIAEBVAABBTreeBuildParams@23@AEAVNodeAllocator@23@AEAUBuildStats@23@II@Z 0000000180161350 f   GuAABBTree.obj
 0001:00160600       ?refitMarkedNodes@BVHPartialRefitData@Gu@physx@@QEAAXPEBVPxBounds3@3@@Z 0000000180161600 f   GuAABBTree.obj
 0001:00160770       ?release@AABBTree@Gu@physx@@QEAAX_N@Z 0000000180161770 f   GuAABBTree.obj
 0001:00160860       ?release@AABBTreeBounds@Gu@physx@@QEAAXXZ 0000000180161860 f   GuAABBTree.obj
 0001:001608b0       ?release@NodeAllocator@Gu@physx@@QEAAXXZ 00000001801618b0 f   GuAABBTree.obj
 0001:00160960       ?releasePartialRefitData@BVHPartialRefitData@Gu@physx@@QEAAX_N@Z 0000000180161960 f   GuAABBTree.obj
 0001:001609f0       ?reshuffle@Gu@physx@@YAIIQEIAIPEIBV?$PxVec3T@M@2@MI@Z 00000001801619f0 f   GuAABBTree.obj
 0001:00160b30       ?resize@?$PxArray@USlab@NodeAllocator@Gu@physx@@V?$PxReflectionAllocator@USlab@NodeAllocator@Gu@physx@@@4@@physx@@QEAAXIAEBUSlab@NodeAllocator@Gu@2@@Z 0000000180161b30 f i GuAABBTree.obj
 0001:00160bb0       ?resize@AABBTreeBounds@Gu@physx@@QEAAXII@Z 0000000180161bb0 f   GuAABBTree.obj
 0001:00160c50       ?shiftIndices@AABBTree@Gu@physx@@QEAAXI@Z 0000000180161c50 f   GuAABBTree.obj
 0001:00160c70       ?shiftOrigin@AABBTree@Gu@physx@@QEAAXAEBV?$PxVec3T@M@3@@Z 0000000180161c70 f   GuAABBTree.obj
 0001:00160f00       ?subdivide@AABBTreeBuildNode@Gu@physx@@QEAAXAEBVAABBTreeBuildParams@23@AEAUBuildStats@23@AEAVNodeAllocator@23@QEAI@Z 0000000180161f00 f   GuAABBTree.obj
 0001:001610f0       ?subdivideSAH@AABBTreeBuildNode@Gu@physx@@QEAAXAEBVAABBTreeBuildParams@23@AEAUSAH_Buffers@23@AEAUBuildStats@23@AEAVNodeAllocator@23@QEAI@Z 00000001801620f0 f   GuAABBTree.obj
 0001:001611e0       ?traverseRuntimeNode@AABBTree@Gu@physx@@AEAAXAEAUBVHNode@23@AEBVAABBTreeMergeData@23@I@Z 00000001801621e0 f   GuAABBTree.obj
 0001:00161320       ?initMap@AABBTreeUpdateMap@Gu@physx@@QEAAXIAEBVAABBTree@23@@Z 0000000180162320 f   GuAABBTreeUpdateMap.obj
 0001:001614b0       ?invalidate@AABBTreeUpdateMap@Gu@physx@@QEAAXIIAEAVAABBTree@23@@Z 00000001801624b0 f   GuAABBTreeUpdateMap.obj
 0001:00161750       ?visualizeTree@@YAXAEAVPxRenderOutput@physx@@IPEBVAABBTree@Gu@2@@Z 0000000180162750 f   GuSqInternal.obj
 0001:001617c0       ?visualizeTree@@YAXAEAVPxRenderOutput@physx@@IPEBVBVH@Gu@2@@Z 00000001801627c0 f   GuSqInternal.obj
 0001:00161830       ?visualizeTree@@YAXAEAVPxRenderOutput@physx@@IPEBVIncrementalAABBTree@Gu@2@PEAVDebugVizCallback@2@@Z 0000000180162830 f   GuSqInternal.obj
 0001:001618b0       ??$PxSort@PEAXU?$PxLess@PEAX@physx@@V?$PxReflectionAllocator@UAABBTreeIndices@Gu@physx@@@2@@physx@@YAXPEAPEAXIAEBU?$PxLess@PEAX@0@AEBV?$PxReflectionAllocator@UAABBTreeIndices@Gu@physx@@@0@I@Z 00000001801628b0 f i GuIncrementalAABBTree.obj
 0001:00161d10       ??$PxSort@PEAXU?$PxLess@PEAX@physx@@V?$PxReflectionAllocator@UIncrementalAABBTreeNodePair@Gu@physx@@@2@@physx@@YAXPEAPEAXIAEBU?$PxLess@PEAX@0@AEBV?$PxReflectionAllocator@UIncrementalAABBTreeNodePair@Gu@physx@@@0@I@Z 0000000180162d10 f i GuIncrementalAABBTree.obj
 0001:00162170       ??0IncrementalAABBTree@Gu@physx@@QEAA@XZ 0000000180163170 f   GuIncrementalAABBTree.obj
 0001:001621f0       ??1?$PxPoolBase@UAABBTreeIndices@Gu@physx@@V?$PxReflectionAllocator@UAABBTreeIndices@Gu@physx@@@3@@physx@@QEAA@XZ 00000001801631f0 f i GuIncrementalAABBTree.obj
 0001:00162350       ??1?$PxPoolBase@UIncrementalAABBTreeNodePair@Gu@physx@@V?$PxReflectionAllocator@UIncrementalAABBTreeNodePair@Gu@physx@@@3@@physx@@QEAA@XZ 0000000180163350 f i GuIncrementalAABBTree.obj
 0001:001624b0       ??1IncrementalAABBTree@Gu@physx@@QEAA@XZ 00000001801634b0 f   GuIncrementalAABBTree.obj
 0001:001624f0       ?allocate@?$PxArray@PEAXV?$PxReflectionAllocator@UAABBTreeIndices@Gu@physx@@@physx@@@physx@@IEAAPEAPEAXI@Z 00000001801634f0 f i GuIncrementalAABBTree.obj
 0001:00162580       ?allocate@?$PxArray@PEAXV?$PxReflectionAllocator@UIncrementalAABBTreeNodePair@Gu@physx@@@physx@@@physx@@IEAAPEAPEAXI@Z 0000000180163580 f i GuIncrementalAABBTree.obj
 0001:00162610       ?allocate@?$PxPoolBase@UAABBTreeIndices@Gu@physx@@V?$PxReflectionAllocator@UAABBTreeIndices@Gu@physx@@@3@@physx@@QEAAPEAUAABBTreeIndices@Gu@2@XZ 0000000180163610 f i GuIncrementalAABBTree.obj
 0001:00162700       ?allocate@?$PxPoolBase@UIncrementalAABBTreeNodePair@Gu@physx@@V?$PxReflectionAllocator@UIncrementalAABBTreeNodePair@Gu@physx@@@3@@physx@@QEAAPEAUIncrementalAABBTreeNodePair@Gu@2@XZ 0000000180163700 f i GuIncrementalAABBTree.obj
 0001:001627f0       ?build@IncrementalAABBTree@Gu@physx@@QEAA_NAEBVAABBTreeBuildParams@23@AEAV?$PxArray@PEAVIncrementalAABBTreeNode@Gu@physx@@V?$PxReflectionAllocator@PEAVIncrementalAABBTreeNode@Gu@physx@@@3@@3@@Z 00000001801637f0 f   GuIncrementalAABBTree.obj
 0001:001629d0       ?clone@IncrementalAABBTree@Gu@physx@@AEAAXAEAV?$PxArray@PEAVIncrementalAABBTreeNode@Gu@physx@@V?$PxReflectionAllocator@PEAVIncrementalAABBTreeNode@Gu@physx@@@3@@3@PEBIPEAPEAVIncrementalAABBTreeNode@23@@Z 00000001801639d0 f   GuIncrementalAABBTree.obj
 0001:00162ec0       ?copy@IncrementalAABBTree@Gu@physx@@QEAAXAEBVBVH@23@AEAV?$PxArray@PEAVIncrementalAABBTreeNode@Gu@physx@@V?$PxReflectionAllocator@PEAVIncrementalAABBTreeNode@Gu@physx@@@3@@3@@Z 0000000180163ec0 f   GuIncrementalAABBTree.obj
 0001:00162f70       ?copyNode@IncrementalAABBTree@Gu@physx@@AEAAXAEAVIncrementalAABBTreeNode@23@AEBUBVHNode@23@PEBU523@PEAV423@PEBIAEAV?$PxArray@PEAVIncrementalAABBTreeNode@Gu@physx@@V?$PxReflectionAllocator@PEAVIncrementalAABBTreeNode@Gu@physx@@@3@@3@@Z 0000000180163f70 f   GuIncrementalAABBTree.obj
 0001:00163130       ?fixupTreeIndices@IncrementalAABBTree@Gu@physx@@QEAAXPEAVIncrementalAABBTreeNode@23@II@Z 0000000180164130 f   GuIncrementalAABBTree.obj
 0001:00163160       ?getTreeLeafDepth@IncrementalAABBTree@Gu@physx@@QEAAIPEAVIncrementalAABBTreeNode@23@@Z 0000000180164160 f   GuIncrementalAABBTree.obj
 0001:00163180       ?growAndPushBack@?$PxArray@PEAVIncrementalAABBTreeNode@Gu@physx@@V?$PxReflectionAllocator@PEAVIncrementalAABBTreeNode@Gu@physx@@@3@@physx@@IEAAAEAPEAVIncrementalAABBTreeNode@Gu@2@AEBQEAV342@@Z 0000000180164180 f i GuIncrementalAABBTree.obj
 0001:001632a0       ?growAndPushBack@?$PxArray@PEAXV?$PxReflectionAllocator@UAABBTreeIndices@Gu@physx@@@physx@@@physx@@IEAAAEAPEAXAEBQEAX@Z 00000001801642a0 f i GuIncrementalAABBTree.obj
 0001:00163360       ?growAndPushBack@?$PxArray@PEAXV?$PxReflectionAllocator@UIncrementalAABBTreeNodePair@Gu@physx@@@physx@@@physx@@IEAAAEAPEAXAEBQEAX@Z 0000000180164360 f i GuIncrementalAABBTree.obj
 0001:00163420       ?hierarchyCheck@IncrementalAABBTree@Gu@physx@@QEAAXIPEBVPxBounds3@3@@Z 0000000180164420 f   GuIncrementalAABBTree.obj
 0001:00163570       ?hierarchyCheck@IncrementalAABBTree@Gu@physx@@QEAAXPEBVPxBounds3@3@@Z 0000000180164570 f   GuIncrementalAABBTree.obj
 0001:001636e0       ?insert@IncrementalAABBTree@Gu@physx@@QEAAPEAVIncrementalAABBTreeNode@23@IPEBVPxBounds3@3@AEAV?$PxArray@PEAVIncrementalAABBTreeNode@Gu@physx@@V?$PxReflectionAllocator@PEAVIncrementalAABBTreeNode@Gu@physx@@@3@@3@@Z 00000001801646e0 f   GuIncrementalAABBTree.obj
 0001:00163dc0       ?recreate@?$PxArray@PEAXV?$PxReflectionAllocator@UAABBTreeIndices@Gu@physx@@@physx@@@physx@@IEAAXI@Z 0000000180164dc0 f i GuIncrementalAABBTree.obj
 0001:00163e60       ?recreate@?$PxArray@PEAXV?$PxReflectionAllocator@UIncrementalAABBTreeNodePair@Gu@physx@@@physx@@@physx@@IEAAXI@Z 0000000180164e60 f i GuIncrementalAABBTree.obj
 0001:00163f00       ?release@IncrementalAABBTree@Gu@physx@@QEAAXXZ 0000000180164f00 f   GuIncrementalAABBTree.obj
 0001:00163f30       ?releaseNode@IncrementalAABBTree@Gu@physx@@AEAAXPEAVIncrementalAABBTreeNode@23@@Z 0000000180164f30 f   GuIncrementalAABBTree.obj
 0001:00163fc0       ?remove@IncrementalAABBTree@Gu@physx@@QEAAPEAVIncrementalAABBTreeNode@23@PEAV423@IPEBVPxBounds3@3@@Z 0000000180164fc0 f   GuIncrementalAABBTree.obj
 0001:001642e0       ?rotateTree@IncrementalAABBTree@Gu@physx@@AEAAXPEAVIncrementalAABBTreeNode@23@AEAV?$PxArray@PEAVIncrementalAABBTreeNode@Gu@physx@@V?$PxReflectionAllocator@PEAVIncrementalAABBTreeNode@Gu@physx@@@3@@3@IPEBVPxBounds3@3@_N@Z 00000001801652e0 f   GuIncrementalAABBTree.obj
 0001:00164c40       ?shiftOrigin@IncrementalAABBTree@Gu@physx@@QEAAXAEBV?$PxVec3T@M@3@@Z 0000000180165c40 f   GuIncrementalAABBTree.obj
 0001:00164ca0       ?splitLeafNode@IncrementalAABBTree@Gu@physx@@AEAAPEAVIncrementalAABBTreeNode@23@PEAV423@IAEBT__m128@@1PEBVPxBounds3@3@@Z 0000000180165ca0 f   GuIncrementalAABBTree.obj
 0001:00164f90       ?update@IncrementalAABBTree@Gu@physx@@QEAAPEAVIncrementalAABBTreeNode@23@PEAV423@IPEBVPxBounds3@3@AEAV?$PxArray@PEAVIncrementalAABBTreeNode@Gu@physx@@V?$PxReflectionAllocator@PEAVIncrementalAABBTreeNode@Gu@physx@@@3@@3@@Z 0000000180165f90 f   GuIncrementalAABBTree.obj
 0001:00165050       ?updateFast@IncrementalAABBTree@Gu@physx@@QEAAPEAVIncrementalAABBTreeNode@23@PEAV423@IPEBVPxBounds3@3@AEAV?$PxArray@PEAVIncrementalAABBTreeNode@Gu@physx@@V?$PxReflectionAllocator@PEAVIncrementalAABBTreeNode@Gu@physx@@@3@@3@@Z 0000000180166050 f   GuIncrementalAABBTree.obj
 0001:00165270       ??0SAH_Buffers@Gu@physx@@QEAA@I@Z 0000000180166270 f   GuSAH.obj
 0001:00165370       ??1SAH_Buffers@Gu@physx@@QEAA@XZ 0000000180166370 f   GuSAH.obj
 0001:00165430       ?split@SAH_Buffers@Gu@physx@@QEAA_NAEAIIPEIBIPEIBVPxBounds3@3@PEIBV?$PxVec3T@M@3@@Z 0000000180166430 f   GuSAH.obj
 0001:00165b20       ??0BVH@Gu@physx@@QEAA@AEBUPxBVHInternalData@2@@Z 0000000180166b20 f   GuBVH.obj
 0001:00165be0       ??0BVH@Gu@physx@@QEAA@PEAVMeshFactory@12@@Z 0000000180166be0 f   GuBVH.obj
 0001:00165c50       ??0BVH@Gu@physx@@QEAA@PEAVMeshFactory@12@AEAVBVHData@12@@Z 0000000180166c50 f   GuBVH.obj
 0001:00165d00       ??1BVHData@Gu@physx@@QEAA@XZ 0000000180166d00 f i GuBVH.obj
 0001:001694c4       ??_EBVH@Gu@physx@@WBA@EAAPEAXI@Z 000000018016a4c4 f i GuBVH.obj
 0001:001694d0       ??_EBVH@Gu@physx@@UEAAPEAXI@Z 000000018016a4d0 f i GuBVH.obj
 0001:001694d0       ??_GBVH@Gu@physx@@UEAAPEAXI@Z 000000018016a4d0 f i GuBVH.obj
 0001:00169560       ??_ERefCountable@Cm@physx@@UEAAPEAXI@Z 000000018016a560 f i GuBVH.obj
 0001:00169560       ??_GRefCountable@Cm@physx@@UEAAPEAXI@Z 000000018016a560 f i GuBVH.obj
 0001:00169790       ?allocate@?$PxArray@PEBUBVHNode@Gu@physx@@V?$PxInlineAllocator@$0IAA@V?$PxReflectionAllocator@PEBUBVHNode@Gu@physx@@@physx@@@3@@physx@@IEAAPEAPEBUBVHNode@Gu@2@I@Z 000000018016a790 f i GuBVH.obj
 0001:00169850       ?build@BVHData@Gu@physx@@QEAA_NIPEBXIMIW4BVHBuildStrategy@23@@Z 000000018016a850 f   GuBVH.obj
 0001:00169c50       ?cull@BVH@Gu@physx@@UEBA_NIPEBVPxPlane@3@AEAUOverlapCallback@PxBVH@3@V?$PxFlags@W4Enum@PxGeometryQueryFlag@physx@@I@3@@Z 000000018016ac50 f   GuBVH.obj
 0001:0016a590       ?getConcreteTypeName@PxBVH@physx@@UEBAPEBDXZ 000000018016b590 f i GuBVH.obj
 0001:0016a5a0       ?init@BVH@Gu@physx@@QEAA_NIPEAVAABBTreeBounds@23@PEBXIW4BVHBuildStrategy@23@IM@Z 000000018016b5a0 f   GuBVH.obj
 0001:0016a9b0       ?isKindOf@PxBVH@physx@@MEBA_NPEBD@Z 000000018016b9b0 f i GuBVH.obj
 0001:0016aa20       ?load@BVH@Gu@physx@@QEAA_NAEAVPxInputStream@3@@Z 000000018016ba20 f   GuBVH.obj
 0001:0016abb0       ?onRefCountZero@BVH@Gu@physx@@UEAAXXZ 000000018016bbb0 f   GuBVH.obj
 0001:0016ac90       ?onRefCountZero@RefCountable@Cm@physx@@UEAAXXZ 000000018016bc90 f i GuBVH.obj
 0001:0016acb0       ?overlap@BVH@Gu@physx@@QEBA_NAEBVShapeData@23@AEAUOverlapCallback@PxBVH@3@V?$PxFlags@W4Enum@PxGeometryQueryFlag@physx@@I@3@@Z 000000018016bcb0 f   GuBVH.obj
 0001:0016b4e0       ?overlap@BVH@Gu@physx@@UEBA_NAEBVPxGeometry@3@AEBV?$PxTransformT@M@3@AEAUOverlapCallback@PxBVH@3@V?$PxFlags@W4Enum@PxGeometryQueryFlag@physx@@I@3@@Z 000000018016c4e0 f   GuBVH.obj
 0001:0016b540       ?partialRefit@BVH@Gu@physx@@UEAAXXZ 000000018016c540 f   GuBVH.obj
 0001:0016b550       ?raycast@BVH@Gu@physx@@UEBA_NAEBV?$PxVec3T@M@3@0MAEAURaycastCallback@PxBVH@3@V?$PxFlags@W4Enum@PxGeometryQueryFlag@physx@@I@3@@Z 000000018016c550 f   GuBVH.obj
 0001:0016b680       ?recreate@?$PxArray@PEBUBVHNode@Gu@physx@@V?$PxInlineAllocator@$0IAA@V?$PxReflectionAllocator@PEBUBVHNode@Gu@physx@@@physx@@@3@@physx@@IEAAXI@Z 000000018016c680 f i GuBVH.obj
 0001:0016b740       ?refit@BVH@Gu@physx@@UEAAXXZ 000000018016c740 f   GuBVH.obj
 0001:0016b750       ?release@BVH@Gu@physx@@UEAAXXZ 000000018016c750 f   GuBVH.obj
 0001:0016b780       ?resizeUninitialized@?$PxArray@PEBUBVHNode@Gu@physx@@V?$PxInlineAllocator@$0IAA@V?$PxReflectionAllocator@PEBUBVHNode@Gu@physx@@@physx@@@3@@physx@@QEAAXI@Z 000000018016c780 f i GuBVH.obj
 0001:0016b7d0       ?save@BVHData@Gu@physx@@QEBA_NAEAVPxOutputStream@3@_N@Z 000000018016c7d0 f   GuBVH.obj
 0001:0016b940       ?sweep@BVH@Gu@physx@@QEBA_NAEBVShapeData@23@AEBV?$PxVec3T@M@3@MAEAURaycastCallback@PxBVH@3@V?$PxFlags@W4Enum@PxGeometryQueryFlag@physx@@I@3@@Z 000000018016c940 f   GuBVH.obj
 0001:0016bb30       ?sweep@BVH@Gu@physx@@UEBA_NAEBVPxGeometry@3@AEBV?$PxTransformT@M@3@AEBV?$PxVec3T@M@3@MAEAURaycastCallback@PxBVH@3@V?$PxFlags@W4Enum@PxGeometryQueryFlag@physx@@I@3@@Z 000000018016cb30 f   GuBVH.obj
 0001:0016bbb0       ?traverse@BVH@Gu@physx@@UEBA_NAEAUTraversalCallback@PxBVH@3@@Z 000000018016cbb0 f   GuBVH.obj
 0001:0016bd20       ?updateBounds@BVH@Gu@physx@@UEAA_NIAEBVPxBounds3@3@@Z 000000018016cd20 f   GuBVH.obj
 0001:0016bdd0       ?updateBoundsInternal@BVH@Gu@physx@@QEAA_NIAEBVPxBounds3@3@@Z 000000018016cdd0 f   GuBVH.obj
 0001:0016be80       PxFindOverlap              000000018016ce80 f   GuBVH.obj
 0001:0016bf70       PxGetBVHInternalData       000000018016cf70 f   GuBVH.obj
 0001:0016bfb0       ??0IncrementalAABBPrunerCore@Gu@physx@@QEAA@PEBVPruningPool@12@@Z 000000018016cfb0 f   GuIncrementalAABBPrunerCore.obj
 0001:0016c0c0       ??1IncrementalAABBPrunerCore@Gu@physx@@QEAA@XZ 000000018016d0c0 f   GuIncrementalAABBPrunerCore.obj
 0001:0016c230       ??R?$AABBTreeOverlap@$00U?$OBBAABBTests@$00@Gu@physx@@VIncrementalAABBTree@23@VIncrementalAABBTreeNode@23@UOverlapCallbackAdapter@23@@Gu@physx@@QEAA_NAEBVAABBTreeBounds@12@AEBVIncrementalAABBTree@12@AEBU?$OBBAABBTests@$00@12@AEAUOverlapCallbackAdapter@12@@Z 000000018016d230 f i GuIncrementalAABBPrunerCore.obj
 0001:0016c7d0       ??R?$AABBTreeOverlap@$00UAABBAABBTest@Gu@physx@@VIncrementalAABBTree@23@VIncrementalAABBTreeNode@23@UOverlapCallbackAdapter@23@@Gu@physx@@QEAA_NAEBVAABBTreeBounds@12@AEBVIncrementalAABBTree@12@AEBUAABBAABBTest@12@AEAUOverlapCallbackAdapter@12@@Z 000000018016d7d0 f i GuIncrementalAABBPrunerCore.obj
 0001:0016ca30       ??R?$AABBTreeOverlap@$00UCapsuleAABBTest@Gu@physx@@VIncrementalAABBTree@23@VIncrementalAABBTreeNode@23@UOverlapCallbackAdapter@23@@Gu@physx@@QEAA_NAEBVAABBTreeBounds@12@AEBVIncrementalAABBTree@12@AEBUCapsuleAABBTest@12@AEAUOverlapCallbackAdapter@12@@Z 000000018016da30 f i GuIncrementalAABBPrunerCore.obj
 0001:0016cd70       ??R?$AABBTreeRaycast@$00$00VIncrementalAABBTree@Gu@physx@@VIncrementalAABBTreeNode@23@URaycastCallbackAdapter@23@@Gu@physx@@QEAA_NAEBVAABBTreeBounds@12@AEBVIncrementalAABBTree@12@AEBV?$PxVec3T@M@2@2AEAM2AEAURaycastCallbackAdapter@12@@Z 000000018016dd70 f i GuIncrementalAABBPrunerCore.obj
 0001:0016d430       ??R?$AABBTreeRaycast@$0A@$00VIncrementalAABBTree@Gu@physx@@VIncrementalAABBTreeNode@23@URaycastCallbackAdapter@23@@Gu@physx@@QEAA_NAEBVAABBTreeBounds@12@AEBVIncrementalAABBTree@12@AEBV?$PxVec3T@M@2@2AEAM2AEAURaycastCallbackAdapter@12@@Z 000000018016e430 f i GuIncrementalAABBPrunerCore.obj
 0001:0016da60       ?addObject@IncrementalAABBPrunerCore@Gu@physx@@QEAA_NII@Z 000000018016ea60 f   GuIncrementalAABBPrunerCore.obj
 0001:0016db50       ?allocate@?$PxArray@PEBVIncrementalAABBTreeNode@Gu@physx@@V?$PxInlineAllocator@$0IAA@V?$PxReflectionAllocator@PEBVIncrementalAABBTreeNode@Gu@physx@@@physx@@@3@@physx@@IEAAPEAPEBVIncrementalAABBTreeNode@Gu@2@I@Z 000000018016eb50 f i GuIncrementalAABBPrunerCore.obj
 0001:0016dc10       ?clear@?$PxHashMapBase@IPEAVIncrementalAABBTreeNode@Gu@physx@@U?$PxHash@I@3@VPxAllocator@3@@physx@@QEAAXXZ 000000018016ec10 f i GuIncrementalAABBPrunerCore.obj
 0001:0016dc10       ?clear@?$PxHashMapBase@UPrunerPayload@Gu@physx@@UExtendedBucketPrunerData@23@UExtendedBucketPrunerHash@23@VPxAllocator@3@@physx@@QEAAXXZ 000000018016ec10 f i GuExtendedBucketPruner.obj
 0001:0016dca0       ?create@?$PxHashBase@V?$PxPair@$$CBIPEAVIncrementalAABBTreeNode@Gu@physx@@@physx@@IU?$PxHash@I@2@UGetKey@?$PxHashMapBase@IPEAVIncrementalAABBTreeNode@Gu@physx@@U?$PxHash@I@3@VPxAllocator@3@@2@VPxAllocator@2@$00@physx@@QEAAPEAV?$PxPair@$$CBIPEAVIncrementalAABBTreeNode@Gu@physx@@@2@AEBIAEA_N@Z 000000018016eca0 f i GuIncrementalAABBPrunerCore.obj
 0001:0016ddf0       ?erase@?$PxHashBase@V?$PxPair@$$CBIPEAVIncrementalAABBTreeNode@Gu@physx@@@physx@@IU?$PxHash@I@2@UGetKey@?$PxHashMapBase@IPEAVIncrementalAABBTreeNode@Gu@physx@@U?$PxHash@I@3@VPxAllocator@3@@2@VPxAllocator@2@$00@physx@@QEAA_NAEBIAEAV?$PxPair@$$CBIPEAVIncrementalAABBTreeNode@Gu@physx@@@2@@Z 000000018016edf0 f i GuIncrementalAABBPrunerCore.obj
 0001:0016df60       ?getCurrentWorldBoxes@PruningPool@Gu@physx@@QEAAPEAVPxBounds3@3@XZ 000000018016ef60 f i GuIncrementalAABBPrunerCore.obj
 0001:0016df60       ?getCurrentWorldBoxes@PruningPool@Gu@physx@@QEBAPEBVPxBounds3@3@XZ 000000018016ef60 f i GuIncrementalAABBPrunerCore.obj
 0001:0016df60       ?getMesh@CollisionTetrahedronMeshData@Gu@physx@@UEAAPEAVPxTetrahedronMeshData@3@XZ 000000018016ef60 f i GuCookingTetrahedronMesh.obj
 0001:0016df60       ?getMesh@CollisionTetrahedronMeshData@Gu@physx@@UEBAPEBVPxTetrahedronMeshData@3@XZ 000000018016ef60 f i GuCookingTetrahedronMesh.obj
 0001:0016df60       ?getMesh@SimulationTetrahedronMeshData@Gu@physx@@UEAAPEAVPxTetrahedronMeshData@3@XZ 000000018016ef60 f i GuCookingTetrahedronMesh.obj
 0001:0016df70       ?getGlobalBounds@IncrementalAABBPrunerCore@Gu@physx@@QEBAXAEAVPxBounds3@3@@Z 000000018016ef70 f   GuIncrementalAABBPrunerCore.obj
 0001:0016e0a0       ?getIndex@PruningPool@Gu@physx@@QEBAII@Z 000000018016f0a0 f i GuIncrementalAABBPrunerCore.obj
 0001:0016e0b0       ?getPayloadData@PruningPool@Gu@physx@@QEBAAEBUPrunerPayload@23@IPEAUPrunerPayloadData@23@@Z 000000018016f0b0 f i GuIncrementalAABBPrunerCore.obj
 0001:0016e100       ?overlap@IncrementalAABBPrunerCore@Gu@physx@@QEBA_NAEBVShapeData@23@AEAUPrunerOverlapCallback@23@@Z 000000018016f100 f   GuIncrementalAABBPrunerCore.obj
 0001:0016ec70       ?raycast@IncrementalAABBPrunerCore@Gu@physx@@QEBA_NAEBV?$PxVec3T@M@3@0AEAMAEAUPrunerRaycastCallback@23@@Z 000000018016fc70 f   GuIncrementalAABBPrunerCore.obj
 0001:0016ed80       ?recreate@?$PxArray@PEAVIncrementalAABBTreeNode@Gu@physx@@V?$PxReflectionAllocator@PEAVIncrementalAABBTreeNode@Gu@physx@@@3@@physx@@IEAAXI@Z 000000018016fd80 f i GuIncrementalAABBPrunerCore.obj
 0001:0016ee70       ?recreate@?$PxArray@PEBVIncrementalAABBTreeNode@Gu@physx@@V?$PxInlineAllocator@$0IAA@V?$PxReflectionAllocator@PEBVIncrementalAABBTreeNode@Gu@physx@@@physx@@@3@@physx@@IEAAXI@Z 000000018016fe70 f i GuIncrementalAABBPrunerCore.obj
 0001:0016ef30       ?release@IncrementalAABBPrunerCore@Gu@physx@@QEAAXXZ 000000018016ff30 f   GuIncrementalAABBPrunerCore.obj
 0001:0016f030       ?removeMarkedObjects@IncrementalAABBPrunerCore@Gu@physx@@QEAAII@Z 0000000180170030 f   GuIncrementalAABBPrunerCore.obj
 0001:0016f090       ?removeObject@IncrementalAABBPrunerCore@Gu@physx@@QEAA_NIIAEAI@Z 0000000180170090 f   GuIncrementalAABBPrunerCore.obj
 0001:0016f2a0       ?reserveInternal@?$PxHashBase@V?$PxPair@$$CBIPEAVIncrementalAABBTreeNode@Gu@physx@@@physx@@IU?$PxHash@I@2@UGetKey@?$PxHashMapBase@IPEAVIncrementalAABBTreeNode@Gu@physx@@U?$PxHash@I@3@VPxAllocator@3@@2@VPxAllocator@2@$00@physx@@AEAAXI@Z 00000001801702a0 f i GuIncrementalAABBPrunerCore.obj
 0001:0016f460       ?resizeUninitialized@?$PxArray@PEBVIncrementalAABBTreeNode@Gu@physx@@V?$PxInlineAllocator@$0IAA@V?$PxReflectionAllocator@PEBVIncrementalAABBTreeNode@Gu@physx@@@physx@@@3@@physx@@QEAAXI@Z 0000000180170460 f i GuIncrementalAABBPrunerCore.obj
 0001:0016f4b0       ?setTransform@PruningPool@Gu@physx@@QEAA_NIAEBV?$PxTransformT@M@3@@Z 00000001801704b0 f i GuIncrementalAABBPrunerCore.obj
 0001:0016f510       ?shiftOrigin@IncrementalAABBPrunerCore@Gu@physx@@QEAAXAEBV?$PxVec3T@M@3@@Z 0000000180170510 f   GuIncrementalAABBPrunerCore.obj
 0001:0016f550       ?swapIndex@IncrementalAABBPrunerCore@Gu@physx@@QEAAXII@Z 0000000180170550 f   GuIncrementalAABBPrunerCore.obj
 0001:0016f630       ?sweep@IncrementalAABBPrunerCore@Gu@physx@@QEBA_NAEBVShapeData@23@AEBV?$PxVec3T@M@3@AEAMAEAUPrunerRaycastCallback@23@@Z 0000000180170630 f   GuIncrementalAABBPrunerCore.obj
 0001:0016f850       ?updateMapping@IncrementalAABBPrunerCore@Gu@physx@@AEAAXAEAV?$PxHashMap@IPEAVIncrementalAABBTreeNode@Gu@physx@@U?$PxHash@I@3@VPxAllocator@3@@3@IPEAVIncrementalAABBTreeNode@23@@Z 0000000180170850 f   GuIncrementalAABBPrunerCore.obj
 0001:0016f9a0       ?updateObject@IncrementalAABBPrunerCore@Gu@physx@@QEAA_NI@Z 00000001801709a0 f   GuIncrementalAABBPrunerCore.obj
 0001:0016fb40       ?visualize@IncrementalAABBPrunerCore@Gu@physx@@QEBAXAEAVPxRenderOutput@3@I@Z 0000000180170b40 f   GuIncrementalAABBPrunerCore.obj
 0001:0016fba0       ??0IncrementalAABBPruner@Gu@physx@@QEAA@I_K@Z 0000000180170ba0 f   GuIncrementalAABBPruner.obj
 0001:0016fc50       ??R?$AABBTreeOverlap@$00USphereAABBTest@Gu@physx@@VIncrementalAABBTree@23@VIncrementalAABBTreeNode@23@UOverlapCallbackAdapter@23@@Gu@physx@@QEAA_NAEBVAABBTreeBounds@12@AEBVIncrementalAABBTree@12@AEBUSphereAABBTest@12@AEAUOverlapCallbackAdapter@12@@Z 0000000180170c50 f i GuIncrementalAABBPruner.obj
 0001:0016ff20       ??_EBasePruner@Gu@physx@@UEAAPEAXI@Z 0000000180170f20 f i GuIncrementalAABBPruner.obj
 0001:0016ff20       ??_GBasePruner@Gu@physx@@UEAAPEAXI@Z 0000000180170f20 f i GuIncrementalAABBPruner.obj
 0001:0016ff70       ??_EIncrementalAABBPruner@Gu@physx@@UEAAPEAXI@Z 0000000180170f70 f i GuIncrementalAABBPruner.obj
 0001:0016ff70       ??_GIncrementalAABBPruner@Gu@physx@@UEAAPEAXI@Z 0000000180170f70 f i GuIncrementalAABBPruner.obj
 0001:00170080       ?addObjects@IncrementalAABBPruner@Gu@physx@@UEAA_NPEAIPEBVPxBounds3@3@PEBUPrunerPayload@23@PEBV?$PxTransformT@M@3@I_N@Z 0000000180171080 f   GuIncrementalAABBPruner.obj
 0001:00170220       ?commit@IncrementalAABBPruner@Gu@physx@@UEAAXXZ 0000000180171220 f   GuIncrementalAABBPruner.obj
 0001:00170370       ?getGlobalBounds@IncrementalAABBPruner@Gu@physx@@UEBAXAEAVPxBounds3@3@@Z 0000000180171370 f   GuIncrementalAABBPruner.obj
 0001:001703e0       ?getPayloadData@IncrementalAABBPruner@Gu@physx@@UEBAAEBUPrunerPayload@23@IPEAUPrunerPayloadData@23@@Z 00000001801713e0 f i GuIncrementalAABBPruner.obj
 0001:00170430       ?overlap@IncrementalAABBPruner@Gu@physx@@UEBA_NAEBVShapeData@23@AEAUPrunerOverlapCallback@23@@Z 0000000180171430 f   GuIncrementalAABBPruner.obj
 0001:00170b40       ?preallocate@IncrementalAABBPruner@Gu@physx@@UEAAXI@Z 0000000180171b40 f i GuIncrementalAABBPruner.obj
 0001:00170b50       ?purge@IncrementalAABBPruner@Gu@physx@@UEAAXXZ 0000000180171b50 f   GuIncrementalAABBPruner.obj
 0001:00170ba0       ?raycast@IncrementalAABBPruner@Gu@physx@@UEBA_NAEBV?$PxVec3T@M@3@0AEAMAEAUPrunerRaycastCallback@23@@Z 0000000180171ba0 f   GuIncrementalAABBPruner.obj
 0001:00170c20       ?removeObjects@IncrementalAABBPruner@Gu@physx@@UEAAXPEBIIPEAUPrunerPayloadRemovalCallback@23@@Z 0000000180171c20 f   GuIncrementalAABBPruner.obj
 0001:00170d70       ?resize@?$PxArray@PEAVIncrementalAABBTreeNode@Gu@physx@@V?$PxReflectionAllocator@PEAVIncrementalAABBTreeNode@Gu@physx@@@3@@physx@@QEAAXIAEBQEAVIncrementalAABBTreeNode@Gu@2@@Z 0000000180171d70 f i GuIncrementalAABBPruner.obj
 0001:00170e30       ?resizeUninitialized@?$PxArray@PEAVIncrementalAABBTreeNode@Gu@physx@@V?$PxReflectionAllocator@PEAVIncrementalAABBTreeNode@Gu@physx@@@3@@physx@@QEAAXI@Z 0000000180171e30 f i GuIncrementalAABBPruner.obj
 0001:00170e70       ?setTransform@IncrementalAABBPruner@Gu@physx@@UEAA_NIAEBV?$PxTransformT@M@3@@Z 0000000180171e70 f i GuIncrementalAABBPruner.obj
 0001:00170ed0       ?shiftOrigin@IncrementalAABBPruner@Gu@physx@@UEAAXAEBV?$PxVec3T@M@3@@Z 0000000180171ed0 f   GuIncrementalAABBPruner.obj
 0001:00170f10       ?sweep@IncrementalAABBPruner@Gu@physx@@UEBA_NAEBVShapeData@23@AEBV?$PxVec3T@M@3@AEAMAEAUPrunerRaycastCallback@23@@Z 0000000180171f10 f   GuIncrementalAABBPruner.obj
 0001:00171030       ?updateObjects@IncrementalAABBPruner@Gu@physx@@UEAAXPEBIIM0PEBVPxBounds3@3@PEBUPxTransformPadded@3@@Z 0000000180172030 f   GuIncrementalAABBPruner.obj
 0001:00171200       ?visualize@IncrementalAABBPruner@Gu@physx@@UEBAXAEAVPxRenderOutput@3@II@Z 0000000180172200 f   GuIncrementalAABBPruner.obj
 0001:001713f0       ??0PruningPool@Gu@physx@@QEAA@_KW4TransformCacheMode@12@@Z 00000001801723f0 f   GuPruningPool.obj
 0001:00171420       ??1PruningPool@Gu@physx@@QEAA@XZ 0000000180172420 f   GuPruningPool.obj
 0001:001714f0       ?addObjects@PruningPool@Gu@physx@@QEAAIPEAIPEBVPxBounds3@3@PEBUPrunerPayload@23@PEBV?$PxTransformT@M@3@I@Z 00000001801724f0 f   GuPruningPool.obj
 0001:00171690       ?preallocate@PruningPool@Gu@physx@@QEAAXI@Z 0000000180172690 f   GuPruningPool.obj
 0001:001716a0       ?removeObject@PruningPool@Gu@physx@@QEAAIIPEAUPrunerPayloadRemovalCallback@23@@Z 00000001801726a0 f   GuPruningPool.obj
 0001:001717e0       ?resize@PruningPool@Gu@physx@@QEAA_NI@Z 00000001801727e0 f   GuPruningPool.obj
 0001:00171ac0       ?shiftOrigin@PruningPool@Gu@physx@@QEAAXAEBV?$PxVec3T@M@3@@Z 0000000180172ac0 f   GuPruningPool.obj
 0001:00171e90       ?updateAndInflateBounds@PruningPool@Gu@physx@@QEAAXPEBI0PEBVPxBounds3@3@PEBUPxTransformPadded@3@IM@Z 0000000180172e90 f   GuPruningPool.obj
 0001:001738c0       ??0BucketPruner@Gu@physx@@QEAA@_K@Z 00000001801748c0 f   GuBucketPruner.obj
 0001:00173910       ??0BucketPrunerCore@Gu@physx@@QEAA@_N@Z 0000000180174910 f   GuBucketPruner.obj
 0001:00173c90       ??1BucketPrunerCore@Gu@physx@@QEAA@XZ 0000000180174c90 f   GuBucketPruner.obj
 0001:00173cb0       ??R?$BucketPrunerOverlapTraversal@UBucketPrunerAABBAABBTest@@$00@@QEBA_NAEBVBucketPrunerCore@Gu@physx@@AEBUBucketPrunerAABBAABBTest@@AEAUPrunerOverlapCallback@23@AEBVPxBounds3@3@@Z 0000000180174cb0 f i GuBucketPruner.obj
 0001:00174270       ??R?$BucketPrunerOverlapTraversal@UOBBAABBTest_SIMD@@$0A@@@QEBA_NAEBVBucketPrunerCore@Gu@physx@@AEBUOBBAABBTest_SIMD@@AEAUPrunerOverlapCallback@23@AEBVPxBounds3@3@@Z 0000000180175270 f i GuBucketPruner.obj
 0001:00174af0       ??R?$BucketPrunerOverlapTraversal@USphereAABBTest_SIMD@@$00@@QEBA_NAEBVBucketPrunerCore@Gu@physx@@AEBUSphereAABBTest_SIMD@@AEAUPrunerOverlapCallback@23@AEBVPxBounds3@3@@Z 0000000180175af0 f i GuBucketPruner.obj
 0001:001750d0       ??_FBucketPrunerCore@Gu@physx@@QEAAXXZ 00000001801760d0 f i GuBucketPruner.obj
 0001:001750e0       ??_EBucketPruner@Gu@physx@@UEAAPEAXI@Z 00000001801760e0 f i GuBucketPruner.obj
 0001:001750e0       ??_GBucketPruner@Gu@physx@@UEAAPEAXI@Z 00000001801760e0 f i GuBucketPruner.obj
 0001:00175180       ?addObject@BucketPrunerCore@Gu@physx@@QEAA_NAEBUPrunerPayload@23@AEBVPxBounds3@3@AEBV?$PxTransformT@M@3@I@Z 0000000180176180 f   GuBucketPruner.obj
 0001:00175490       ?addObjects@BucketPruner@Gu@physx@@UEAA_NPEAIPEBVPxBounds3@3@PEBUPrunerPayload@23@PEBV?$PxTransformT@M@3@I_N@Z 0000000180176490 f   GuBucketPruner.obj
 0001:00175520       ?addPair@BucketPrunerMap@Gu@physx@@QEAAPEAUBucketPrunerPair@23@AEBUPrunerPayload@23@II@Z 0000000180176520 f   GuBucketPruner.obj
 0001:00175720       ?allocateSortedMemory@BucketPrunerCore@Gu@physx@@AEAAXI@Z 0000000180176720 f   GuBucketPruner.obj
 0001:001758e0       ?classifyBoxes@BucketPrunerCore@Gu@physx@@AEAAXXZ 00000001801768e0 f   GuBucketPruner.obj
 0001:001760d0       ?classifyBoxes@BucketPrunerNode@Gu@physx@@QEAAXMMIPEIAUBucketBox@23@PEIBUPrunerPayload@23@PEIBV?$PxTransformT@M@3@0PEIAU523@PEIAV63@_NI@Z 00000001801770d0 f   GuBucketPruner.obj
 0001:00176950       ?build@CompanionPrunerBucket@@UEAAXXZ 0000000180177950 f   GuSecondaryPruner.obj
 0001:00176950       ?commit@BucketPruner@Gu@physx@@UEAAXXZ 0000000180177950 f   GuBucketPruner.obj
 0001:00176960       ?findPair@BucketPrunerMap@Gu@physx@@QEBAPEBUBucketPrunerPair@23@AEBUPrunerPayload@23@@Z 0000000180177960 f   GuBucketPruner.obj
 0001:00176d40       ?getGlobalBounds@BucketPruner@Gu@physx@@UEBAXAEAVPxBounds3@3@@Z 0000000180177d40 f   GuBucketPruner.obj
 0001:00176db0       ?getGlobalBounds@BucketPrunerCore@Gu@physx@@QEBAXAEAVPxBounds3@3@@Z 0000000180177db0 f   GuBucketPruner.obj
 0001:00176e20       ?getPayloadData@BucketPruner@Gu@physx@@UEBAAEBUPrunerPayload@23@IPEAUPrunerPayloadData@23@@Z 0000000180177e20 f i GuBucketPruner.obj
 0001:00176e80       ?overlap@BucketPruner@Gu@physx@@UEBA_NAEBVShapeData@23@AEAUPrunerOverlapCallback@23@@Z 0000000180177e80 f   GuBucketPruner.obj
 0001:00176ea0       ?overlap@BucketPrunerCore@Gu@physx@@QEBA_NAEBVShapeData@23@AEAUPrunerOverlapCallback@23@@Z 0000000180177ea0 f   GuBucketPruner.obj
 0001:00177180       ?preallocate@BucketPruner@Gu@physx@@UEAAXI@Z 0000000180178180 f i GuBucketPruner.obj
 0001:00177360       ?purge@BucketPrunerMap@Gu@physx@@QEAAXXZ 0000000180178360 f   GuBucketPruner.obj
 0001:001773f0       ?raycast@BucketPruner@Gu@physx@@UEBA_NAEBV?$PxVec3T@M@3@0AEAMAEAUPrunerRaycastCallback@23@@Z 00000001801783f0 f   GuBucketPruner.obj
 0001:00177440       ?raycast@BucketPrunerCore@Gu@physx@@QEBA_NAEBV?$PxVec3T@M@3@0AEAMAEAUPrunerRaycastCallback@23@@Z 0000000180178440 f   GuBucketPruner.obj
 0001:00177480       ?reallocPairs@BucketPrunerMap@Gu@physx@@QEAAXXZ 0000000180178480 f   GuBucketPruner.obj
 0001:001776c0       ?release@BucketPrunerCore@Gu@physx@@QEAAXXZ 00000001801786c0 f   GuBucketPruner.obj
 0001:00177800       ?removeMarkedObjects@BucketPrunerCore@Gu@physx@@QEAAII@Z 0000000180178800 f   GuBucketPruner.obj
 0001:00177bd0       ?removeObject@BucketPrunerCore@Gu@physx@@QEAA_NAEBUPrunerPayload@23@AEAI@Z 0000000180178bd0 f   GuBucketPruner.obj
 0001:00177e90       ?removeObjects@BucketPruner@Gu@physx@@UEAAXPEBIIPEAUPrunerPayloadRemovalCallback@23@@Z 0000000180178e90 f   GuBucketPruner.obj
 0001:00177f40       ?removePair@BucketPrunerMap@Gu@physx@@QEAA_NAEBUPrunerPayload@23@AEAI1@Z 0000000180178f40 f   GuBucketPruner.obj
 0001:001780c0       ?removePairInternal@BucketPrunerMap@Gu@physx@@QEAAXAEBUPrunerPayload@23@II@Z 00000001801790c0 f   GuBucketPruner.obj
 0001:00178250       ?resizeCore@BucketPrunerCore@Gu@physx@@AEAAXXZ 0000000180179250 f   GuBucketPruner.obj
 0001:001784a0       ?setTransform@BucketPruner@Gu@physx@@UEAA_NIAEBV?$PxTransformT@M@3@@Z 00000001801794a0 f i GuBucketPruner.obj
 0001:00178500       ?shiftOrigin@BucketPruner@Gu@physx@@UEAAXAEBV?$PxVec3T@M@3@@Z 0000000180179500 f   GuBucketPruner.obj
 0001:00178500       ?shiftOrigin@CompanionPrunerBucket@@UEAAXAEBV?$PxVec3T@M@physx@@@Z 0000000180179500 f   GuSecondaryPruner.obj
 0001:00178510       ?shiftOrigin@BucketPrunerCore@Gu@physx@@QEAAXAEBV?$PxVec3T@M@3@@Z 0000000180179510 f   GuBucketPruner.obj
 0001:00179340       ?sweep@BucketPruner@Gu@physx@@UEBA_NAEBVShapeData@23@AEBV?$PxVec3T@M@3@AEAMAEAUPrunerRaycastCallback@23@@Z 000000018017a340 f   GuBucketPruner.obj
 0001:00179360       ?sweep@BucketPrunerCore@Gu@physx@@QEBA_NAEBVShapeData@23@AEBV?$PxVec3T@M@3@AEAMAEAUPrunerRaycastCallback@23@@Z 000000018017a360 f   GuBucketPruner.obj
 0001:00179430       ?updateObject@BucketPrunerCore@Gu@physx@@QEAA_NAEBVPxBounds3@3@AEBUPrunerPayload@23@AEBV?$PxTransformT@M@3@@Z 000000018017a430 f   GuBucketPruner.obj
 0001:00179490       ?updateObjects@BucketPruner@Gu@physx@@UEAAXPEBIIM0PEBVPxBounds3@3@PEBUPxTransformPadded@3@@Z 000000018017a490 f   GuBucketPruner.obj
 0001:001795a0       ?visualize@BucketPruner@Gu@physx@@UEBAXAEAVPxRenderOutput@3@II@Z 000000018017a5a0 f   GuBucketPruner.obj
 0001:001795a0       ?visualize@CompanionPrunerBucket@@UEBAXAEAVPxRenderOutput@physx@@I@Z 000000018017a5a0 f   GuSecondaryPruner.obj
 0001:001795b0       ?visualize@BucketPrunerCore@Gu@physx@@QEBAXAEAVPxRenderOutput@3@I@Z 000000018017a5b0 f   GuBucketPruner.obj
 0001:00179a30       ?addObject@MaverickNode@Gu@physx@@QEAA_NAEBUPrunerPayload@23@IAEBVPxBounds3@3@AEBV?$PxTransformT@M@3@I@Z 000000018017aa30 f   GuMaverickNode.obj
 0001:00179b10       ?removeMarkedObjects@MaverickNode@Gu@physx@@QEAAII@Z 000000018017ab10 f   GuMaverickNode.obj
 0001:00179ca0       ?removeObject@MaverickNode@Gu@physx@@QEAA_NIAEAI@Z 000000018017aca0 f   GuMaverickNode.obj
 0001:00179e30       ?shiftOrigin@MaverickNode@Gu@physx@@QEAAXAEBV?$PxVec3T@M@3@@Z 000000018017ae30 f   GuMaverickNode.obj
 0001:00179f20       ?updateObject@MaverickNode@Gu@physx@@QEAA_NIAEBVPxBounds3@3@AEBV?$PxTransformT@M@3@@Z 000000018017af20 f   GuMaverickNode.obj
 0001:0017a000       ??0ExtendedBucketPruner@Gu@physx@@QEAA@_KW4CompanionPrunerType@12@PEBVPruningPool@12@@Z 000000018017b000 f   GuExtendedBucketPruner.obj
 0001:0017a230       ??1ExtendedBucketPruner@Gu@physx@@QEAA@XZ 000000018017b230 f   GuExtendedBucketPruner.obj
 0001:0017a3a0       ??R?$AABBTreeOverlap@$00U?$OBBAABBTests@$00@Gu@physx@@VAABBTree@23@UBVHNode@23@U?$MainTreeOverlapPrunerCallback@U?$OBBAABBTests@$00@Gu@physx@@@@@Gu@physx@@QEAA_NAEBVAABBTreeBounds@12@AEBVAABBTree@12@AEBU?$OBBAABBTests@$00@12@AEAU?$MainTreeOverlapPrunerCallback@U?$OBBAABBTests@$00@Gu@physx@@@@@Z 000000018017b3a0 f i GuExtendedBucketPruner.obj
 0001:0017a980       ??R?$AABBTreeOverlap@$00U?$OBBAABBTests@$00@Gu@physx@@VAABBTree@23@UBVHNode@23@UOverlapCallbackAdapter@23@@Gu@physx@@QEAA_NAEBVAABBTreeBounds@12@AEBVAABBTree@12@AEBU?$OBBAABBTests@$00@12@AEAUOverlapCallbackAdapter@12@@Z 000000018017b980 f i GuExtendedBucketPruner.obj
 0001:0017af30       ??R?$AABBTreeOverlap@$00UAABBAABBTest@Gu@physx@@VAABBTree@23@UBVHNode@23@U?$MainTreeOverlapPrunerCallback@UAABBAABBTest@Gu@physx@@@@@Gu@physx@@QEAA_NAEBVAABBTreeBounds@12@AEBVAABBTree@12@AEBUAABBAABBTest@12@AEAU?$MainTreeOverlapPrunerCallback@UAABBAABBTest@Gu@physx@@@@@Z 000000018017bf30 f i GuExtendedBucketPruner.obj
 0001:0017b1d0       ??R?$AABBTreeOverlap@$00UAABBAABBTest@Gu@physx@@VAABBTree@23@UBVHNode@23@UOverlapCallbackAdapter@23@@Gu@physx@@QEAA_NAEBVAABBTreeBounds@12@AEBVAABBTree@12@AEBUAABBAABBTest@12@AEAUOverlapCallbackAdapter@12@@Z 000000018017c1d0 f i GuExtendedBucketPruner.obj
 0001:0017b460       ??R?$AABBTreeOverlap@$00UCapsuleAABBTest@Gu@physx@@VAABBTree@23@UBVHNode@23@U?$MainTreeOverlapPrunerCallback@UCapsuleAABBTest@Gu@physx@@@@@Gu@physx@@QEAA_NAEBVAABBTreeBounds@12@AEBVAABBTree@12@AEBUCapsuleAABBTest@12@AEAU?$MainTreeOverlapPrunerCallback@UCapsuleAABBTest@Gu@physx@@@@@Z 000000018017c460 f i GuExtendedBucketPruner.obj
 0001:0017b800       ??R?$AABBTreeOverlap@$00UCapsuleAABBTest@Gu@physx@@VAABBTree@23@UBVHNode@23@UOverlapCallbackAdapter@23@@Gu@physx@@QEAA_NAEBVAABBTreeBounds@12@AEBVAABBTree@12@AEBUCapsuleAABBTest@12@AEAUOverlapCallbackAdapter@12@@Z 000000018017c800 f i GuExtendedBucketPruner.obj
 0001:0017bb90       ??R?$AABBTreeOverlap@$00USphereAABBTest@Gu@physx@@VAABBTree@23@UBVHNode@23@U?$MainTreeOverlapPrunerCallback@USphereAABBTest@Gu@physx@@@@@Gu@physx@@QEAA_NAEBVAABBTreeBounds@12@AEBVAABBTree@12@AEBUSphereAABBTest@12@AEAU?$MainTreeOverlapPrunerCallback@USphereAABBTest@Gu@physx@@@@@Z 000000018017cb90 f i GuExtendedBucketPruner.obj
 0001:0017bea0       ??R?$AABBTreeOverlap@$00USphereAABBTest@Gu@physx@@VAABBTree@23@UBVHNode@23@UOverlapCallbackAdapter@23@@Gu@physx@@QEAA_NAEBVAABBTreeBounds@12@AEBVAABBTree@12@AEBUSphereAABBTest@12@AEAUOverlapCallbackAdapter@12@@Z 000000018017cea0 f i GuExtendedBucketPruner.obj
 0001:0017c190       ??R?$AABBTreeRaycast@$00$00VAABBTree@Gu@physx@@UBVHNode@23@U?$MainTreeRaycastPrunerCallback@$00@@@Gu@physx@@QEAA_NAEBVAABBTreeBounds@12@AEBVAABBTree@12@AEBV?$PxVec3T@M@2@2AEAM2AEAU?$MainTreeRaycastPrunerCallback@$00@@@Z 000000018017d190 f i GuExtendedBucketPruner.obj
 0001:0017c8b0       ??R?$AABBTreeRaycast@$00$00VAABBTree@Gu@physx@@UBVHNode@23@URaycastCallbackAdapter@23@@Gu@physx@@QEAA_NAEBVAABBTreeBounds@12@AEBVAABBTree@12@AEBV?$PxVec3T@M@2@2AEAM2AEAURaycastCallbackAdapter@12@@Z 000000018017d8b0 f i GuExtendedBucketPruner.obj
 0001:0017cf90       ??R?$AABBTreeRaycast@$0A@$00VAABBTree@Gu@physx@@UBVHNode@23@U?$MainTreeRaycastPrunerCallback@$0A@@@@Gu@physx@@QEAA_NAEBVAABBTreeBounds@12@AEBVAABBTree@12@AEBV?$PxVec3T@M@2@2AEAM2AEAU?$MainTreeRaycastPrunerCallback@$0A@@@@Z 000000018017df90 f i GuExtendedBucketPruner.obj
 0001:0017d640       ??R?$AABBTreeRaycast@$0A@$00VAABBTree@Gu@physx@@UBVHNode@23@URaycastCallbackAdapter@23@@Gu@physx@@QEAA_NAEBVAABBTreeBounds@12@AEBVAABBTree@12@AEBV?$PxVec3T@M@2@2AEAM2AEAURaycastCallbackAdapter@12@@Z 000000018017e640 f i GuExtendedBucketPruner.obj
 0001:0017dcb0       ?addTree@ExtendedBucketPruner@Gu@physx@@QEAAXAEBVAABBTreeMergeData@23@I@Z 000000018017ecb0 f   GuExtendedBucketPruner.obj
 0001:0017df90       ?buildMainAABBTree@ExtendedBucketPruner@Gu@physx@@AEAAXXZ 000000018017ef90 f   GuExtendedBucketPruner.obj
 0001:0017e040       ?create@?$PxHashBase@V?$PxPair@$$CBUPrunerPayload@Gu@physx@@UExtendedBucketPrunerData@23@@physx@@UPrunerPayload@Gu@2@UExtendedBucketPrunerHash@42@UGetKey@?$PxHashMapBase@UPrunerPayload@Gu@physx@@UExtendedBucketPrunerData@23@UExtendedBucketPrunerHash@23@VPxAllocator@3@@2@VPxAllocator@2@$00@physx@@QEAAPEAV?$PxPair@$$CBUPrunerPayload@Gu@physx@@UExtendedBucketPrunerData@23@@2@AEBUPrunerPayload@Gu@2@AEA_N@Z 000000018017f040 f i GuExtendedBucketPruner.obj
 0001:0017e210       ?eraseInternal@?$PxHashBase@V?$PxPair@$$CBUPrunerPayload@Gu@physx@@UExtendedBucketPrunerData@23@@physx@@UPrunerPayload@Gu@2@UExtendedBucketPrunerHash@42@UGetKey@?$PxHashMapBase@UPrunerPayload@Gu@physx@@UExtendedBucketPrunerData@23@UExtendedBucketPrunerHash@23@VPxAllocator@3@@2@VPxAllocator@2@$00@physx@@AEAA_NPEAI@Z 000000018017f210 f i GuExtendedBucketPruner.obj
 0001:0017e330       ?find@?$PxHashMapBase@UPrunerPayload@Gu@physx@@UExtendedBucketPrunerData@23@UExtendedBucketPrunerHash@23@VPxAllocator@3@@physx@@QEBAPEBV?$PxPair@$$CBUPrunerPayload@Gu@physx@@UExtendedBucketPrunerData@23@@2@AEBUPrunerPayload@Gu@2@@Z 000000018017f330 f i GuExtendedBucketPruner.obj
 0001:0017e420       ?getGlobalBounds@ExtendedBucketPruner@Gu@physx@@QEBAXAEAVPxBounds3@3@@Z 000000018017f420 f   GuExtendedBucketPruner.obj
 0001:0017e4f0       ?invalidateObject@ExtendedBucketPruner@Gu@physx@@AEAAXAEBUExtendedBucketPrunerData@23@IAEBUPrunerPayload@23@I@Z 000000018017f4f0 f   GuExtendedBucketPruner.obj
 0001:0017e630       ?overlap@ExtendedBucketPruner@Gu@physx@@QEBA_NAEBVShapeData@23@AEAUPrunerOverlapCallback@23@@Z 000000018017f630 f   GuExtendedBucketPruner.obj
 0001:0017ee00       ?raycast@ExtendedBucketPruner@Gu@physx@@QEBA_NAEBV?$PxVec3T@M@3@0AEAMAEAUPrunerRaycastCallback@23@@Z 000000018017fe00 f   GuExtendedBucketPruner.obj
 0001:0017eee0       ?refitMarkedNodes@ExtendedBucketPruner@Gu@physx@@QEAAXPEBVPxBounds3@3@@Z 000000018017fee0 f   GuExtendedBucketPruner.obj
 0001:0017f460       ?release@ExtendedBucketPruner@Gu@physx@@QEAAXXZ 0000000180180460 f   GuExtendedBucketPruner.obj
 0001:0017f530       ?removeMarkedObjects@ExtendedBucketPruner@Gu@physx@@QEAAII@Z 0000000180180530 f   GuExtendedBucketPruner.obj
 0001:0017f850       ?removeObject@ExtendedBucketPruner@Gu@physx@@QEAA_NAEBUPrunerPayload@23@II0I@Z 0000000180180850 f   GuExtendedBucketPruner.obj
 0001:0017fa40       ?reserveInternal@?$PxHashBase@V?$PxPair@$$CBUPrunerPayload@Gu@physx@@UExtendedBucketPrunerData@23@@physx@@UPrunerPayload@Gu@2@UExtendedBucketPrunerHash@42@UGetKey@?$PxHashMapBase@UPrunerPayload@Gu@physx@@UExtendedBucketPrunerData@23@UExtendedBucketPrunerHash@23@VPxAllocator@3@@2@VPxAllocator@2@$00@physx@@AEAAXI@Z 0000000180180a40 f i GuExtendedBucketPruner.obj
 0001:0017fc40       ?shiftOrigin@ExtendedBucketPruner@Gu@physx@@QEAAXAEBV?$PxVec3T@M@3@@Z 0000000180180c40 f   GuExtendedBucketPruner.obj
 0001:0017fcc0       ?swapIndex@ExtendedBucketPruner@Gu@physx@@QEAAXIAEBUPrunerPayload@23@I_N@Z 0000000180180cc0 f   GuExtendedBucketPruner.obj
 0001:0017fd90       ?sweep@ExtendedBucketPruner@Gu@physx@@QEBA_NAEBVShapeData@23@AEBV?$PxVec3T@M@3@AEAMAEAUPrunerRaycastCallback@23@@Z 0000000180180d90 f   GuExtendedBucketPruner.obj
 0001:0017ff20       ?updateObject@ExtendedBucketPruner@Gu@physx@@QEAA_NAEBVPxBounds3@3@AEBV?$PxTransformT@M@3@AEBUPrunerPayload@23@II@Z 0000000180180f20 f   GuExtendedBucketPruner.obj
 0001:0017fff0       ?visualize@ExtendedBucketPruner@Gu@physx@@QEBAXAEAVPxRenderOutput@3@I@Z 0000000180180ff0 f   GuExtendedBucketPruner.obj
 0001:00180080       ??0?$OBBAABBTests@$00@Gu@physx@@QEAA@AEBV?$PxVec3T@M@2@AEBV?$PxMat33T@M@2@0@Z 0000000180181080 f i GuSecondaryPruner.obj
 0001:00181fb0       ??_ECompanionPruner@Gu@physx@@UEAAPEAXI@Z 0000000180182fb0 f i GuSecondaryPruner.obj
 0001:00181fb0       ??_GCompanionPruner@Gu@physx@@UEAAPEAXI@Z 0000000180182fb0 f i GuSecondaryPruner.obj
 0001:00182000       ??_ECompanionPrunerAABBTree@@UEAAPEAXI@Z 0000000180183000 f i GuSecondaryPruner.obj
 0001:00182000       ??_GCompanionPrunerAABBTree@@UEAAPEAXI@Z 0000000180183000 f i GuSecondaryPruner.obj
 0001:001820b0       ??_ECompanionPrunerBucket@@UEAAPEAXI@Z 00000001801830b0 f i GuSecondaryPruner.obj
 0001:001820b0       ??_GCompanionPrunerBucket@@UEAAPEAXI@Z 00000001801830b0 f i GuSecondaryPruner.obj
 0001:00182130       ??_ECompanionPrunerIncremental@@UEAAPEAXI@Z 0000000180183130 f i GuSecondaryPruner.obj
 0001:00182130       ??_GCompanionPrunerIncremental@@UEAAPEAXI@Z 0000000180183130 f i GuSecondaryPruner.obj
 0001:001821b0       ?addObject@CompanionPrunerAABBTree@@UEAA_NAEBUPrunerPayload@Gu@physx@@IAEBVPxBounds3@4@AEBV?$PxTransformT@M@4@II@Z 00000001801831b0 f   GuSecondaryPruner.obj
 0001:001823f0       ?addObject@CompanionPrunerBucket@@UEAA_NAEBUPrunerPayload@Gu@physx@@IAEBVPxBounds3@4@AEBV?$PxTransformT@M@4@II@Z 00000001801833f0 f i GuSecondaryPruner.obj
 0001:00182410       ?addObject@CompanionPrunerIncremental@@UEAA_NAEBUPrunerPayload@Gu@physx@@IAEBVPxBounds3@4@AEBV?$PxTransformT@M@4@II@Z 0000000180183410 f i GuSecondaryPruner.obj
 0001:00182430       ?addObjectInternal@CompanionPrunerAABBTree@@QEAA_NII@Z 0000000180183430 f   GuSecondaryPruner.obj
 0001:001825d0       ?build@CompanionPrunerAABBTree@@UEAAXXZ 00000001801835d0 f   GuSecondaryPruner.obj
 0001:00182aa0       ?createCompanionPruner@Gu@physx@@YAPEAVCompanionPruner@12@_KW4CompanionPrunerType@12@PEBVPruningPool@12@@Z 0000000180183aa0 f   GuSecondaryPruner.obj
 0001:00182ca0       ?getGlobalBounds@CompanionPrunerAABBTree@@UEBAXAEAVPxBounds3@physx@@@Z 0000000180183ca0 f   GuSecondaryPruner.obj
 0001:00182d90       ?getGlobalBounds@CompanionPrunerBucket@@UEBAXAEAVPxBounds3@physx@@@Z 0000000180183d90 f i GuSecondaryPruner.obj
 0001:00182da0       ?getGlobalBounds@CompanionPrunerIncremental@@UEBAXAEAVPxBounds3@physx@@@Z 0000000180183da0 f i GuSecondaryPruner.obj
 0001:00182db0       ?getNbObjects@CompanionPrunerAABBTree@@UEBAIXZ 0000000180183db0 f   GuSecondaryPruner.obj
 0001:00182dc0       ?getNbObjects@CompanionPrunerBucket@@UEBAIXZ 0000000180183dc0 f i GuSecondaryPruner.obj
 0001:00182dd0       ?getNbObjects@CompanionPrunerIncremental@@UEBAIXZ 0000000180183dd0 f i GuSecondaryPruner.obj
 0001:00182de0       ?growAndPushBack@?$PxArray@ULocalData@CompanionPrunerAABBTree@@V?$PxReflectionAllocator@ULocalData@CompanionPrunerAABBTree@@@physx@@@physx@@IEAAAEAULocalData@CompanionPrunerAABBTree@@AEBU34@@Z 0000000180183de0 f i GuSecondaryPruner.obj
 0001:00182f00       ?overlap@CompanionPrunerAABBTree@@UEBA_NAEBVShapeData@Gu@physx@@AEAUPrunerOverlapCallback@34@@Z 0000000180183f00 f   GuSecondaryPruner.obj
 0001:00183e80       ?overlap@CompanionPrunerBucket@@UEBA_NAEBVShapeData@Gu@physx@@AEAUPrunerOverlapCallback@34@@Z 0000000180184e80 f i GuSecondaryPruner.obj
 0001:00183ea0       ?overlap@CompanionPrunerIncremental@@UEBA_NAEBVShapeData@Gu@physx@@AEAUPrunerOverlapCallback@34@@Z 0000000180184ea0 f i GuSecondaryPruner.obj
 0001:00183ec0       ?raycast@CompanionPrunerAABBTree@@UEBA_NAEBV?$PxVec3T@M@physx@@0AEAMAEAUPrunerRaycastCallback@Gu@3@@Z 0000000180184ec0 f   GuSecondaryPruner.obj
 0001:001842a0       ?raycast@CompanionPrunerBucket@@UEBA_NAEBV?$PxVec3T@M@physx@@0AEAMAEAUPrunerRaycastCallback@Gu@3@@Z 00000001801852a0 f i GuSecondaryPruner.obj
 0001:001842c0       ?raycast@CompanionPrunerIncremental@@UEBA_NAEBV?$PxVec3T@M@physx@@0AEAMAEAUPrunerRaycastCallback@Gu@3@@Z 00000001801852c0 f i GuSecondaryPruner.obj
 0001:001842e0       ?release@CompanionPrunerAABBTree@@UEAAXXZ 00000001801852e0 f   GuSecondaryPruner.obj
 0001:001842f0       ?release@CompanionPrunerBucket@@UEAAXXZ 00000001801852f0 f i GuSecondaryPruner.obj
 0001:00184300       ?release@CompanionPrunerIncremental@@UEAAXXZ 0000000180185300 f i GuSecondaryPruner.obj
 0001:00184310       ?releaseInternal@CompanionPrunerAABBTree@@QEAAXXZ 0000000180185310 f   GuSecondaryPruner.obj
 0001:00184390       ?removeMarkedObjects@CompanionPrunerAABBTree@@UEAAII@Z 0000000180185390 f   GuSecondaryPruner.obj
 0001:001843b0       ?removeMarkedObjects@CompanionPrunerBucket@@UEAAII@Z 00000001801853b0 f i GuSecondaryPruner.obj
 0001:001843c0       ?removeMarkedObjects@CompanionPrunerIncremental@@UEAAII@Z 00000001801853c0 f i GuSecondaryPruner.obj
 0001:001843d0       ?removeObject@CompanionPrunerAABBTree@@UEAA_NAEBUPrunerPayload@Gu@physx@@III@Z 00000001801853d0 f   GuSecondaryPruner.obj
 0001:00184470       ?removeObject@CompanionPrunerBucket@@UEAA_NAEBUPrunerPayload@Gu@physx@@III@Z 0000000180185470 f i GuSecondaryPruner.obj
 0001:00184490       ?removeObject@CompanionPrunerIncremental@@UEAA_NAEBUPrunerPayload@Gu@physx@@III@Z 0000000180185490 f i GuSecondaryPruner.obj
 0001:001844b0       ?shiftOrigin@CompanionPrunerAABBTree@@UEAAXAEBV?$PxVec3T@M@physx@@@Z 00000001801854b0 f   GuSecondaryPruner.obj
 0001:001845e0       ?shiftOrigin@CompanionPrunerIncremental@@UEAAXAEBV?$PxVec3T@M@physx@@@Z 00000001801855e0 f i GuSecondaryPruner.obj
 0001:001845f0       ?swapIndex@CompanionPrunerIncremental@@UEAAXII@Z 00000001801855f0 f i GuSecondaryPruner.obj
 0001:00184600       ?sweep@CompanionPrunerAABBTree@@UEBA_NAEBVShapeData@Gu@physx@@AEBV?$PxVec3T@M@4@AEAMAEAUPrunerRaycastCallback@34@@Z 0000000180185600 f   GuSecondaryPruner.obj
 0001:00184b30       ?sweep@CompanionPrunerBucket@@UEBA_NAEBVShapeData@Gu@physx@@AEBV?$PxVec3T@M@4@AEAMAEAUPrunerRaycastCallback@34@@Z 0000000180185b30 f i GuSecondaryPruner.obj
 0001:00184b50       ?sweep@CompanionPrunerIncremental@@UEBA_NAEBVShapeData@Gu@physx@@AEBV?$PxVec3T@M@4@AEAMAEAUPrunerRaycastCallback@34@@Z 0000000180185b50 f i GuSecondaryPruner.obj
 0001:00184b70       ?timeStampChange@CompanionPrunerIncremental@@UEAAXXZ 0000000180185b70 f i GuSecondaryPruner.obj
 0001:00184b90       ?updateObject@CompanionPrunerAABBTree@@UEAA_NAEBUPrunerPayload@Gu@physx@@IAEBVPxBounds3@4@AEBV?$PxTransformT@M@4@I@Z 0000000180185b90 f   GuSecondaryPruner.obj
 0001:00184c10       ?updateObject@CompanionPrunerBucket@@UEAA_NAEBUPrunerPayload@Gu@physx@@IAEBVPxBounds3@4@AEBV?$PxTransformT@M@4@I@Z 0000000180185c10 f i GuSecondaryPruner.obj
 0001:00184c30       ?updateObject@CompanionPrunerIncremental@@UEAA_NAEBUPrunerPayload@Gu@physx@@IAEBVPxBounds3@4@AEBV?$PxTransformT@M@4@I@Z 0000000180185c30 f i GuSecondaryPruner.obj
 0001:00184c40       ?visualize@CompanionPrunerAABBTree@@UEBAXAEAVPxRenderOutput@physx@@I@Z 0000000180185c40 f   GuSecondaryPruner.obj
 0001:00184c60       ?visualize@CompanionPrunerIncremental@@UEBAXAEAVPxRenderOutput@physx@@I@Z 0000000180185c60 f i GuSecondaryPruner.obj
 0001:00184c70       ??0AABBPruner@Gu@physx@@QEAA@_N_KW4CompanionPrunerType@12@W4BVHBuildStrategy@12@I@Z 0000000180185c70 f   GuAABBPruner.obj
 0001:00184da0       ??1AABBPruner@Gu@physx@@UEAA@XZ 0000000180185da0 f   GuAABBPruner.obj
 0001:00184f00       ??_EAABBPruner@Gu@physx@@UEAAPEAXI@Z 0000000180185f00 f i GuAABBPruner.obj
 0001:00184f00       ??_GAABBPruner@Gu@physx@@UEAAPEAXI@Z 0000000180185f00 f i GuAABBPruner.obj
 0001:00184f70       ?addObjects@AABBPruner@Gu@physx@@UEAA_NPEAIPEBVPxBounds3@3@PEBUPrunerPayload@23@PEBV?$PxTransformT@M@3@I_N@Z 0000000180185f70 f   GuAABBPruner.obj
 0001:001850d0       ?buildStep@AABBPruner@Gu@physx@@UEAA_N_N@Z 00000001801860d0 f   GuAABBPruner.obj
 0001:00185300       ?commit@AABBPruner@Gu@physx@@UEAAXXZ 0000000180186300 f   GuAABBPruner.obj
 0001:001856c0       ?getGlobalBounds@AABBPruner@Gu@physx@@UEBAXAEAVPxBounds3@3@@Z 00000001801866c0 f   GuAABBPruner.obj
 0001:00185800       ?getPayloadData@AABBPruner@Gu@physx@@UEBAAEBUPrunerPayload@23@IPEAUPrunerPayloadData@23@@Z 0000000180186800 f i GuAABBPruner.obj
 0001:00185860       ?growAndPushBack@?$PxArray@UNewTreeFixup@AABBPruner@Gu@physx@@V?$PxReflectionAllocator@UNewTreeFixup@AABBPruner@Gu@physx@@@4@@physx@@IEAAAEAUNewTreeFixup@AABBPruner@Gu@2@AEBU3452@@Z 0000000180186860 f i GuAABBPruner.obj
 0001:00185980       ?isDynamic@AABBPruner@Gu@physx@@UEBA_NXZ 0000000180186980 f i GuAABBPruner.obj
 0001:00185990       ?merge@AABBPruner@Gu@physx@@UEAAXPEBX@Z 0000000180186990 f   GuAABBPruner.obj
 0001:00185a10       ?overlap@AABBPruner@Gu@physx@@UEBA_NAEBVShapeData@23@AEAUPrunerOverlapCallback@23@@Z 0000000180186a10 f   GuAABBPruner.obj
 0001:00185fe0       ?preallocate@AABBPruner@Gu@physx@@UEAAXI@Z 0000000180186fe0 f i GuAABBPruner.obj
 0001:00185ff0       ?prepareBuild@AABBPruner@Gu@physx@@UEAA_NXZ 0000000180186ff0 f   GuAABBPruner.obj
 0001:00186180       ?purge@AABBPruner@Gu@physx@@UEAAXXZ 0000000180187180 f   GuAABBPruner.obj
 0001:001861a0       ?raycast@AABBPruner@Gu@physx@@UEBA_NAEBV?$PxVec3T@M@3@0AEAMAEAUPrunerRaycastCallback@23@@Z 00000001801871a0 f   GuAABBPruner.obj
 0001:00186290       ?release@AABBPruner@Gu@physx@@QEAAXXZ 0000000180187290 f   GuAABBPruner.obj
 0001:001863c0       ?removeObjects@AABBPruner@Gu@physx@@UEAAXPEBIIPEAUPrunerPayloadRemovalCallback@23@@Z 00000001801873c0 f   GuAABBPruner.obj
 0001:001865b0       ?setRebuildRateHint@AABBPruner@Gu@physx@@UEAAXI@Z 00000001801875b0 f   GuAABBPruner.obj
 0001:001865d0       ?setTransform@AABBPruner@Gu@physx@@UEAA_NIAEBV?$PxTransformT@M@3@@Z 00000001801875d0 f i GuAABBPruner.obj
 0001:00186630       ?shiftOrigin@AABBPruner@Gu@physx@@UEAAXAEBV?$PxVec3T@M@3@@Z 0000000180187630 f   GuAABBPruner.obj
 0001:001866a0       ?sweep@AABBPruner@Gu@physx@@UEBA_NAEBVShapeData@23@AEBV?$PxVec3T@M@3@AEAMAEAUPrunerRaycastCallback@23@@Z 00000001801876a0 f   GuAABBPruner.obj
 0001:00186830       ?updateObjects@AABBPruner@Gu@physx@@UEAAXPEBIIM0PEBVPxBounds3@3@PEBUPxTransformPadded@3@@Z 0000000180187830 f   GuAABBPruner.obj
 0001:001869d0       ?visualize@AABBPruner@Gu@physx@@UEBAXAEAVPxRenderOutput@3@II@Z 00000001801879d0 f   GuAABBPruner.obj
 0001:00186a80       ??0ActorShapeMap@Gu@physx@@QEAA@XZ 0000000180187a80 f   GuActorShapeMap.obj
 0001:00186ae0       ??1ActorShapeMap@Gu@physx@@QEAA@XZ 0000000180187ae0 f   GuActorShapeMap.obj
 0001:00186b40       ?add@ActorShapeMap@Gu@physx@@QEAA_NIPEBX0_K@Z 0000000180187b40 f   GuActorShapeMap.obj
 0001:00186ce0       ?create@?$PxHashBase@V?$PxPair@$$CBUActorShape@ActorShapeMap@Gu@physx@@_K@physx@@UActorShape@ActorShapeMap@Gu@2@U?$PxHash@UActorShape@ActorShapeMap@Gu@physx@@@2@UGetKey@?$PxHashMapBase@UActorShape@ActorShapeMap@Gu@physx@@_KU?$PxHash@UActorShape@ActorShapeMap@Gu@physx@@@4@VPxAllocator@4@@2@VPxAllocator@2@$00@physx@@QEAAPEAV?$PxPair@$$CBUActorShape@ActorShapeMap@Gu@physx@@_K@2@AEBUActorShape@ActorShapeMap@Gu@2@AEA_N@Z 0000000180187ce0 f i GuActorShapeMap.obj
 0001:00186ed0       ?eraseInternal@?$PxHashBase@V?$PxPair@$$CBUActorShape@ActorShapeMap@Gu@physx@@_K@physx@@UActorShape@ActorShapeMap@Gu@2@U?$PxHash@UActorShape@ActorShapeMap@Gu@physx@@@2@UGetKey@?$PxHashMapBase@UActorShape@ActorShapeMap@Gu@physx@@_KU?$PxHash@UActorShape@ActorShapeMap@Gu@physx@@@4@VPxAllocator@4@@2@VPxAllocator@2@$00@physx@@AEAA_NPEAI@Z 0000000180187ed0 f i GuActorShapeMap.obj
 0001:00186fe0       ?find@ActorShapeMap@Gu@physx@@QEBA_KIPEBX0@Z 0000000180187fe0 f   GuActorShapeMap.obj
 0001:001870d0       ?remove@ActorShapeMap@Gu@physx@@QEAA_NIPEBX0PEA_K@Z 00000001801880d0 f   GuActorShapeMap.obj
 0001:00187220       ?reserveInternal@?$PxHashBase@V?$PxPair@$$CBUActorShape@ActorShapeMap@Gu@physx@@_K@physx@@UActorShape@ActorShapeMap@Gu@2@U?$PxHash@UActorShape@ActorShapeMap@Gu@physx@@@2@UGetKey@?$PxHashMapBase@UActorShape@ActorShapeMap@Gu@physx@@_KU?$PxHash@UActorShape@ActorShapeMap@Gu@physx@@@4@VPxAllocator@4@@2@VPxAllocator@2@$00@physx@@AEAAXI@Z 0000000180188220 f i GuActorShapeMap.obj
 0001:00187430       ??0QuerySystem@Gu@physx@@QEAA@_KMAEBVAdapter@12@_N@Z 0000000180188430 f   GuQuerySystem.obj
 0001:00187500       ??1QuerySystem@Gu@physx@@QEAA@XZ 0000000180188500 f   GuQuerySystem.obj
 0001:00187750       ??_GPrunerExt@QuerySystem@Gu@physx@@QEAAPEAXI@Z 0000000180188750 f i GuQuerySystem.obj
 0001:00187860       ?addPruner@QuerySystem@Gu@physx@@QEAAIPEAVPruner@23@I@Z 0000000180188860 f   GuQuerySystem.obj
 0001:00187980       ?addPrunerShape@QuerySystem@Gu@physx@@QEAA_KAEBUPrunerPayload@23@I_NAEBV?$PxTransformT@M@3@PEBVPxBounds3@3@@Z 0000000180188980 f   GuQuerySystem.obj
 0001:00187ac0       ?addToDirtyList@PrunerExt@QuerySystem@Gu@physx@@QEAAXIIAEBV?$PxTransformT@M@4@PEBVPxBounds3@4@@Z 0000000180188ac0 f   GuQuerySystem.obj
 0001:00187d10       ?commitUpdates@QuerySystem@Gu@physx@@QEAAXXZ 0000000180188d10 f   GuQuerySystem.obj
 0001:00187dc0       ?createTreeOfPruners@QuerySystem@Gu@physx@@QEAAXXZ 0000000180188dc0 f   GuQuerySystem.obj
 0001:00187f20       ?flushMemory@QuerySystem@Gu@physx@@QEAAXXZ 0000000180188f20 f   GuQuerySystem.obj
 0001:00187fb0       ?getPayloadData@QuerySystem@Gu@physx@@QEBAAEBUPrunerPayload@23@_KPEAUPrunerPayloadData@23@@Z 0000000180188fb0 f   GuQuerySystem.obj
 0001:00187fd0       ?growAndPushBack@?$PxArray@PEAUPrunerExt@QuerySystem@Gu@physx@@V?$PxReflectionAllocator@PEAUPrunerExt@QuerySystem@Gu@physx@@@4@@physx@@IEAAAEAPEAUPrunerExt@QuerySystem@Gu@2@AEBQEAU3452@@Z 0000000180188fd0 f i GuQuerySystem.obj
 0001:001880f0       ?overlap@QuerySystem@Gu@physx@@QEBAXAEBVShapeData@23@AEAUPrunerOverlapCallback@23@PEBVPrunerFilter@23@@Z 00000001801890f0 f   GuQuerySystem.obj
 0001:001881f0       ?processDirtyLists@QuerySystem@Gu@physx@@AEAAXXZ 00000001801891f0 f   GuQuerySystem.obj
 0001:001884d0       ?raycast@QuerySystem@Gu@physx@@QEBAXAEBV?$PxVec3T@M@3@0AEAMAEAUPrunerRaycastCallback@23@PEBVPrunerFilter@23@@Z 00000001801894d0 f   GuQuerySystem.obj
 0001:00188610       ?recreate@?$PxArray@UData@PrunerExt@QuerySystem@Gu@physx@@V?$PxReflectionAllocator@UData@PrunerExt@QuerySystem@Gu@physx@@@5@@physx@@IEAAXI@Z 0000000180189610 f i GuQuerySystem.obj
 0001:00188900       ?removePruner@QuerySystem@Gu@physx@@QEAAXI@Z 0000000180189900 f   GuQuerySystem.obj
 0001:001889e0       ?removePrunerShape@QuerySystem@Gu@physx@@QEAAX_KPEAUPrunerPayloadRemovalCallback@23@@Z 00000001801899e0 f   GuQuerySystem.obj
 0001:00188c10       ?sweep@QuerySystem@Gu@physx@@QEBAXAEBVShapeData@23@AEBV?$PxVec3T@M@3@AEAMAEAUPrunerRaycastCallback@23@PEBVPrunerFilter@23@@Z 0000000180189c10 f   GuQuerySystem.obj
 0001:00188d40       ?sync@QuerySystem@Gu@physx@@QEAAXIPEBI0PEBVPxBounds3@3@PEBUPxTransformPadded@3@I@Z 0000000180189d40 f   GuQuerySystem.obj
 0001:00188df0       ?update@QuerySystem@Gu@physx@@QEAAX_N0@Z 0000000180189df0 f   GuQuerySystem.obj
 0001:00188ec0       ?updatePrunerShape@QuerySystem@Gu@physx@@QEAAX_K_NAEBV?$PxTransformT@M@3@PEBVPxBounds3@3@@Z 0000000180189ec0 f   GuQuerySystem.obj
 0001:001890b0       createAABBPruner           000000018018a0b0 f   GuFactory.obj
 0001:00189170       createBucketPruner         000000018018a170 f   GuFactory.obj
 0001:00189200       createIncrementalPruner    000000018018a200 f   GuFactory.obj
 0001:00189290       ??$PxSmallSort@I$$CBUSortBoundsPredicate@physx@@@physx@@YAXPEAIHHAEBUSortBoundsPredicate@0@@Z 000000018018a290 f i GuRTreeCooking.obj
 0001:00189530       ??$PxSort@IU?$PxLess@I@physx@@V?$PxReflectionAllocator@I@2@@physx@@YAXPEAIIAEBU?$PxLess@I@0@AEBV?$PxReflectionAllocator@I@0@I@Z 000000018018a530 f i GuRTreeCooking.obj
 0001:00189980       ??$PxSort@IUSortBoundsPredicate@physx@@V?$PxReflectionAllocator@I@2@@physx@@YAXPEAIIAEBUSortBoundsPredicate@0@AEBV?$PxReflectionAllocator@I@0@I@Z 000000018018a980 f i GuRTreeCooking.obj
 0001:00189e30       ??$quickSelectFirstK@UBoundsLTE@physx@@@quickSelect@physx@@YAXPEIAIIIIAEBUBoundsLTE@1@@Z 000000018018ae30 f i GuRTreeCooking.obj
 0001:0018a010       ?allocate@?$PxArray@UInterval@physx@@V?$PxInlineAllocator@$0CAAA@V?$PxReflectionAllocator@UInterval@physx@@@physx@@@2@@physx@@IEAAPEAUInterval@2@I@Z 000000018018b010 f i GuRTreeCooking.obj
 0001:0018a0d0       ?allocate@?$PxArray@UPxBounds3V@physx@@V?$PxReflectionAllocator@UPxBounds3V@physx@@@2@@physx@@IEAAPEAUPxBounds3V@2@I@Z 000000018018b0d0 f i GuRTreeCooking.obj
 0001:0018a160       ?allocate@?$PxArray@URTreeNodeNQ@physx@@V?$PxReflectionAllocator@URTreeNodeNQ@physx@@@2@@physx@@IEAAPEAURTreeNodeNQ@2@I@Z 000000018018b160 f i GuRTreeCooking.obj
 0001:0018a1f0       ?allocate@?$PxArray@URTreeNodeQ@Gu@physx@@V?$PxReflectionAllocator@URTreeNodeQ@Gu@physx@@@3@@physx@@IEAAPEAURTreeNodeQ@Gu@2@I@Z 000000018018b1f0 f i GuRTreeCooking.obj
 0001:0018af10       ?buildFromTriangles@RTreeCooker@physx@@SAXAEAURTree@Gu@2@PEBV?$PxVec3T@M@2@IPEBGPEBIIAEAV?$PxArray@IV?$PxReflectionAllocator@I@physx@@@2@PEAURemapCallback@12@MW4Enum@PxMeshCookingHint@2@@Z 000000018018bf10 f   GuRTreeCooking.obj
 0001:0018b1d0       ?copy@?$PxArray@URTreeNodeNQ@physx@@V?$PxReflectionAllocator@URTreeNodeNQ@physx@@@2@@physx@@KAXPEAURTreeNodeNQ@2@0PEBU32@@Z 000000018018c1d0 f i GuRTreeCooking.obj
 0001:0018b390       ?growAndPushBack@?$PxArray@UInterval@physx@@V?$PxInlineAllocator@$0CAAA@V?$PxReflectionAllocator@UInterval@physx@@@physx@@@2@@physx@@IEAAAEAUInterval@2@AEBU32@@Z 000000018018c390 f i GuRTreeCooking.obj
 0001:0018b470       ?growAndPushBack@?$PxArray@UPxBounds3V@physx@@V?$PxReflectionAllocator@UPxBounds3V@physx@@@2@@physx@@IEAAAEAUPxBounds3V@2@AEBU32@@Z 000000018018c470 f i GuRTreeCooking.obj
 0001:0018b550       ?growAndPushBack@?$PxArray@URTreeNodeNQ@physx@@V?$PxReflectionAllocator@URTreeNodeNQ@physx@@@2@@physx@@IEAAAEAURTreeNodeNQ@2@AEBU32@@Z 000000018018c550 f i GuRTreeCooking.obj
 0001:0018b630       ?growAndPushBack@?$PxArray@URTreeNodeQ@Gu@physx@@V?$PxReflectionAllocator@URTreeNodeQ@Gu@physx@@@3@@physx@@IEAAAEAURTreeNodeQ@Gu@2@AEBU342@@Z 000000018018c630 f i GuRTreeCooking.obj
 0001:0018b720       ?recreate@?$PxArray@UPxBounds3V@physx@@V?$PxReflectionAllocator@UPxBounds3V@physx@@@2@@physx@@IEAAXI@Z 000000018018c720 f i GuRTreeCooking.obj
 0001:0018b7d0       ?recreate@?$PxArray@URTreeNodeNQ@physx@@V?$PxReflectionAllocator@URTreeNodeNQ@physx@@@2@@physx@@IEAAXI@Z 000000018018c7d0 f i GuRTreeCooking.obj
 0001:0018b860       ?recreate@?$PxArray@URTreeNodeQ@Gu@physx@@V?$PxReflectionAllocator@URTreeNodeQ@Gu@physx@@@3@@physx@@IEAAXI@Z 000000018018c860 f i GuRTreeCooking.obj
 0001:0018b920       ?resizeUninitialized@?$PxArray@URTreeNodeNQ@physx@@V?$PxReflectionAllocator@URTreeNodeNQ@physx@@@2@@physx@@QEAAXI@Z 000000018018c920 f i GuRTreeCooking.obj
 0001:0018b960       ?sort4@SubSortQuick@physx@@QEAAXPEIAIIAEAV?$PxArray@URTreeNodeNQ@physx@@V?$PxReflectionAllocator@URTreeNodeNQ@physx@@@2@@2@AEAIAEAUPxBounds3V@2@I@Z 000000018018c960 f i GuRTreeCooking.obj
 0001:0018bcf0       ?sort4@SubSortSAH@physx@@QEAAXPEAIIAEAV?$PxArray@URTreeNodeNQ@physx@@V?$PxReflectionAllocator@URTreeNodeNQ@physx@@@2@@2@AEAIIPEAURTreeNodeNQ@2@@Z 000000018018ccf0 f i GuRTreeCooking.obj
 0001:0018c5c0       ?split@SubSortSAH@physx@@QEAAIPEAII@Z 000000018018d5c0 f i GuRTreeCooking.obj
 0001:0018d010       cookBVH                    000000018018e010 f   GuCookingBVH.obj
 0001:0018d1a0       createBVH                  000000018018e1a0 f   GuCookingBVH.obj
 0001:0018d330       cookHeightField            000000018018e330 f   GuCookingHF.obj
 0001:0018d440       createHeightField          000000018018e440 f   GuCookingHF.obj
 0001:0018dad0       ?isFinite@?$PxVec3T@M@physx@@QEBA_NXZ 000000018018ead0 f i GuCookingConvexMesh.obj
 0001:0018db30       computeHullPolygons        000000018018eb30 f   GuCookingConvexMesh.obj
 0001:0018dd10       cookConvexMesh             000000018018ed10 f   GuCookingConvexMesh.obj
 0001:0018de80       createConvexMesh           000000018018ee80 f   GuCookingConvexMesh.obj
 0001:0018e020       validateConvexMesh         000000018018f020 f   GuCookingConvexMesh.obj
 0001:0018e140       ??1BV4TriangleMeshBuilder@physx@@UEAA@XZ 000000018018f140 f   GuCookingTriangleMesh.obj
 0001:0018e1d0       ??1RTreeTriangleMeshBuilder@physx@@UEAA@XZ 000000018018f1d0 f   GuCookingTriangleMesh.obj
 0001:0018e240       ??_EBV4TriangleMeshBuilder@physx@@UEAAPEAXI@Z 000000018018f240 f i GuCookingTriangleMesh.obj
 0001:0018e240       ??_GBV4TriangleMeshBuilder@physx@@UEAAPEAXI@Z 000000018018f240 f i GuCookingTriangleMesh.obj
 0001:0018e280       ??_ERTreeTriangleMeshBuilder@physx@@UEAAPEAXI@Z 000000018018f280 f i GuCookingTriangleMesh.obj
 0001:0018e280       ??_GRTreeTriangleMeshBuilder@physx@@UEAAPEAXI@Z 000000018018f280 f i GuCookingTriangleMesh.obj
 0001:0018e2c0       ??_ETriangleMeshBuilder@physx@@UEAAPEAXI@Z 000000018018f2c0 f i GuCookingTriangleMesh.obj
 0001:0018e2c0       ??_GTriangleMeshBuilder@physx@@UEAAPEAXI@Z 000000018018f2c0 f i GuCookingTriangleMesh.obj
 0001:0018ec70       ?buildInertiaTensor@TriangleMeshBuilder@physx@@IEAAX_N@Z 000000018018fc70 f   GuCookingTriangleMesh.obj
 0001:0018edd0       ?buildInertiaTensorFromSDF@TriangleMeshBuilder@physx@@IEAAXXZ 000000018018fdd0 f   GuCookingTriangleMesh.obj
 0001:0018f010       ?cleanMesh@TriangleMeshBuilder@physx@@QEAA_N_NPEAW4Enum@PxTriangleMeshCookingResult@2@@Z 0000000180190010 f   GuCookingTriangleMesh.obj
 0001:0018f500       ?createGRBMidPhaseAndData@TriangleMeshBuilder@physx@@QEAA_NI@Z 0000000180190500 f   GuCookingTriangleMesh.obj
 0001:0018f6b0       ?createMidPhaseStructure@BV32TriangleMeshBuilder@physx@@SA_NAEBUPxCookingParams@2@AEAVTriangleMeshData@Gu@2@AEAVBV32Tree@52@@Z 00000001801906b0 f   GuCookingTriangleMesh.obj
 0001:0018f900       ?createMidPhaseStructure@BV4TriangleMeshBuilder@physx@@UEAA_NXZ 0000000180190900 f   GuCookingTriangleMesh.obj
 0001:0018fbc0       ?createMidPhaseStructure@RTreeTriangleMeshBuilder@physx@@UEAA_NXZ 0000000180190bc0 f   GuCookingTriangleMesh.obj
 0001:0018fcb0       ?createSharedEdgeData@TriangleMeshBuilder@physx@@QEAAX_N0@Z 0000000180190cb0 f   GuCookingTriangleMesh.obj
 0001:00190360       ?createVertMapping@TriangleMeshBuilder@physx@@QEAAXXZ 0000000180191360 f   GuCookingTriangleMesh.obj
 0001:001906c0       ?importMesh@TriangleMeshBuilder@physx@@IEAA_NAEBVPxTriangleMeshDesc@2@PEAW4Enum@PxTriangleMeshCookingResult@2@_N@Z 00000001801916c0 f   GuCookingTriangleMesh.obj
 0001:00190b80       ?isValid@PxTriangleMeshDesc@physx@@QEBA_NXZ 0000000180191b80 f i GuCookingTriangleMesh.obj
 0001:00190c50       ?loadFromDescInternal@TriangleMeshBuilder@physx@@IEAA_NAEAVPxTriangleMeshDesc@2@PEAW4Enum@PxTriangleMeshCookingResult@2@_N@Z 0000000180191c50 f   GuCookingTriangleMesh.obj
 0001:00190e70       ?onMeshIndexFormatChange@BV4TriangleMeshBuilder@physx@@UEAAXXZ 0000000180191e70 f   GuCookingTriangleMesh.obj
 0001:00190eb0       ?remap@RTreeCookerRemap@@UEAAXPEAIII@Z 0000000180191eb0 f i GuCookingTriangleMesh.obj
 0001:00190ed0       ?remapTopology@TriangleMeshBuilder@physx@@QEAAXPEBI@Z 0000000180191ed0 f   GuCookingTriangleMesh.obj
 0001:00191170       ?save@TriangleMeshBuilder@physx@@QEBA_NAEAVPxOutputStream@2@_NAEBUPxCookingParams@2@@Z 0000000180192170 f   GuCookingTriangleMesh.obj
 0001:00191920       ?saveMidPhaseStructure@BV32TriangleMeshBuilder@physx@@SAXPEAVBV32Tree@Gu@2@AEAVPxOutputStream@2@_N@Z 0000000180192920 f   GuCookingTriangleMesh.obj
 0001:00191b20       ?saveMidPhaseStructure@BV4TriangleMeshBuilder@physx@@UEBAXAEAVPxOutputStream@2@_N@Z 0000000180192b20 f   GuCookingTriangleMesh.obj
 0001:00191cd0       ?saveMidPhaseStructure@RTreeTriangleMeshBuilder@physx@@UEBAXAEAVPxOutputStream@2@_N@Z 0000000180192cd0 f   GuCookingTriangleMesh.obj
 0001:00191f10       cookTriangleMesh           0000000180192f10 f   GuCookingTriangleMesh.obj
 0001:00192220       createTriangleMesh         0000000180193220 f   GuCookingTriangleMesh.obj
 0001:00192440       validateTriangleMesh       0000000180193440 f   GuCookingTriangleMesh.obj
 0001:00192700       ??0SoftBodyCollisionData@Gu@physx@@QEAA@XZ 0000000180193700 f i GuCookingTetrahedronMesh.obj
 0001:00192760       ??_ECollisionTetrahedronMeshData@Gu@physx@@UEAAPEAXI@Z 0000000180193760 f i GuCookingTetrahedronMesh.obj
 0001:00192760       ??_GCollisionTetrahedronMeshData@Gu@physx@@UEAAPEAXI@Z 0000000180193760 f i GuCookingTetrahedronMesh.obj
 0001:00192830       ??_EPxCollisionTetrahedronMeshData@physx@@UEAAPEAXI@Z 0000000180193830 f i GuCookingTetrahedronMesh.obj
 0001:00192830       ??_GPxCollisionTetrahedronMeshData@physx@@UEAAPEAXI@Z 0000000180193830 f i GuCookingTetrahedronMesh.obj
 0001:00192880       ??_EPxSimulationTetrahedronMeshData@physx@@UEAAPEAXI@Z 0000000180193880 f i GuCookingTetrahedronMesh.obj
 0001:00192880       ??_GPxSimulationTetrahedronMeshData@physx@@UEAAPEAXI@Z 0000000180193880 f i GuCookingTetrahedronMesh.obj
 0001:001928d0       ??_ESimulationTetrahedronMeshData@Gu@physx@@UEAAPEAXI@Z 00000001801938d0 f i GuCookingTetrahedronMesh.obj
 0001:001928d0       ??_GSimulationTetrahedronMeshData@Gu@physx@@UEAAPEAXI@Z 00000001801938d0 f i GuCookingTetrahedronMesh.obj
 0001:001929a0       ?combineGridModelPartitions@@YAXAEBVTetrahedronMeshData@Gu@physx@@AEAVSoftBodySimulationData@23@PEAPEAI@Z 00000001801939a0 f   GuCookingTetrahedronMesh.obj
 0001:001931f0       ?combineGridModelPartitionsHexMesh@@YAXAEBVTetrahedronMeshData@Gu@physx@@AEAVSoftBodySimulationData@23@PEAPEAII@Z 00000001801941f0 f   GuCookingTetrahedronMesh.obj
 0001:00193c30       ?computeCollisionData@TetrahedronMeshBuilder@physx@@SA_NAEBVPxTetrahedronMeshDesc@2@AEAVTetrahedronMeshData@Gu@2@AEAVSoftBodyCollisionData@52@AEBUPxCookingParams@2@_N@Z 0000000180194c30 f   GuCookingTetrahedronMesh.obj
 0001:00193e70       ?computeGridModelTetrahedronPartitions@@YAPEAIAEBVTetrahedronMeshData@Gu@physx@@AEAVSoftBodySimulationData@23@@Z 0000000180194e70 f   GuCookingTetrahedronMesh.obj
 0001:00194310       ?computeModelsMapping@TetrahedronMeshBuilder@physx@@SAXAEAVTetrahedronMeshData@Gu@2@AEBV342@AEBVSoftBodyCollisionData@42@AEAVCollisionMeshMappingData@42@_NPEBUPxBoundedData@2@@Z 0000000180195310 f   GuCookingTetrahedronMesh.obj
 0001:00194f20       ?computeRestPoseAndPointMass@@YAXPEAU?$TetrahedronT@I@Gu@physx@@IPEBV?$PxVec3T@M@3@PEAMPEAV?$PxMat33T@M@3@@Z 0000000180195f20 f   GuCookingTetrahedronMesh.obj
 0001:00195450       ?computeSimData@TetrahedronMeshBuilder@physx@@SAXAEBVPxTetrahedronMeshDesc@2@AEAVTetrahedronMeshData@Gu@2@AEAVSoftBodySimulationData@52@AEBUPxCookingParams@2@@Z 0000000180196450 f   GuCookingTetrahedronMesh.obj
 0001:00195b20       ?computeTetData@TetrahedronMeshBuilder@physx@@SAXAEBVPxTetrahedronMeshDesc@2@AEAVTetrahedronMeshData@Gu@2@@Z 0000000180196b20 f   GuCookingTetrahedronMesh.obj
 0001:00195c10       ?computeTetrahedronPartition@@YAIPEBU?$TetrahedronT@I@Gu@physx@@IPEAII@Z 0000000180196c10 f   GuCookingTetrahedronMesh.obj
 0001:00195d00       ?createCollisionModelMapping@TetrahedronMeshBuilder@physx@@SAXAEBVTetrahedronMeshData@Gu@2@AEBVSoftBodyCollisionData@42@AEAVCollisionMeshMappingData@42@@Z 0000000180196d00 f   GuCookingTetrahedronMesh.obj
 0001:001962e0       ?createGRBMidPhaseAndData@TetrahedronMeshBuilder@physx@@SA_NIAEAVTetrahedronMeshData@Gu@2@AEAVSoftBodyCollisionData@42@AEBUPxCookingParams@2@@Z 00000001801972e0 f   GuCookingTetrahedronMesh.obj
 0001:00197040       ?createMidPhaseStructure@BV32TetrahedronMeshBuilder@physx@@SA_NAEBUPxCookingParams@2@AEAVTetrahedronMeshData@Gu@2@AEAVBV32Tree@52@AEAVSoftBodyCollisionData@52@@Z 0000000180198040 f   GuCookingTetrahedronMesh.obj
 0001:00197310       ?createMidPhaseStructure@TetrahedronMeshBuilder@physx@@SA_NAEAVTetrahedronMeshData@Gu@2@AEAVSoftBodyCollisionData@42@AEBUPxCookingParams@2@@Z 0000000180198310 f   GuCookingTetrahedronMesh.obj
 0001:00197fe0       ?getData@CollisionTetrahedronMeshData@Gu@physx@@UEAAPEAVPxSoftBodyCollisionData@3@XZ 0000000180198fe0 f i GuCookingTetrahedronMesh.obj
 0001:00197fe0       ?getData@CollisionTetrahedronMeshData@Gu@physx@@UEBAPEBVPxSoftBodyCollisionData@3@XZ 0000000180198fe0 f i GuCookingTetrahedronMesh.obj
 0001:00197fe0       ?getData@SimulationTetrahedronMeshData@Gu@physx@@UEAAPEAVPxSoftBodySimulationData@3@XZ 0000000180198fe0 f i GuCookingTetrahedronMesh.obj
 0001:00198000       ?importMesh@TetrahedronMeshBuilder@physx@@SA_NAEBVPxTetrahedronMeshDesc@2@AEBUPxCookingParams@2@AEAVTetrahedronMeshData@Gu@2@AEAVSoftBodyCollisionData@62@_N@Z 0000000180199000 f   GuCookingTetrahedronMesh.obj
 0001:00198300       ?isValid@PxTetrahedronMeshDesc@physx@@QEBA_NXZ 0000000180199300 f i GuCookingTetrahedronMesh.obj
 0001:00198380       ?loadFromDesc@TetrahedronMeshBuilder@physx@@SA_NAEBVPxTetrahedronMeshDesc@2@0VPxSoftBodySimulationDataDesc@2@AEAVTetrahedronMeshData@Gu@2@AEAVSoftBodySimulationData@62@2AEAVSoftBodyCollisionData@62@AEAVCollisionMeshMappingData@62@AEBUPxCookingParams@2@_N@Z 0000000180199380 f   GuCookingTetrahedronMesh.obj
 0001:001984f0       ?release@CollisionTetrahedronMeshData@Gu@physx@@UEAAXXZ 00000001801994f0 f i GuCookingTetrahedronMesh.obj
 0001:00198510       ?reserveInternal@?$PxHashBase@V?$PxPair@$$CBVSortedTriangleInds@@I@physx@@VSortedTriangleInds@@USortedTriangleIndsHash@@UGetKey@?$PxHashMapBase@VSortedTriangleInds@@IUSortedTriangleIndsHash@@VPxAllocator@physx@@@2@VPxAllocator@2@$00@physx@@AEAAXI@Z 0000000180199510 f i GuCookingTetrahedronMesh.obj
 0001:00198750       ?saveSoftBodyMeshData@TetrahedronMeshBuilder@physx@@SA_NAEAVPxOutputStream@2@_NAEBUPxCookingParams@2@AEBVTetrahedronMeshData@Gu@2@AEBVSoftBodySimulationData@62@3AEBVSoftBodyCollisionData@62@AEBVCollisionMeshMappingData@62@@Z 0000000180199750 f   GuCookingTetrahedronMesh.obj
 0001:00198e60       ?saveTetrahedronMeshData@TetrahedronMeshBuilder@physx@@SA_NAEAVPxOutputStream@2@_NAEBUPxCookingParams@2@AEBVTetrahedronMeshData@Gu@2@@Z 0000000180199e60 f   GuCookingTetrahedronMesh.obj
 0001:00199010       ?smoothMassRatiosWhilePreservingTotalMass@@YAXPEAMIPEBIHMM@Z 000000018019a010 f   GuCookingTetrahedronMesh.obj
 0001:001994b0       ?support@?$LocalConvex@VTetrahedronV@Gu@physx@@@Gu@physx@@UEBA?AT__m128@@AEBT4@@Z 000000018019a4b0 f i GuCookingTetrahedronMesh.obj
 0001:00199570       ?support@?$LocalConvex@VTetrahedronV@Gu@physx@@@Gu@physx@@UEBA?AT__m128@@AEBT4@AEAH@Z 000000018019a570 f i GuCookingTetrahedronMesh.obj
 0001:00199720       assembleSoftBodyMesh       000000018019a720 f   GuCookingTetrahedronMesh.obj
 0001:00199780       assembleSoftBodyMesh_Sim   000000018019a780 f   GuCookingTetrahedronMesh.obj
 0001:00199830       computeCollisionData       000000018019a830 f   GuCookingTetrahedronMesh.obj
 0001:00199a30       computeModelsMapping       000000018019aa30 f   GuCookingTetrahedronMesh.obj
 0001:00199b30       computeSimulationData      000000018019ab30 f   GuCookingTetrahedronMesh.obj
 0001:00199d00       cookSoftBodyMesh           000000018019ad00 f   GuCookingTetrahedronMesh.obj
 0001:0019a320       cookTetrahedronMesh        000000018019b320 f   GuCookingTetrahedronMesh.obj
 0001:0019a410       createSoftBodyMesh         000000018019b410 f   GuCookingTetrahedronMesh.obj
 0001:0019aab0       createTetrahedronMesh      000000018019bab0 f   GuCookingTetrahedronMesh.obj
 0001:0019c790       ?computeVolumeIntegrals@physx@@YA_NAEBVPxSimpleTriangleMesh@1@MAEAUPxIntegrals@1@@Z 000000018019d790 f   GuCookingVolumeIntegration.obj
 0001:0019c7d0       ?computeVolumeIntegralsEberly@physx@@YA_NAEBVPxConvexMeshDesc@1@MAEAUPxIntegrals@1@AEBV?$PxVec3T@M@1@_N@Z 000000018019d7d0 f   GuCookingVolumeIntegration.obj
 0001:0019ce30       ??0QuickHull@local@@QEAA@AEBUPxCookingParams@physx@@AEBVPxConvexMeshDesc@3@@Z 000000018019de30 f   GuCookingQuickHullConvexHullLib.obj
 0001:0019cee0       ??0QuickHullConvexHullLib@physx@@QEAA@AEBVPxConvexMeshDesc@1@AEBUPxCookingParams@1@@Z 000000018019dee0 f   GuCookingQuickHullConvexHullLib.obj
 0001:0019cfc0       ??1?$MemBlock@UQuickHullFace@local@@$00@local@@QEAA@XZ 000000018019dfc0 f i GuCookingQuickHullConvexHullLib.obj
 0001:0019cfc0       ??1?$MemBlock@UQuickHullHalfEdge@local@@$0A@@local@@QEAA@XZ 000000018019dfc0 f i GuCookingQuickHullConvexHullLib.obj
 0001:0019d080       ??1QuickHull@local@@QEAA@XZ 000000018019e080 f   GuCookingQuickHullConvexHullLib.obj
 0001:0019d1e0       ??_GConvexHull@physx@@QEAAPEAXI@Z 000000018019e1e0 f i GuCookingQuickHullConvexHullLib.obj
 0001:0019d2d0       ??_EConvexHullLib@physx@@UEAAPEAXI@Z 000000018019e2d0 f i GuCookingQuickHullConvexHullLib.obj
 0001:0019d2d0       ??_GConvexHullLib@physx@@UEAAPEAXI@Z 000000018019e2d0 f i GuCookingQuickHullConvexHullLib.obj
 0001:0019d310       ??_EQuickHullConvexHullLib@physx@@UEAAPEAXI@Z 000000018019e310 f i GuCookingQuickHullConvexHullLib.obj
 0001:0019d310       ??_GQuickHullConvexHullLib@physx@@UEAAPEAXI@Z 000000018019e310 f i GuCookingQuickHullConvexHullLib.obj
 0001:0019d430       ?addPointToHull@QuickHull@local@@IEAA_NPEBUQuickHullVertex@2@AEAUQuickHullFace@2@AEA_N@Z 000000018019e430 f   GuCookingQuickHullConvexHullLib.obj
 0001:0019d700       ?addSimplex@QuickHull@local@@IEAA_NPEAUQuickHullVertex@2@_N@Z 000000018019e700 f   GuCookingQuickHullConvexHullLib.obj
 0001:0019dc80       ?allocate@?$PxArray@PEAUQuickHullFace@local@@V?$PxReflectionAllocator@PEAUQuickHullFace@local@@@physx@@@physx@@IEAAPEAPEAUQuickHullFace@local@@I@Z 000000018019ec80 f i GuCookingQuickHullConvexHullLib.obj
 0001:0019dd10       ?allocate@?$PxArray@PEAUQuickHullHalfEdge@local@@V?$PxReflectionAllocator@PEAUQuickHullHalfEdge@local@@@physx@@@physx@@IEAAPEAPEAUQuickHullHalfEdge@local@@I@Z 000000018019ed10 f i GuCookingQuickHullConvexHullLib.obj
 0001:0019dda0       ?allocate@?$PxArray@PEAUQuickHullVertex@local@@V?$PxReflectionAllocator@PEAUQuickHullVertex@local@@@physx@@@physx@@IEAAPEAPEAUQuickHullVertex@local@@I@Z 000000018019eda0 f i GuCookingQuickHullConvexHullLib.obj
 0001:0019de30       ?allocate@?$PxArray@UExpandPoint@local@@V?$PxReflectionAllocator@UExpandPoint@local@@@physx@@@physx@@IEAAPEAUExpandPoint@local@@I@Z 000000018019ee30 f i GuCookingQuickHullConvexHullLib.obj
 0001:0019dec0       ?allocate@?$PxArray@VPxPlane@physx@@V?$PxReflectionAllocator@VPxPlane@physx@@@2@@physx@@IEAAPEAVPxPlane@2@I@Z 000000018019eec0 f i GuCookingQuickHullConvexHullLib.obj
 0001:0019df50       ?buildHull@QuickHull@local@@QEAA?AW4Enum@QuickHullResult@2@XZ 000000018019ef50 f   GuCookingQuickHullConvexHullLib.obj
 0001:0019e1a0       ?calculateHorizon@QuickHull@local@@IEAAXAEBV?$PxVec3T@M@physx@@PEAUQuickHullHalfEdge@2@AEAUQuickHullFace@2@AEAV?$PxArray@PEAUQuickHullHalfEdge@local@@V?$PxReflectionAllocator@PEAUQuickHullHalfEdge@local@@@physx@@@4@AEAV?$PxArray@PEAUQuickHullFace@local@@V?$PxReflectionAllocator@PEAUQuickHullFace@local@@@physx@@@4@@Z 000000018019f1a0 f   GuCookingQuickHullConvexHullLib.obj
 0001:0019e350       ?canMergeFaces@QuickHull@local@@IEAA_NAEBUQuickHullHalfEdge@2@@Z 000000018019f350 f   GuCookingQuickHullConvexHullLib.obj
 0001:0019eb80       ?cleanupForSimplex@QuickHullConvexHullLib@physx@@IEAA_NPEAV?$PxVec3T@M@2@IPEAUQuickHullVertex@local@@1AEAM2@Z 000000018019fb80 f   GuCookingQuickHullConvexHullLib.obj
 0001:0019f7d0       ?computeMinMaxVerts@QuickHull@local@@IEAAXXZ 00000001801a07d0 f   GuCookingQuickHullConvexHullLib.obj
 0001:0019fba0       ?connectHalfEdges@QuickHullFace@local@@AEAAPEAU12@PEAUQuickHullHalfEdge@2@0@Z 00000001801a0ba0 f   GuCookingQuickHullConvexHullLib.obj
 0001:0019ff10       ?copy@?$PxArray@UExpandPoint@local@@V?$PxReflectionAllocator@UExpandPoint@local@@@physx@@@physx@@KAXPEAUExpandPoint@local@@0PEBU34@@Z 00000001801a0f10 f i GuCookingQuickHullConvexHullLib.obj
 0001:0019ffc0       ?copy@?$PxArray@VPxPlane@physx@@V?$PxReflectionAllocator@VPxPlane@physx@@@2@@physx@@KAXPEAVPxPlane@2@0PEBV32@@Z 00000001801a0fc0 f i GuCookingQuickHullConvexHullLib.obj
 0001:001a00c0       ?createConvexHull@QuickHullConvexHullLib@physx@@UEAA?AW4Enum@PxConvexMeshCookingResult@2@XZ 00000001801a10c0 f   GuCookingQuickHullConvexHullLib.obj
 0001:001a04d0       ?createEdgeList@QuickHullConvexHullLib@physx@@UEAA_NIPEBEPEAPEAEPEAPEAG2@Z 00000001801a14d0 f   GuCookingQuickHullConvexHullLib.obj
 0001:001a06f0       ?createTriangle@QuickHull@local@@IEAAPEAUQuickHullFace@2@AEBUQuickHullVertex@2@00@Z 00000001801a16f0 f   GuCookingQuickHullConvexHullLib.obj
 0001:001a0ac0       ?doAdjacentMerge@QuickHull@local@@IEAA_NAEAUQuickHullFace@2@_NAEA_N@Z 00000001801a1ac0 f   GuCookingQuickHullConvexHullLib.obj
 0001:001a0e10       ?expandHull@QuickHullConvexHullLib@physx@@IEAA?AW4Enum@PxConvexMeshCookingResult@2@XZ 00000001801a1e10 f   GuCookingQuickHullConvexHullLib.obj
 0001:001a1750       ?expandHullOBB@QuickHullConvexHullLib@physx@@IEAA?AW4Enum@PxConvexMeshCookingResult@2@XZ 00000001801a2750 f   GuCookingQuickHullConvexHullLib.obj
 0001:001a1b90       ?fillConvexMeshDesc@QuickHullConvexHullLib@physx@@UEAAXAEAVPxConvexMeshDesc@2@@Z 00000001801a2b90 f   GuCookingQuickHullConvexHullLib.obj
 0001:001a1be0       ?fillConvexMeshDescFromCroppedHull@QuickHullConvexHullLib@physx@@IEAAXAEAVPxConvexMeshDesc@2@@Z 00000001801a2be0 f   GuCookingQuickHullConvexHullLib.obj
 0001:001a1dd0       ?fillConvexMeshDescFromQuickHull@QuickHullConvexHullLib@physx@@IEAAXAEAVPxConvexMeshDesc@2@@Z 00000001801a2dd0 f   GuCookingQuickHullConvexHullLib.obj
 0001:001a2150       ?findSimplex@QuickHull@local@@IEAA_NXZ 00000001801a3150 f   GuCookingQuickHullConvexHullLib.obj
 0001:001a2df0       ?getFreeItem@?$MemBlock@UQuickHullFace@local@@$00@local@@QEAAPEAUQuickHullFace@2@XZ 00000001801a3df0 f i GuCookingQuickHullConvexHullLib.obj
 0001:001a2f20       ?getFreeItem@?$MemBlock@UQuickHullHalfEdge@local@@$0A@@local@@QEAAPEAUQuickHullHalfEdge@2@XZ 00000001801a3f20 f i GuCookingQuickHullConvexHullLib.obj
 0001:001a2ff0       ?growAndPushBack@?$PxArray@PEAUQuickHullFace@local@@V?$PxReflectionAllocator@PEAUQuickHullFace@local@@@physx@@@physx@@IEAAAEAPEAUQuickHullFace@local@@AEBQEAU34@@Z 00000001801a3ff0 f i GuCookingQuickHullConvexHullLib.obj
 0001:001a30b0       ?growAndPushBack@?$PxArray@PEAUQuickHullHalfEdge@local@@V?$PxReflectionAllocator@PEAUQuickHullHalfEdge@local@@@physx@@@physx@@IEAAAEAPEAUQuickHullHalfEdge@local@@AEBQEAU34@@Z 00000001801a40b0 f i GuCookingQuickHullConvexHullLib.obj
 0001:001a3170       ?growAndPushBack@?$PxArray@PEAUQuickHullVertex@local@@V?$PxReflectionAllocator@PEAUQuickHullVertex@local@@@physx@@@physx@@IEAAAEAPEAUQuickHullVertex@local@@AEBQEAU34@@Z 00000001801a4170 f i GuCookingQuickHullConvexHullLib.obj
 0001:001a3230       ?growAndPushBack@?$PxArray@UExpandPoint@local@@V?$PxReflectionAllocator@UExpandPoint@local@@@physx@@@physx@@IEAAAEAUExpandPoint@local@@AEBU34@@Z 00000001801a4230 f i GuCookingQuickHullConvexHullLib.obj
 0001:001a3330       ?growAndPushBack@?$PxArray@VPxPlane@physx@@V?$PxReflectionAllocator@VPxPlane@physx@@@2@@physx@@IEAAAEAVPxPlane@2@AEBV32@@Z 00000001801a4330 f i GuCookingQuickHullConvexHullLib.obj
 0001:001a33f0       ?init@?$MemBlock@UQuickHullFace@local@@$00@local@@QEAAXI@Z 00000001801a43f0 f i GuCookingQuickHullConvexHullLib.obj
 0001:001a34f0       ?init@?$MemBlock@UQuickHullHalfEdge@local@@$0A@@local@@QEAAXI@Z 00000001801a44f0 f i GuCookingQuickHullConvexHullLib.obj
 0001:001a3590       ?mergeAdjacentFace@QuickHullFace@local@@QEAA_NPEAUQuickHullHalfEdge@2@AEAV?$PxArray@PEAUQuickHullFace@local@@V?$PxReflectionAllocator@PEAUQuickHullFace@local@@@physx@@@physx@@@Z 00000001801a4590 f   GuCookingQuickHullConvexHullLib.obj
 0001:001a39f0       ?nextPointToAdd@QuickHull@local@@IEAAPEAUQuickHullVertex@2@AEAPEAUQuickHullFace@2@@Z 00000001801a49f0 f   GuCookingQuickHullConvexHullLib.obj
 0001:001a3b70       ?parseInputVertices@QuickHull@local@@QEAAXPEBV?$PxVec3T@M@physx@@I@Z 00000001801a4b70 f   GuCookingQuickHullConvexHullLib.obj
 0001:001a3cf0       ?postMergeHull@QuickHull@local@@IEAAXXZ 00000001801a4cf0 f   GuCookingQuickHullConvexHullLib.obj
 0001:001a3f50       ?preallocate@QuickHull@local@@QEAAXI@Z 00000001801a4f50 f   GuCookingQuickHullConvexHullLib.obj
 0001:001a4090       ?recreate@?$PxArray@PEAUQuickHullFace@local@@V?$PxReflectionAllocator@PEAUQuickHullFace@local@@@physx@@@physx@@IEAAXI@Z 00000001801a5090 f i GuCookingQuickHullConvexHullLib.obj
 0001:001a4130       ?recreate@?$PxArray@PEAUQuickHullHalfEdge@local@@V?$PxReflectionAllocator@PEAUQuickHullHalfEdge@local@@@physx@@@physx@@IEAAXI@Z 00000001801a5130 f i GuCookingQuickHullConvexHullLib.obj
 0001:001a41d0       ?recreate@?$PxArray@PEAUQuickHullVertex@local@@V?$PxReflectionAllocator@PEAUQuickHullVertex@local@@@physx@@@physx@@IEAAXI@Z 00000001801a51d0 f i GuCookingQuickHullConvexHullLib.obj
 0001:001a4270       ?recreate@?$PxArray@UExpandPoint@local@@V?$PxReflectionAllocator@UExpandPoint@local@@@physx@@@physx@@IEAAXI@Z 00000001801a5270 f i GuCookingQuickHullConvexHullLib.obj
 0001:001a4300       ?recreate@?$PxArray@VPxPlane@physx@@V?$PxReflectionAllocator@VPxPlane@physx@@@2@@physx@@IEAAXI@Z 00000001801a5300 f i GuCookingQuickHullConvexHullLib.obj
 0001:001a4390       ?resolveUnclaimedPoints@QuickHull@local@@IEAAXAEBV?$PxArray@PEAUQuickHullFace@local@@V?$PxReflectionAllocator@PEAUQuickHullFace@local@@@physx@@@physx@@@Z 00000001801a5390 f   GuCookingQuickHullConvexHullLib.obj
 0001:001a4610       ??$copy@V?$PxReflectionAllocator@VPair@@@physx@@@?$PxArray@VPair@@V?$PxReflectionAllocator@VPair@@@physx@@@physx@@IEAAXAEBV01@@Z 00000001801a5610 f i GuCookingConvexPolygonsBuilder.obj
 0001:001a4690       ??0ConvexPolygonsBuilder@physx@@QEAA@PEAUConvexHullData@Gu@1@_N@Z 00000001801a5690 f   GuCookingConvexPolygonsBuilder.obj
 0001:001a46b0       ??1ConvexPolygonsBuilder@physx@@QEAA@XZ 00000001801a56b0 f   GuCookingConvexPolygonsBuilder.obj
 0001:001a4f00       ?allocate@?$PxArray@VPair@@V?$PxReflectionAllocator@VPair@@@physx@@@physx@@IEAAPEAVPair@@I@Z 00000001801a5f00 f i GuCookingConvexPolygonsBuilder.obj
 0001:001a59e0       ?computeHullPolygons@ConvexPolygonsBuilder@physx@@QEAA_NAEBIPEBV?$PxVec3T@M@2@0PEBI@Z 00000001801a69e0 f   GuCookingConvexPolygonsBuilder.obj
 0001:001a6ca0       ?createPolygonData@ConvexPolygonsBuilder@physx@@AEAA_NXZ 00000001801a7ca0 f   GuCookingConvexPolygonsBuilder.obj
 0001:001a7700       ?createTrianglesFromPolygons@ConvexPolygonsBuilder@physx@@AEAA_NXZ 00000001801a8700 f   GuCookingConvexPolygonsBuilder.obj
 0001:001a8d80       ?growAndPushBack@?$PxArray@VPair@@V?$PxReflectionAllocator@VPair@@@physx@@@physx@@IEAAAEAVPair@@AEBV3@@Z 00000001801a9d80 f i GuCookingConvexPolygonsBuilder.obj
 0001:001a8f10       ??0ConvexMeshBuilder@physx@@QEAA@_N@Z 00000001801a9f10 f   GuCookingConvexMeshBuilder.obj
 0001:001a8f80       ??1ConvexMeshBuilder@physx@@QEAA@XZ 00000001801a9f80 f   GuCookingConvexMeshBuilder.obj
 0001:001a9410       ?build@ConvexMeshBuilder@physx@@QEAA_NAEBVPxConvexMeshDesc@2@I_NPEAVConvexHullLib@2@@Z 00000001801aa410 f   GuCookingConvexMeshBuilder.obj
 0001:001a97a0       ?checkExtentRadiusRatio@ConvexMeshBuilder@physx@@QEAA_NXZ 00000001801aa7a0 f   GuCookingConvexMeshBuilder.obj
 0001:001a97d0       ?computeHullPolygons@ConvexMeshBuilder@physx@@QEAA_NAEBIPEBV?$PxVec3T@M@2@0PEBIAEAVPxAllocatorCallback@2@AEAIAEAPEAV32@4AEAPEAI4AEAPEAUPxHullPolygon@2@@Z 00000001801aa7d0 f   GuCookingConvexMeshBuilder.obj
 0001:001a99e0       ?computeMassInfo@ConvexMeshBuilder@physx@@QEAAX_N@Z 00000001801aa9e0 f   GuCookingConvexMeshBuilder.obj
 0001:001a9d70       ?computeSDF@ConvexMeshBuilder@physx@@QEAAXAEBVPxConvexMeshDesc@2@@Z 00000001801aad70 f   GuCookingConvexMeshBuilder.obj
 0001:001aa180       ?copy@ConvexMeshBuilder@physx@@QEAA_NAEAUConvexHullInitData@Gu@2@@Z 00000001801ab180 f   GuCookingConvexMeshBuilder.obj
 0001:001aa2e0       ?loadConvexHull@ConvexMeshBuilder@physx@@QEAA_NAEBVPxConvexMeshDesc@2@PEAVConvexHullLib@2@@Z 00000001801ab2e0 f   GuCookingConvexMeshBuilder.obj
 0001:001aa530       ?save@ConvexMeshBuilder@physx@@QEBA_NAEAVPxOutputStream@2@_N@Z 00000001801ab530 f   GuCookingConvexMeshBuilder.obj
 0001:001aa950       ??0ConvexHull@physx@@QEAA@AEBV?$PxVec3T@M@1@AEBV?$PxTransformT@M@1@AEBV?$PxArray@VPxPlane@physx@@V?$PxReflectionAllocator@VPxPlane@physx@@@2@@1@@Z 00000001801ab950 f   GuCookingConvexHullUtils.obj
 0001:001aba70       ?allocate@?$PxArray@VHalfEdge@ConvexHull@physx@@V?$PxReflectionAllocator@VHalfEdge@ConvexHull@physx@@@3@@physx@@IEAAPEAVHalfEdge@ConvexHull@2@I@Z 00000001801aca70 f i GuCookingConvexHullUtils.obj
 0001:001abb00       ?assertIntact@ConvexHull@physx@@QEBA_NM@Z 00000001801acb00 f   GuCookingConvexHullUtils.obj
 0001:001abe20       ?computeOBBFromConvex@physx@@YA_NAEBVPxConvexMeshDesc@1@AEAV?$PxVec3T@M@1@AEAV?$PxTransformT@M@1@@Z 00000001801ace20 f   GuCookingConvexHullUtils.obj
 0001:001ac480       ?computeOBBSIMD@local@@YAXIPEBT__m128@@AEAT2@AEBT2@1@Z 00000001801ad480 f   GuCookingConvexHullUtils.obj
 0001:001ac830       ?convexHullCrop@physx@@YAPEAVConvexHull@1@AEBV21@AEBVPxPlane@1@M@Z 00000001801ad830 f   GuCookingConvexHullUtils.obj
 0001:001ad630       ?findCandidatePlane@ConvexHull@physx@@QEBAHMM@Z 00000001801ae630 f   GuCookingConvexHullUtils.obj
 0001:001ada80       ?growAndPushBack@?$PxArray@VHalfEdge@ConvexHull@physx@@V?$PxReflectionAllocator@VHalfEdge@ConvexHull@physx@@@3@@physx@@IEAAAEAVHalfEdge@ConvexHull@2@AEBV342@@Z 00000001801aea80 f i GuCookingConvexHullUtils.obj
 0001:001adb40       ?maxNumVertsPerFace@ConvexHull@physx@@QEBAIXZ 00000001801aeb40 f   GuCookingConvexHullUtils.obj
 0001:001adbb0       ?recreate@?$PxArray@VHalfEdge@ConvexHull@physx@@V?$PxReflectionAllocator@VHalfEdge@ConvexHull@physx@@@3@@physx@@IEAAXI@Z 00000001801aebb0 f i GuCookingConvexHullUtils.obj
 0001:001adc50       ?resize@?$PxArray@VHalfEdge@ConvexHull@physx@@V?$PxReflectionAllocator@VHalfEdge@ConvexHull@physx@@@3@@physx@@QEAAXIAEBVHalfEdge@ConvexHull@2@@Z 00000001801aec50 f i GuCookingConvexHullUtils.obj
 0001:001add10       ?resize@?$PxArray@VPxPlane@physx@@V?$PxReflectionAllocator@VPxPlane@physx@@@2@@physx@@QEAAXIAEBVPxPlane@2@@Z 00000001801aed10 f i GuCookingConvexHullUtils.obj
 0001:001ade30       ??1ConvexHullLib@physx@@UEAA@XZ 00000001801aee30 f   GuCookingConvexHullLib.obj
 0001:001ae420       ?cleanupVertices@ConvexHullLib@physx@@IEAA_NIPEBV?$PxVec3T@M@2@IAEAIPEAV32@@Z 00000001801af420 f   GuCookingConvexHullLib.obj
 0001:001ae560       ?shiftAndcleanupVertices@ConvexHullLib@physx@@IEAA_NIPEBV?$PxVec3T@M@2@IAEAIPEAV32@@Z 00000001801af560 f   GuCookingConvexHullLib.obj
 0001:001aeb40       ?shiftConvexMeshDesc@ConvexHullLib@physx@@IEAAXAEAVPxConvexMeshDesc@2@@Z 00000001801afb40 f   GuCookingConvexHullLib.obj
 0001:001aec00       ?swapLargestFace@ConvexHullLib@physx@@IEAAXAEAVPxConvexMeshDesc@2@@Z 00000001801afc00 f   GuCookingConvexHullLib.obj
 0001:001aee30       ??0ConvexHullBuilder@physx@@QEAA@PEAUConvexHullData@Gu@1@_N@Z 00000001801afe30 f   GuCookingConvexHullBuilder.obj
 0001:001aee60       ??1ConvexHullBuilder@physx@@QEAA@XZ 00000001801afe60 f   GuCookingConvexHullBuilder.obj
 0001:001aef70       ?calculateVertexMapTable@ConvexHullBuilder@physx@@QEAA_NI_N@Z 00000001801aff70 f   GuCookingConvexHullBuilder.obj
 0001:001af130       ?checkHullPolygons@ConvexHullBuilder@physx@@QEBA_NXZ 00000001801b0130 f   GuCookingConvexHullBuilder.obj
 0001:001af8d0       ?copy@ConvexHullBuilder@physx@@QEAA_NAEAUConvexHullData@Gu@2@AEAI@Z 00000001801b08d0 f   GuCookingConvexHullBuilder.obj
 0001:001afb40       ?createEdgeList@ConvexHullBuilder@physx@@QEAA_N_NI@Z 00000001801b0b40 f   GuCookingConvexHullBuilder.obj
 0001:001b0280       ?init@ConvexHullBuilder@physx@@QEAA_NIPEBV?$PxVec3T@M@2@PEBIIIPEBUPxHullPolygon@2@_NPEAVConvexHullLib@2@@Z 00000001801b1280 f   GuCookingConvexHullBuilder.obj
 0001:001b0bd0       ?save@ConvexHullBuilder@physx@@QEBA_NAEAVPxOutputStream@2@_N@Z 00000001801b1bd0 f   GuCookingConvexHullBuilder.obj
 0001:001b0ef0       ??0BigConvexDataBuilder@physx@@QEAA@PEBUConvexHullData@Gu@1@PEAVBigConvexData@1@PEBV?$PxVec3T@M@1@@Z 00000001801b1ef0 f   GuCookingBigConvexDataBuilder.obj
 0001:001b0f00       ?computeValencies@BigConvexDataBuilder@physx@@QEAA_NAEBVConvexHullBuilder@2@@Z 00000001801b1f00 f   GuCookingBigConvexDataBuilder.obj
 0001:001b12f0       ?precompute@BigConvexDataBuilder@physx@@QEAA_NI@Z 00000001801b22f0 f   GuCookingBigConvexDataBuilder.obj
 0001:001b1ef0       ?save@BigConvexDataBuilder@physx@@QEBA_NAEAVPxOutputStream@2@_N@Z 00000001801b2ef0 f   GuCookingBigConvexDataBuilder.obj
 0001:001b20de       __imp_load_PxGetFoundation 00000001801b30de f   PhysXFoundation_64:PhysXFoundation_64.dll
 0001:001b20ea       __tailMerge_physxfoundation_64_dll 00000001801b30ea     PhysXFoundation_64:PhysXFoundation_64.dll
 0001:001b2163       __imp_load_PxGetBroadcastAllocator 00000001801b3163 f   PhysXFoundation_64:PhysXFoundation_64.dll
 0001:001b216f       __imp_load_?PxAtomicIncrement@physx@@YAHPECH@Z 00000001801b316f f   PhysXFoundation_64:PhysXFoundation_64.dll
 0001:001b217b       __imp_load_??0PxMutexImpl@physx@@QEAA@XZ 00000001801b317b f   PhysXFoundation_64:PhysXFoundation_64.dll
 0001:001b2187       __imp_load_??1PxMutexImpl@physx@@QEAA@XZ 00000001801b3187 f   PhysXFoundation_64:PhysXFoundation_64.dll
 0001:001b2193       __imp_load_?lock@PxMutexImpl@physx@@QEAAXXZ 00000001801b3193 f   PhysXFoundation_64:PhysXFoundation_64.dll
 0001:001b219f       __imp_load_?unlock@PxMutexImpl@physx@@QEAAXXZ 00000001801b319f f   PhysXFoundation_64:PhysXFoundation_64.dll
 0001:001b21ab       __imp_load_?getSize@PxMutexImpl@physx@@SAIXZ 00000001801b31ab f   PhysXFoundation_64:PhysXFoundation_64.dll
 0001:001b21b7       __imp_load_?PxAtomicDecrement@physx@@YAHPECH@Z 00000001801b31b7 f   PhysXFoundation_64:PhysXFoundation_64.dll
 0001:001b21c3       __imp_load_?PxTransformFromSegment@physx@@YA?AV?$PxTransformT@M@1@AEBV?$PxVec3T@M@1@0PEAM@Z 00000001801b31c3 f   PhysXFoundation_64:PhysXFoundation_64.dll
 0001:001b21cf       __imp_load_?PxAtomicAdd@physx@@YAHPECHH@Z 00000001801b31cf f   PhysXFoundation_64:PhysXFoundation_64.dll
 0001:001b21db       __imp_load_?getDefaultStackSize@PxThreadImpl@physx@@SAIXZ 00000001801b31db f   PhysXFoundation_64:PhysXFoundation_64.dll
 0001:001b21e7       __imp_load_??0PxThreadImpl@physx@@QEAA@P6APEAXPEAX@Z0PEBD@Z 00000001801b31e7 f   PhysXFoundation_64:PhysXFoundation_64.dll
 0001:001b21f3       __imp_load_??1PxThreadImpl@physx@@QEAA@XZ 00000001801b31f3 f   PhysXFoundation_64:PhysXFoundation_64.dll
 0001:001b21ff       __imp_load_?start@PxThreadImpl@physx@@QEAAXIPEAVPxRunnable@2@@Z 00000001801b31ff f   PhysXFoundation_64:PhysXFoundation_64.dll
 0001:001b220b       __imp_load_?waitForQuit@PxThreadImpl@physx@@QEAA_NXZ 00000001801b320b f   PhysXFoundation_64:PhysXFoundation_64.dll
 0001:001b2217       __imp_load_?getSize@PxThreadImpl@physx@@SAIXZ 00000001801b3217 f   PhysXFoundation_64:PhysXFoundation_64.dll
 0001:001b2223       __imp_load_?allocate@PxTempAllocator@physx@@QEAAPEAX_KPEBDH@Z 00000001801b3223 f   PhysXFoundation_64:PhysXFoundation_64.dll
 0001:001b222f       __imp_load_?deallocate@PxTempAllocator@physx@@QEAAXPEAX@Z 00000001801b322f f   PhysXFoundation_64:PhysXFoundation_64.dll
 0001:001b223b       __imp_load_?PxOptimizeBoundingBox@physx@@YA?AV?$PxVec3T@M@1@AEAV?$PxMat33T@M@1@@Z 00000001801b323b f   PhysXFoundation_64:PhysXFoundation_64.dll
 0001:001b2247       __imp_load_?Pxstrcmp@physx@@YAHPEBD0@Z 00000001801b3247 f   PhysXFoundation_64:PhysXFoundation_64.dll
 0001:001b2253       __imp_load_??0PxFPUGuard@physx@@QEAA@XZ 00000001801b3253 f   PhysXFoundation_64:PhysXFoundation_64.dll
 0001:001b225f       __imp_load_??1PxFPUGuard@physx@@QEAA@XZ 00000001801b325f f   PhysXFoundation_64:PhysXFoundation_64.dll
 0001:001b226b       __imp_load_?PxDiagonalize@physx@@YA?AV?$PxVec3T@M@1@AEBV?$PxMat33T@M@1@AEAV?$PxQuatT@M@1@@Z 00000001801b326b f   PhysXFoundation_64:PhysXFoundation_64.dll
 0001:001b2278       ?DloadAcquireSectionWriteAccess@@YAXXZ 00000001801b3278 f i Delayimp:delayhlp.obj
 0001:001b2324       ?DloadGetSRWLockFunctionPointers@@YAEXZ 00000001801b3324 f i Delayimp:delayhlp.obj
 0001:001b23c4       ?DloadMakePermanentImageCommit@@YAXPEAX_K@Z 00000001801b33c4 f i Delayimp:delayhlp.obj
 0001:001b245c       ?DloadObtainSection@@YAPEAXPEAK0@Z 00000001801b345c f i Delayimp:delayhlp.obj
 0001:001b24f8       ?DloadProtectSection@@YAXKPEAK@Z 00000001801b34f8 f i Delayimp:delayhlp.obj
 0001:001b2588       ?DloadReleaseSectionWriteAccess@@YAXXZ 00000001801b3588 f i Delayimp:delayhlp.obj
 0001:001b261c       __delayLoadHelper2         00000001801b361c f   Delayimp:delayhlp.obj
 0001:001b28f4       ??3@YAXPEAX_K@Z            00000001801b38f4 f   LIBCMT:delete_scalar_size.obj
 0001:001b28f4       ??_V@YAXPEAX@Z             00000001801b38f4 f   LIBCMT:delete_array.obj
 0001:001b28fc       ??_Etype_info@@UEAAPEAXI@Z 00000001801b38fc f i LIBCMT:std_type_info_static.obj
 0001:001b28fc       ??_Gtype_info@@UEAAPEAXI@Z 00000001801b38fc f i LIBCMT:std_type_info_static.obj
 0001:001b2928       ?__scrt_initialize_type_info@@YAXXZ 00000001801b3928 f   LIBCMT:tncleanup.obj
 0001:001b2938       ?__scrt_uninitialize_type_info@@YAXXZ 00000001801b3938 f   LIBCMT:tncleanup.obj
 0001:001b2960       __chkstk                   00000001801b3960 f   LIBCMT:chkstk.obj
 0001:001b2960       _alloca_probe              00000001801b3960 f   LIBCMT:chkstk.obj
 0001:001b29b0       __vdecl_sinf4              00000001801b39b0 f   LIBCMT:svml_ssinf4_dispatch.obj
 0001:001b29d0       __libm_sse2_sincosf_       00000001801b39d0 f   LIBCMT:svml_ssinf4_dispatch.obj
 0001:001b2a13       __libm_sse2_sincosf4_      00000001801b3a13 f   LIBCMT:svml_ssinf4_dispatch.obj
 0001:001b2a20       ??3@YAXPEAX@Z              00000001801b3a20 f   LIBCMT:delete_scalar.obj
 0001:001b2a28       __scrt_acquire_startup_lock 00000001801b3a28 f   LIBCMT:utility.obj
 0001:001b2a64       __scrt_dllmain_after_initialize_c 00000001801b3a64 f   LIBCMT:utility.obj
 0001:001b2a98       __scrt_dllmain_before_initialize_c 00000001801b3a98 f   LIBCMT:utility.obj
 0001:001b2ab0       __scrt_dllmain_crt_thread_attach 00000001801b3ab0 f   LIBCMT:utility.obj
 0001:001b2ad8       __scrt_dllmain_crt_thread_detach 00000001801b3ad8 f   LIBCMT:utility.obj
 0001:001b2af0       __scrt_dllmain_exception_filter 00000001801b3af0 f   LIBCMT:utility.obj
 0001:001b2b50       __scrt_dllmain_uninitialize_c 00000001801b3b50 f   LIBCMT:utility.obj
 0001:001b2b80       __scrt_dllmain_uninitialize_critical 00000001801b3b80 f   LIBCMT:utility.obj
 0001:001b2b94       __scrt_initialize_crt      00000001801b3b94 f   LIBCMT:utility.obj
 0001:001b2be0       __scrt_initialize_onexit_tables 00000001801b3be0 f   LIBCMT:utility.obj
 0001:001b2c6c       __scrt_is_nonwritable_in_current_image 00000001801b3c6c f   LIBCMT:utility.obj
 0001:001b2d04       __scrt_release_startup_lock 00000001801b3d04 f   LIBCMT:utility.obj
 0001:001b2d28       __scrt_uninitialize_crt    00000001801b3d28 f   LIBCMT:utility.obj
 0001:001b2d54       _onexit                    00000001801b3d54 f   LIBCMT:utility.obj
 0001:001b2d90       atexit                     00000001801b3d90 f   LIBCMT:utility.obj
 0001:001b2da8       __isa_available_init       00000001801b3da8 f   LIBCMT:cpu_disp.obj
 0001:001b3274       _DllMainCRTStartup         00000001801b4274 f   LIBCMT:dll_dllmain.obj
 0001:001b32c0       __sse2_sinf4@@16           00000001801b42c0 f   LIBCMT:svml_ssinf4_sse2.obj
 0001:001b3c00       __sse4_sinf4@@16           00000001801b4c00 f   LIBCMT:svml_ssinf4_sse4.obj
 0001:001b4374       __scrt_is_ucrt_dll_in_use  00000001801b5374 f   LIBCMT:ucrt_detection.obj
 0001:001b4380       __crt_debugger_hook        00000001801b5380 f   LIBCMT:utility_desktop.obj
 0001:001b4388       __scrt_fastfail            00000001801b5388 f   LIBCMT:utility_desktop.obj
 0001:001b44d4       __security_init_cookie     00000001801b54d4 f   LIBCMT:gs_support.obj
 0001:001b4580       __local_stdio_scanf_options 00000001801b5580 f i LIBCMT:default_local_stdio_options.obj
 0001:001b4588       __scrt_initialize_default_local_stdio_options 00000001801b5588 f   LIBCMT:default_local_stdio_options.obj
 0001:001b45a4       __scrt_get_dyn_tls_init_callback 00000001801b55a4 f   LIBCMT:dyn_tls_init.obj
 0001:001b45ac       _RTC_Initialize            00000001801b55ac f   LIBCMT:initsect.obj
 0001:001b45e8       _RTC_Terminate             00000001801b55e8 f   LIBCMT:initsect.obj
 0001:001b4630       __common_ssin_cout_rare    00000001801b5630 f   LIBCMT:svml_s_sin_cout.obj
 0001:001b46b0       memcpy_repmovs             00000001801b56b0 f   libvcruntime:memcpy.obj
 0001:001b46d0       memcpy                     00000001801b56d0 f   libvcruntime:memcpy.obj
 0001:001b46d0       memmove                    00000001801b56d0 f   libvcruntime:memcpy.obj
 0001:001b4d40       _get_purecall_handler      00000001801b5d40 f   libvcruntime:purevirt.obj
 0001:001b4d4c       _purecall                  00000001801b5d4c f   libvcruntime:purevirt.obj
 0001:001b4d70       __std_type_info_compare    00000001801b5d70 f   libvcruntime:std_type_info.obj
 0001:001b4d98       __std_type_info_destroy_list 00000001801b5d98 f   libvcruntime:std_type_info.obj
 0001:001b4dc4       __std_type_info_name       00000001801b5dc4 f   libvcruntime:std_type_info.obj
 0001:001b4ef0       memset_repstos             00000001801b5ef0 f   libvcruntime:memset.obj
 0001:001b4f10       memset                     00000001801b5f10 f   libvcruntime:memset.obj
 0001:001b5298       strstr                     00000001801b6298 f   libvcruntime:strstr.obj
 0001:001b5490       __vcrt_initialize          00000001801b6490 f   libvcruntime:initialization.obj
 0001:001b54b8       __vcrt_thread_attach       00000001801b64b8 f   libvcruntime:initialization.obj
 0001:001b54cc       __vcrt_thread_detach       00000001801b64cc f   libvcruntime:initialization.obj
 0001:001b54dc       __vcrt_uninitialize        00000001801b64dc f   libvcruntime:initialization.obj
 0001:001b54f8       __vcrt_uninitialize_critical 00000001801b64f8 f   libvcruntime:initialization.obj
 0001:001b5508       __C_specific_handler       00000001801b6508 f   libvcruntime:riscchandler.obj
 0001:001b5700       __DestructExceptionObject  00000001801b6700 f   libvcruntime:ehhelpers.obj
 0001:001b5770       ?_CallMemberFunction0@@YAXQEAX0@Z 00000001801b6770 f i libvcruntime:ehhelpers.obj
 0001:001b5774       _IsExceptionObjectToBeDestroyed 00000001801b6774 f   libvcruntime:ehhelpers.obj
 0001:001b57a4       __AdjustPointer            00000001801b67a4 f   libvcruntime:ehhelpers.obj
 0001:001b57c8       __FrameUnwindFilter        00000001801b67c8 f   libvcruntime:ehhelpers.obj
 0001:001b5830       __std_terminate            00000001801b6830 f   libvcruntime:ehhelpers.obj
 0001:001b583c       ??$?0$00@DName@@QEAA@PEBDU?$StringLifeSelector@$00@@@Z 00000001801b683c f i libvcruntime:undname.obj
 0001:001b587c       ??$?0$01@DName@@QEAA@PEBDU?$StringLifeSelector@$01@@@Z 00000001801b687c f i libvcruntime:undname.obj
 0001:001b587c       ??$?0$0A@@DName@@QEAA@PEBDU?$StringLifeSelector@$0A@@@@Z 00000001801b687c f i libvcruntime:undname.obj
 0001:001b58bc       ??$?0$01@pcharNode@@QEAA@PEBDHU?$StringLifeSelector@$01@@@Z 00000001801b68bc f i libvcruntime:undname.obj
 0001:001b58bc       ??$?0$0A@@pcharNode@@QEAA@PEBDHU?$StringLifeSelector@$0A@@@@Z 00000001801b68bc f i libvcruntime:undname.obj
 0001:001b5930       ??$append@VDNameNode@@@DName@@AEAAXPEBVDNameNode@@@Z 00000001801b6930 f i libvcruntime:undname.obj
 0001:001b5930       ??$append@VDNameStatusNode@@@DName@@AEAAXPEBVDNameStatusNode@@@Z 00000001801b6930 f i libvcruntime:undname.obj
 0001:001b5930       ??$append@VcharNode@@@DName@@AEAAXPEBVcharNode@@@Z 00000001801b6930 f i libvcruntime:undname.obj
 0001:001b5930       ??$append@VpcharNode@@@DName@@AEAAXPEBVpcharNode@@@Z 00000001801b6930 f i libvcruntime:undname.obj
 0001:001b5994       ??$doPchar@$00@DName@@AEAAXPEBDH@Z 00000001801b6994 f i libvcruntime:undname.obj
 0001:001b5a38       ??$doPchar@$01@DName@@AEAAXPEBDH@Z 00000001801b6a38 f i libvcruntime:undname.obj
 0001:001b5a38       ??$doPchar@$0A@@DName@@AEAAXPEBDH@Z 00000001801b6a38 f i libvcruntime:undname.obj
 0001:001b5ad0       ??0DName@@QEAA@AEAPEBDD@Z  00000001801b6ad0 f   libvcruntime:undname.obj
 0001:001b5b80       ??0DName@@QEAA@AEBUStringLiteral@@@Z 00000001801b6b80 f   libvcruntime:undname.obj
 0001:001b5bac       ??0DName@@QEAA@PEAV0@@Z    00000001801b6bac f   libvcruntime:undname.obj
 0001:001b5c30       ??0DName@@QEAA@_J@Z        00000001801b6c30 f   libvcruntime:undname.obj
 0001:001b5cd8       ??0DName@@QEAA@_K@Z        00000001801b6cd8 f   libvcruntime:undname.obj
 0001:001b5d60       ??0UnDecorator@@QEAA@PEBDP6APEADJ@ZK@Z 00000001801b6d60 f i libvcruntime:undname.obj
 0001:001b5e14       ??2@YAPEAX_KAEAV_HeapManager@@H@Z 00000001801b6e14 f   libvcruntime:undname.obj
 0001:001b5e40       ??4DName@@QEAAAEAV0@W4DNameStatus@@@Z 00000001801b6e40 f   libvcruntime:undname.obj
 0001:001b5e70       ??AReplicator@@QEBA?AVDName@@H@Z 00000001801b6e70 f   libvcruntime:undname.obj
 0001:001b5eb0       ??HDName@@QEBA?AV0@AEBUStringLiteral@@@Z 00000001801b6eb0 f   libvcruntime:undname.obj
 0001:001b5edc       ??HDName@@QEBA?AV0@AEBV0@@Z 00000001801b6edc f   libvcruntime:undname.obj
 0001:001b5f08       ??HDName@@QEBA?AV0@D@Z     00000001801b6f08 f   libvcruntime:undname.obj
 0001:001b5f34       ??HDName@@QEBA?AV0@W4DNameStatus@@@Z 00000001801b6f34 f   libvcruntime:undname.obj
 0001:001b5f60       ??YDName@@QEAAAEAV0@AEBUStringLiteral@@@Z 00000001801b6f60 f   libvcruntime:undname.obj
 0001:001b5fe0       ??YDName@@QEAAAEAV0@AEBV0@@Z 00000001801b6fe0 f   libvcruntime:undname.obj
 0001:001b6038       ??YDName@@QEAAAEAV0@D@Z    00000001801b7038 f   libvcruntime:undname.obj
 0001:001b60a4       ??YDName@@QEAAAEAV0@W4DNameStatus@@@Z 00000001801b70a4 f   libvcruntime:undname.obj
 0001:001b60fc       ??YReplicator@@QEAAAEAV0@AEBVDName@@@Z 00000001801b70fc f   libvcruntime:undname.obj
 0001:001b6154       ?UScore@UnDecorator@@SA?AUStringLiteral@@W4Tokens@@@Z 00000001801b7154 f   libvcruntime:undname.obj
 0001:001b61a0       ?composeDeclaration@UnDecorator@@CA?AVDName@@AEBV2@@Z 00000001801b71a0 f i libvcruntime:undname.obj
 0001:001b7094       ?doPchar@DName@@AEAAXD@Z   00000001801b8094 f   libvcruntime:undname.obj
 0001:001b70e4       ?getAddressOf@UnDecorator@@CA?AVDName@@XZ 00000001801b80e4 f   libvcruntime:undname.obj
 0001:001b7174       ?getArgumentList@UnDecorator@@CA?AVDName@@XZ 00000001801b8174 f   libvcruntime:undname.obj
 0001:001b7328       ?getArgumentTypes@UnDecorator@@CA?AVDName@@XZ 00000001801b8328 f   libvcruntime:undname.obj
 0001:001b7474       ?getArrayAccess@UnDecorator@@CA?AVDName@@XZ 00000001801b8474 f   libvcruntime:undname.obj
 0001:001b7510       ?getArrayObject@UnDecorator@@CA?AVDName@@XZ 00000001801b8510 f   libvcruntime:undname.obj
 0001:001b75cc       ?getArrayType@UnDecorator@@CA?AVDName@@AEBV2@@Z 00000001801b85cc f i libvcruntime:undname.obj
 0001:001b7838       ?getBasedType@UnDecorator@@CA?AVDName@@XZ 00000001801b8838 f   libvcruntime:undname.obj
 0001:001b7930       ?getBasicDataType@UnDecorator@@CA?AVDName@@AEBV2@@Z 00000001801b8930 f   libvcruntime:undname.obj
 0001:001b7f34       ?getCallingConvention@UnDecorator@@CA?AVDName@@XZ 00000001801b8f34 f   libvcruntime:undname.obj
 0001:001b806c       ?getDataIndirectType@UnDecorator@@CA?AVDName@@AEBV2@W4IndirectionKind@@0H@Z 00000001801b906c f   libvcruntime:undname.obj
 0001:001b8990       ?getDataType@UnDecorator@@CA?AVDName@@PEAV2@@Z 00000001801b9990 f   libvcruntime:undname.obj
 0001:001b8aa4       ?getDecoratedName@UnDecorator@@CA?AVDName@@XZ 00000001801b9aa4 f   libvcruntime:undname.obj
 0001:001b8d8c       ?getDimension@UnDecorator@@CA?AVDName@@_N@Z 00000001801b9d8c f   libvcruntime:undname.obj
 0001:001b8ed4       ?getDispatchTarget@UnDecorator@@CA?AVDName@@XZ 00000001801b9ed4 f   libvcruntime:undname.obj
 0001:001b8f34       ?getECSUDataType@UnDecorator@@CA?AVDName@@XZ 00000001801b9f34 f   libvcruntime:undname.obj
 0001:001b9130       ?getEnumType@UnDecorator@@CA?AVDName@@XZ 00000001801ba130 f i libvcruntime:undname.obj
 0001:001b9260       ?getExtendedDataIndirectType@UnDecorator@@CA?AVDName@@AEAW4IndirectionKind@@AEA_NH@Z 00000001801ba260 f   libvcruntime:undname.obj
 0001:001b9464       ?getExternalDataType@UnDecorator@@CA?AVDName@@AEBV2@@Z 00000001801ba464 f i libvcruntime:undname.obj
 0001:001b9524       ?getFloatingPoint@UnDecorator@@CA?AVDName@@H@Z 00000001801ba524 f   libvcruntime:undname.obj
 0001:001b968c       ?getFunctionIndirectType@UnDecorator@@CA?AVDName@@AEBV2@@Z 00000001801ba68c f   libvcruntime:undname.obj
 0001:001b9bc0       ?getLastChar@DNameStatusNode@@UEBADXZ 00000001801babc0 f i libvcruntime:undname.obj
 0001:001b9bcc       ?getLastChar@charNode@@UEBADXZ 00000001801babcc f i libvcruntime:undname.obj
 0001:001b9bd0       ?getLastChar@pDNameNode@@UEBADXZ 00000001801babd0 f i libvcruntime:undname.obj
 0001:001b9bfc       ?getLastChar@pairNode@@UEBADXZ 00000001801babfc f i libvcruntime:undname.obj
 0001:001b9c34       ?getLastChar@pcharNode@@UEBADXZ 00000001801bac34 f i libvcruntime:undname.obj
 0001:001b9c48       ?getLexicalFrame@UnDecorator@@CA?AVDName@@XZ 00000001801bac48 f i libvcruntime:undname.obj
 0001:001b9cac       ?getMemberAccess@UnDecorator@@CA?AVDName@@XZ 00000001801bacac f   libvcruntime:undname.obj
 0001:001b9d40       ?getMemoryWithBuffer@_HeapManager@@QEAAPEAX_K@Z 00000001801bad40 f   libvcruntime:undname.obj
 0001:001b9dd0       ?getNoexcept@UnDecorator@@CA?AVDName@@XZ 00000001801badd0 f   libvcruntime:undname.obj
 0001:001b9e34       ?getNumberOfDimensions@UnDecorator@@CAHXZ 00000001801bae34 f   libvcruntime:undname.obj
 0001:001b9e9c       ?getOperatorName@UnDecorator@@CA?AVDName@@_NPEA_N@Z 00000001801bae9c f i libvcruntime:undname.obj
 0001:001ba84c       ?getPointerToMember@UnDecorator@@CA?AVDName@@XZ 00000001801bb84c f   libvcruntime:undname.obj
 0001:001ba944       ?getPrimaryDataType@UnDecorator@@CA?AVDName@@AEBV2@@Z 00000001801bb944 f   libvcruntime:undname.obj
 0001:001babfc       ?getPtrRefDataType@UnDecorator@@CA?AVDName@@AEBV2@H@Z 00000001801bbbfc f   libvcruntime:undname.obj
 0001:001badc8       ?getPtrRefType@UnDecorator@@CA?AVDName@@AEBV2@0W4IndirectionKind@@@Z 00000001801bbdc8 f   libvcruntime:undname.obj
 0001:001bafa0       ?getRestrictionSpec@UnDecorator@@CA?AVDName@@XZ 00000001801bbfa0 f   libvcruntime:undname.obj
 0001:001bb17c       ?getReturnType@UnDecorator@@CA?AVDName@@PEAV2@@Z 00000001801bc17c f   libvcruntime:undname.obj
 0001:001bb1b0       ?getScope@UnDecorator@@CA?AVDName@@XZ 00000001801bc1b0 f   libvcruntime:undname.obj
 0001:001bb668       ?getScopedName@UnDecorator@@CA?AVDName@@XZ 00000001801bc668 f   libvcruntime:undname.obj
 0001:001bb7ac       ?getSignedDimension@UnDecorator@@CA?AVDName@@XZ 00000001801bc7ac f   libvcruntime:undname.obj
 0001:001bb834       ?getString@DNameStatusNode@@UEBAPEADPEAD0@Z 00000001801bc834 f i libvcruntime:undname.obj
 0001:001bb87c       ?getString@charNode@@UEBAPEADPEAD0@Z 00000001801bc87c f i libvcruntime:undname.obj
 0001:001bb890       ?getString@pDNameNode@@UEBAPEADPEAD0@Z 00000001801bc890 f i libvcruntime:undname.obj
 0001:001bb8c0       ?getString@pairNode@@UEBAPEADPEAD0@Z 00000001801bc8c0 f i libvcruntime:undname.obj
 0001:001bb90c       ?getString@pcharNode@@UEBAPEADPEAD0@Z 00000001801bc90c f i libvcruntime:undname.obj
 0001:001bb944       ?getStringEncoding@UnDecorator@@CA?AVDName@@W4PrefixKind@@H@Z 00000001801bc944 f   libvcruntime:undname.obj
 0001:001bba54       ?getStringObject@UnDecorator@@CA?AVDName@@XZ 00000001801bca54 f   libvcruntime:undname.obj
 0001:001bbabc       ?getSymbolName@UnDecorator@@CA?AVDName@@XZ 00000001801bcabc f i libvcruntime:undname.obj
 0001:001bbb08       ?getTemplateArgumentList@UnDecorator@@CA?AVDName@@XZ 00000001801bcb08 f   libvcruntime:undname.obj
 0001:001bbd24       ?getTemplateName@UnDecorator@@CA?AVDName@@_N@Z 00000001801bcd24 f   libvcruntime:undname.obj
 0001:001bbfec       ?getTemplateNonTypeArgument@UnDecorator@@CA?AVDName@@XZ 00000001801bcfec f   libvcruntime:undname.obj
 0001:001bc53c       ?getTemplateTypeArgument@UnDecorator@@CA?AVDName@@XZ 00000001801bd53c f   libvcruntime:undname.obj
 0001:001bc6a4       ?getThrowTypes@UnDecorator@@CA?AVDName@@XZ 00000001801bd6a4 f   libvcruntime:undname.obj
 0001:001bc6c8       ?getTypeEncoding@UnDecorator@@CAHXZ 00000001801bd6c8 f i libvcruntime:undname.obj
 0001:001bca84       ?getUndecoratedName@UnDecorator@@QEAAPEADPEADH@Z 00000001801bda84 f i libvcruntime:undname.obj
 0001:001bcbd8       ?getUnionObject@UnDecorator@@CA?AVDName@@XZ 00000001801bdbd8 f   libvcruntime:undname.obj
 0001:001bccb0       ?getVCallThunkType@UnDecorator@@CA?AVDName@@XZ 00000001801bdcb0 f i libvcruntime:undname.obj
 0001:001bcd28       ?getValue@UnDecorator@@CA?AV?$optional@_K@std@@XZ 00000001801bdd28 f   libvcruntime:undname.obj
 0001:001bcd6c       ?getValueObject@UnDecorator@@CA?AVDName@@XZ 00000001801bdd6c f   libvcruntime:undname.obj
 0001:001bceac       ?getVdispMapType@UnDecorator@@CA?AVDName@@AEBV2@@Z 00000001801bdeac f i libvcruntime:undname.obj
 0001:001bcf28       ?getVfTableType@UnDecorator@@CA?AVDName@@AEBV2@@Z 00000001801bdf28 f i libvcruntime:undname.obj
 0001:001bd134       ?getZName@UnDecorator@@CA?AVDName@@_N0@Z 00000001801be134 f   libvcruntime:undname.obj
 0001:001bd408       ?length@pDNameNode@@UEBAHXZ 00000001801be408 f i libvcruntime:undname.obj
 0001:001bd430       ?length@pairNode@@UEBAHXZ  00000001801be430 f i libvcruntime:undname.obj
 0001:001bd478       ?parseDecoratedName@UnDecorator@@CA?AVDName@@XZ 00000001801be478 f   libvcruntime:undname.obj
 0001:001bd590       ?raw_length@pDNameNode@@UEBAHXZ 00000001801be590 f i libvcruntime:undname.obj
 0001:001bd594       ?raw_length@pairNode@@UEBAHXZ 00000001801be594 f i libvcruntime:undname.obj
 0001:001bd598       __unDName                  00000001801be598 f   libvcruntime:undname.obj
 0001:001bd5c0       __unDNameEx                00000001801be5c0 f   libvcruntime:undname.obj
 0001:001bd6b0       snprintf                   00000001801be6b0 f i libvcruntime:undname.obj
 0001:001bd708       sprintf_s                  00000001801be708 f i libvcruntime:undname.obj
 0001:001bd75c       __vcrt_freefls             00000001801be75c f   libvcruntime:per_thread_data.obj
 0001:001bd77c       __vcrt_freeptd_for_this_thread 00000001801be77c f   libvcruntime:per_thread_data.obj
 0001:001bd7c4       __vcrt_getptd              00000001801be7c4 f   libvcruntime:per_thread_data.obj
 0001:001bd7e0       __vcrt_getptd_noexit       00000001801be7e0 f   libvcruntime:per_thread_data.obj
 0001:001bd8a0       __vcrt_initialize_ptd      00000001801be8a0 f   libvcruntime:per_thread_data.obj
 0001:001bd8e8       __vcrt_uninitialize_ptd    00000001801be8e8 f   libvcruntime:per_thread_data.obj
 0001:001bd90c       __vcrt_initialize_locks    00000001801be90c f   libvcruntime:locks.obj
 0001:001bd954       __vcrt_lock                00000001801be954 f   libvcruntime:locks.obj
 0001:001bd970       __vcrt_uninitialize_locks  00000001801be970 f   libvcruntime:locks.obj
 0001:001bd9a8       __vcrt_unlock              00000001801be9a8 f   libvcruntime:locks.obj
 0001:001bd9e0       _NLG_Notify                00000001801be9e0 f   libvcruntime:notify.obj
 0001:001bda00       __NLG_Dispatch2            00000001801bea00 f   libvcruntime:notify.obj
 0001:001bda10       __NLG_Return2              00000001801bea10 f   libvcruntime:notify.obj
 0001:001bda14       __except_validate_context_record 00000001801bea14 f   libvcruntime:jbcxrval.obj
 0001:001bda4c       ??$_CallSETranslator@V__FrameHandler3@@@@YAHPEAUEHExceptionRecord@@PEA_KPEAU_CONTEXT@@PEAU_xDISPATCHER_CONTEXT@@PEBU_s_FuncInfo@@K1H@Z 00000001801bea4c f i libvcruntime:risctrnsctrl.obj
 0001:001bdaa0       ??$_CallSETranslator@V__FrameHandler4@@@@YAHPEAUEHExceptionRecord@@PEA_KPEAU_CONTEXT@@PEAU_xDISPATCHER_CONTEXT@@PEAUFuncInfo4@FH4@@K1H@Z 00000001801beaa0 f i libvcruntime:risctrnsctrl.obj
 0001:001bdaf4       ?CatchTryBlock@__FrameHandler3@@SAPEBU_s_TryBlockMapEntry@@PEBU_s_FuncInfo@@H@Z 00000001801beaf4 f   libvcruntime:risctrnsctrl.obj
 0001:001bdb58       ?DecompFuncInfo@FH4@@YA_JPEAEAEAUFuncInfo4@1@_KH_N@Z 00000001801beb58 f i libvcruntime:risctrnsctrl.obj
 0001:001bdc8c       ?ExecutionInCatch@__FrameHandler3@@SA_NPEAU_xDISPATCHER_CONTEXT@@PEBU_s_FuncInfo@@@Z 00000001801bec8c f   libvcruntime:risctrnsctrl.obj
 0001:001bdcb8       ?ExecutionInCatch@__FrameHandler4@@SA_NPEAU_xDISPATCHER_CONTEXT@@PEAUFuncInfo4@FH4@@@Z 00000001801becb8 f   libvcruntime:risctrnsctrl.obj
 0001:001bdcc0       ?FrameUnwindToEmptyState@__FrameHandler3@@SAXPEA_KPEAU_xDISPATCHER_CONTEXT@@PEBU_s_FuncInfo@@@Z 00000001801becc0 f   libvcruntime:risctrnsctrl.obj
 0001:001bdd24       ?FrameUnwindToEmptyState@__FrameHandler4@@SAXPEA_KPEAU_xDISPATCHER_CONTEXT@@PEAUFuncInfo4@FH4@@@Z 00000001801bed24 f   libvcruntime:risctrnsctrl.obj
 0001:001bdd58       ?GetEstablisherFrame@__FrameHandler3@@SAPEA_KPEA_KPEAU_xDISPATCHER_CONTEXT@@PEBU_s_FuncInfo@@0@Z 00000001801bed58 f   libvcruntime:risctrnsctrl.obj
 0001:001bde24       ?GetEstablisherFrame@__FrameHandler4@@SAPEA_KPEA_KPEAU_xDISPATCHER_CONTEXT@@PEAUFuncInfo4@FH4@@0@Z 00000001801bee24 f   libvcruntime:risctrnsctrl.obj
 0001:001bde48       ?GetRangeOfTrysToCheck@__FrameHandler3@@SA?AU?$pair@Viterator@TryBlockMap@__FrameHandler3@@V123@@std@@AEAVTryBlockMap@1@HPEAU_xDISPATCHER_CONTEXT@@PEBU_s_FuncInfo@@H@Z 00000001801bee48 f   libvcruntime:risctrnsctrl.obj
 0001:001bdf88       ?GetRangeOfTrysToCheck@__FrameHandler4@@SA?AU?$pair@Viterator@TryBlockMap4@FH4@@V123@@std@@AEAVTryBlockMap4@FH4@@HPEAU_xDISPATCHER_CONTEXT@@PEAUFuncInfo4@5@H@Z 00000001801bef88 f   libvcruntime:risctrnsctrl.obj
 0001:001be0f4       ?UnwindNestedFrames@__FrameHandler3@@SAXPEA_KPEAUEHExceptionRecord@@PEAU_CONTEXT@@0PEAXPEBU_s_FuncInfo@@HHPEBU_s_HandlerType@@PEAU_xDISPATCHER_CONTEXT@@E@Z 00000001801bf0f4 f   libvcruntime:risctrnsctrl.obj
 0001:001be1f8       ?UnwindNestedFrames@__FrameHandler4@@SAXPEA_KPEAUEHExceptionRecord@@PEAU_CONTEXT@@0PEAXPEAUFuncInfo4@FH4@@HHPEAUHandlerType4@5@PEAU_xDISPATCHER_CONTEXT@@E@Z 00000001801bf1f8 f   libvcruntime:risctrnsctrl.obj
 0001:001be318       ?setBuffer@TryBlockMap4@FH4@@QEAAXViterator@12@@Z 00000001801bf318 f i libvcruntime:risctrnsctrl.obj
 0001:001be4dc       _CreateFrameInfo           00000001801bf4dc f   libvcruntime:risctrnsctrl.obj
 0001:001be518       _FindAndUnlinkFrame        00000001801bf518 f   libvcruntime:risctrnsctrl.obj
 0001:001be56c       _GetImageBase              00000001801bf56c f   libvcruntime:risctrnsctrl.obj
 0001:001be580       _GetThrowImageBase         00000001801bf580 f   libvcruntime:risctrnsctrl.obj
 0001:001be594       _SetImageBase              00000001801bf594 f   libvcruntime:risctrnsctrl.obj
 0001:001be5ac       _SetThrowImageBase         00000001801bf5ac f   libvcruntime:risctrnsctrl.obj
 0001:001be5c4       __CxxFrameHandler3         00000001801bf5c4 f   libvcruntime:risctrnsctrl.obj
 0001:001be64c       __CxxFrameHandler4         00000001801bf64c f   libvcruntime:risctrnsctrl.obj
 0001:001be85c       __vcrt_FlsAlloc            00000001801bf85c f   libvcruntime:winapi_downlevel.obj
 0001:001be8a4       __vcrt_FlsFree             00000001801bf8a4 f   libvcruntime:winapi_downlevel.obj
 0001:001be8ec       __vcrt_FlsGetValue         00000001801bf8ec f   libvcruntime:winapi_downlevel.obj
 0001:001be934       __vcrt_FlsSetValue         00000001801bf934 f   libvcruntime:winapi_downlevel.obj
 0001:001be988       __vcrt_InitializeCriticalSectionEx 00000001801bf988 f   libvcruntime:winapi_downlevel.obj
 0001:001be9ec       ?GetCurrentState@__FrameHandler3@@SAHPEA_KPEAU_xDISPATCHER_CONTEXT@@PEBU_s_FuncInfo@@@Z 00000001801bf9ec f   libvcruntime:ehstate.obj
 0001:001bea14       ?GetUnwindTryBlock@__FrameHandler3@@SAHPEA_KPEAU_xDISPATCHER_CONTEXT@@PEBU_s_FuncInfo@@@Z 00000001801bfa14 f   libvcruntime:ehstate.obj
 0001:001bea40       ?SetState@__FrameHandler3@@SAXPEA_KPEBU_s_FuncInfo@@H@Z 00000001801bfa40 f   libvcruntime:ehstate.obj
 0001:001bea4c       ?SetUnwindTryBlock@__FrameHandler3@@SAXPEA_KPEAU_xDISPATCHER_CONTEXT@@PEBU_s_FuncInfo@@H@Z 00000001801bfa4c f   libvcruntime:ehstate.obj
 0001:001bea88       ?StateFromControlPc@__FrameHandler3@@SAHPEBU_s_FuncInfo@@PEAU_xDISPATCHER_CONTEXT@@@Z 00000001801bfa88 f   libvcruntime:ehstate.obj
 0001:001bea90       ?StateFromControlPc@__FrameHandler4@@SAHPEAUFuncInfo4@FH4@@PEAU_xDISPATCHER_CONTEXT@@@Z 00000001801bfa90 f   libvcruntime:ehstate.obj
 0001:001bea98       ?StateFromIp@__FrameHandler3@@SAHPEBU_s_FuncInfo@@PEAU_xDISPATCHER_CONTEXT@@_K@Z 00000001801bfa98 f   libvcruntime:ehstate.obj
 0001:001beb00       ?StateFromIp@__FrameHandler4@@SAHPEAUFuncInfo4@FH4@@PEAU_xDISPATCHER_CONTEXT@@_K@Z 00000001801bfb00 f   libvcruntime:ehstate.obj
 0001:001c0200       ??$TypeMatchHelper@V__FrameHandler3@@@@YAHPEBU_s_HandlerType@@PEBU_s_CatchableType@@PEBU_s_ThrowInfo@@@Z 00000001801c1200 f i libvcruntime:frame.obj
 0001:001c0340       ??$TypeMatchHelper@V__FrameHandler4@@@@YAHPEAUHandlerType4@FH4@@PEBU_s_CatchableType@@PEBU_s_ThrowInfo@@@Z 00000001801c1340 f i libvcruntime:frame.obj
 0001:001c0484       ??$__InternalCxxFrameHandler@V__FrameHandler3@@@@YA?AW4_EXCEPTION_DISPOSITION@@PEAUEHExceptionRecord@@PEA_KPEAU_CONTEXT@@PEAU_xDISPATCHER_CONTEXT@@PEBU_s_FuncInfo@@H1E@Z 00000001801c1484 f i libvcruntime:frame.obj
 0001:001c06bc       ??$__InternalCxxFrameHandler@V__FrameHandler4@@@@YA?AW4_EXCEPTION_DISPOSITION@@PEAUEHExceptionRecord@@PEA_KPEAU_CONTEXT@@PEAU_xDISPATCHER_CONTEXT@@PEAUFuncInfo4@FH4@@H1E@Z 00000001801c16bc f i libvcruntime:frame.obj
 0001:001c0950       ??$__InternalCxxFrameHandlerWrapper@V__FrameHandler3@@@@YA?AW4_EXCEPTION_DISPOSITION@@PEAUEHExceptionRecord@@PEA_KPEAU_CONTEXT@@PEAU_xDISPATCHER_CONTEXT@@PEBU_s_FuncInfo@@H1E@Z 00000001801c1950 f i libvcruntime:frame.obj
 0001:001c0958       ??$__InternalCxxFrameHandlerWrapper@V__FrameHandler4@@@@YA?AW4_EXCEPTION_DISPOSITION@@PEAUEHExceptionRecord@@PEA_KPEAU_CONTEXT@@PEAU_xDISPATCHER_CONTEXT@@PEAUFuncInfo4@FH4@@H1E@Z 00000001801c1958 f i libvcruntime:frame.obj
 0001:001c09a4       ??0HandlerMap4@FH4@@QEAA@PEBUTryBlockMapEntry4@1@_KH@Z 00000001801c19a4 f i libvcruntime:frame.obj
 0001:001c0a28       ??0TryBlockMap4@FH4@@QEAA@PEBUFuncInfo4@1@_K@Z 00000001801c1a28 f i libvcruntime:frame.obj
 0001:001c0b0c       ??0bad_exception@std@@QEAA@AEBV01@@Z 00000001801c1b0c f i libvcruntime:frame.obj
 0001:001c0b48       ??0bad_exception@std@@QEAA@XZ 00000001801c1b48 f i libvcruntime:frame.obj
 0001:001c0b68       ??0exception@std@@QEAA@AEBV01@@Z 00000001801c1b68 f i libvcruntime:frame.obj
 0001:001c0b9c       ??1bad_exception@std@@UEAA@XZ 00000001801c1b9c f i libvcruntime:frame.obj
 0001:001c0bb0       ??_Ebad_exception@std@@UEAAPEAXI@Z 00000001801c1bb0 f i libvcruntime:frame.obj
 0001:001c0bb0       ??_Eexception@std@@UEAAPEAXI@Z 00000001801c1bb0 f i libvcruntime:frame.obj
 0001:001c0bb0       ??_Gbad_exception@std@@UEAAPEAXI@Z 00000001801c1bb0 f i libvcruntime:frame.obj
 0001:001c0bb0       ??_Gexception@std@@UEAAPEAXI@Z 00000001801c1bb0 f i libvcruntime:frame.obj
 0001:001c0bf4       ?CxxCallCatchBlock@__FrameHandler3@@SAPEAXPEAU_EXCEPTION_RECORD@@@Z 00000001801c1bf4 f   libvcruntime:frame.obj
 0001:001c0de0       ?CxxCallCatchBlock@__FrameHandler4@@SAPEAXPEAU_EXCEPTION_RECORD@@@Z 00000001801c1de0 f   libvcruntime:frame.obj
 0001:001c1030       ?DecompHandler@HandlerMap4@FH4@@AEAAXXZ 00000001801c2030 f i libvcruntime:frame.obj
 0001:001c127c       ?FrameUnwindToState@__FrameHandler3@@SAXPEA_KPEAU_xDISPATCHER_CONTEXT@@PEBU_s_FuncInfo@@H@Z 00000001801c227c f   libvcruntime:frame.obj
 0001:001c1408       ?FrameUnwindToState@__FrameHandler4@@SAXPEA_KPEAU_xDISPATCHER_CONTEXT@@PEAUFuncInfo4@FH4@@H@Z 00000001801c2408 f   libvcruntime:frame.obj
 0001:001c170c       ?GetHandlerSearchState@__FrameHandler3@@SAHPEA_KPEAU_xDISPATCHER_CONTEXT@@PEBU_s_FuncInfo@@@Z 00000001801c270c f i libvcruntime:frame.obj
 0001:001c191c       ?ReadEntry@UWMap4@FH4@@AEAAXPEAPEAE@Z 00000001801c291c f i libvcruntime:frame.obj
 0001:001c19b8       ?_CallMemberFunction1@@YAXQEAX00@Z 00000001801c29b8 f i libvcruntime:frame.obj
 0001:001c19c4       ?_CallMemberFunction2@@YAXQEAX00H@Z 00000001801c29c4 f i libvcruntime:frame.obj
 0001:001c19d4       ?getStartStop@UWMap4@FH4@@QEAAXHHAEAViterator@12@0@Z 00000001801c29d4 f i libvcruntime:frame.obj
 0001:001c1aa4       ?getStateFromIterators@UWMap4@FH4@@SAHAEBViterator@12@H0H0@Z 00000001801c2aa4 f i libvcruntime:frame.obj
 0001:001c1b54       ?what@exception@std@@UEBAPEBDXZ 00000001801c2b54 f i libvcruntime:frame.obj
 0001:001c1b80       _CallSettingFrame          00000001801c2b80 f   libvcruntime:handlers.obj
 0001:001c1bd0       _CallSettingFrame_LookupContinuationIndex 00000001801c2bd0 f   libvcruntime:handlers.obj
 0001:001c1c00       _CallSettingFrame_NotifyContinuationAddr 00000001801c2c00 f   libvcruntime:handlers.obj
 0001:001c1c30       _CallSettingFrameEncoded   00000001801c2c30 f   libvcruntime:handlers.obj
 0001:001c1c78       __std_exception_copy       00000001801c2c78 f   libvcruntime:std_exception.obj
 0001:001c1d08       __std_exception_destroy    00000001801c2d08 f   libvcruntime:std_exception.obj
 0001:001c1d30       _CxxThrowException         00000001801c2d30 f   libvcruntime:throw.obj
 0001:001c1de0       cosf                       00000001801c2de0 f   libucrt:cosf.obj
 0001:001c22e0       sinf                       00000001801c32e0 f   libucrt:sinf.obj
 0001:001c29e0       tanf                       00000001801c39e0 f   libucrt:tanf.obj
 0001:001c3054       __acrt_initialize_stdio    00000001801c4054 f   libucrt:_file.obj
 0001:001c3174       __acrt_iob_func            00000001801c4174 f   libucrt:_file.obj
 0001:001c3188       __acrt_uninitialize_stdio  00000001801c4188 f   libucrt:_file.obj
 0001:001c31e4       _lock_file                 00000001801c41e4 f   libucrt:_file.obj
 0001:001c31f0       _unlock_file               00000001801c41f0 f   libucrt:_file.obj
 0001:001c33ec       ??$ensure_buffer_is_big_enough@D@formatting_buffer@__crt_stdio_output@@QEAA_N_KAEAV__crt_cached_ptd_host@@@Z 00000001801c43ec f i libucrt:output.obj
 0001:001c3494       ??$parse_integer@KV?$c_string_character_source@D@__crt_strtox@@$0A@@__crt_strtox@@YAKAEAV__crt_cached_ptd_host@@V?$c_string_character_source@D@0@H_N@Z 00000001801c4494 f i libucrt:output.obj
 0001:001c3748       ??$type_case_integer@$07@?$output_processor@DV?$stream_output_adapter@D@__crt_stdio_output@@V?$standard_base@DV?$stream_output_adapter@D@__crt_stdio_output@@@2@@__crt_stdio_output@@AEAA_N_N@Z 00000001801c4748 f i libucrt:output.obj
 0001:001c3748       ??$type_case_integer@$07@?$output_processor@DV?$string_output_adapter@D@__crt_stdio_output@@V?$format_validation_base@DV?$string_output_adapter@D@__crt_stdio_output@@@2@@__crt_stdio_output@@AEAA_N_N@Z 00000001801c4748 f i libucrt:output.obj
 0001:001c3748       ??$type_case_integer@$07@?$output_processor@DV?$string_output_adapter@D@__crt_stdio_output@@V?$standard_base@DV?$string_output_adapter@D@__crt_stdio_output@@@2@@__crt_stdio_output@@AEAA_N_N@Z 00000001801c4748 f i libucrt:output.obj
 0001:001c394c       ??$type_case_integer@$09@?$output_processor@DV?$stream_output_adapter@D@__crt_stdio_output@@V?$standard_base@DV?$stream_output_adapter@D@__crt_stdio_output@@@2@@__crt_stdio_output@@AEAA_N_N@Z 00000001801c494c f i libucrt:output.obj
 0001:001c394c       ??$type_case_integer@$09@?$output_processor@DV?$string_output_adapter@D@__crt_stdio_output@@V?$format_validation_base@DV?$string_output_adapter@D@__crt_stdio_output@@@2@@__crt_stdio_output@@AEAA_N_N@Z 00000001801c494c f i libucrt:output.obj
 0001:001c394c       ??$type_case_integer@$09@?$output_processor@DV?$string_output_adapter@D@__crt_stdio_output@@V?$standard_base@DV?$string_output_adapter@D@__crt_stdio_output@@@2@@__crt_stdio_output@@AEAA_N_N@Z 00000001801c494c f i libucrt:output.obj
 0001:001c3b50       ??$type_case_integer@$0BA@@?$output_processor@DV?$stream_output_adapter@D@__crt_stdio_output@@V?$standard_base@DV?$stream_output_adapter@D@__crt_stdio_output@@@2@@__crt_stdio_output@@AEAA_N_N@Z 00000001801c4b50 f i libucrt:output.obj
 0001:001c3b50       ??$type_case_integer@$0BA@@?$output_processor@DV?$string_output_adapter@D@__crt_stdio_output@@V?$format_validation_base@DV?$string_output_adapter@D@__crt_stdio_output@@@2@@__crt_stdio_output@@AEAA_N_N@Z 00000001801c4b50 f i libucrt:output.obj
 0001:001c3b50       ??$type_case_integer@$0BA@@?$output_processor@DV?$string_output_adapter@D@__crt_stdio_output@@V?$standard_base@DV?$string_output_adapter@D@__crt_stdio_output@@@2@@__crt_stdio_output@@AEAA_N_N@Z 00000001801c4b50 f i libucrt:output.obj
 0001:001c3d54       ??$type_case_integer_parse_into_buffer@I$07@?$output_processor@DV?$stream_output_adapter@D@__crt_stdio_output@@V?$standard_base@DV?$stream_output_adapter@D@__crt_stdio_output@@@2@@__crt_stdio_output@@AEAAXI_N@Z 00000001801c4d54 f i libucrt:output.obj
 0001:001c3d54       ??$type_case_integer_parse_into_buffer@I$07@?$output_processor@DV?$string_output_adapter@D@__crt_stdio_output@@V?$format_validation_base@DV?$string_output_adapter@D@__crt_stdio_output@@@2@@__crt_stdio_output@@AEAAXI_N@Z 00000001801c4d54 f i libucrt:output.obj
 0001:001c3d54       ??$type_case_integer_parse_into_buffer@I$07@?$output_processor@DV?$string_output_adapter@D@__crt_stdio_output@@V?$standard_base@DV?$string_output_adapter@D@__crt_stdio_output@@@2@@__crt_stdio_output@@AEAAXI_N@Z 00000001801c4d54 f i libucrt:output.obj
 0001:001c3dc4       ??$type_case_integer_parse_into_buffer@I$09@?$output_processor@DV?$stream_output_adapter@D@__crt_stdio_output@@V?$standard_base@DV?$stream_output_adapter@D@__crt_stdio_output@@@2@@__crt_stdio_output@@AEAAXI_N@Z 00000001801c4dc4 f i libucrt:output.obj
 0001:001c3dc4       ??$type_case_integer_parse_into_buffer@I$09@?$output_processor@DV?$string_output_adapter@D@__crt_stdio_output@@V?$format_validation_base@DV?$string_output_adapter@D@__crt_stdio_output@@@2@@__crt_stdio_output@@AEAAXI_N@Z 00000001801c4dc4 f i libucrt:output.obj
 0001:001c3dc4       ??$type_case_integer_parse_into_buffer@I$09@?$output_processor@DV?$string_output_adapter@D@__crt_stdio_output@@V?$standard_base@DV?$string_output_adapter@D@__crt_stdio_output@@@2@@__crt_stdio_output@@AEAAXI_N@Z 00000001801c4dc4 f i libucrt:output.obj
 0001:001c3e70       ??$type_case_integer_parse_into_buffer@I$0BA@@?$output_processor@DV?$stream_output_adapter@D@__crt_stdio_output@@V?$standard_base@DV?$stream_output_adapter@D@__crt_stdio_output@@@2@@__crt_stdio_output@@AEAAXI_N@Z 00000001801c4e70 f i libucrt:output.obj
 0001:001c3e70       ??$type_case_integer_parse_into_buffer@I$0BA@@?$output_processor@DV?$string_output_adapter@D@__crt_stdio_output@@V?$format_validation_base@DV?$string_output_adapter@D@__crt_stdio_output@@@2@@__crt_stdio_output@@AEAAXI_N@Z 00000001801c4e70 f i libucrt:output.obj
 0001:001c3e70       ??$type_case_integer_parse_into_buffer@I$0BA@@?$output_processor@DV?$string_output_adapter@D@__crt_stdio_output@@V?$standard_base@DV?$string_output_adapter@D@__crt_stdio_output@@@2@@__crt_stdio_output@@AEAAXI_N@Z 00000001801c4e70 f i libucrt:output.obj
 0001:001c3ef4       ??$type_case_integer_parse_into_buffer@_K$07@?$output_processor@DV?$stream_output_adapter@D@__crt_stdio_output@@V?$standard_base@DV?$stream_output_adapter@D@__crt_stdio_output@@@2@@__crt_stdio_output@@AEAAX_K_N@Z 00000001801c4ef4 f i libucrt:output.obj
 0001:001c3ef4       ??$type_case_integer_parse_into_buffer@_K$07@?$output_processor@DV?$string_output_adapter@D@__crt_stdio_output@@V?$format_validation_base@DV?$string_output_adapter@D@__crt_stdio_output@@@2@@__crt_stdio_output@@AEAAX_K_N@Z 00000001801c4ef4 f i libucrt:output.obj
 0001:001c3ef4       ??$type_case_integer_parse_into_buffer@_K$07@?$output_processor@DV?$string_output_adapter@D@__crt_stdio_output@@V?$standard_base@DV?$string_output_adapter@D@__crt_stdio_output@@@2@@__crt_stdio_output@@AEAAX_K_N@Z 00000001801c4ef4 f i libucrt:output.obj
 0001:001c3f64       ??$type_case_integer_parse_into_buffer@_K$09@?$output_processor@DV?$stream_output_adapter@D@__crt_stdio_output@@V?$standard_base@DV?$stream_output_adapter@D@__crt_stdio_output@@@2@@__crt_stdio_output@@AEAAX_K_N@Z 00000001801c4f64 f i libucrt:output.obj
 0001:001c3f64       ??$type_case_integer_parse_into_buffer@_K$09@?$output_processor@DV?$string_output_adapter@D@__crt_stdio_output@@V?$format_validation_base@DV?$string_output_adapter@D@__crt_stdio_output@@@2@@__crt_stdio_output@@AEAAX_K_N@Z 00000001801c4f64 f i libucrt:output.obj
 0001:001c3f64       ??$type_case_integer_parse_into_buffer@_K$09@?$output_processor@DV?$string_output_adapter@D@__crt_stdio_output@@V?$standard_base@DV?$string_output_adapter@D@__crt_stdio_output@@@2@@__crt_stdio_output@@AEAAX_K_N@Z 00000001801c4f64 f i libucrt:output.obj
 0001:001c4014       ??$type_case_integer_parse_into_buffer@_K$0BA@@?$output_processor@DV?$stream_output_adapter@D@__crt_stdio_output@@V?$standard_base@DV?$stream_output_adapter@D@__crt_stdio_output@@@2@@__crt_stdio_output@@AEAAX_K_N@Z 00000001801c5014 f i libucrt:output.obj
 0001:001c4014       ??$type_case_integer_parse_into_buffer@_K$0BA@@?$output_processor@DV?$string_output_adapter@D@__crt_stdio_output@@V?$format_validation_base@DV?$string_output_adapter@D@__crt_stdio_output@@@2@@__crt_stdio_output@@AEAAX_K_N@Z 00000001801c5014 f i libucrt:output.obj
 0001:001c4014       ??$type_case_integer_parse_into_buffer@_K$0BA@@?$output_processor@DV?$string_output_adapter@D@__crt_stdio_output@@V?$standard_base@DV?$string_output_adapter@D@__crt_stdio_output@@@2@@__crt_stdio_output@@AEAAX_K_N@Z 00000001801c5014 f i libucrt:output.obj
 0001:001c41b4       ?crop_zeroes@__crt_stdio_output@@YAXPEADQEAU__crt_locale_pointers@@@Z 00000001801c51b4 f i libucrt:output.obj
 0001:001c4220       ?get_raw_ptd@__crt_cached_ptd_host@@QEAAPEAU__acrt_ptd@@XZ 00000001801c5220 f i libucrt:output.obj
 0001:001c4288       ?parse_int_from_format_string@?$output_processor@DV?$stream_output_adapter@D@__crt_stdio_output@@V?$standard_base@DV?$stream_output_adapter@D@__crt_stdio_output@@@2@@__crt_stdio_output@@AEAA_NQEAH@Z 00000001801c5288 f i libucrt:output.obj
 0001:001c4288       ?parse_int_from_format_string@?$output_processor@DV?$string_output_adapter@D@__crt_stdio_output@@V?$format_validation_base@DV?$string_output_adapter@D@__crt_stdio_output@@@2@@__crt_stdio_output@@AEAA_NQEAH@Z 00000001801c5288 f i libucrt:output.obj
 0001:001c4288       ?parse_int_from_format_string@?$output_processor@DV?$string_output_adapter@D@__crt_stdio_output@@V?$standard_base@DV?$string_output_adapter@D@__crt_stdio_output@@@2@@__crt_stdio_output@@AEAA_NQEAH@Z 00000001801c5288 f i libucrt:output.obj
 0001:001c4318       ?process@?$output_processor@DV?$stream_output_adapter@D@__crt_stdio_output@@V?$standard_base@DV?$stream_output_adapter@D@__crt_stdio_output@@@2@@__crt_stdio_output@@QEAAHXZ 00000001801c5318 f i libucrt:output.obj
 0001:001c46b0       ?process@?$output_processor@DV?$string_output_adapter@D@__crt_stdio_output@@V?$format_validation_base@DV?$string_output_adapter@D@__crt_stdio_output@@@2@@__crt_stdio_output@@QEAAHXZ 00000001801c56b0 f i libucrt:output.obj
 0001:001c4a34       ?process@?$output_processor@DV?$string_output_adapter@D@__crt_stdio_output@@V?$standard_base@DV?$string_output_adapter@D@__crt_stdio_output@@@2@@__crt_stdio_output@@QEAAHXZ 00000001801c5a34 f i libucrt:output.obj
 0001:001c4db4       ?state_case_size@?$output_processor@DV?$stream_output_adapter@D@__crt_stdio_output@@V?$standard_base@DV?$stream_output_adapter@D@__crt_stdio_output@@@2@@__crt_stdio_output@@AEAA_NXZ 00000001801c5db4 f i libucrt:output.obj
 0001:001c4f3c       ?state_case_size@?$output_processor@DV?$string_output_adapter@D@__crt_stdio_output@@V?$format_validation_base@DV?$string_output_adapter@D@__crt_stdio_output@@@2@@__crt_stdio_output@@AEAA_NXZ 00000001801c5f3c f i libucrt:output.obj
 0001:001c4f3c       ?state_case_size@?$output_processor@DV?$string_output_adapter@D@__crt_stdio_output@@V?$standard_base@DV?$string_output_adapter@D@__crt_stdio_output@@@2@@__crt_stdio_output@@AEAA_NXZ 00000001801c5f3c f i libucrt:output.obj
 0001:001c50c4       ?state_case_type@?$output_processor@DV?$stream_output_adapter@D@__crt_stdio_output@@V?$standard_base@DV?$stream_output_adapter@D@__crt_stdio_output@@@2@@__crt_stdio_output@@AEAA_NXZ 00000001801c60c4 f i libucrt:output.obj
 0001:001c54fc       ?state_case_type@?$output_processor@DV?$string_output_adapter@D@__crt_stdio_output@@V?$format_validation_base@DV?$string_output_adapter@D@__crt_stdio_output@@@2@@__crt_stdio_output@@AEAA_NXZ 00000001801c64fc f i libucrt:output.obj
 0001:001c54fc       ?state_case_type@?$output_processor@DV?$string_output_adapter@D@__crt_stdio_output@@V?$standard_base@DV?$string_output_adapter@D@__crt_stdio_output@@@2@@__crt_stdio_output@@AEAA_NXZ 00000001801c64fc f i libucrt:output.obj
 0001:001c5900       ?type_case_Z@?$output_processor@DV?$stream_output_adapter@D@__crt_stdio_output@@V?$standard_base@DV?$stream_output_adapter@D@__crt_stdio_output@@@2@@__crt_stdio_output@@AEAA_NXZ 00000001801c6900 f i libucrt:output.obj
 0001:001c5900       ?type_case_Z@?$output_processor@DV?$string_output_adapter@D@__crt_stdio_output@@V?$format_validation_base@DV?$string_output_adapter@D@__crt_stdio_output@@@2@@__crt_stdio_output@@AEAA_NXZ 00000001801c6900 f i libucrt:output.obj
 0001:001c5900       ?type_case_Z@?$output_processor@DV?$string_output_adapter@D@__crt_stdio_output@@V?$standard_base@DV?$string_output_adapter@D@__crt_stdio_output@@@2@@__crt_stdio_output@@AEAA_NXZ 00000001801c6900 f i libucrt:output.obj
 0001:001c597c       ?type_case_a@?$output_processor@DV?$stream_output_adapter@D@__crt_stdio_output@@V?$standard_base@DV?$stream_output_adapter@D@__crt_stdio_output@@@2@@__crt_stdio_output@@AEAA_NXZ 00000001801c697c f i libucrt:output.obj
 0001:001c597c       ?type_case_a@?$output_processor@DV?$string_output_adapter@D@__crt_stdio_output@@V?$format_validation_base@DV?$string_output_adapter@D@__crt_stdio_output@@@2@@__crt_stdio_output@@AEAA_NXZ 00000001801c697c f i libucrt:output.obj
 0001:001c597c       ?type_case_a@?$output_processor@DV?$string_output_adapter@D@__crt_stdio_output@@V?$standard_base@DV?$string_output_adapter@D@__crt_stdio_output@@@2@@__crt_stdio_output@@AEAA_NXZ 00000001801c697c f i libucrt:output.obj
 0001:001c5bd0       ?type_case_c_tchar@?$output_processor@DV?$stream_output_adapter@D@__crt_stdio_output@@V?$standard_base@DV?$stream_output_adapter@D@__crt_stdio_output@@@2@@__crt_stdio_output@@AEAA_ND@Z 00000001801c6bd0 f i libucrt:output.obj
 0001:001c5bd0       ?type_case_c_tchar@?$output_processor@DV?$string_output_adapter@D@__crt_stdio_output@@V?$format_validation_base@DV?$string_output_adapter@D@__crt_stdio_output@@@2@@__crt_stdio_output@@AEAA_ND@Z 00000001801c6bd0 f i libucrt:output.obj
 0001:001c5bd0       ?type_case_c_tchar@?$output_processor@DV?$string_output_adapter@D@__crt_stdio_output@@V?$standard_base@DV?$string_output_adapter@D@__crt_stdio_output@@@2@@__crt_stdio_output@@AEAA_ND@Z 00000001801c6bd0 f i libucrt:output.obj
 0001:001c5ca4       ?type_case_n@?$output_processor@DV?$stream_output_adapter@D@__crt_stdio_output@@V?$standard_base@DV?$stream_output_adapter@D@__crt_stdio_output@@@2@@__crt_stdio_output@@AEAA_NXZ 00000001801c6ca4 f i libucrt:output.obj
 0001:001c5ca4       ?type_case_n@?$output_processor@DV?$string_output_adapter@D@__crt_stdio_output@@V?$format_validation_base@DV?$string_output_adapter@D@__crt_stdio_output@@@2@@__crt_stdio_output@@AEAA_NXZ 00000001801c6ca4 f i libucrt:output.obj
 0001:001c5ca4       ?type_case_n@?$output_processor@DV?$string_output_adapter@D@__crt_stdio_output@@V?$standard_base@DV?$string_output_adapter@D@__crt_stdio_output@@@2@@__crt_stdio_output@@AEAA_NXZ 00000001801c6ca4 f i libucrt:output.obj
 0001:001c5d5c       ?type_case_s@?$output_processor@DV?$stream_output_adapter@D@__crt_stdio_output@@V?$standard_base@DV?$stream_output_adapter@D@__crt_stdio_output@@@2@@__crt_stdio_output@@AEAA_NXZ 00000001801c6d5c f i libucrt:output.obj
 0001:001c5d5c       ?type_case_s@?$output_processor@DV?$string_output_adapter@D@__crt_stdio_output@@V?$format_validation_base@DV?$string_output_adapter@D@__crt_stdio_output@@@2@@__crt_stdio_output@@AEAA_NXZ 00000001801c6d5c f i libucrt:output.obj
 0001:001c5d5c       ?type_case_s@?$output_processor@DV?$string_output_adapter@D@__crt_stdio_output@@V?$standard_base@DV?$string_output_adapter@D@__crt_stdio_output@@@2@@__crt_stdio_output@@AEAA_NXZ 00000001801c6d5c f i libucrt:output.obj
 0001:001c5e00       ?update_locale_slow@__crt_cached_ptd_host@@AEAAXXZ 00000001801c6e00 f i libucrt:output.obj
 0001:001c5e78       ?validate_stream_is_ansi_if_required@?$__acrt_stdio_char_traits@D@@SA_NQEAU_iobuf@@@Z 00000001801c6e78 f i libucrt:output.obj
 0001:001c5f14       ?write_string@?$string_output_adapter@D@__crt_stdio_output@@QEBAXQEBDHQEAHAEAV__crt_cached_ptd_host@@@Z 00000001801c6f14 f i libucrt:output.obj
 0001:001c5fb8       ?write_string_impl@?$output_adapter_common@DV?$stream_output_adapter@D@__crt_stdio_output@@@__crt_stdio_output@@IEBAXQEBDHQEAHAEAV__crt_cached_ptd_host@@@Z 00000001801c6fb8 f i libucrt:output.obj
 0001:001c6084       __stdio_common_vfprintf    00000001801c7084 f   libucrt:output.obj
 0001:001c61a8       __stdio_common_vsprintf    00000001801c71a8 f   libucrt:output.obj
 0001:001c63fc       __stdio_common_vsprintf_s  00000001801c73fc f   libucrt:output.obj
 0001:001c6510       _fpclass                   00000001801c7510 f   libucrt:ieeemisc.obj
 0001:001c65a0       powf                       00000001801c75a0 f   libucrt:powf.obj
 0001:001c7468       atan2f                     00000001801c8468 f   libucrt:atan2f.obj
 0001:001c7860       acosf                      00000001801c8860 f   libucrt:acosf.obj
 0001:001c7a8c       free                       00000001801c8a8c f   libucrt:free.obj
 0001:001c7aa0       _seh_filter_dll            00000001801c8aa0 f   libucrt:exception_filter.obj
 0001:001c7ab4       _seh_filter_exe            00000001801c8ab4 f   libucrt:exception_filter.obj
 0001:001c7ecc       __acrt_initialize_thread_local_exit_callback 00000001801c8ecc f   libucrt:exit.obj
 0001:001c7ed4       _cexit                     00000001801c8ed4 f   libucrt:exit.obj
 0001:001c7ee4       _exit                      00000001801c8ee4 f   libucrt:exit.obj
 0001:001c7ef0       _is_c_termination_complete 00000001801c8ef0 f   libucrt:exit.obj
 0001:001c80c0       __acrt_allocate_buffer_for_argv 00000001801c90c0 f   libucrt:argv_parsing.obj
 0001:001c8120       _configure_narrow_argv     00000001801c9120 f   libucrt:argv_parsing.obj
 0001:001c84a8       __dcrt_uninitialize_environments_nolock 00000001801c94a8 f   libucrt:environment_initialization.obj
 0001:001c84ec       _initialize_narrow_environment 00000001801c94ec f   libucrt:environment_initialization.obj
 0001:001c883c       _crt_atexit                00000001801c983c f   libucrt:onexit.obj
 0001:001c884c       _execute_onexit_table      00000001801c984c f   libucrt:onexit.obj
 0001:001c8890       _initialize_onexit_table   00000001801c9890 f   libucrt:onexit.obj
 0001:001c88b8       _register_onexit_function  00000001801c98b8 f   libucrt:onexit.obj
 0001:001c8938       __acrt_uninitialize_command_line 00000001801c9938 f   libucrt:argv_data.obj
 0001:001c8a30       __acrt_initialize          00000001801c9a30 f   libucrt:initialization.obj
 0001:001c8a44       __acrt_thread_attach       00000001801c9a44 f   libucrt:initialization.obj
 0001:001c8a58       __acrt_thread_detach       00000001801c9a58 f   libucrt:initialization.obj
 0001:001c8a68       __acrt_uninitialize        00000001801c9a68 f   libucrt:initialization.obj
 0001:001c8aa0       __acrt_uninitialize_critical 00000001801c9aa0 f   libucrt:initialization.obj
 0001:001c8ab0       _initterm                  00000001801c9ab0 f   libucrt:initterm.obj
 0001:001c8af4       _initterm_e                00000001801c9af4 f   libucrt:initterm.obj
 0001:001c8b3c       terminate                  00000001801c9b3c f   libucrt:terminate.obj
 0001:001c8b68       abort                      00000001801c9b68 f   libucrt:abort.obj
 0001:001c8bc0       malloc                     00000001801c9bc0 f   libucrt:malloc.obj
 0001:001c8bc8       strcpy_s                   00000001801c9bc8 f   libucrt:strcpy_s.obj
 0001:001c8c28       ??$parse_integer@KV?$c_string_character_source@D@__crt_strtox@@$00@__crt_strtox@@YAKAEAV__crt_cached_ptd_host@@V?$c_string_character_source@D@0@H_N@Z 00000001801c9c28 f i libucrt:atox.obj
 0001:001c8f18       _ischartype_l              00000001801c9f18 f i libucrt:atox.obj
 0001:001c8f90       atol                       00000001801c9f90 f   libucrt:atox.obj
 0001:001c9050       strncmp                    00000001801ca050 f   libucrt:strncmp.obj
 0001:001c90d0       calloc                     00000001801ca0d0 f   libucrt:calloc.obj
 0001:001c90d8       wcsncmp                    00000001801ca0d8 f   libucrt:wcsncmp.obj
 0001:001c9110       __remainder_piby2d2f_forAsm 00000001801ca110 f   libucrt:remainder_piby2f_forasm.obj
 0001:001c9260       __remainder_piby2_fma3     00000001801ca260 f   libucrt:remainder_piby2_forfma3.obj
 0001:001c9450       __remainder_piby2_fma3_bdl 00000001801ca450 f   libucrt:remainder_piby2_forfma3.obj
 0001:001c94c8       _cosf_special              00000001801ca4c8 f   libucrt:sincos_special.obj
 0001:001c9568       _sinf_special              00000001801ca568 f   libucrt:sincos_special.obj
 0001:001c957c       _tanf_special              00000001801ca57c f   libucrt:sincos_special.obj
 0001:001c9590       _clrfp                     00000001801ca590 f   libucrt:fpctrl.obj
 0001:001c95b0       _ctrlfp                    00000001801ca5b0 f   libucrt:fpctrl.obj
 0001:001c962c       _set_statfp                00000001801ca62c f   libucrt:fpctrl.obj
 0001:001c964c       _statfp                    00000001801ca64c f   libucrt:fpctrl.obj
 0001:001c9660       __acrt_initialize_fma3     00000001801ca660 f   libucrt:fma3_available.obj
 0001:001c96d0       __remainder_piby2d2f_forC  00000001801ca6d0 f   libucrt:remainder_piby2f_forc.obj
 0001:001c985c       ?get_raw_ptd_noexit@__crt_cached_ptd_host@@QEAAPEAU__acrt_ptd@@XZ 00000001801ca85c f i libucrt:invalid_parameter.obj
 0001:001c98c8       ?value@?$dual_state_global@P6AXPEB_W00I_K@Z@__crt_state_management@@QEAAAEAP6AXPEB_W00I_K@ZAEAV__crt_cached_ptd_host@@@Z 00000001801ca8c8 f i libucrt:invalid_parameter.obj
 0001:001c9914       __acrt_call_reportfault    00000001801ca914 f   libucrt:invalid_parameter.obj
 0001:001c9a70       __acrt_initialize_invalid_parameter_handler 00000001801caa70 f   libucrt:invalid_parameter.obj
 0001:001c9a78       _invalid_parameter         00000001801caa78 f   libucrt:invalid_parameter.obj
 0001:001c9b14       _invalid_parameter_internal 00000001801cab14 f   libucrt:invalid_parameter.obj
 0001:001c9be0       _invalid_parameter_noinfo  00000001801cabe0 f   libucrt:invalid_parameter.obj
 0001:001c9c00       _invoke_watson             00000001801cac00 f   libucrt:invalid_parameter.obj
 0001:001c9c48       __acrt_errno_from_os_error 00000001801cac48 f   libucrt:errno.obj
 0001:001c9c90       __acrt_errno_map_os_error  00000001801cac90 f   libucrt:errno.obj
 0001:001c9cd8       __acrt_errno_map_os_error_ptd 00000001801cacd8 f   libucrt:errno.obj
 0001:001c9cfc       __doserrno                 00000001801cacfc f   libucrt:errno.obj
 0001:001c9d1c       _errno                     00000001801cad1c f   libucrt:errno.obj
 0001:001c9d3c       _calloc_base               00000001801cad3c f   libucrt:calloc_base.obj
 0001:001c9db4       _free_base                 00000001801cadb4 f   libucrt:free_base.obj
 0001:001c9fac       __acrt_AppPolicyGetProcessTerminationMethodInternal 00000001801cafac f   libucrt:winapi_thunks.obj
 0001:001ca004       __acrt_AreFileApisANSI     00000001801cb004 f   libucrt:winapi_thunks.obj
 0001:001ca048       __acrt_FlsAlloc            00000001801cb048 f   libucrt:winapi_thunks.obj
 0001:001ca050       __acrt_FlsFree             00000001801cb050 f   libucrt:winapi_thunks.obj
 0001:001ca058       __acrt_FlsGetValue         00000001801cb058 f   libucrt:winapi_thunks.obj
 0001:001ca060       __acrt_FlsSetValue         00000001801cb060 f   libucrt:winapi_thunks.obj
 0001:001ca068       __acrt_InitializeCriticalSectionEx 00000001801cb068 f   libucrt:winapi_thunks.obj
 0001:001ca0d8       __acrt_LCMapStringEx       00000001801cb0d8 f   libucrt:winapi_thunks.obj
 0001:001ca1c4       __acrt_LocaleNameToLCID    00000001801cb1c4 f   libucrt:winapi_thunks.obj
 0001:001ca224       __acrt_initialize_winapi_thunks 00000001801cb224 f   libucrt:winapi_thunks.obj
 0001:001ca248       __acrt_uninitialize_winapi_thunks 00000001801cb248 f   libucrt:winapi_thunks.obj
 0001:001ca28c       _fcloseall                 00000001801cb28c f   libucrt:closeall.obj
 0001:001ca520       __acrt_stdio_flush_nolock  00000001801cb520 f   libucrt:fflush.obj
 0001:001ca5ac       _fflush_nolock             00000001801cb5ac f   libucrt:fflush.obj
 0001:001ca680       _flushall                  00000001801cb680 f   libucrt:fflush.obj
 0001:001ca688       __acrt_stdio_free_buffer_nolock 00000001801cb688 f   libucrt:_freebuf.obj
 0001:001ca8c4       __acrt_initialize_lowio    00000001801cb8c4 f   libucrt:ioinit.obj
 0001:001ca900       __acrt_uninitialize_lowio  00000001801cb900 f   libucrt:ioinit.obj
 0001:001ca940       _malloc_base               00000001801cb940 f   libucrt:malloc_base.obj
 0001:001ca9a0       strnlen                    00000001801cb9a0 f   libucrt:strnlen.obj
 0001:001caaf0       wcsnlen                    00000001801cbaf0 f   libucrt:strnlen.obj
 0001:001cacc8       __acrt_update_locale_info  00000001801cbcc8 f   libucrt:locale_update.obj
 0001:001cacfc       __acrt_update_locale_info_explicit 00000001801cbcfc f   libucrt:locale_update.obj
 0001:001cad34       __acrt_update_multibyte_info 00000001801cbd34 f   libucrt:locale_update.obj
 0001:001cad68       __acrt_update_multibyte_info_explicit 00000001801cbd68 f   libucrt:locale_update.obj
 0001:001cb8b4       __acrt_fp_format           00000001801cc8b4 f   libucrt:cvt.obj
 0001:001cbb9c       _wctomb_internal           00000001801ccb9c f   libucrt:wctomb.obj
 0001:001cbd4c       _mbtowc_internal           00000001801ccd4c f   libucrt:mbtowc.obj
 0001:001cbec4       _fileno                    00000001801ccec4 f   libucrt:fileno.obj
 0001:001cbeec       _get_printf_count_output   00000001801cceec f   libucrt:printf_count_output.obj
 0001:001cbf04       _fputc_nolock_internal     00000001801ccf04 f   libucrt:fputc.obj
 0001:001cbf1c       __acrt_should_use_temporary_buffer 00000001801ccf1c f   libucrt:_sftbuf.obj
 0001:001cbf68       __acrt_stdio_begin_temporary_buffering_nolock 00000001801ccf68 f   libucrt:_sftbuf.obj
 0001:001cc030       __acrt_stdio_end_temporary_buffering_nolock 00000001801cd030 f   libucrt:_sftbuf.obj
 0001:001cc3e8       __acrt_freeptd             00000001801cd3e8 f   libucrt:per_thread_data.obj
 0001:001cc42c       __acrt_getptd              00000001801cd42c f   libucrt:per_thread_data.obj
 0001:001cc500       __acrt_getptd_head         00000001801cd500 f   libucrt:per_thread_data.obj
 0001:001cc5a4       __acrt_getptd_noexit       00000001801cd5a4 f   libucrt:per_thread_data.obj
 0001:001cc66c       __acrt_getptd_noexit_explicit 00000001801cd66c f   libucrt:per_thread_data.obj
 0001:001cc72c       __acrt_initialize_ptd      00000001801cd72c f   libucrt:per_thread_data.obj
 0001:001cc768       __acrt_uninitialize_ptd    00000001801cd768 f   libucrt:per_thread_data.obj
 0001:001cc7fc       __acrt_set_locale_changed  00000001801cd7fc f   libucrt:wsetlocale.obj
 0001:001cc808       __acrt_uninitialize_locale 00000001801cd808 f   libucrt:wsetlocale.obj
 0001:001cc95c       _handle_error              00000001801cd95c f   libucrt:libm_error.obj
 0001:001cca84       _handle_errorf             00000001801cda84 f   libucrt:libm_error.obj
 0001:001ccbb8       _handle_nan                00000001801cdbb8 f   libucrt:libm_error.obj
 0001:001ccbd4       _handle_nanf               00000001801cdbd4 f   libucrt:libm_error.obj
 0001:001ccbf0       _powf_special              00000001801cdbf0 f   libucrt:pow_special.obj
 0001:001ccd60       __acrt_initialize_locks    00000001801cdd60 f   libucrt:locks.obj
 0001:001ccda8       __acrt_lock                00000001801cdda8 f   libucrt:locks.obj
 0001:001ccdc4       __acrt_uninitialize_locks  00000001801cddc4 f   libucrt:locks.obj
 0001:001ccdfc       __acrt_unlock              00000001801cddfc f   libucrt:locks.obj
 0001:001cce18       __acrt_app_verifier_enabled 00000001801cde18 f   libucrt:peb_access.obj
 0001:001cce34       __acrt_is_secure_process   00000001801cde34 f   libucrt:peb_access.obj
 0001:001cce4c       __acrt_get_process_end_policy 00000001801cde4c f   libucrt:win_policies.obj
 0001:001cce90       ??$__acrt_convert_wcs_mbs_cp@D_WV<lambda_7c9dea7b4ca7285d2cdb541a38da6275>@@U__crt_win32_buffer_internal_dynamic_resizing@@@@YAHQEBDAEAV?$__crt_win32_buffer@_WU__crt_win32_buffer_internal_dynamic_resizing@@@@AEBV<lambda_7c9dea7b4ca7285d2cdb541a38da6275>@@I@Z 00000001801cde90 f i libucrt:argv_wildcards.obj
 0001:001cd00c       ??$__acrt_convert_wcs_mbs_cp@_WDV<lambda_d8593a27d1aa8c02be35c86a17d324c4>@@U__crt_win32_buffer_internal_dynamic_resizing@@@@YAHQEB_WAEAV?$__crt_win32_buffer@DU__crt_win32_buffer_internal_dynamic_resizing@@@@AEBV<lambda_d8593a27d1aa8c02be35c86a17d324c4>@@I@Z 00000001801ce00c f i libucrt:argv_wildcards.obj
 0001:001cd8b0       ??0_LocaleUpdate@@QEAA@QEAU__crt_locale_pointers@@@Z 00000001801ce8b0 f i libucrt:argv_wildcards.obj
 0001:001cd94c       __acrt_expand_narrow_argv_wildcards 00000001801ce94c f   libucrt:argv_wildcards.obj
 0001:001cd954       ??$__acrt_convert_wcs_mbs_cp@_WDV<lambda_f788ae46380686e8b737efdd8c720d07>@@U__crt_win32_buffer_no_resizing@@@@YAHQEB_WAEAV?$__crt_win32_buffer@DU__crt_win32_buffer_no_resizing@@@@AEBV<lambda_f788ae46380686e8b737efdd8c720d07>@@I@Z 00000001801ce954 f i libucrt:getmodulefilenamea.obj
 0001:001cda70       __acrt_GetModuleFileNameA  00000001801cea70 f   libucrt:getmodulefilenamea.obj
 0001:001ce38c       __acrt_initialize_multibyte 00000001801cf38c f   libucrt:mbctype.obj
 0001:001ce3ec       __acrt_update_thread_multibyte_data 00000001801cf3ec f   libucrt:mbctype.obj
 0001:001ce408       _setmbcp_nolock            00000001801cf408 f   libucrt:mbctype.obj
 0001:001ce73c       _ismbblead                 00000001801cf73c f   libucrt:ismbbyte.obj
 0001:001ce750       __acrt_initialize_command_line 00000001801cf750 f   libucrt:argv_data.obj
 0001:001ce778       __acrt_MultiByteToWideChar 00000001801cf778 f   libucrt:multibytetowidechar.obj
 0001:001ce808       __acrt_WideCharToMultiByte 00000001801cf808 f   libucrt:widechartomultibyte.obj
 0001:001ce8e8       __dcrt_get_narrow_environment_from_os 00000001801cf8e8 f   libucrt:get_environment_from_os.obj
 0001:001ce9f8       _recalloc_base             00000001801cf9f8 f   libucrt:recalloc.obj
 0001:001cea90       __acrt_initialize_heap     00000001801cfa90 f   libucrt:heap_handle.obj
 0001:001ceaac       __acrt_uninitialize_heap   00000001801cfaac f   libucrt:heap_handle.obj
 0001:001ceab8       __acrt_execute_initializers 00000001801cfab8 f   libucrt:shared_initialization.obj
 0001:001ceb4c       __acrt_execute_uninitializers 00000001801cfb4c f   libucrt:shared_initialization.obj
 0001:001ceb94       __acrt_initialize_new_handler 00000001801cfb94 f   libucrt:new_handler.obj
 0001:001ceb9c       _callnewh                  00000001801cfb9c f   libucrt:new_handler.obj
 0001:001cebdc       _query_new_handler         00000001801cfbdc f   libucrt:new_handler.obj
 0001:001cec5c       __acrt_get_sigabrt_handler 00000001801cfc5c f   libucrt:signal.obj
 0001:001cec8c       __acrt_initialize_signal_handlers 00000001801cfc8c f   libucrt:signal.obj
 0001:001cecac       raise                      00000001801cfcac f   libucrt:signal.obj
 0001:001cef28       __acrt_has_user_matherr    00000001801cff28 f   libucrt:matherr.obj
 0001:001cef48       __acrt_initialize_user_matherr 00000001801cff48 f   libucrt:matherr.obj
 0001:001cef50       __acrt_invoke_user_matherr 00000001801cff50 f   libucrt:matherr.obj
 0001:001cef8c       __pctype_func              00000001801cff8c f   libucrt:ctype.obj
 0001:001cefbc       _isctype_l                 00000001801cffbc f   libucrt:isctype.obj
 0001:001cf0e0       _get_fpsr                  00000001801d00e0 f   libucrt:fpsr.obj
 0001:001cf0f0       _set_fpsr                  00000001801d00f0 f   libucrt:fpsr.obj
 0001:001cf0fa       _fclrf                     00000001801d00fa f   libucrt:fpsr.obj
 0001:001cf10e       _frnd                      00000001801d010e f   libucrt:fpsr.obj
 0001:001cf130       _query_new_mode            00000001801d0130 f   libucrt:new_mode.obj
 0001:001cf138       __acrt_DownlevelLocaleNameToLCID 00000001801d0138 f   libucrt:lcidtoname_downlevel.obj
 0001:001cf300       fclose                     00000001801d0300 f   libucrt:fclose.obj
 0001:001cf424       _commit                    00000001801d0424 f   libucrt:commit.obj
 0001:001cfcc0       _write_internal            00000001801d0cc0 f   libucrt:write.obj
 0001:001cfde0       _write_nolock              00000001801d0de0 f   libucrt:write.obj
 0001:001d00e8       __acrt_lowio_create_handle_array 00000001801d10e8 f   libucrt:osfinfo.obj
 0001:001d0190       __acrt_lowio_destroy_handle_array 00000001801d1190 f   libucrt:osfinfo.obj
 0001:001d01e0       __acrt_lowio_ensure_fh_exists 00000001801d11e0 f   libucrt:osfinfo.obj
 0001:001d0288       __acrt_lowio_lock_fh       00000001801d1288 f   libucrt:osfinfo.obj
 0001:001d02b0       __acrt_lowio_unlock_fh     00000001801d12b0 f   libucrt:osfinfo.obj
 0001:001d02d8       _free_osfhnd               00000001801d12d8 f   libucrt:osfinfo.obj
 0001:001d0394       _get_osfhandle             00000001801d1394 f   libucrt:osfinfo.obj
 0001:001d040c       __acrt_add_locale_ref      00000001801d140c f   libucrt:locale_refcounting.obj
 0001:001d0498       __acrt_free_locale         00000001801d1498 f   libucrt:locale_refcounting.obj
 0001:001d0610       __acrt_locale_add_lc_time_reference 00000001801d1610 f   libucrt:locale_refcounting.obj
 0001:001d0638       __acrt_locale_free_lc_time_if_unreferenced 00000001801d1638 f   libucrt:locale_refcounting.obj
 0001:001d0670       __acrt_locale_release_lc_time_reference 00000001801d1670 f   libucrt:locale_refcounting.obj
 0001:001d0698       __acrt_release_locale_ref  00000001801d1698 f   libucrt:locale_refcounting.obj
 0001:001d0740       __acrt_update_thread_locale_data 00000001801d1740 f   libucrt:locale_refcounting.obj
 0001:001d07b0       _updatetlocinfoEx_nolock   00000001801d17b0 f   libucrt:locale_refcounting.obj
 0001:001d08e8       __acrt_fp_strflt_to_string 00000001801d18e8 f   libucrt:_fptostr.obj
 0001:001d0a00       ?divide@__crt_strtox@@YA_KAEAUbig_integer@1@AEBU21@@Z 00000001801d1a00 f i libucrt:cfout.obj
 0001:001d0e9c       __acrt_fltout              00000001801d1e9c f   libucrt:cfout.obj
 0001:001d21b4       fegetround                 00000001801d31b4 f   libucrt:fegetround.obj
 0001:001d21c8       ?__c32rtomb_utf8@__crt_mbstring@@YA_KPEAD_UPEAU_Mbstatet@@AEAV__crt_cached_ptd_host@@@Z 00000001801d31c8 f   libucrt:c32rtomb.obj
 0001:001d226c       ?__mbrtowc_utf8@__crt_mbstring@@YA_KPEA_WPEBD_KPEAU_Mbstatet@@AEAV__crt_cached_ptd_host@@@Z 00000001801d326c f   libucrt:mbrtowc.obj
 0001:001d22b0       ?__mbsrtowcs_utf8@__crt_mbstring@@YA_KPEA_WPEAPEBD_KPEAU_Mbstatet@@AEAV__crt_cached_ptd_host@@@Z 00000001801d32b0 f   libucrt:mbrtowc.obj
 0001:001d25c8       __acrt_stdio_flush_and_write_narrow_nolock 00000001801d35c8 f   libucrt:_flsbuf.obj
 0001:001d2694       _isatty                    00000001801d3694 f   libucrt:isatty.obj
 0001:001d26f4       __acrt_locale_free_monetary 00000001801d36f4 f   libucrt:initmon.obj
 0001:001d2800       __acrt_locale_free_numeric 00000001801d3800 f   libucrt:initnum.obj
 0001:001d28a0       __acrt_locale_free_time    00000001801d38a0 f   libucrt:inittime.obj
 0001:001d29a8       __acrt_GetStringTypeA      00000001801d39a8 f   libucrt:getstringtypea.obj
 0001:001d2b38       _raise_exc                 00000001801d3b38 f   libucrt:fpexcept.obj
 0001:001d2b60       _raise_exc_ex              00000001801d3b60 f   libucrt:fpexcept.obj
 0001:001d2e68       _raise_excf                00000001801d3e68 f   libucrt:fpexcept.obj
 0001:001d2e94       _set_errno_from_matherr    00000001801d3e94 f   libucrt:fpexcept.obj
 0001:001d2ed0       qsort                      00000001801d3ed0 f   libucrt:qsort.obj
 0001:001d32e0       strncpy_s                  00000001801d42e0 f   libucrt:strncpy_s.obj
 0001:001d3470       strpbrk                    00000001801d4470 f   libucrt:strpbrk.obj
 0001:001d3838       _mbsdec                    00000001801d4838 f   libucrt:mbsdec.obj
 0001:001d3840       _mbsdec_l                  00000001801d4840 f   libucrt:mbsdec.obj
 0001:001d3c08       __acrt_LCMapStringA        00000001801d4c08 f   libucrt:lcmapstringa.obj
 0001:001d3cb8       _msize_base                00000001801d4cb8 f   libucrt:msize.obj
 0001:001d3cf4       _realloc_base              00000001801d4cf4 f   libucrt:realloc_base.obj
 0001:001d3d70       __ascii_wcsnicmp           00000001801d4d70 f   libucrt:wcsnicmp.obj
 0001:001d3e34       _close_internal            00000001801d4e34 f   libucrt:close.obj
 0001:001d3ef8       _close_nolock_internal     00000001801d4ef8 f   libucrt:close.obj
 0001:001d3fc8       ?__acrt_stdio_free_stream@@YAXV__crt_stdio_stream@@@Z 00000001801d4fc8 f   libucrt:stream.obj
 0001:001d41b0       _lseeki64                  00000001801d51b0 f   libucrt:lseek.obj
 0001:001d424c       _lseeki64_nolock_internal  00000001801d524c f   libucrt:lseek.obj
 0001:001d4254       _putwch_nolock             00000001801d5254 f   libucrt:putwch.obj
 0001:001d4290       _query_app_type            00000001801d5290 f   libucrt:report_runtime_error.obj
 0001:001d4298       _controlfp_s               00000001801d5298 f   libucrt:contrlfp.obj
 0001:001d42fc       fegetenv                   00000001801d52fc f   libucrt:fegetenv.obj
 0001:001d431c       fesetenv                   00000001801d531c f   libucrt:fesetenv.obj
 0001:001d4374       feholdexcept               00000001801d5374 f   libucrt:feholdexcept.obj
 0001:001d43c4       ceil                       00000001801d53c4 f   libucrt:ceil.obj
 0001:001d4490       log10                      00000001801d5490 f   libucrt:log10.obj
 0001:001d4a3c       __acrt_fenv_get_common_round_control 00000001801d5a3c f   libucrt:_fenvutils.obj
 0001:001d4a48       __acrt_fenv_get_control    00000001801d5a48 f   libucrt:_fenvutils.obj
 0001:001d4b2c       __acrt_fenv_get_status     00000001801d5b2c f   libucrt:_fenvutils.obj
 0001:001d4b84       __acrt_fenv_set_control    00000001801d5b84 f   libucrt:_fenvutils.obj
 0001:001d4cbc       __acrt_fenv_set_status     00000001801d5cbc f   libucrt:_fenvutils.obj
 0001:001d4d30       ?reset_and_return@__crt_mbstring@@YA_K_KPEAU_Mbstatet@@@Z 00000001801d5d30 f   libucrt:common_utf8.obj
 0001:001d4d38       ?return_illegal_sequence@__crt_mbstring@@YA_KPEAU_Mbstatet@@AEAV__crt_cached_ptd_host@@@Z 00000001801d5d38 f   libucrt:common_utf8.obj
 0001:001d4d4c       ?__mbrtoc32_utf8@__crt_mbstring@@YA_KPEA_UPEBD_KPEAU_Mbstatet@@AEAV__crt_cached_ptd_host@@@Z 00000001801d5d4c f   libucrt:mbrtoc32.obj
 0001:001d4f28       __acrt_stdio_allocate_buffer_nolock 00000001801d5f28 f   libucrt:_getbuf.obj
 0001:001d4f94       __strncnt                  00000001801d5f94 f   libucrt:strncnt.obj
 0001:001d4fac       __dcrt_lowio_ensure_console_output_initialized 00000001801d5fac f   libucrt:initcon.obj
 0001:001d5000       __dcrt_terminate_console_output 00000001801d6000 f   libucrt:initcon.obj
 0001:001d501c       __dcrt_write_console       00000001801d601c f   libucrt:initcon.obj
 0001:001d50dc       _clearfp                   00000001801d60dc f   libucrt:ieee.obj
 0001:001d5148       _control87                 00000001801d6148 f   libucrt:ieee.obj
 0001:001d53f0       _log10_special             00000001801d63f0 f   libucrt:log_special.obj
 0001:001d54b0       _FindPESection             00000001801d64b0 f   LIBCMT:pesect.obj
 0001:001d5500       _IsNonwritableInCurrentImage 00000001801d6500 f   LIBCMT:pesect.obj
 0001:001d5550       _ValidateImageBase         00000001801d6550 f   LIBCMT:pesect.obj
 0001:001d557c       __GSHandlerCheck           00000001801d657c f   LIBCMT:gshandler.obj
 0001:001d559c       __GSHandlerCheckCommon     00000001801d659c f   LIBCMT:gshandler.obj
 0001:001d5610       __security_check_cookie    00000001801d6610 f   LIBCMT:amdsecgs.obj
 0001:001d5630       __GSHandlerCheck_SEH       00000001801d6630 f   LIBCMT:gshandlerseh.obj
 0001:001d56b8       __raise_securityfailure    00000001801d66b8 f   LIBCMT:gs_report.obj
 0001:001d56ec       __report_gsfailure         00000001801d66ec f   LIBCMT:gs_report.obj
 0001:001d57c0       __report_rangecheckfailure 00000001801d67c0 f   LIBCMT:gs_report.obj
 0001:001d57d4       __report_securityfailure   00000001801d67d4 f   LIBCMT:gs_report.obj
 0001:001d5954       __GSHandlerCheck_EH        00000001801d6954 f   LIBCMT:gshandlereh.obj
 0001:001d59d4       __C_specific_handler_noexcept 00000001801d69d4 f   libvcruntime:chandler_noexcept.obj
 0001:001d5a20       strrchr                    00000001801d6a20 f   libvcruntime:strrchr.obj
 0001:001d5b70       memcmp                     00000001801d6b70 f   libvcruntime:memcmp.obj
 0001:001d5c50       _guard_dispatch_icall_nop  00000001801d6c50 f   LIBCMT:guard_dispatch.obj
 0001:001d5c70       _guard_xfg_dispatch_icall_nop 00000001801d6c70 f   LIBCMT:guard_xfg_dispatch.obj
 0002:00000000       __imp_GetLastError         00000001801d8000     kernel32:KERNEL32.dll
 0002:00000008       __imp_FreeLibrary          00000001801d8008     kernel32:KERNEL32.dll
 0002:00000010       __imp_GetProcAddress       00000001801d8010     kernel32:KERNEL32.dll
 0002:00000018       __imp_LoadLibraryA         00000001801d8018     kernel32:KERNEL32.dll
 0002:00000020       __imp_RaiseException       00000001801d8020     kernel32:KERNEL32.dll
 0002:00000028       __imp_GetSystemInfo        00000001801d8028     kernel32:KERNEL32.dll
 0002:00000030       __imp_VirtualProtect       00000001801d8030     kernel32:KERNEL32.dll
 0002:00000038       __imp_VirtualQuery         00000001801d8038     kernel32:KERNEL32.dll
 0002:00000040       __imp_GetModuleHandleW     00000001801d8040     kernel32:KERNEL32.dll
 0002:00000048       __imp_LoadLibraryExA       00000001801d8048     kernel32:KERNEL32.dll
 0002:00000050       __imp_InitializeSListHead  00000001801d8050     kernel32:KERNEL32.dll
 0002:00000058       __imp_RtlCaptureContext    00000001801d8058     kernel32:KERNEL32.dll
 0002:00000060       __imp_RtlLookupFunctionEntry 00000001801d8060     kernel32:KERNEL32.dll
 0002:00000068       __imp_RtlVirtualUnwind     00000001801d8068     kernel32:KERNEL32.dll
 0002:00000070       __imp_IsDebuggerPresent    00000001801d8070     kernel32:KERNEL32.dll
 0002:00000078       __imp_UnhandledExceptionFilter 00000001801d8078     kernel32:KERNEL32.dll
 0002:00000080       __imp_SetUnhandledExceptionFilter 00000001801d8080     kernel32:KERNEL32.dll
 0002:00000088       __imp_GetStartupInfoW      00000001801d8088     kernel32:KERNEL32.dll
 0002:00000090       __imp_IsProcessorFeaturePresent 00000001801d8090     kernel32:KERNEL32.dll
 0002:00000098       __imp_QueryPerformanceCounter 00000001801d8098     kernel32:KERNEL32.dll
 0002:000000a0       __imp_GetCurrentProcessId  00000001801d80a0     kernel32:KERNEL32.dll
 0002:000000a8       __imp_GetCurrentThreadId   00000001801d80a8     kernel32:KERNEL32.dll
 0002:000000b0       __imp_GetSystemTimeAsFileTime 00000001801d80b0     kernel32:KERNEL32.dll
 0002:000000b8       __imp_InterlockedPushEntrySList 00000001801d80b8     kernel32:KERNEL32.dll
 0002:000000c0       __imp_InterlockedFlushSList 00000001801d80c0     kernel32:KERNEL32.dll
 0002:000000c8       __imp_RtlUnwindEx          00000001801d80c8     kernel32:KERNEL32.dll
 0002:000000d0       __imp_SetLastError         00000001801d80d0     kernel32:KERNEL32.dll
 0002:000000d8       __imp_EnterCriticalSection 00000001801d80d8     kernel32:KERNEL32.dll
 0002:000000e0       __imp_LeaveCriticalSection 00000001801d80e0     kernel32:KERNEL32.dll
 0002:000000e8       __imp_DeleteCriticalSection 00000001801d80e8     kernel32:KERNEL32.dll
 0002:000000f0       __imp_InitializeCriticalSectionAndSpinCount 00000001801d80f0     kernel32:KERNEL32.dll
 0002:000000f8       __imp_TlsAlloc             00000001801d80f8     kernel32:KERNEL32.dll
 0002:00000100       __imp_TlsGetValue          00000001801d8100     kernel32:KERNEL32.dll
 0002:00000108       __imp_TlsSetValue          00000001801d8108     kernel32:KERNEL32.dll
 0002:00000110       __imp_TlsFree              00000001801d8110     kernel32:KERNEL32.dll
 0002:00000118       __imp_LoadLibraryExW       00000001801d8118     kernel32:KERNEL32.dll
 0002:00000120       __imp_EncodePointer        00000001801d8120     kernel32:KERNEL32.dll
 0002:00000128       __imp_RtlPcToFileHeader    00000001801d8128     kernel32:KERNEL32.dll
 0002:00000130       __imp_GetCurrentProcess    00000001801d8130     kernel32:KERNEL32.dll
 0002:00000138       __imp_ExitProcess          00000001801d8138     kernel32:KERNEL32.dll
 0002:00000140       __imp_TerminateProcess     00000001801d8140     kernel32:KERNEL32.dll
 0002:00000148       __imp_GetModuleHandleExW   00000001801d8148     kernel32:KERNEL32.dll
 0002:00000150       __imp_GetModuleFileNameW   00000001801d8150     kernel32:KERNEL32.dll
 0002:00000158       __imp_HeapAlloc            00000001801d8158     kernel32:KERNEL32.dll
 0002:00000160       __imp_HeapFree             00000001801d8160     kernel32:KERNEL32.dll
 0002:00000168       __imp_FlsAlloc             00000001801d8168     kernel32:KERNEL32.dll
 0002:00000170       __imp_FlsGetValue          00000001801d8170     kernel32:KERNEL32.dll
 0002:00000178       __imp_FlsSetValue          00000001801d8178     kernel32:KERNEL32.dll
 0002:00000180       __imp_FlsFree              00000001801d8180     kernel32:KERNEL32.dll
 0002:00000188       __imp_LCMapStringW         00000001801d8188     kernel32:KERNEL32.dll
 0002:00000190       __imp_GetStdHandle         00000001801d8190     kernel32:KERNEL32.dll
 0002:00000198       __imp_GetFileType          00000001801d8198     kernel32:KERNEL32.dll
 0002:000001a0       __imp_FindClose            00000001801d81a0     kernel32:KERNEL32.dll
 0002:000001a8       __imp_FindFirstFileExW     00000001801d81a8     kernel32:KERNEL32.dll
 0002:000001b0       __imp_FindNextFileW        00000001801d81b0     kernel32:KERNEL32.dll
 0002:000001b8       __imp_IsValidCodePage      00000001801d81b8     kernel32:KERNEL32.dll
 0002:000001c0       __imp_GetACP               00000001801d81c0     kernel32:KERNEL32.dll
 0002:000001c8       __imp_GetOEMCP             00000001801d81c8     kernel32:KERNEL32.dll
 0002:000001d0       __imp_GetCPInfo            00000001801d81d0     kernel32:KERNEL32.dll
 0002:000001d8       __imp_GetCommandLineA      00000001801d81d8     kernel32:KERNEL32.dll
 0002:000001e0       __imp_GetCommandLineW      00000001801d81e0     kernel32:KERNEL32.dll
 0002:000001e8       __imp_MultiByteToWideChar  00000001801d81e8     kernel32:KERNEL32.dll
 0002:000001f0       __imp_WideCharToMultiByte  00000001801d81f0     kernel32:KERNEL32.dll
 0002:000001f8       __imp_GetEnvironmentStringsW 00000001801d81f8     kernel32:KERNEL32.dll
 0002:00000200       __imp_FreeEnvironmentStringsW 00000001801d8200     kernel32:KERNEL32.dll
 0002:00000208       __imp_GetProcessHeap       00000001801d8208     kernel32:KERNEL32.dll
 0002:00000210       __imp_FlushFileBuffers     00000001801d8210     kernel32:KERNEL32.dll
 0002:00000218       __imp_WriteFile            00000001801d8218     kernel32:KERNEL32.dll
 0002:00000220       __imp_GetConsoleOutputCP   00000001801d8220     kernel32:KERNEL32.dll
 0002:00000228       __imp_GetConsoleMode       00000001801d8228     kernel32:KERNEL32.dll
 0002:00000230       __imp_SetStdHandle         00000001801d8230     kernel32:KERNEL32.dll
 0002:00000238       __imp_GetFileSizeEx        00000001801d8238     kernel32:KERNEL32.dll
 0002:00000240       __imp_SetFilePointerEx     00000001801d8240     kernel32:KERNEL32.dll
 0002:00000248       __imp_GetStringTypeW       00000001801d8248     kernel32:KERNEL32.dll
 0002:00000250       __imp_HeapSize             00000001801d8250     kernel32:KERNEL32.dll
 0002:00000258       __imp_HeapReAlloc          00000001801d8258     kernel32:KERNEL32.dll
 0002:00000260       __imp_CloseHandle          00000001801d8260     kernel32:KERNEL32.dll
 0002:00000268       __imp_CreateFileW          00000001801d8268     kernel32:KERNEL32.dll
 0002:00000270       __imp_WriteConsoleW        00000001801d8270     kernel32:KERNEL32.dll
 0002:00000278       \177KERNEL32_NULL_THUNK_DATA 00000001801d8278     kernel32:KERNEL32.dll
 0002:00000280       __guard_check_icall_fptr   00000001801d8280     LIBCMT:guard_support.obj
 0002:00000288       __guard_xfg_check_icall_fptr 00000001801d8288     LIBCMT:guard_support.obj
 0002:00000290       __guard_dispatch_icall_fptr 00000001801d8290     LIBCMT:guard_support.obj
 0002:00000298       __guard_xfg_dispatch_icall_fptr 00000001801d8298     LIBCMT:guard_support.obj
 0002:000002a0       __guard_xfg_table_dispatch_icall_fptr 00000001801d82a0     LIBCMT:guard_support.obj
 0002:000002a8       __castguard_check_failure_os_handled_fptr 00000001801d82a8     LIBCMT:guard_support.obj
 0002:000002b0       __guard_memcpy_fptr        00000001801d82b0     libvcruntime:softmemtag.obj
 0002:000002b8       __xc_a                     00000001801d82b8     LIBCMT:initializers.obj
 0002:00001c90       __xc_z                     00000001801d9c90     LIBCMT:initializers.obj
 0002:00001c98       __xi_a                     00000001801d9c98     LIBCMT:initializers.obj
 0002:00001ca0       __acrt_stdio_initializer   00000001801d9ca0     libucrt:stdio_initializer.obj
 0002:00001ca8       __acrt_tran_fma3_initializer 00000001801d9ca8     libucrt:fma3_initializer.obj
 0002:00001cb0       __acrt_multibyte_initializer 00000001801d9cb0     libucrt:multibyte_initializer.obj
 0002:00001cb8       __xi_z                     00000001801d9cb8     LIBCMT:initializers.obj
 0002:00001cc0       __xp_a                     00000001801d9cc0     LIBCMT:initializers.obj
 0002:00001cc8       __acrt_locale_terminator   00000001801d9cc8     libucrt:locale_initializer.obj
 0002:00001cd0       __dcrt_console_output_terminator 00000001801d9cd0     libucrt:console_output_initializer.obj
 0002:00001cd8       __acrt_stdio_terminator    00000001801d9cd8     libucrt:stdio_initializer.obj
 0002:00001ce0       __xp_z                     00000001801d9ce0     LIBCMT:initializers.obj
 0002:00001ce8       __xt_a                     00000001801d9ce8     LIBCMT:initializers.obj
 0002:00001cf0       __xt_z                     00000001801d9cf0     LIBCMT:initializers.obj
 0002:00001d00       ??_C@_08MDGMHCHN@PtrTable@ 00000001801d9d00     CmPtrTable.obj
 0002:00001d0c       ??_C@_04GKJNKENE@void@     00000001801d9d0c     CmPtrTable.obj
 0002:00001d18       ??_C@_07DFEBJDHE@mSingle@  00000001801d9d18     CmPtrTable.obj
 0002:00001d20       ??_C@_05NLHHBMOH@PxU16@    00000001801d9d20     CmPtrTable.obj
 0002:00001d28       ??_C@_06EPKHJPIM@mCount@   00000001801d9d28     CmPtrTable.obj
 0002:00001d30       ??_C@_04DDKJGDCM@bool@     00000001801d9d30     CmPtrTable.obj
 0002:00001d38       ??_C@_0M@DAGELID@mOwnsMemory@ 00000001801d9d38     CmPtrTable.obj
 0002:00001d48       ??_C@_0M@MMPOMMLP@mBufferUsed@ 00000001801d9d48     CmPtrTable.obj
 0002:00001d54       ??_C@_05LMJPANIN@PxU32@    00000001801d9d54     CmPtrTable.obj
 0002:00001d60       ??_C@_09PMLNMEMN@mFreeSlot@ 00000001801d9d60     CmPtrTable.obj
 0002:00001d70       ??_7PxCollection@physx@@6B@ 00000001801d9d70     CmCollection.obj
 0002:00001df0       ??_C@_00CNPNBAHC@@         00000001801d9df0     CmCollection.obj
 0002:00001df8       ??_7Collection@Cm@physx@@6B@ 00000001801d9df8     CmCollection.obj
 0002:00001e80       ??_C@_0GE@GBACBMOC@PxCollection?3?3add?5called?5for?5an@ 00000001801d9e80     CmCollection.obj
 0002:00001ee8       ??_C@_0DL@EBPFMACH@D?3?2Projects?2PhysX?2physx?2source?2@ 00000001801d9ee8     CmCollection.obj
 0002:00001f30       ??_C@_0EM@OMMGDOMK@PxCollection?3?3add?5called?5with?5a@ 00000001801d9f30     CmCollection.obj
 0002:00001f80       ??_C@_0DN@NPGBEKGG@D?3?2Projects?2PhysX?2physx?2include@ 00000001801d9f80     CmCollection.obj
 0002:00001fc0       ??_C@_0BM@OIFKLHDN@?$DMallocation?5names?5disabled?$DO@ 00000001801d9fc0     CmCollection.obj
 0002:00001fe0       ??_7RadixSort@Cm@physx@@6B@ 00000001801d9fe0     CmRadixSort.obj
 0002:00001fe8       ??_7RadixSortBuffered@Cm@physx@@6B@ 00000001801d9fe8     CmRadixSort.obj
 0002:00001ff0       ??_C@_0DK@CJCKCFJK@D?3?2Projects?2PhysX?2physx?2source?2@ 00000001801d9ff0     CmRadixSort.obj
 0002:00002030       __xmm@00000001000000010000000100000001 00000001801da030     CmRadixSort.obj
 0002:00002040       __xmm@00000003000000020000000100000000 00000001801da040     CmRadixSort.obj
 0002:00002050       __real@3d4ccccd            00000001801da050     CmVisualization.obj
 0002:00002054       __real@3e19999a            00000001801da054     CmVisualization.obj
 0002:00002058       __real@3e490fdb            00000001801da058     CmVisualization.obj
 0002:0000205c       __real@3e800000            00000001801da05c     CmVisualization.obj
 0002:00002060       __real@3e99999a            00000001801da060     CmVisualization.obj
 0002:00002064       __real@3ea0d97c            00000001801da064     CmVisualization.obj
 0002:00002068       __real@3eddb3d7            00000001801da068     CmVisualization.obj
 0002:0000206c       __real@3f3504f3            00000001801da06c     CmVisualization.obj
 0002:00002070       __real@3f800000            00000001801da070     CmVisualization.obj
 0002:00002074       __real@3fc00000            00000001801da074     CmVisualization.obj
 0002:00002078       __real@3fddb3d7            00000001801da078     CmVisualization.obj
 0002:0000207c       __real@40100000            00000001801da07c     CmVisualization.obj
 0002:00002080       __real@40c90fdb            00000001801da080     CmVisualization.obj
 0002:00002084       __real@bfddb3d7            00000001801da084     CmVisualization.obj
 0002:00002088       __real@c0000000            00000001801da088     CmVisualization.obj
 0002:00002090       __xmm@3f800000000000000000000000000000 00000001801da090     CmVisualization.obj
 0002:000020a0       __xmm@7fffffff7fffffff7fffffff7fffffff 00000001801da0a0     CmVisualization.obj
 0002:000020b0       __xmm@80000000800000008000000080000000 00000001801da0b0     CmVisualization.obj
 0002:000020c0       ??_C@_0BB@CPDDPFKD@GetUpdatedModule@ 00000001801da0c0     CmWindowsModuleUpdateLoader.obj
 0002:000020e0       ??_C@_0FC@DGCHNFJB@D?3?2Projects?2PhysX?2physx?2source?2@ 00000001801da0e0     CmWindowsModuleUpdateLoader.obj
 0002:00002138       ??_C@_0CP@PGOIOJOO@?$CFs?3?$CFi?3?5loadLibrary?5error?5when?5l@ 00000001801da138     CmWindowsModuleUpdateLoader.obj
 0002:00002168       ??_C@_0BA@EGLNOO@PhysXFoundation@ 00000001801da168     CmWindowsDelayLoadHook.obj
 0002:00002178       ??_C@_0M@ILKNCJKN@PhysXCommon@ 00000001801da178     CmWindowsDelayLoadHook.obj
 0002:000021b0       __real@3f000000            00000001801da1b0     GuBox.obj
 0002:000021b4       __real@3f7ff972            00000001801da1b4     GuBox.obj
 0002:000021c0       __xmm@000000003a83126f3a83126f3a83126f 00000001801da1c0     GuBox.obj
 0002:000021d0       __xmm@00000000ba83126fba83126fba83126f 00000001801da1d0     GuBox.obj
 0002:000021e0       __xmm@3a83126f3a83126f3a83126f3a83126f 00000001801da1e0     GuBox.obj
 0002:000021f0       __xmm@ba83126fba83126fba83126fba83126f 00000001801da1f0     GuBox.obj
 0002:00002220       ??_7EntityReport@Gu@physx@@6B@ 00000001801da220     GuSweepsHF.obj
 0002:00002220       ??_7OverlapCallback@PxBVH@physx@@6B@ 00000001801da220     GuQuerySystem.obj
 0002:00002220       ??_7OverlapReport@Gu@physx@@6B@ 00000001801da220     GuCCTSweepTests.obj
 0002:00002220       ??_7RaycastCallback@PxBVH@physx@@6B@ 00000001801da220     GuQuerySystem.obj
 0002:00002220       ??_7RemapCallback@RTreeCooker@physx@@6B@ 00000001801da220     GuCookingTriangleMesh.obj
 0002:00002240       __real@3b03126f            00000001801da240     GuCCTSweepTests.obj
 0002:00002244       __real@40000000            00000001801da244     GuCCTSweepTests.obj
 0002:00002280       ??_7SupportLocal@Gu@physx@@6B@ 00000001801da280     GuGeometryQuery.obj
 0002:000022a0       ??_7?$SupportLocalImpl@VBoxV@Gu@physx@@@Gu@physx@@6B@ 00000001801da2a0     GuGeometryQuery.obj
 0002:000022c0       ??_7?$SupportLocalImpl@VConvexHullV@Gu@physx@@@Gu@physx@@6B@ 00000001801da2c0     GuGeometryQuery.obj
 0002:000022e0       ??_C@_0DF@JIJJLLIC@D?3?2Projects?2PhysX?2physx?2include@ 00000001801da2e0     GuGeometryQuery.obj
 0002:00002318       __real@30d1b7e9            00000001801da318     GuGeometryQuery.obj
 0002:0000231c       __real@322bcc77            00000001801da31c     GuGeometryQuery.obj
 0002:00002320       __real@358637bd            00000001801da320     GuGeometryQuery.obj
 0002:00002324       __real@3a83126f            00000001801da324     GuGeometryQuery.obj
 0002:00002328       __real@3ccccccd            00000001801da328     GuGeometryQuery.obj
 0002:0000232c       __real@3dcccccd            00000001801da32c     GuGeometryQuery.obj
 0002:00002330       __real@49742400            00000001801da330     GuGeometryQuery.obj
 0002:00002334       __real@7f7fffff            00000001801da334     GuGeometryQuery.obj
 0002:00002338       __real@bf800000            00000001801da338     GuGeometryQuery.obj
 0002:00002340       __xmm@0000000000000000000000003f800000 00000001801da340     GuGeometryQuery.obj
 0002:00002350       __xmm@00000000000000003f80000000000000 00000001801da350     GuGeometryQuery.obj
 0002:00002360       __xmm@00000000000000003f8000003f800000 00000001801da360     GuGeometryQuery.obj
 0002:00002370       __xmm@000000003f8000000000000000000000 00000001801da370     GuGeometryQuery.obj
 0002:00002380       __xmm@000000003f8000003f8000003f800000 00000001801da380     GuGeometryQuery.obj
 0002:00002390       __xmm@00000000ffffffffffffffffffffffff 00000001801da390     GuGeometryQuery.obj
 0002:000023a0       __xmm@3d4ccccd3d4ccccd3d4ccccd3d4ccccd 00000001801da3a0     GuGeometryQuery.obj
 0002:000023b0       __xmm@3e19999a3e19999a3e19999a3e19999a 00000001801da3b0     GuGeometryQuery.obj
 0002:000023c0       __xmm@3e4ccccd3e4ccccd3e4ccccd3e4ccccd 00000001801da3c0     GuGeometryQuery.obj
 0002:000023d0       __xmm@3e8000003e8000003e8000003e800000 00000001801da3d0     GuGeometryQuery.obj
 0002:000023e0       __xmm@3f7ef9db3f7ef9db3f7ef9db3f7ef9db 00000001801da3e0     GuGeometryQuery.obj
 0002:000023f0       __xmm@3f7ff2e53f7ff2e53f7ff2e53f7ff2e5 00000001801da3f0     GuGeometryQuery.obj
 0002:00002400       __xmm@3f8000003f8000003f8000003f800000 00000001801da400     GuGeometryQuery.obj
 0002:00002410       __xmm@7f7fffff7f7fffff7f7fffff7f7fffff 00000001801da410     GuGeometryQuery.obj
 0002:00002420       __xmm@bf000000bf000000bf000000bf000000 00000001801da420     GuGeometryQuery.obj
 0002:00002450       ??_C@_0DP@CHNILJBM@D?3?2Projects?2PhysX?2physx?2source?2@ 00000001801da450     GuMeshFactory.obj
 0002:000024a0       ??_C@_0EM@BDFDGBD@Inserting?5object?5failed?3?5Object@ 00000001801da4a0     GuMeshFactory.obj
 0002:00002510       ??_7CallbackRaycast@RTree@Gu@physx@@6B@ 00000001801da510     GuMidphaseRTree.obj
 0002:00002510       ??_7CallbackRefit@RTree@Gu@physx@@6B@ 00000001801da510     GuTriangleMeshRTree.obj
 0002:00002510       ??_7PxInsertionCallback@physx@@6B@ 00000001801da510     GuMeshFactory.obj
 0002:00002520       ??_7PxCollisionMeshMappingData@physx@@6B@ 00000001801da520     GuMeshFactory.obj
 0002:00002530       ??_7MeshFactory@Gu@physx@@6B@ 00000001801da530     GuMeshFactory.obj
 0002:00002538       ??_7MeshDataBase@Gu@physx@@6B@ 00000001801da538     GuMeshFactory.obj
 0002:00002540       ??_C@_0DP@MJAOLHJL@D?3?2Projects?2PhysX?2physx?2source?2@ 00000001801da540     GuMeshFactory.obj
 0002:00002580       ??_7TriangleMeshData@Gu@physx@@6B@ 00000001801da580     GuMeshFactory.obj
 0002:00002588       ??_7RTreeTriangleData@Gu@physx@@6B@ 00000001801da588     GuMeshFactory.obj
 0002:00002590       ??_7BV4TriangleData@Gu@physx@@6B@ 00000001801da590     GuMeshFactory.obj
 0002:00002598       ??_7SoftBodyCollisionData@Gu@physx@@6B@ 00000001801da598     GuMeshFactory.obj
 0002:000025a0       ??_7CollisionMeshMappingData@Gu@physx@@6B@ 00000001801da5a0     GuMeshFactory.obj
 0002:000025b0       ??_7SoftBodySimulationData@Gu@physx@@6B@ 00000001801da5b0     GuMeshFactory.obj
 0002:000025c0       ??_C@_0GP@NHELMDAL@Loading?5triangle?5mesh?5failed?3?5D@ 00000001801da5c0     GuMeshFactory.obj
 0002:00002630       ??_C@_0BP@CDOKDACA@RTree?5binary?5image?5load?5error?4@ 00000001801da630     GuMeshFactory.obj
 0002:00002650       ??_C@_0BN@MJPNIELF@BV4?5binary?5image?5load?5error?4@ 00000001801da650     GuMeshFactory.obj
 0002:00002670       ??_C@_0BO@JDPABAOF@BV32?5binary?5image?5load?5error?4@ 00000001801da670     GuMeshFactory.obj
 0002:00002690       ??_C@_0DF@JBPELCPL@D?3?2Projects?2PhysX?2physx?2include@ 00000001801da690     GuMeshFactory.obj
 0002:000026d0       __xmm@fe7fffff7e7fffff7e7fffff7e7fffff 00000001801da6d0     GuMeshFactory.obj
 0002:00002700       ??_C@_06EJKDJEDO@PxBase@   00000001801da700     GuMetaData.obj
 0002:00002708       ??_C@_07GFCEJNGM@Valency@  00000001801da708     GuMetaData.obj
 0002:00002710       ??_C@_07NHGKEEIN@mOffset@  00000001801da710     GuMetaData.obj
 0002:00002718       ??_C@_0BB@BAGHBMNJ@BigConvexRawData@ 00000001801da718     GuMetaData.obj
 0002:00002730       ??_C@_07PBDEJAAC@mSubdiv@  00000001801da730     GuMetaData.obj
 0002:00002738       ??_C@_0L@HNPACPGH@mNbSamples@ 00000001801da738     GuMetaData.obj
 0002:00002744       ??_C@_04NCKNBPPK@PxU8@     00000001801da744     GuMetaData.obj
 0002:00002750       ??_C@_08DEPEKJNI@mSamples@ 00000001801da750     GuMetaData.obj
 0002:00002760       ??_C@_08IJDNJBMI@mNbVerts@ 00000001801da760     GuMetaData.obj
 0002:00002770       ??_C@_0M@MMKMIJAF@mNbAdjVerts@ 00000001801da770     GuMetaData.obj
 0002:00002780       ??_C@_0L@EOKMNILC@mValencies@ 00000001801da780     GuMetaData.obj
 0002:00002790       ??_C@_0P@DLGEAMHJ@mAdjacentVerts@ 00000001801da790     GuMetaData.obj
 0002:000027a0       ??_C@_03NGLDENDA@SDF@      00000001801da7a0     GuMetaData.obj
 0002:000027a4       ??_C@_06KDGGGLIJ@PxVec3@   00000001801da7a4     GuMetaData.obj
 0002:000027ac       ??_C@_06GIEBFILM@PxReal@   00000001801da7ac     GuMetaData.obj
 0002:000027b8       ??_C@_0O@PFOPBKAM@BigConvexData@ 00000001801da7b8     GuMetaData.obj
 0002:000027c8       ??_C@_05PLKALGFN@mData@    00000001801da7c8     GuMetaData.obj
 0002:000027d0       ??_C@_08PEMCLHEM@mVBuffer@ 00000001801da7d0     GuMetaData.obj
 0002:000027e0       ??_C@_09FBMAGD@Alignment@  00000001801da7e0     GuMetaData.obj
 0002:000027f0       ??_C@_0BE@KFHIBEEA@InternalObjectsData@ 00000001801da7f0     GuMetaData.obj
 0002:00002808       ??_C@_07NKGFFIBH@mRadius@  00000001801da808     GuMetaData.obj
 0002:00002810       ??_C@_08EHFCACAE@mExtents@ 00000001801da810     GuMetaData.obj
 0002:00002820       ??_C@_0BA@LFMGGCBK@HullPolygonData@ 00000001801da820     GuMetaData.obj
 0002:00002830       ??_C@_06BOHHGLB@mPlane@    00000001801da830     GuMetaData.obj
 0002:00002838       ??_C@_06EHMLHGLN@mVRef8@   00000001801da838     GuMetaData.obj
 0002:00002840       ??_C@_09BAHHHINI@mMinIndex@ 00000001801da840     GuMetaData.obj
 0002:00002850       ??_C@_0P@GBLBPIPB@ConvexHullData@ 00000001801da850     GuMetaData.obj
 0002:00002860       ??_C@_09JDCJAPKD@PxBounds3@ 00000001801da860     GuMetaData.obj
 0002:0000286c       ??_C@_05NDNHIFA@mAABB@     00000001801da86c     GuMetaData.obj
 0002:00002878       ??_C@_0O@LNOGEMJI@mCenterOfMass@ 00000001801da878     GuMetaData.obj
 0002:00002888       ??_C@_09CNMCBBKH@mPolygons@ 00000001801da888     GuMetaData.obj
 0002:00002898       ??_C@_0BC@KKPDCFJC@mBigConvexRawData@ 00000001801da898     GuMetaData.obj
 0002:000028b0       ??_C@_08MPNAAJLD@mSdfData@ 00000001801da8b0     GuMetaData.obj
 0002:000028c0       ??_C@_08ELDMKGKH@mNbEdges@ 00000001801da8c0     GuMetaData.obj
 0002:000028d0       ??_C@_0BA@CGLOHBAC@mNbHullVertices@ 00000001801da8d0     GuMetaData.obj
 0002:000028e0       ??_C@_0M@HGFFLLDM@mNbPolygons@ 00000001801da8e0     GuMetaData.obj
 0002:000028f0       ??_C@_09BHJEMDGO@mInternal@ 00000001801da8f0     GuMetaData.obj
 0002:00002900       ??_C@_0L@GMFHOMKA@ConvexMesh@ 00000001801da900     GuMetaData.obj
 0002:00002910       ??_C@_09ILEBDLJH@mHullData@ 00000001801da910     GuMetaData.obj
 0002:0000291c       ??_C@_03DKDIKGNC@mNb@      00000001801da91c     GuMetaData.obj
 0002:00002920       ??_C@_0P@ENLHFHMD@mBigConvexData@ 00000001801da920     GuMetaData.obj
 0002:00002930       ??_C@_05ILALLCHK@mMass@    00000001801da930     GuMetaData.obj
 0002:00002938       ??_C@_07DBPDADGB@PxMat33@  00000001801da938     GuMetaData.obj
 0002:00002940       ??_C@_08FNBHNDBI@mInertia@ 00000001801da940     GuMetaData.obj
 0002:00002950       ??_C@_0O@FCKNKLMJ@GuMeshFactory@ 00000001801da950     GuMetaData.obj
 0002:00002960       ??_C@_0N@EGBCLMAK@mMeshFactory@ 00000001801da960     GuMetaData.obj
 0002:00002970       ??_C@_0BE@CJJAMAMK@PxHeightFieldSample@ 00000001801da970     GuMetaData.obj
 0002:00002984       ??_C@_05MBLIPEMA@PxI16@    00000001801da984     GuMetaData.obj
 0002:0000298c       ??_C@_06LNLHEAAG@height@   00000001801da98c     GuMetaData.obj
 0002:00002998       ??_C@_0N@HHDGHJN@PxBitAndByte@ 00000001801da998     GuMetaData.obj
 0002:000029a8       ??_C@_0P@MBBMLBO@materialIndex0@ 00000001801da9a8     GuMetaData.obj
 0002:000029b8       ??_C@_0P@BFAKPKFP@materialIndex1@ 00000001801da9b8     GuMetaData.obj
 0002:000029c8       ??_C@_0BD@EBLPJEOE@PxHeightFieldFlags@ 00000001801da9c8     GuMetaData.obj
 0002:000029e0       ??_C@_0BK@FNNCFFCN@PxHeightFieldFormat?3?3Enum@ 00000001801da9e0     GuMetaData.obj
 0002:00002a00       ??_C@_0BA@CLNFMAAA@HeightFieldData@ 00000001801daa00     GuMetaData.obj
 0002:00002a10       ??_C@_04IMCGAIPI@rows@     00000001801daa10     GuMetaData.obj
 0002:00002a18       ??_C@_07HIFEPIJN@columns@  00000001801daa18     GuMetaData.obj
 0002:00002a20       ??_C@_08MOAGOABI@rowLimit@ 00000001801daa20     GuMetaData.obj
 0002:00002a30       ??_C@_08BAGEHOBO@colLimit@ 00000001801daa30     GuMetaData.obj
 0002:00002a40       ??_C@_09LKDBLADF@nbColumns@ 00000001801daa40     GuMetaData.obj
 0002:00002a50       ??_C@_07ODIFGGLK@samples@  00000001801daa50     GuMetaData.obj
 0002:00002a58       ??_C@_0BE@POHEGOJG@convexEdgeThreshold@ 00000001801daa58     GuMetaData.obj
 0002:00002a6c       ??_C@_05GECEPKB@flags@     00000001801daa6c     GuMetaData.obj
 0002:00002a74       ??_C@_06DLEPGFEF@format@   00000001801daa74     GuMetaData.obj
 0002:00002a80       ??_C@_0BF@MOGDNMPL@PxMaterialTableIndex@ 00000001801daa80     GuMetaData.obj
 0002:00002a98       ??_C@_0M@JMJICJJO@HeightField@ 00000001801daa98     GuMetaData.obj
 0002:00002aa8       ??_C@_0O@ENGHMLJP@mSampleStride@ 00000001801daaa8     GuMetaData.obj
 0002:00002ab8       ??_C@_0L@EBEEMFFB@mMinHeight@ 00000001801daab8     GuMetaData.obj
 0002:00002ac8       ??_C@_0L@EAEIFPOF@mMaxHeight@ 00000001801daac8     GuMetaData.obj
 0002:00002ad8       ??_C@_0N@FEFJOKKE@mModifyCount@ 00000001801daad8     GuMetaData.obj
 0002:00002ae8       ??_C@_09PHDKHCK@RTreePage@ 00000001801daae8     GuMetaData.obj
 0002:00002af4       ??_C@_04LLPOBGED@minx@     00000001801daaf4     GuMetaData.obj
 0002:00002afc       ??_C@_04KCOFCHAC@miny@     00000001801daafc     GuMetaData.obj
 0002:00002b04       ??_C@_04IJMIHEMB@minz@     00000001801dab04     GuMetaData.obj
 0002:00002b0c       ??_C@_04GGOBOBGO@maxx@     00000001801dab0c     GuMetaData.obj
 0002:00002b14       ??_C@_04HPPKNACP@maxy@     00000001801dab14     GuMetaData.obj
 0002:00002b1c       ??_C@_04FENHIDOM@maxz@     00000001801dab1c     GuMetaData.obj
 0002:00002b24       ??_C@_04HHDFEJON@ptrs@     00000001801dab24     GuMetaData.obj
 0002:00002b2c       ??_C@_05FFEIGAJF@RTree@    00000001801dab2c     GuMetaData.obj
 0002:00002b34       ??_C@_06OMCHPNEO@PxVec4@   00000001801dab34     GuMetaData.obj
 0002:00002b40       ??_C@_0L@NBIFEFLN@mBoundsMin@ 00000001801dab40     GuMetaData.obj
 0002:00002b50       ??_C@_0L@MDAOKBNC@mBoundsMax@ 00000001801dab50     GuMetaData.obj
 0002:00002b60       ??_C@_0N@NJEHLCOF@mInvDiagonal@ 00000001801dab60     GuMetaData.obj
 0002:00002b70       ??_C@_0BA@BEFIGPFG@mDiagonalScaler@ 00000001801dab70     GuMetaData.obj
 0002:00002b80       ??_C@_09DICGGKGO@mPageSize@ 00000001801dab80     GuMetaData.obj
 0002:00002b90       ??_C@_0O@BOFFCNOL@mNumRootPages@ 00000001801dab90     GuMetaData.obj
 0002:00002ba0       ??_C@_0L@JKLGBKAE@mNumLevels@ 00000001801daba0     GuMetaData.obj
 0002:00002bb0       ??_C@_0M@PHDOHJGK@mTotalNodes@ 00000001801dabb0     GuMetaData.obj
 0002:00002bc0       ??_C@_0M@GDGHALAO@mTotalPages@ 00000001801dabc0     GuMetaData.obj
 0002:00002bcc       ??_C@_06MHCBBJGP@mFlags@   00000001801dabcc     GuMetaData.obj
 0002:00002bd4       ??_C@_06MMNBLHOK@mPages@   00000001801dabd4     GuMetaData.obj
 0002:00002be0       ??_C@_0P@JNLGHJNH@SourceMeshBase@ 00000001801dabe0     GuMetaData.obj
 0002:00002bf0       ??_C@_06JFCLJMNN@mVerts@   00000001801dabf0     GuMetaData.obj
 0002:00002bf8       ??_C@_05GNIIDDHH@mType@    00000001801dabf8     GuMetaData.obj
 0002:00002c00       ??_C@_06DHAAKLFK@mRemap@   00000001801dac00     GuMetaData.obj
 0002:00002c08       ??_C@_0L@LEOGNOEC@SourceMesh@ 00000001801dac08     GuMetaData.obj
 0002:00002c18       ??_C@_07MPIKOOAP@mNbTris@  00000001801dac18     GuMetaData.obj
 0002:00002c20       ??_C@_0N@FBMOMEHF@mTriangles32@ 00000001801dac20     GuMetaData.obj
 0002:00002c30       ??_C@_0N@DGCGNFBP@mTriangles16@ 00000001801dac30     GuMetaData.obj
 0002:00002c40       ??_C@_0O@NLNHFNO@QuantizedAABB@ 00000001801dac40     GuMetaData.obj
 0002:00002c50       ??_C@_0BC@OOGBEMHH@mData?$FL0?$FN?4mExtents@ 00000001801dac50     GuMetaData.obj
 0002:00002c68       ??_C@_0BB@OCEDKIEF@mData?$FL0?$FN?4mCenter@ 00000001801dac68     GuMetaData.obj
 0002:00002c80       ??_C@_0BC@HFMEAABI@mData?$FL1?$FN?4mExtents@ 00000001801dac80     GuMetaData.obj
 0002:00002c98       ??_C@_0BB@CDMNHHIF@mData?$FL1?$FN?4mCenter@ 00000001801dac98     GuMetaData.obj
 0002:00002cb0       ??_C@_0BC@CFKNCOI@mData?$FL2?$FN?4mExtents@ 00000001801dacb0     GuMetaData.obj
 0002:00002cc8       ??_C@_0BB@LKCPBBIE@mData?$FL2?$FN?4mCenter@ 00000001801dacc8     GuMetaData.obj
 0002:00002ce0       ??_C@_0O@MJJKKPFN@BVDataPackedQ@ 00000001801dace0     GuMetaData.obj
 0002:00002cf0       ??_C@_0O@JFMLAIPJ@CenterExtents@ 00000001801dacf0     GuMetaData.obj
 0002:00002d00       ??_C@_07GNKDIIKJ@mCenter@  00000001801dad00     GuMetaData.obj
 0002:00002d08       ??_C@_0P@KBMJDPLO@BVDataPackedNQ@ 00000001801dad08     GuMetaData.obj
 0002:00002d18       ??_C@_0M@PNCEBOG@LocalBounds@ 00000001801dad18     GuMetaData.obj
 0002:00002d24       ??_C@_05KNFBNCOH@float@    00000001801dad24     GuMetaData.obj
 0002:00002d30       ??_C@_0BC@LADJKHPL@mExtentsMagnitude@ 00000001801dad30     GuMetaData.obj
 0002:00002d48       ??_C@_07HELIOLAF@BV4Tree@  00000001801dad48     GuMetaData.obj
 0002:00002d50       ??_C@_0P@EMMDNPMH@mMeshInterface@ 00000001801dad50     GuMetaData.obj
 0002:00002d60       ??_C@_0N@DCKMHLCL@mLocalBounds@ 00000001801dad60     GuMetaData.obj
 0002:00002d70       ??_C@_08EEJOMIJL@mNbNodes@ 00000001801dad70     GuMetaData.obj
 0002:00002d7c       ??_C@_06FIIIMFIO@mNodes@   00000001801dad7c     GuMetaData.obj
 0002:00002d88       ??_C@_09FGKNPI@mInitData@  00000001801dad88     GuMetaData.obj
 0002:00002d98       ??_C@_0BC@CLDEHKCO@mCenterOrMinCoeff@ 00000001801dad98     GuMetaData.obj
 0002:00002db0       ??_C@_0BD@LAOLBNJ@mExtentsOrMaxCoeff@ 00000001801dadb0     GuMetaData.obj
 0002:00002dc8       ??_C@_0P@JEECKKBL@mUserAllocated@ 00000001801dadc8     GuMetaData.obj
 0002:00002dd8       ??_C@_0L@GLIMNECG@mQuantized@ 00000001801dadd8     GuMetaData.obj
 0002:00002de8       ??_C@_0L@CCOJDAID@mIsEdgeSet@ 00000001801dade8     GuMetaData.obj
 0002:00002df8       ??_C@_08BNDBAGDH@mPadding@ 00000001801dadf8     GuMetaData.obj
 0002:00002e08       ??_C@_0N@OJNNNLIB@TriangleMesh@ 00000001801dae08     GuMetaData.obj
 0002:00002e18       ??_C@_0M@OGEDMEAL@mNbVertices@ 00000001801dae18     GuMetaData.obj
 0002:00002e28       ??_C@_0N@MGGDNHNI@mNbTriangles@ 00000001801dae28     GuMetaData.obj
 0002:00002e38       ??_C@_09LNNEGOJA@mVertices@ 00000001801dae38     GuMetaData.obj
 0002:00002e48       ??_C@_0L@KBOFAKLO@mTriangles@ 00000001801dae48     GuMetaData.obj
 0002:00002e58       ??_C@_0P@MHDFIHLD@mExtraTrigData@ 00000001801dae58     GuMetaData.obj
 0002:00002e68       ??_C@_0N@MGIKKCI@mGeomEpsilon@ 00000001801dae68     GuMetaData.obj
 0002:00002e78       ??_C@_0BB@IFLOOCNA@mMaterialIndices@ 00000001801dae78     GuMetaData.obj
 0002:00002e90       ??_C@_0L@OPJMBFMI@mFaceRemap@ 00000001801dae90     GuMetaData.obj
 0002:00002ea0       ??_C@_0N@BIOECAPM@mAdjacencies@ 00000001801daea0     GuMetaData.obj
 0002:00002eb0       ??_C@_09CICJHLPI@mEdgeList@ 00000001801daeb0     GuMetaData.obj
 0002:00002ec0       ??_C@_0BD@IPKCNNIK@mLocalCenterOfMass@ 00000001801daec0     GuMetaData.obj
 0002:00002ed8       ??_C@_0BA@OCOIGPII@mGRB_triIndices@ 00000001801daed8     GuMetaData.obj
 0002:00002ee8       ??_C@_0BE@JPINNDAH@mGRB_triAdjacencies@ 00000001801daee8     GuMetaData.obj
 0002:00002f00       ??_C@_0P@EDFJJHEF@mGRB_faceRemap@ 00000001801daf00     GuMetaData.obj
 0002:00002f10       ??_C@_0BG@EEALPPCP@mGRB_faceRemapInverse@ 00000001801daf10     GuMetaData.obj
 0002:00002f28       ??_C@_0O@CKMBAIFN@mGRB_BV32Tree@ 00000001801daf28     GuMetaData.obj
 0002:00002f38       ??_C@_0BE@MGIOIICI@mSdfData?4mMeshLower@ 00000001801daf38     GuMetaData.obj
 0002:00002f50       ??_C@_0BC@NNEDELGI@mSdfData?4mSpacing@ 00000001801daf50     GuMetaData.obj
 0002:00002f68       ??_C@_0BB@OHOFDAIL@mSdfData?4mDims?4x@ 00000001801daf68     GuMetaData.obj
 0002:00002f80       ??_C@_0BB@POPOABMK@mSdfData?4mDims?4y@ 00000001801daf80     GuMetaData.obj
 0002:00002f98       ??_C@_0BB@NFNDFCAJ@mSdfData?4mDims?4z@ 00000001801daf98     GuMetaData.obj
 0002:00002fb0       ??_C@_0BC@GMPBGGPI@mSdfData?4mNumSdfs@ 00000001801dafb0     GuMetaData.obj
 0002:00002fc8       ??_C@_0O@BCEBBLNE@mSdfData?4mSdf@ 00000001801dafc8     GuMetaData.obj
 0002:00002fd8       ??_C@_0BG@HMHEFHIE@mSdfData?4mSubgridSize@ 00000001801dafd8     GuMetaData.obj
 0002:00002ff0       ??_C@_0BI@OFJBKPGB@mSdfData?4mNumStartSlots@ 00000001801daff0     GuMetaData.obj
 0002:00003008       ??_C@_0BM@MGEPBEON@mSdfData?4mSubgridStartSlots@ 00000001801db008     GuMetaData.obj
 0002:00003028       ??_C@_0BJ@PKKGJLNM@mSdfData?4mNumSubgridSdfs@ 00000001801db028     GuMetaData.obj
 0002:00003048       ??_C@_0BF@HLMPGIBH@mSdfData?4mSubgridSdf@ 00000001801db048     GuMetaData.obj
 0002:00003060       ??_C@_0CF@GMJNHGOK@mSdfData?4mSdfSubgrids3DTexBlock@ 00000001801db060     GuMetaData.obj
 0002:00003088       ??_C@_0CF@HFIGEHKL@mSdfData?4mSdfSubgrids3DTexBlock@ 00000001801db088     GuMetaData.obj
 0002:000030b0       ??_C@_0CF@FOKLBEGI@mSdfData?4mSdfSubgrids3DTexBlock@ 00000001801db0b0     GuMetaData.obj
 0002:000030d8       ??_C@_0BO@EIPCIOJH@mSdfData?4mSubgridsMinSdfValue@ 00000001801db0d8     GuMetaData.obj
 0002:000030f8       ??_C@_0BO@NIIBJOHN@mSdfData?4mSubgridsMaxSdfValue@ 00000001801db0f8     GuMetaData.obj
 0002:00003118       ??_C@_0BO@GKGODKFG@mSdfData?4mBytesPerSparsePixel@ 00000001801db118     GuMetaData.obj
 0002:00003138       ??_C@_0BJ@LEBGJKBE@mAccumulatedTrianglesRef@ 00000001801db138     GuMetaData.obj
 0002:00003158       ??_C@_0BF@OJMCNCDP@mTrianglesReferences@ 00000001801db158     GuMetaData.obj
 0002:00003170       ??_C@_0BH@LDGPOFA@mNbTrianglesReferences@ 00000001801db170     GuMetaData.obj
 0002:00003188       ??_C@_0BC@IFGECKF@RTreeTriangleMesh@ 00000001801db188     GuMetaData.obj
 0002:0000319c       ??_C@_06JDIHDDGN@mRTree@   00000001801db19c     GuMetaData.obj
 0002:000031a8       ??_C@_0BA@LNNFPOKA@BV4TriangleMesh@ 00000001801db1a8     GuMetaData.obj
 0002:000031b8       ??_C@_08FKLPEGDB@mBV4Tree@ 00000001801db1b8     GuMetaData.obj
 0002:000031c8       ??_7?$SupportLocalImpl@VConvexHullNoScaleV@Gu@physx@@@Gu@physx@@6B@ 00000001801db1c8     GuMTD.obj
 0002:00003210       ?absMask@?1??FAbs@aos@physx@@YA?AT__m128@@T4@@Z@4QBIB 00000001801db210     GuMTD.obj
 0002:00003220       ??_7GjkConvex@Gu@physx@@6B@ 00000001801db220     GuMTD.obj
 0002:00003250       ??_7?$LocalConvex@VCapsuleV@Gu@physx@@@Gu@physx@@6B@ 00000001801db250     GuMTD.obj
 0002:00003280       ??_7?$LocalConvex@VConvexHullV@Gu@physx@@@Gu@physx@@6B@ 00000001801db280     GuMTD.obj
 0002:000032b0       __real@2edbe6ff            00000001801db2b0     GuMTD.obj
 0002:000032b4       __real@34000000            00000001801db2b4     GuMTD.obj
 0002:000032b8       __real@ff7fffff            00000001801db2b8     GuMTD.obj
 0002:000032c0       __xmm@34000000340000003400000034000000 00000001801db2c0     GuMTD.obj
 0002:000032d0       __xmm@358637bd358637bd358637bd358637bd 00000001801db2d0     GuMTD.obj
 0002:000032e0       __xmm@3dcccccd3dcccccd3dcccccd3dcccccd 00000001801db2e0     GuMTD.obj
 0002:000032f0       __xmm@3f7ff1413f7ff1413f7ff1413f7ff141 00000001801db2f0     GuMTD.obj
 0002:00003320       ??_7?$RelativeConvex@VBoxV@Gu@physx@@@Gu@physx@@6B@ 00000001801db320     GuOverlapTests.obj
 0002:00003350       ??_7?$RelativeConvex@VConvexHullV@Gu@physx@@@Gu@physx@@6B@ 00000001801db350     GuOverlapTests.obj
 0002:000033b0       __real@1e3ce508            00000001801db3b0     GuRaycastTests.obj
 0002:000033b4       __real@28800000            00000001801db3b4     GuRaycastTests.obj
 0002:000033b8       __real@33d6bf95            00000001801db3b8     GuRaycastTests.obj
 0002:000033bc       __real@3727c5ac            00000001801db3bc     GuRaycastTests.obj
 0002:000033c0       __real@38d1b717            00000001801db3c0     GuRaycastTests.obj
 0002:000033c4       __real@3f0147ae            00000001801db3c4     GuRaycastTests.obj
 0002:000033c8       __real@3f7ffffe            00000001801db3c8     GuRaycastTests.obj
 0002:000033cc       __real@3f800347            00000001801db3cc     GuRaycastTests.obj
 0002:000033d0       __real@41200000            00000001801db3d0     GuRaycastTests.obj
 0002:000033d4       __real@80000000            00000001801db3d4     GuRaycastTests.obj
 0002:000033d8       __real@b3d6bf95            00000001801db3d8     GuRaycastTests.obj
 0002:000033dc       __real@b8d1b717            00000001801db3dc     GuRaycastTests.obj
 0002:000033e0       __real@c1200000            00000001801db3e0     GuRaycastTests.obj
 0002:00003420       ??_7?$MeshHitCallback@UPxGeomRaycastHit@physx@@@Gu@physx@@6B@ 00000001801db420     GuSweepMTD.obj
 0002:00003430       ??_7MeshMTDGenerationCallback@@6B@ 00000001801db430     GuSweepMTD.obj
 0002:00003440       ??_7MidPhaseQueryLocalReport@@6B@ 00000001801db440     GuSweepMTD.obj
 0002:00003450       __real@3f8147ae            00000001801db450     GuSweepMTD.obj
 0002:00003454       __real@3f933333            00000001801db454     GuSweepMTD.obj
 0002:00003480       __real@3c23d70a            00000001801db480     GuSweepSharedTests.obj
 0002:00003484       __real@42c80000            00000001801db484     GuSweepSharedTests.obj
 0002:00003490       __xmm@ffffffffffffffffffffffffffffffff 00000001801db490     GuSweepSharedTests.obj
 0002:000034c0       ??_7?$LocalConvex@VBoxV@Gu@physx@@@Gu@physx@@6B@ 00000001801db4c0     GuSweepTests.obj
 0002:000034f0       ??_7?$LocalConvex@VTriangleV@Gu@physx@@@Gu@physx@@6B@ 00000001801db4f0     GuSweepTests.obj
 0002:00003520       __xmm@00000002000000020000000200000002 00000001801db520     GuSweepTests.obj
 0002:00003530       __xmm@3eaaaa9f3eaaaa9f3eaaaa9f3eaaaa9f 00000001801db530     GuSweepTests.obj
 0002:000035e8       ??_7PxRunnable@physx@@6B@  00000001801db5e8     GuSDF.obj
 0002:000035f8       ??_C@_0DH@CEKIOCGN@D?3?2Projects?2PhysX?2physx?2source?2@ 00000001801db5f8     GuSDF.obj
 0002:00003630       ??_7PointOntoTriangleMeshProjector@Gu@physx@@6B@ 00000001801db630     GuSDF.obj
 0002:00003648       ??_7?$PxThreadT@V?$PxReflectionAllocator@VPxThreadImpl@physx@@@physx@@@physx@@6B@ 00000001801db648     GuSDF.obj
 0002:00003658       ??_C@_06FJHNOCKE@thread@   00000001801db658     GuSDF.obj
 0002:00003660       ??_C@_0BAK@OPLLKLNG@SDF?5creation?3?5Mesh?5is?5not?5suita@ 00000001801db660     GuSDF.obj
 0002:00003770       ??_C@_0FB@OMEANACP@SDF?5creation?3?5Input?5mesh?5is?5not@ 00000001801db770     GuSDF.obj
 0002:000037c8       ??_C@_0DG@OOJJGHLL@D?3?2Projects?2PhysX?2physx?2include@ 00000001801db7c8     GuSDF.obj
 0002:00003800       ??_C@_0DE@OPOMDMJB@D?3?2Projects?2PhysX?2physx?2include@ 00000001801db800     GuSDF.obj
 0002:00003838       ??_C@_0DN@DNFMLJGH@D?3?2Projects?2PhysX?2physx?2include@ 00000001801db838     GuSDF.obj
 0002:00003878       __real@37800080            00000001801db878     GuSDF.obj
 0002:0000387c       __real@3b808081            00000001801db87c     GuSDF.obj
 0002:00003880       __real@3e2aaaab            00000001801db880     GuSDF.obj
 0002:00003884       __real@3eaaaaab            00000001801db884     GuSDF.obj
 0002:00003888       __real@3f7d70a4            00000001801db888     GuSDF.obj
 0002:0000388c       __real@7e7fffff            00000001801db88c     GuSDF.obj
 0002:00003890       __real@bf000000            00000001801db890     GuSDF.obj
 0002:00003894       __real@fe7fffff            00000001801db894     GuSDF.obj
 0002:000038a0       __xmm@00000001000000010000000100000000 00000001801db8a0     GuSDF.obj
 0002:000038b0       __real@437f0000            00000001801db8b0     GuCookingSDF.obj
 0002:000038b4       __real@477fff00            00000001801db8b4     GuCookingSDF.obj
 0002:000038e0       ??_7?$RelativeConvex@UCustomConvexV@@@Gu@physx@@6B@ 00000001801db8e0     GuGjkQuery.obj
 0002:00003910       ??_7?$LocalConvex@UCustomConvexV@@@Gu@physx@@6B@ 00000001801db910     GuGjkQuery.obj
 0002:00003940       ??_7?$LocalConvex@UPointConvexV@@@Gu@physx@@6B@ 00000001801db940     GuGjkQuery.obj
 0002:00003990       __real@3da2f983            00000001801db990     GuWindingNumber.obj
 0002:00003994       __real@3e22f983            00000001801db994     GuWindingNumber.obj
 0002:00003998       __real@3f99999a            00000001801db998     GuWindingNumber.obj
 0002:00003a00       __real@3c343958            00000001801dba00     GuCCDSweepConvexMesh.obj
 0002:00003a04       __real@3ca3d70a            00000001801dba04     GuCCDSweepConvexMesh.obj
 0002:00003a08       __real@3f0ccccd            00000001801dba08     GuCCDSweepConvexMesh.obj
 0002:00003a0c       __real@3f8ccccd            00000001801dba0c     GuCCDSweepConvexMesh.obj
 0002:00003a10       __real@b58637bd            00000001801dba10     GuCCDSweepConvexMesh.obj
 0002:00003a40       ??_7?$RelativeConvex@VCapsuleV@Gu@physx@@@Gu@physx@@6B@ 00000001801dba40     GuCCDSweepPrimitives.obj
 0002:00003a70       ??_7?$RelativeConvex@VTriangleV@Gu@physx@@@Gu@physx@@6B@ 00000001801dba70     GuCCDSweepPrimitives.obj
 0002:00003aa0       __real@3ba3d70a            00000001801dbaa0     GuCCDSweepPrimitives.obj
 0002:00003aa4       __real@501502f9            00000001801dbaa4     GuCCDSweepPrimitives.obj
 0002:00003ad0       ??_C@_0EG@FLEOJLKG@D?3?2Projects?2PhysX?2physx?2source?2@ 00000001801dbad0     GuAdjacencies.obj
 0002:00003b18       ??_C@_0DA@FMEHLBKI@Adjacencies?3?3UpdateLink?3?5invali@ 00000001801dbb18     GuAdjacencies.obj
 0002:00003b50       ??_C@_0EA@CPHOACLK@Adjacencies?3?3CreateDatabase?3?5ca@ 00000001801dbb50     GuAdjacencies.obj
 0002:00003b90       ??_C@_0ED@OOGBKGHE@D?3?2Projects?2PhysX?2physx?2source?2@ 00000001801dbb90     GuEdgeList.obj
 0002:00003bd8       ??_C@_0CO@GBNJFPN@EdgeList?3?3CreateFacesToEdges?3?5N@ 00000001801dbbd8     GuEdgeList.obj
 0002:00003c08       ??_C@_0CO@EHJBBMNK@EdgeList?3?3ComputeActiveEdges?3?5N@ 00000001801dbc08     GuEdgeList.obj
 0002:00003c38       ??_C@_0DI@GBHLFOFP@ActiveEdges?3?3ComputeConvexEdges@ 00000001801dbc38     GuEdgeList.obj
 0002:00003c70       ??_C@_0DM@JOGBLHDI@ActiveEdges?3?3ComputeConvexEdges@ 00000001801dbc70     GuEdgeList.obj
 0002:00003cb0       ??_C@_0ED@FEMJKPEL@ActiveEdges?3?3ComputeConvexEdges@ 00000001801dbcb0     GuEdgeList.obj
 0002:00003d00       ??_C@_0EB@BFDPMFCD@ActiveEdges?3?3ComputeConvexEdges@ 00000001801dbd00     GuEdgeList.obj
 0002:00003d44       __real@bf7fbe77            00000001801dbd44     GuEdgeList.obj
 0002:00003d48       ??_7Quantizer@Gu@physx@@6B@ 00000001801dbd48     GuQuantizer.obj
 0002:00003d70       ??_7QuantizerImpl@@6B@     00000001801dbd70     GuQuantizer.obj
 0002:00003da0       ??_C@_0EE@JOGLKBGB@D?3?2Projects?2PhysX?2physx?2source?2@ 00000001801dbda0     GuQuantizer.obj
 0002:00003de4       __real@3f0020c5            00000001801dbde4     GuQuantizer.obj
 0002:00003de8       __real@3f8020c5            00000001801dbde8     GuQuantizer.obj
 0002:00003df0       ??_C@_0EG@HOBFLGPC@D?3?2Projects?2PhysX?2physx?2source?2@ 00000001801dbdf0     GuMeshCleaner.obj
 0002:00003e38       __real@40800000            00000001801dbe38     GuMeshCleaner.obj
 0002:00003e40       ??_C@_0EI@NCEHLLDJ@D?3?2Projects?2PhysX?2physx?2source?2@ 00000001801dbe40     GuVertexReducer.obj
 0002:00003f80       __real@3f7fbe77            00000001801dbf80     GuContactBoxBox.obj
 0002:00003fd0       __real@3f7ff2e5            00000001801dbfd0     GuContactCapsuleCapsule.obj
 0002:00004060       __real@358637be            00000001801dc060     GuContactCapsuleMesh.obj
 0002:00004064       __real@ba83126f            00000001801dc064     GuContactCapsuleMesh.obj
 0002:000040c0       ??_7ConvexMeshContactGenerationCallback@@6B@ 00000001801dc0c0     GuContactConvexMesh.obj
 0002:00004140       __real@3ec90fdb            00000001801dc140     GuContactPolygonPolygon.obj
 0002:00004144       __real@3f490fdb            00000001801dc144     GuContactPolygonPolygon.obj
 0002:00004148       __real@3f96cbe4            00000001801dc148     GuContactPolygonPolygon.obj
 0002:0000414c       __real@3fc90fdb            00000001801dc14c     GuContactPolygonPolygon.obj
 0002:00004150       __real@3ffb53d2            00000001801dc150     GuContactPolygonPolygon.obj
 0002:00004154       __real@4016cbe4            00000001801dc154     GuContactPolygonPolygon.obj
 0002:00004158       __real@402feddf            00000001801dc158     GuContactPolygonPolygon.obj
 0002:000041c0       ??_C@_0EI@IAMENPBN@D?3?2Projects?2PhysX?2physx?2source?2@ 00000001801dc1c0     GuBigConvexData.obj
 0002:00004230       ??_C@_0N@CDGINLLF@PxConvexMesh@ 00000001801dc230     GuConvexMesh.obj
 0002:00004240       ??_7PxBase@physx@@6B@      00000001801dc240     GuConvexMesh.obj
 0002:00004268       ??_C@_0CE@IDAGNPDH@isKindOf?5called?5with?5invalid?5st@ 00000001801dc268     GuConvexMesh.obj
 0002:00004290       ??_C@_0N@OPPDBGAG@PxRefCounted@ 00000001801dc290     GuConvexMesh.obj
 0002:000042a0       ??_C@_0DI@NADMFPEC@D?3?2Projects?2PhysX?2physx?2include@ 00000001801dc2a0     GuConvexMesh.obj
 0002:000042d8       ??_7ConvexMesh@Gu@physx@@6B@ 00000001801dc2d8     GuConvexMesh.obj
 0002:00004370       ??_C@_0EF@OFBHLLBD@D?3?2Projects?2PhysX?2physx?2source?2@ 00000001801dc370     GuConvexMesh.obj
 0002:000043b8       ??_C@_0DM@NEJKOFIP@Loading?5convex?5mesh?5failed?3?5Dep@ 00000001801dc3b8     GuConvexMesh.obj
 0002:000043f8       ??_C@_0DB@PAHEPIEL@PxConvexMesh?3?3release?3?5double?5d@ 00000001801dc3f8     GuConvexMesh.obj
 0002:00004430       ??_C@_0DN@CLPPAJOM@D?3?2Projects?2PhysX?2physx?2source?2@ 00000001801dc430     GuConvexMesh.obj
 0002:00004490       __xmm@000000000000000000000000ffffffff 00000001801dc490     GuConvexSupportTable.obj
 0002:000044a0       __xmm@0000000000000000ffffffff00000000 00000001801dc4a0     GuConvexSupportTable.obj
 0002:000044b0       __xmm@0000000000000000ffffffffffffffff 00000001801dc4b0     GuConvexSupportTable.obj
 0002:000044c0       __xmm@00000000ffffffff0000000000000000 00000001801dc4c0     GuConvexSupportTable.obj
 0002:000044d0       __xmm@00000000ffffffff00000000ffffffff 00000001801dc4d0     GuConvexSupportTable.obj
 0002:000044e0       __xmm@00000000ffffffffffffffff00000000 00000001801dc4e0     GuConvexSupportTable.obj
 0002:00004570       __xmm@2b8cbccc2b8cbccc2b8cbccc2b8cbccc 00000001801dc570     GuDistancePointTriangle.obj
 0002:000045c0       __xmm@3f0000003f0000003f0000003f000000 00000001801dc5c0     GuDistanceSegmentSegment.obj
 0002:000045f0       __real@2b8cbccc            00000001801dc5f0     GuDistanceSegmentTriangle.obj
 0002:00004600       __xmm@3f8000013f8000013f8000013f800001 00000001801dc600     GuDistanceSegmentTriangle.obj
 0002:00004610       __xmm@b4000000b4000000b4000000b4000000 00000001801dc610     GuDistanceSegmentTriangle.obj
 0002:00004640       __real@26901d7d            00000001801dc640     GuDistanceTriangleTriangle.obj
 0002:000046c0       __xmm@38d1b71738d1b71738d1b71738d1b717 00000001801dc6c0     GuGJKSimplex.obj
 0002:000046f0       ??_C@_0O@PBAKPCEC@PxHeightField@ 00000001801dc6f0     GuHeightField.obj
 0002:00004700       ??_C@_0DJ@HCBAFCOI@D?3?2Projects?2PhysX?2physx?2include@ 00000001801dc700     GuHeightField.obj
 0002:00004740       ??_7HeightField@Gu@physx@@6B@ 00000001801dc740     GuHeightField.obj
 0002:000047f8       ??_C@_0DC@BDMMBOKH@PxHeightField?3?3release?3?5double?5@ 00000001801dc7f8     GuHeightField.obj
 0002:00004830       ??_C@_0EC@PMHLIIBB@D?3?2Projects?2PhysX?2physx?2source?2@ 00000001801dc830     GuHeightField.obj
 0002:00004878       ??_C@_0CI@DMKEKGNK@Gu?3?3HeightField?3?3load?3?5PX_ALLOC@ 00000001801dc878     GuHeightField.obj
 0002:000048a0       ??_C@_0DG@KKLNCOHH@D?3?2Projects?2PhysX?2physx?2include@ 00000001801dc8a0     GuHeightField.obj
 0002:00004900       __real@3a03126f            00000001801dc900     GuHeightFieldUtil.obj
 0002:00004904       __real@3f19999a            00000001801dc904     GuHeightFieldUtil.obj
 0002:00004910       __xmm@40000000000000000000000000000000 00000001801dc910     GuHeightFieldUtil.obj
 0002:000049a0       ??_7HeightFieldTraceSegmentReport@@6B@ 00000001801dc9a0     GuSweepsHF.obj
 0002:000049b0       ??_7CapsuleTraceSegmentReport@@6B@ 00000001801dc9b0     GuSweepsHF.obj
 0002:000049c0       ??_7ConvexTraceSegmentReport@@6B@ 00000001801dc9c0     GuSweepsHF.obj
 0002:000049d0       ??_7BoxTraceSegmentReport@@6B@ 00000001801dc9d0     GuSweepsHF.obj
 0002:000049e0       __real@aedbe6ff            00000001801dc9e0     GuSweepsHF.obj
 0002:00004a10       __real@3089705f            00000001801dca10     GuIntersectionRayBox.obj
 0002:00004a14       __real@b4000000            00000001801dca14     GuIntersectionRayBox.obj
 0002:00004a20       __xmm@000000003089705f3089705f3089705f 00000001801dca20     GuIntersectionRayBox.obj
 0002:00004a30       __xmm@00000000bf800000bf800000bf800000 00000001801dca30     GuIntersectionRayBox.obj
 0002:00004a80       ??_7SourceMeshBase@Gu@physx@@6B@ 00000001801dca80     GuBV4.obj
 0002:00004aa8       ??_7SourceMesh@Gu@physx@@6B@ 00000001801dcaa8     GuBV4.obj
 0002:00004ad0       ??_7TetrahedronSourceMesh@Gu@physx@@6B@ 00000001801dcad0     GuBV4.obj
 0002:00004af8       ??_C@_0DM@HKNJDIGE@D?3?2Projects?2PhysX?2physx?2source?2@ 00000001801dcaf8     GuBV4.obj
 0002:00004b40       __xmm@ff7fffffff7fffffff7fffffff7fffff 00000001801dcb40     GuBV4.obj
 0002:00004b70       ??_C@_0EB@GGOHAINN@D?3?2Projects?2PhysX?2physx?2source?2@ 00000001801dcb70     GuBV4Build.obj
 0002:00004bb4       __real@38000100            00000001801dcbb4     GuBV4Build.obj
 0002:00004bb8       __real@3e93cd3a            00000001801dcbb8     GuBV4Build.obj
 0002:00004bbc       __real@46fffe00            00000001801dcbbc     GuBV4Build.obj
 0002:00004bc0       __real@be93cd3a            00000001801dcbc0     GuBV4Build.obj
 0002:00004bf0       __xmm@0000ffff0000ffff0000ffff0000ffff 00000001801dcbf0     GuBV4_AABBSweep.obj
 0002:00004c00       __xmm@3089705f3089705f3089705f3089705f 00000001801dcc00     GuBV4_AABBSweep.obj
 0002:00004c10       __xmm@33d6bf9533d6bf9533d6bf9533d6bf95 00000001801dcc10     GuBV4_AABBSweep.obj
 0002:00004c20       __xmm@40000000400000004000000040000000 00000001801dcc20     GuBV4_AABBSweep.obj
 0002:00004cb0       __xmm@322bcc77322bcc77322bcc77322bcc77 00000001801dccb0     GuBV4_MeshMeshOverlap.obj
 0002:00004d00       __real@00000000            00000001801dcd00     GuBV4_Raycast.obj
 0002:00004d30       __real@4f7fffff            00000001801dcd30     GuBV4_SphereOverlap.obj
 0002:00004d80       __xmm@000000007f7fffff0000000000000000 00000001801dcd80     GuMidphaseBV4.obj
 0002:00004df0       ??_C@_0FD@EHCCILIF@Adjacency?5information?5not?5creat@ 00000001801dcdf0     GuMeshQuery.obj
 0002:00004e50       ??_C@_0EC@PPJDHAHK@D?3?2Projects?2PhysX?2physx?2source?2@ 00000001801dce50     GuMeshQuery.obj
 0002:00004ea0       ??_C@_0FL@BKNMAHIA@PxMeshQuery?3?3findOverlapTriangl@ 00000001801dcea0     GuMeshQuery.obj
 0002:00004efc       __real@4cbebc20            00000001801dcefc     GuMeshQuery.obj
 0002:00004f20       ??_7Callback@RTree@Gu@physx@@6B@ 00000001801dcf20     GuMidphaseRTree.obj
 0002:00004f38       ??_7?$RayRTreeCallback@$00$0A@@@6BCallbackRaycast@RTree@Gu@physx@@@ 00000001801dcf38     GuMidphaseRTree.obj
 0002:00004f38       ??_7?$RayRTreeCallback@$0A@$0A@@@6BCallbackRaycast@RTree@Gu@physx@@@ 00000001801dcf38     GuMidphaseRTree.obj
 0002:00004f48       ??_7?$RayRTreeCallback@$00$0A@@@6BCallback@RTree@Gu@physx@@@ 00000001801dcf48     GuMidphaseRTree.obj
 0002:00004f48       ??_7?$RayRTreeCallback@$0A@$0A@@@6BCallback@RTree@Gu@physx@@@ 00000001801dcf48     GuMidphaseRTree.obj
 0002:00004f60       ??_7RayMeshColliderCallback@@6B@ 00000001801dcf60     GuMidphaseRTree.obj
 0002:00004f70       ??_C@_0EN@DPPFLBLF@Point?9mesh?5distance?5query?5not?5s@ 00000001801dcf70     GuMidphaseRTree.obj
 0002:00004fc0       ??_C@_0EG@BPJGHFNE@D?3?2Projects?2PhysX?2physx?2source?2@ 00000001801dcfc0     GuMidphaseRTree.obj
 0002:00005008       ??_7?$RayRTreeCallback@$0A@$00@@6BCallbackRaycast@RTree@Gu@physx@@@ 00000001801dd008     GuMidphaseRTree.obj
 0002:00005018       ??_7?$RayRTreeCallback@$0A@$00@@6BCallback@RTree@Gu@physx@@@ 00000001801dd018     GuMidphaseRTree.obj
 0002:00005030       ??_7?$RayRTreeCallback@$00$00@@6BCallbackRaycast@RTree@Gu@physx@@@ 00000001801dd030     GuMidphaseRTree.obj
 0002:00005040       ??_7?$RayRTreeCallback@$00$00@@6BCallback@RTree@Gu@physx@@@ 00000001801dd040     GuMidphaseRTree.obj
 0002:000050c0       __xmm@7f7fffff000000000000000000000000 00000001801dd0c0     GuMidphaseRTree.obj
 0002:00005140       ??_7?$PxReportCallback@UPxGeomIndexPair@physx@@@physx@@6B@ 00000001801dd140     GuOverlapTestsMesh.obj
 0002:00005160       ??_C@_0EP@CEFGCJKJ@PxGeometryQuery?3?3overlap?$CI?$CJ?3?5onl@ 00000001801dd160     GuOverlapTestsMesh.obj
 0002:000051b0       ??_C@_0EJ@PLPOMHNC@D?3?2Projects?2PhysX?2physx?2source?2@ 00000001801dd1b0     GuOverlapTestsMesh.obj
 0002:00005220       ?MN@RTreePage@Gu@physx@@2MB 00000001801dd220     GuRTree.obj
 0002:00005224       ?MX@RTreePage@Gu@physx@@2MB 00000001801dd224     GuRTree.obj
 0002:00005228       ??_C@_0DO@OBCNFEAD@D?3?2Projects?2PhysX?2physx?2source?2@ 00000001801dd228     GuRTree.obj
 0002:000052e0       ??_7SweepShapeMeshHitCallback@Gu@physx@@6B@ 00000001801dd2e0     GuSweepsMesh.obj
 0002:000052f0       ??_7SweepCapsuleMeshHitCallback@Gu@physx@@6B@ 00000001801dd2f0     GuSweepsMesh.obj
 0002:00005300       ??_7SweepBoxMeshHitCallback@Gu@physx@@6B@ 00000001801dd300     GuSweepsMesh.obj
 0002:00005310       ??_7SweepConvexMeshHitCallback@Gu@physx@@6B@ 00000001801dd310     GuSweepsMesh.obj
 0002:00005340       ??_C@_0P@GGNFNHKF@PxTriangleMesh@ 00000001801dd340     GuTriangleMesh.obj
 0002:00005350       ??_C@_0DK@EJPLOILI@D?3?2Projects?2PhysX?2physx?2include@ 00000001801dd350     GuTriangleMesh.obj
 0002:00005390       ??_7TriangleMesh@Gu@physx@@6B@ 00000001801dd390     GuTriangleMesh.obj
 0002:00005468       ??_C@_0DD@LOOPMCGG@PxTriangleMesh?3?3release?3?5double@ 00000001801dd468     GuTriangleMesh.obj
 0002:000054a0       ??_C@_0FH@PMPAJDGI@PxTriangleMesh?3?3getVerticesForM@ 00000001801dd4a0     GuTriangleMesh.obj
 0002:00005500       ??_C@_0EF@NLEHBEPC@D?3?2Projects?2PhysX?2physx?2source?2@ 00000001801dd500     GuTriangleMesh.obj
 0002:00005550       ??_C@_0EF@GMNFLDH@PxTriangleMesh?3?3refitBVH?$CI?$CJ?5is?5n@ 00000001801dd550     GuTriangleMesh.obj
 0002:000055a0       __xmm@38383838383838383838383838383838 00000001801dd5a0     GuTriangleMesh.obj
 0002:000055d0       ??_C@_0BE@CNJKIINO@PxBVH34TriangleMesh@ 00000001801dd5d0     GuTriangleMeshBV4.obj
 0002:000055e8       ??_7BV4TriangleMesh@Gu@physx@@6B@ 00000001801dd5e8     GuTriangleMeshBV4.obj
 0002:000056c0       ??_C@_0EF@JLFNNPLP@BVH34?5trees?3?5refit?5operation?5on@ 00000001801dd6c0     GuTriangleMeshBV4.obj
 0002:00005710       ??_C@_0EI@EMPOOLJJ@D?3?2Projects?2PhysX?2physx?2source?2@ 00000001801dd710     GuTriangleMeshBV4.obj
 0002:00005758       __real@3951b717            00000001801dd758     GuTriangleMeshBV4.obj
 0002:00005780       ??_C@_0BE@EIFHCCBO@PxBVH33TriangleMesh@ 00000001801dd780     GuTriangleMeshRTree.obj
 0002:00005798       ??_7RTreeTriangleMesh@Gu@physx@@6B@ 00000001801dd798     GuTriangleMeshRTree.obj
 0002:00005870       ??_7?$RefitCallback@G@physx@@6B@ 00000001801dd870     GuTriangleMeshRTree.obj
 0002:00005880       ??_7?$RefitCallback@I@physx@@6B@ 00000001801dd880     GuTriangleMeshRTree.obj
 0002:000058b0       ??_C@_0DN@DGOGJNGI@D?3?2Projects?2PhysX?2physx?2source?2@ 00000001801dd8b0     GuBV32.obj
 0002:00005910       ??_C@_0EC@KKFJKOEP@D?3?2Projects?2PhysX?2physx?2source?2@ 00000001801dd910     GuBV32Build.obj
 0002:00005980       ??_C@_0BC@FDAIDHBP@PxTetrahedronMesh@ 00000001801dd980     GuTetrahedronMesh.obj
 0002:00005998       ??_C@_0DN@LCNAHNLL@D?3?2Projects?2PhysX?2physx?2include@ 00000001801dd998     GuTetrahedronMesh.obj
 0002:000059d8       ??_C@_0BC@FBICGJIB@PxSoftBodyAuxData@ 00000001801dd9d8     GuTetrahedronMesh.obj
 0002:000059f0       ??_C@_0P@CLLFGFAA@PxSoftBodyMesh@ 00000001801dd9f0     GuTetrahedronMesh.obj
 0002:00005a00       ??_7SoftBodyAuxData@Gu@physx@@6B@ 00000001801dda00     GuTetrahedronMesh.obj
 0002:00005a48       ??_7TetrahedronMesh@Gu@physx@@6B@ 00000001801dda48     GuTetrahedronMesh.obj
 0002:00005ac0       ??_7BVTetrahedronMesh@Gu@physx@@6B@ 00000001801ddac0     GuTetrahedronMesh.obj
 0002:00005b38       ??_7SoftBodyMesh@Gu@physx@@6B@ 00000001801ddb38     GuTetrahedronMesh.obj
 0002:00005bb8       ??_C@_0DG@JJNMDPMD@PxTetrahedronMesh?3?3release?3?5dou@ 00000001801ddbb8     GuTetrahedronMesh.obj
 0002:00005bf0       ??_C@_0DD@GGFGEPII@PxSoftBodyMesh?3?3release?3?5double@ 00000001801ddbf0     GuTetrahedronMesh.obj
 0002:00005c30       ??_C@_0EI@KOLNABAN@D?3?2Projects?2PhysX?2physx?2source?2@ 00000001801ddc30     GuTetrahedronMesh.obj
 0002:00005cc0       __xmm@00000000358637bd358637bd358637bd 00000001801ddcc0     GuPCMContactBoxBox.obj
 0002:00005cd0       __xmm@3f4ccccd3f4ccccd3f4ccccd3f4ccccd 00000001801ddcd0     GuPCMContactBoxBox.obj
 0002:00005ce0       __xmm@3f8003473f8003473f8003473f800347 00000001801ddce0     GuPCMContactBoxBox.obj
 0002:00005cf0       __xmm@ffffffff00000000ffffffffffffffff 00000001801ddcf0     GuPCMContactBoxBox.obj
 0002:00005d20       ??_7?$LocalConvex@VConvexHullNoScaleV@Gu@physx@@@Gu@physx@@6B@ 00000001801ddd20     GuPCMContactBoxConvex.obj
 0002:00005d50       __xmm@3f3504f33f3504f33f3504f33f3504f3 00000001801ddd50     GuPCMContactBoxConvex.obj
 0002:00005da0       __xmm@ffffffffffffffffffffffff00000000 00000001801ddda0     GuPCMContactCapsuleCapsule.obj
 0002:00005dd0       __xmm@3fa000003fa000003fa000003fa00000 00000001801dddd0     GuPCMContactCapsuleConvex.obj
 0002:00005e00       ??_7PCMCapsuleVsHeightfieldContactGenerationCallback@@6B@ 00000001801dde00     GuPCMContactCapsuleHeightField.obj
 0002:00005e10       __real@3f7f3b64            00000001801dde10     GuPCMContactCapsuleHeightField.obj
 0002:00005e60       __xmm@3f7ff9723f7ff9723f7ff9723f7ff972 00000001801dde60     GuPCMContactCapsuleMesh.obj
 0002:00005e70       __xmm@3f7fffef3f7fffef3f7fffef3f7fffef 00000001801dde70     GuPCMContactCapsuleMesh.obj
 0002:00005e80       __xmm@60ad78ec60ad78ec60ad78ec60ad78ec 00000001801dde80     GuPCMContactCapsuleMesh.obj
 0002:00005eb0       ??_7?$SupportLocalImpl@VTriangleV@Gu@physx@@@Gu@physx@@6B@ 00000001801ddeb0     GuPCMContactConvexCommon.obj
 0002:00005ed0       __xmm@3cf5c2803cf5c2803cf5c2803cf5c280 00000001801dded0     GuPCMContactConvexCommon.obj
 0002:00005ee0       __xmm@3f7851ec3f7851ec3f7851ec3f7851ec 00000001801ddee0     GuPCMContactConvexCommon.obj
 0002:00005f10       ??_7?$RelativeConvex@VConvexHullNoScaleV@Gu@physx@@@Gu@physx@@6B@ 00000001801ddf10     GuPCMContactConvexConvex.obj
 0002:00005f70       __xmm@3f19999a3f19999a3f19999a3f19999a 00000001801ddf70     GuPCMContactConvexHeightField.obj
 0002:00005fe0       __xmm@3f34fdf43f34fdf43f34fdf43f34fdf4 00000001801ddfe0     GuPCMContactGenBoxConvex.obj
 0002:00006010       __xmm@3f80a3d73f80a3d73f80a3d73f80a3d7 00000001801de010     GuPCMContactGenSphereCapsule.obj
 0002:00006020       __xmm@bba3d70abba3d70abba3d70abba3d70a 00000001801de020     GuPCMContactGenSphereCapsule.obj
 0002:00006050       __xmm@3f7ffd613f7ffd613f7ffd613f7ffd61 00000001801de050     GuPCMContactPlaneBox.obj
 0002:00006080       __real@3b23d70b            00000001801de080     GuPCMContactPlaneCapsule.obj
 0002:00006090       __xmm@3ca3d70a3ca3d70a3ca3d70a3ca3d70a 00000001801de090     GuPCMContactPlaneCapsule.obj
 0002:000060c0       __xmm@3a03126f3a03126f3a03126f3a03126f 00000001801de0c0     GuPCMContactPlaneConvex.obj
 0002:000061e0       __xmm@3727c5ac3727c5ac3727c5ac3727c5ac 00000001801de1e0     GuPCMContactSphereSphere.obj
 0002:00006210       __xmm@3f7f06f73f7f06f73f7f06f73f7f06f7 00000001801de210     GuPCMContactCustomGeometry.obj
 0002:00006220       ?gPCMBoxPolygonData@Gu@physx@@3QBEB 00000001801de220     GuPCMShapeConvex.obj
 0002:000062a0       ?invalidateThresholds@Gu@physx@@3QBMB 00000001801de2a0     GuPersistentContactManifold.obj
 0002:000062b8       ?invalidateQuatThresholds@Gu@physx@@3QBMB 00000001801de2b8     GuPersistentContactManifold.obj
 0002:000062d0       ?invalidateThresholds2@Gu@physx@@3QBMB 00000001801de2d0     GuPersistentContactManifold.obj
 0002:000062e0       ?invalidateQuatThresholds2@Gu@physx@@3QBMB 00000001801de2e0     GuPersistentContactManifold.obj
 0002:000062f0       __xmm@00000000340000003400000034000000 00000001801de2f0     GuPersistentContactManifold.obj
 0002:00006300       __xmm@000000003f8000003f80000000000000 00000001801de300     GuPersistentContactManifold.obj
 0002:00006310       __xmm@00000000bf8000003f80000000000000 00000001801de310     GuPersistentContactManifold.obj
 0002:00006320       __xmm@ffffffffffffffff00000000ffffffff 00000001801de320     GuPersistentContactManifold.obj
 0002:00006350       __xmm@c1200000c1200000c1200000c1200000 00000001801de350     GuPCMContactGenUtil.obj
 0002:000063a0       __real@b727c5ac            00000001801de3a0     GuSweepBoxSphere.obj
 0002:00006410       ??_C@_0EJ@DJNEKCIA@D?3?2Projects?2PhysX?2physx?2source?2@ 00000001801de410     GuSweepCapsuleBox.obj
 0002:000064a0       __real@3f7fff58            00000001801de4a0     GuSweepCapsuleTriangle.obj
 0002:00006510       ??_C@_0CH@DHJGKCPD@Gu?3?3computeBounds?3?5Unknown?5shap@ 00000001801de510     GuBounds.obj
 0002:00006538       ??_C@_0DK@IEODELPE@D?3?2Projects?2PhysX?2physx?2source?2@ 00000001801de538     GuBounds.obj
 0002:00006574       __real@34800000            00000001801de574     GuBounds.obj
 0002:00006578       __real@3f7fffef            00000001801de578     GuBounds.obj
 0002:00006580       __xmm@3f8147ae3f8147ae3f8147ae3f8147ae 00000001801de580     GuBounds.obj
 0002:000065b0       ??_C@_0DM@EFKLHLAE@D?3?2Projects?2PhysX?2physx?2source?2@ 00000001801de5b0     GuAABBTree.obj
 0002:000065f0       __xmm@5a60b17f5a60b17f5a60b17f5a60b17f 00000001801de5f0     GuAABBTree.obj
 0002:00006600       __xmm@da60b17fda60b17fda60b17fda60b17f 00000001801de600     GuAABBTree.obj
 0002:00006670       ??_C@_0EH@PHDMPLHG@D?3?2Projects?2PhysX?2physx?2source?2@ 00000001801de670     GuIncrementalAABBTree.obj
 0002:000066b8       ??_C@_0DE@NDNJAKEP@D?3?2Projects?2PhysX?2physx?2include@ 00000001801de6b8     GuIncrementalAABBTree.obj
 0002:000066ec       __real@40400000            00000001801de6ec     GuIncrementalAABBTree.obj
 0002:000066f0       ??_C@_0DH@EMJKKMLK@D?3?2Projects?2PhysX?2physx?2source?2@ 00000001801de6f0     GuSAH.obj
 0002:00006750       ??_7PxBVH@physx@@6B@       00000001801de750     GuBVH.obj
 0002:000067c8       ??_C@_05OKJNPKBM@PxBVH@    00000001801de7c8     GuBVH.obj
 0002:000067d0       ??_C@_0DB@EEJPGNCO@D?3?2Projects?2PhysX?2physx?2include@ 00000001801de7d0     GuBVH.obj
 0002:00006808       ??_7RefCountable@Cm@physx@@6B@ 00000001801de808     GuBVH.obj
 0002:00006818       ??_7BVH@Gu@physx@@6BPxBVH@2@@ 00000001801de818     GuBVH.obj
 0002:00006890       ??_7BVH@Gu@physx@@6BRefCountable@Cm@2@@ 00000001801de890     GuBVH.obj
 0002:000068a0       ??_C@_0DH@FOPCDPEP@D?3?2Projects?2PhysX?2physx?2source?2@ 00000001801de8a0     GuBVH.obj
 0002:000068d8       ??_C@_0CK@HAIOEINI@PxBVH?3?3release?3?5double?5deletion@ 00000001801de8d8     GuBVH.obj
 0002:00006930       ??_C@_0EN@CHEAOGED@D?3?2Projects?2PhysX?2physx?2source?2@ 00000001801de930     GuIncrementalAABBPrunerCore.obj
 0002:00006980       __real@3f80a3d7            00000001801de980     GuIncrementalAABBPrunerCore.obj
 0002:000069b0       ??_7BasePruner@Gu@physx@@6B@ 00000001801de9b0     GuIncrementalAABBPruner.obj
 0002:000069c8       ??_7IncrementalAABBPruner@Gu@physx@@6B@ 00000001801de9c8     GuIncrementalAABBPruner.obj
 0002:00006a50       ??_C@_0EJ@CCLOEHLN@D?3?2Projects?2PhysX?2physx?2source?2@ 00000001801dea50     GuIncrementalAABBPruner.obj
 0002:00006ac0       ??_C@_0DP@DFEIGMFJ@D?3?2Projects?2PhysX?2physx?2source?2@ 00000001801deac0     GuPruningPool.obj
 0002:00006b40       ??_7BucketPruner@Gu@physx@@6B@ 00000001801deb40     GuBucketPruner.obj
 0002:00006bd0       ??_C@_0EA@COCBBMGG@D?3?2Projects?2PhysX?2physx?2source?2@ 00000001801debd0     GuBucketPruner.obj
 0002:00006c10       __real@bf13cd3a            00000001801dec10     GuBucketPruner.obj
 0002:00006c20       __xmm@000000007e7fffff7e7fffff7e7fffff 00000001801dec20     GuBucketPruner.obj
 0002:00006c30       __xmm@00000000fe7ffffffe7ffffffe7fffff 00000001801dec30     GuBucketPruner.obj
 0002:00006c40       __xmm@3f13cd3a3f13cd3a3f13cd3a3f13cd3a 00000001801dec40     GuBucketPruner.obj
 0002:00006c50       __xmm@bf13cd3abf13cd3abf13cd3a3f13cd3a 00000001801dec50     GuBucketPruner.obj
 0002:00006c60       __xmm@bf8000003f8000003f800000bf800000 00000001801dec60     GuBucketPruner.obj
 0002:00006c70       __xmm@bf8000003f800000bf8000003f800000 00000001801dec70     GuBucketPruner.obj
 0002:00006c80       __xmm@bf800000bf8000003f8000003f800000 00000001801dec80     GuBucketPruner.obj
 0002:00006c90       __xmm@bf800000bf800000bf8000003f800000 00000001801dec90     GuBucketPruner.obj
 0002:00006ca0       ?mIndices@MaverickNode@Gu@physx@@2QBIB 00000001801deca0     GuMaverickNode.obj
 0002:00006d00       ??_C@_0EI@PKPHMCOA@D?3?2Projects?2PhysX?2physx?2source?2@ 00000001801ded00     GuExtendedBucketPruner.obj
 0002:00006d70       ??_7CompanionPruner@Gu@physx@@6B@ 00000001801ded70     GuSecondaryPruner.obj
 0002:00006df0       ??_7CompanionPrunerBucket@@6B@ 00000001801dedf0     GuSecondaryPruner.obj
 0002:00006e70       ??_7CompanionPrunerIncremental@@6B@ 00000001801dee70     GuSecondaryPruner.obj
 0002:00006ef0       ??_7CompanionPrunerAABBTree@@6B@ 00000001801deef0     GuSecondaryPruner.obj
 0002:00006f70       ??_C@_0ED@CHDBNDNH@D?3?2Projects?2PhysX?2physx?2source?2@ 00000001801def70     GuSecondaryPruner.obj
 0002:00006fe0       ??_7AABBPruner@Gu@physx@@6B@ 00000001801defe0     GuAABBPruner.obj
 0002:00007080       ??_C@_0LA@IHBEIKND@SceneQuery?5static?5AABB?5Tree?5reb@ 00000001801df080     GuAABBPruner.obj
 0002:00007130       ??_C@_0DO@NCAPGNHO@D?3?2Projects?2PhysX?2physx?2source?2@ 00000001801df130     GuAABBPruner.obj
 0002:00007170       ??_C@_0EB@GEFAFCAO@D?3?2Projects?2PhysX?2physx?2source?2@ 00000001801df170     GuActorShapeMap.obj
 0002:000071e0       ??_C@_0BF@DNABLJAF@Invalid?5pruner?5index@ 00000001801df1e0     GuQuerySystem.obj
 0002:000071f8       ??_C@_0DP@GLCOJEND@D?3?2Projects?2PhysX?2physx?2source?2@ 00000001801df1f8     GuQuerySystem.obj
 0002:00007290       ??_C@_0DL@NPBMMOKF@D?3?2Projects?2PhysX?2physx?2source?2@ 00000001801df290     GuFactory.obj
 0002:000072d0       ?reductionFactors@SubSortQuick@physx@@2QBMB 00000001801df2d0     GuRTreeCooking.obj
 0002:000072e0       ?stopAtTrisPerLeaf1@SubSortQuick@physx@@2QBIB 00000001801df2e0     GuRTreeCooking.obj
 0002:000073b0       ??_C@_0EI@BMCDIIBF@D?3?2Projects?2PhysX?2physx?2source?2@ 00000001801df3b0     GuRTreeCooking.obj
 0002:000073f8       __real@41100000            00000001801df3f8     GuRTreeCooking.obj
 0002:000073fc       __real@41700000            00000001801df3fc     GuRTreeCooking.obj
 0002:00007400       __real@42200000            00000001801df400     GuRTreeCooking.obj
 0002:00007410       __xmm@00000004000000030000000200000001 00000001801df410     GuRTreeCooking.obj
 0002:00007440       ??_C@_0EG@NJOHAMKE@D?3?2Projects?2PhysX?2physx?2source?2@ 00000001801df440     GuCookingBVH.obj
 0002:00007488       ??_C@_0DL@JHPKHGFA@Cooking?3?3cookBVH?3?5user?9provided@ 00000001801df488     GuCookingBVH.obj
 0002:000074c8       ??_C@_0DN@PLNPGFEB@Cooking?3?3createBVH?3?5user?9provid@ 00000001801df4c8     GuCookingBVH.obj
 0002:00007510       ??_C@_0EL@JCJBAPHL@Cooking?3?3cookHeightField?3?5user?9@ 00000001801df510     GuCookingHF.obj
 0002:00007560       ??_C@_0EF@KHJJELCE@D?3?2Projects?2PhysX?2physx?2source?2@ 00000001801df560     GuCookingHF.obj
 0002:000075b0       ??_C@_0EN@FCEPCAFC@Cooking?3?3createHeightField?3?5use@ 00000001801df5b0     GuCookingHF.obj
 0002:00007600       ??_C@_0EK@EKAIJEBL@Cooking?3?3cookConvexMesh?3?5user?9p@ 00000001801df600     GuCookingConvexMesh.obj
 0002:00007650       ??_C@_0FA@GFFGAPML@Cooking?3?3cookConvexMesh?3?5provid@ 00000001801df650     GuCookingConvexMesh.obj
 0002:000076a0       ??_C@_0EP@PKDCPNNO@Cooking?3?3cookConvexMesh?3?5provid@ 00000001801df6a0     GuCookingConvexMesh.obj
 0002:000076f0       ??_C@_0EO@LKFMMDE@Cooking?3?3cookConvexMesh?3?5user?9p@ 00000001801df6f0     GuCookingConvexMesh.obj
 0002:00007740       ??_C@_0EL@KJEPJALG@Cooking?3?3cookConvexMesh?3?5user?9p@ 00000001801df740     GuCookingConvexMesh.obj
 0002:00007790       ??_C@_0FM@LHMEBKMM@Cooking?3?3cookConvexMesh?3?5GPU?9co@ 00000001801df790     GuCookingConvexMesh.obj
 0002:000077f0       ??_C@_0FJ@FHCFFABE@Cooking?3?3cookConvexMesh?3?5GPU?9co@ 00000001801df7f0     GuCookingConvexMesh.obj
 0002:00007850       ??_C@_0LM@CHONPBFM@Cooking?3?3cookConvexMesh?3?5GPU?9co@ 00000001801df850     GuCookingConvexMesh.obj
 0002:00007910       ??_C@_0EN@DJIFJOFO@D?3?2Projects?2PhysX?2physx?2source?2@ 00000001801df910     GuCookingConvexMesh.obj
 0002:00007980       ??_7TriangleMeshBuilder@physx@@6B@ 00000001801df980     GuCookingTriangleMesh.obj
 0002:000079a8       ??_7RTreeTriangleMeshBuilder@physx@@6B@ 00000001801df9a8     GuCookingTriangleMesh.obj
 0002:000079d0       ??_7BV4TriangleMeshBuilder@physx@@6B@ 00000001801df9d0     GuCookingTriangleMesh.obj
 0002:00007a00       ??_C@_0EP@EGHKIEDK@D?3?2Projects?2PhysX?2physx?2source?2@ 00000001801dfa00     GuCookingTriangleMesh.obj
 0002:00007a50       ??_C@_0EM@DBPINPE@TriangleMeshBuilder?3?3cleanMesh?3@ 00000001801dfa50     GuCookingTriangleMesh.obj
 0002:00007aa0       ??_C@_0EF@MLNDPEDJ@TriangleMeshBuilder?3?3cleanMesh?3@ 00000001801dfaa0     GuCookingTriangleMesh.obj
 0002:00007af0       ??_C@_0FJ@HHJLKGDF@TriangleMesh?3?5triangles?5are?5too@ 00000001801dfaf0     GuCookingTriangleMesh.obj
 0002:00007b50       ??_C@_0CN@KGPHHHLK@TriangleMesh?3?5mesh?5is?5too?5big?5f@ 00000001801dfb50     GuCookingTriangleMesh.obj
 0002:00007b80       ??_C@_0DD@CMJGDCNN@TriangleMesh?3?3loadFromDesc?3?5des@ 00000001801dfb80     GuCookingTriangleMesh.obj
 0002:00007bc0       ??_C@_0ED@ILJJNHIP@TriangleMesh?3?3loadFromDesc?3?5mPa@ 00000001801dfbc0     GuCookingTriangleMesh.obj
 0002:00007c08       ??_C@_0BK@JIDHMMCE@BV4?5tree?5failed?5to?5build?4@ 00000001801dfc08     GuCookingTriangleMesh.obj
 0002:00007c28       ??_C@_0BL@DHNECNBE@BV32?5tree?5failed?5to?5build?4@ 00000001801dfc28     GuCookingTriangleMesh.obj
 0002:00007c48       ??_7RTreeCookerRemap@@6B@  00000001801dfc48     GuCookingTriangleMesh.obj
 0002:00007c60       ??_C@_0FC@PJIHAFK@Cooking?3?3validateTriangleMesh?3?5@ 00000001801dfc60     GuCookingTriangleMesh.obj
 0002:00007d40       ??_7PxCollisionTetrahedronMeshData@physx@@6B@ 00000001801dfd40     GuCookingTetrahedronMesh.obj
 0002:00007d70       ??_7PxSimulationTetrahedronMeshData@physx@@6B@ 00000001801dfd70     GuCookingTetrahedronMesh.obj
 0002:00007d90       ??_7CollisionTetrahedronMeshData@Gu@physx@@6B@ 00000001801dfd90     GuCookingTetrahedronMesh.obj
 0002:00007dc0       ??_7SimulationTetrahedronMeshData@Gu@physx@@6B@ 00000001801dfdc0     GuCookingTetrahedronMesh.obj
 0002:00007de0       ??_C@_0FC@BICIAAGD@D?3?2Projects?2PhysX?2physx?2source?2@ 00000001801dfde0     GuCookingTetrahedronMesh.obj
 0002:00007e38       ??_7?$LocalConvex@VTetrahedronV@Gu@physx@@@Gu@physx@@6B@ 00000001801dfe38     GuCookingTetrahedronMesh.obj
 0002:00007e68       ??_C@_0CD@OJGNHLOE@BV4_AABBTree?5tree?5failed?5to?5bui@ 00000001801dfe68     GuCookingTetrahedronMesh.obj
 0002:00007e90       ??_C@_0DG@NCNIEEHB@TetrahedronMesh?3?3loadFromDesc?3?5@ 00000001801dfe90     GuCookingTetrahedronMesh.obj
 0002:00007ed0       ??_C@_0EG@CJIFGLMC@TetrahedronMesh?3?3loadFromDesc?3?5@ 00000001801dfed0     GuCookingTetrahedronMesh.obj
 0002:00007f18       __real@be2aaaab            00000001801dff18     GuCookingTetrahedronMesh.obj
 0002:00007f20       __xmm@00000003000000030000000300000003 00000001801dff20     GuCookingTetrahedronMesh.obj
 0002:00007f50       __real@3bc79ca10c924223    00000001801dff50     GuCookingVolumeIntegration.obj
 0002:00007f58       __real@3f91111111111111    00000001801dff58     GuCookingVolumeIntegration.obj
 0002:00007f60       __real@3fa5555555555555    00000001801dff60     GuCookingVolumeIntegration.obj
 0002:00007f68       __real@3fa999999999999a    00000001801dff68     GuCookingVolumeIntegration.obj
 0002:00007f70       __real@3fb5555555555555    00000001801dff70     GuCookingVolumeIntegration.obj
 0002:00007f78       __real@3fc5555555555555    00000001801dff78     GuCookingVolumeIntegration.obj
 0002:00007f80       __real@3fe0000000000000    00000001801dff80     GuCookingVolumeIntegration.obj
 0002:00007f88       __real@3ff0000000000000    00000001801dff88     GuCookingVolumeIntegration.obj
 0002:00007f90       __real@4008000000000000    00000001801dff90     GuCookingVolumeIntegration.obj
 0002:00007f98       __real@4010000000000000    00000001801dff98     GuCookingVolumeIntegration.obj
 0002:00007fa0       __real@bf91111111111111    00000001801dffa0     GuCookingVolumeIntegration.obj
 0002:00007fa8       __real@bfa999999999999a    00000001801dffa8     GuCookingVolumeIntegration.obj
 0002:00007fb0       __real@bfb5555555555555    00000001801dffb0     GuCookingVolumeIntegration.obj
 0002:00007fb8       __real@bfc5555555555555    00000001801dffb8     GuCookingVolumeIntegration.obj
 0002:00007fc0       __xmm@3c0888893c0888893c0888893c088889 00000001801dffc0     GuCookingVolumeIntegration.obj
 0002:00007fd0       __xmm@3c8888893c8888893c8888893c888889 00000001801dffd0     GuCookingVolumeIntegration.obj
 0002:00007fe0       __xmm@3d2aaaab3d2aaaab3d2aaaab3d2aaaab 00000001801dffe0     GuCookingVolumeIntegration.obj
 0002:00007ff0       __xmm@3e2aaaab3e2aaaab3e2aaaab3e2aaaab 00000001801dfff0     GuCookingVolumeIntegration.obj
 0002:00008000       __xmm@3f811111111111113f81111111111111 00000001801e0000     GuCookingVolumeIntegration.obj
 0002:00008010       __xmm@3f811111111111113f91111111111111 00000001801e0010     GuCookingVolumeIntegration.obj
 0002:00008020       __xmm@3f911111111111113f91111111111111 00000001801e0020     GuCookingVolumeIntegration.obj
 0002:00008030       __xmm@3fa55555555555553fa5555555555555 00000001801e0030     GuCookingVolumeIntegration.obj
 0002:00008040       __xmm@3fa55555555555553fc5555555555555 00000001801e0040     GuCookingVolumeIntegration.obj
 0002:00008050       __xmm@3fd55555555555553fd5555555555555 00000001801e0050     GuCookingVolumeIntegration.obj
 0002:00008060       __xmm@3fe00000000000003fe0000000000000 00000001801e0060     GuCookingVolumeIntegration.obj
 0002:00008070       __xmm@7fffffffffffffff7fffffffffffffff 00000001801e0070     GuCookingVolumeIntegration.obj
 0002:00008080       __xmm@80000000000000008000000000000000 00000001801e0080     GuCookingVolumeIntegration.obj
 0002:00008090       ??_7ConvexHullLib@physx@@6B@ 00000001801e0090     GuCookingQuickHullConvexHullLib.obj
 0002:000080b0       ??_7QuickHullConvexHullLib@physx@@6B@ 00000001801e00b0     GuCookingQuickHullConvexHullLib.obj
 0002:000080d0       ??_C@_0FJ@ODEJKHAB@D?3?2Projects?2PhysX?2physx?2source?2@ 00000001801e00d0     GuCookingQuickHullConvexHullLib.obj
 0002:00008130       ??_C@_0GA@EPPAEJPM@QuickHullConvexHullLib?3?3findSim@ 00000001801e0130     GuCookingQuickHullConvexHullLib.obj
 0002:00008190       ??_C@_0FB@NEBIJMML@QuickHullConvexHullLib?3?3findSim@ 00000001801e0190     GuCookingQuickHullConvexHullLib.obj
 0002:000081f0       ??_C@_0FB@CLLCBEMM@QuickHullConvexHullLib?3?3findSim@ 00000001801e01f0     GuCookingQuickHullConvexHullLib.obj
 0002:00008244       __real@34c00000            00000001801e0244     GuCookingQuickHullConvexHullLib.obj
 0002:00008248       ??_C@_0DP@PJBJBEGF@Meshmerizer?3?3extractHullPolygon@ 00000001801e0248     GuCookingConvexPolygonsBuilder.obj
 0002:00008290       ??_C@_0FI@KFLBDIEN@D?3?2Projects?2PhysX?2physx?2source?2@ 00000001801e0290     GuCookingConvexPolygonsBuilder.obj
 0002:000082e8       ??_C@_0DL@IAFKOCCK@ConvexHullBuilder?3?5convex?5hull?5@ 00000001801e02e8     GuCookingConvexPolygonsBuilder.obj
 0002:00008330       ??_C@_0GF@OJLJHAMH@ConvexHullBuilder?3?3CreateTriang@ 00000001801e0330     GuCookingConvexPolygonsBuilder.obj
 0002:000083c0       ??_C@_0DF@LLFJIJGM@Gu?3?3ConvexMesh?3?3loadFromDesc?3?5d@ 00000001801e03c0     GuCookingConvexMeshBuilder.obj
 0002:00008400       ??_C@_0HK@JOGKIEAA@Gu?3?3ConvexMesh?3?5Mesh?5has?5a?5nega@ 00000001801e0400     GuCookingConvexMeshBuilder.obj
 0002:00008480       ??_C@_0DH@NJPPHFFD@Gu?3?3ConvexMesh?3?5Error?5computing@ 00000001801e0480     GuCookingConvexMeshBuilder.obj
 0002:000084b8       ??_C@_0DJ@LJDLGLDJ@Gu?3?3ConvexMesh?3?3loadConvexHull?3@ 00000001801e04b8     GuCookingConvexMeshBuilder.obj
 0002:00008500       ??_C@_0HJ@KJANPPOE@ConvexMeshBuilder?3?3computeHullP@ 00000001801e0500     GuCookingConvexMeshBuilder.obj
 0002:00008580       ??_C@_0FE@LNJOOALB@D?3?2Projects?2PhysX?2physx?2source?2@ 00000001801e0580     GuCookingConvexMeshBuilder.obj
 0002:000085d8       ??_C@_0O@JMAGMMGG@PxHullPolygon@ 00000001801e05d8     GuCookingConvexMeshBuilder.obj
 0002:000085e8       __real@3f13cd3a            00000001801e05e8     GuCookingConvexMeshBuilder.obj
 0002:00008610       ??_C@_0FC@GJKPFAHI@D?3?2Projects?2PhysX?2physx?2source?2@ 00000001801e0610     GuCookingConvexHullUtils.obj
 0002:00008664       __real@3e20d97c            00000001801e0664     GuCookingConvexHullUtils.obj
 0002:00008670       ??_C@_0FA@EPAIIPD@D?3?2Projects?2PhysX?2physx?2source?2@ 00000001801e0670     GuCookingConvexHullLib.obj
 0002:000086c0       ??_C@_0JE@PABBNGEL@ConvexHullLib?3?3cleanupVertices?3@ 00000001801e06c0     GuCookingConvexHullLib.obj
 0002:00008780       ??_C@_0FE@HDDKEAOE@D?3?2Projects?2PhysX?2physx?2source?2@ 00000001801e0780     GuCookingConvexHullBuilder.obj
 0002:000087e0       ??_C@_0EB@DCEIFDGC@ConvexHullBuilder?3?3init?3?5convex@ 00000001801e07e0     GuCookingConvexHullBuilder.obj
 0002:00008830       ??_C@_0FM@KICBLCBH@Gu?3?3ConvexMesh?3?3checkHullPolygo@ 00000001801e0830     GuCookingConvexHullBuilder.obj
 0002:00008890       ??_C@_0GO@HBFIOGLL@Gu?3?3ConvexMesh?3?3checkHullPolygo@ 00000001801e0890     GuCookingConvexHullBuilder.obj
 0002:00008900       ??_C@_0HF@OLJFBIEL@ConvexHullBuilder?3?5convex?5hull?5@ 00000001801e0900     GuCookingConvexHullBuilder.obj
 0002:00008980       ??_C@_0OG@JNHFOIL@ConvexHullBuilder?3?5convex?5hull?5@ 00000001801e0980     GuCookingConvexHullBuilder.obj
 0002:00008a70       ??_C@_0EJ@NIOIBAKH@Cooking?3?3cookConvexMesh?3?5non?9ma@ 00000001801e0a70     GuCookingConvexHullBuilder.obj
 0002:00008ae0       ??_C@_0FH@KLHELHDE@D?3?2Projects?2PhysX?2physx?2source?2@ 00000001801e0ae0     GuCookingBigConvexDataBuilder.obj
 0002:00008b40       __sz_PhysXFoundation_64_dll 00000001801e0b40     PhysXFoundation_64:PhysXFoundation_64.dll
 0002:00008b58       ??_C@_1BK@DBDEIDLH@?$AAK?$AAE?$AAR?$AAN?$AAE?$AAL?$AA3?$AA2?$AA?4?$AAD?$AAL?$AAL@ 00000001801e0b58     Delayimp:delayhlp.obj
 0002:00008b78       ??_C@_0BI@OMNLIJDB@AcquireSRWLockExclusive@ 00000001801e0b78     Delayimp:delayhlp.obj
 0002:00008b90       ??_C@_0BI@HMIEPCNJ@ReleaseSRWLockExclusive@ 00000001801e0b90     Delayimp:delayhlp.obj
 0002:00008ba8       __pfnDliFailureHook2       00000001801e0ba8     Delayimp:delayhk1.obj
 0002:00008bb8       ??_7type_info@@6B@         00000001801e0bb8     LIBCMT:std_type_info_static.obj
 0002:00008c20       _pDefaultRawDllMain        00000001801e0c20     LIBCMT:dll_dllmain.obj
 0002:00008c20       _pRawDllMain               00000001801e0c20     LIBCMT:dll_dllmain.obj
 0002:00008c30       _load_config_used          00000001801e0c30     LIBCMT:loadcfg.obj
 0002:00008d70       _pDestructExceptionObject  00000001801e0d70     libvcruntime:ehhelpers.obj
 0002:00009490       ??_C@_08EHJDFFNH@__based?$CI@ 00000001801e1490     libvcruntime:undname.obj
 0002:000094a0       ??_C@_07KOLFKCDI@__cdecl@  00000001801e14a0     libvcruntime:undname.obj
 0002:000094a8       ??_C@_08GHMPAG@__pascal@   00000001801e14a8     libvcruntime:undname.obj
 0002:000094b8       ??_C@_09IFJBGAPI@__stdcall@ 00000001801e14b8     libvcruntime:undname.obj
 0002:000094c8       ??_C@_0L@NPHFGOKO@__thiscall@ 00000001801e14c8     libvcruntime:undname.obj
 0002:000094d8       ??_C@_0L@JMKHOMEK@__fastcall@ 00000001801e14d8     libvcruntime:undname.obj
 0002:000094e8       ??_C@_0N@BCKKPABJ@__vectorcall@ 00000001801e14e8     libvcruntime:undname.obj
 0002:000094f8       ??_C@_09HIJEGCPM@__clrcall@ 00000001801e14f8     libvcruntime:undname.obj
 0002:00009504       ??_C@_06GHPCKEAG@__eabi@   00000001801e1504     libvcruntime:undname.obj
 0002:00009510       ??_C@_09IOPIDJLG@__swift_1@ 00000001801e1510     libvcruntime:undname.obj
 0002:00009520       ??_C@_09KFNFGKHF@__swift_2@ 00000001801e1520     libvcruntime:undname.obj
 0002:00009530       ??_C@_09LMMOFLDE@__swift_3@ 00000001801e1530     libvcruntime:undname.obj
 0002:00009540       ??_C@_07JOMMBBKO@__ptr64@  00000001801e1540     libvcruntime:undname.obj
 0002:00009548       ??_C@_0L@PILCLIHE@__restrict@ 00000001801e1548     libvcruntime:undname.obj
 0002:00009558       ??_C@_0M@GFIIJFMG@__unaligned@ 00000001801e1558     libvcruntime:undname.obj
 0002:00009568       ??_C@_09DHDLOLLB@restrict?$CI@ 00000001801e1568     libvcruntime:undname.obj
 0002:00009574       ??_C@_04NIHEBCM@?5new@     00000001801e1574     libvcruntime:undname.obj
 0002:00009580       ??_C@_07FPCDHGMM@?5delete@ 00000001801e1580     libvcruntime:undname.obj
 0002:00009588       ??_C@_01NEMOKFLO@?$DN@     00000001801e1588     libvcruntime:undname.obj
 0002:0000958c       ??_C@_02GPIOPFAK@?$DO?$DO@ 00000001801e158c     libvcruntime:undname.obj
 0002:00009590       ??_C@_02FODMEDOG@?$DM?$DM@ 00000001801e1590     libvcruntime:undname.obj
 0002:00009594       ??_C@_01DCLJPIOD@?$CB@     00000001801e1594     libvcruntime:undname.obj
 0002:00009598       ??_C@_02EGOFBIJA@?$DN?$DN@ 00000001801e1598     libvcruntime:undname.obj
 0002:0000959c       ??_C@_02FDNJECIE@?$CB?$DN@ 00000001801e159c     libvcruntime:undname.obj
 0002:000095a0       ??_C@_02GPECMEKF@?$FL?$FN@ 00000001801e15a0     libvcruntime:undname.obj
 0002:000095a8       ??_C@_08LHJFAFGD@operator@ 00000001801e15a8     libvcruntime:undname.obj
 0002:000095b4       ??_C@_02HBOOOICD@?9?$DO@   00000001801e15b4     libvcruntime:undname.obj
 0002:000095b8       ??_C@_01NBENCBCI@?$CK@     00000001801e15b8     libvcruntime:undname.obj
 0002:000095bc       ??_C@_02ECNGHCIF@?$CL?$CL@ 00000001801e15bc     libvcruntime:undname.obj
 0002:000095c0       ??_C@_02BAABKJLB@?9?9@     00000001801e15c0     libvcruntime:undname.obj
 0002:000095c4       ??_C@_01JOAMLHOP@?9@       00000001801e15c4     libvcruntime:undname.obj
 0002:000095c8       ??_C@_01MIFGBAGJ@?$CL@     00000001801e15c8     libvcruntime:undname.obj
 0002:000095cc       ??_C@_01HNPIGOCE@?$CG@     00000001801e15cc     libvcruntime:undname.obj
 0002:000095d0       ??_C@_03MNHNFDLC@?9?$DO?$CK@ 00000001801e15d0     libvcruntime:undname.obj
 0002:000095d4       ??_C@_01KMDKNFGN@?1@       00000001801e15d4     libvcruntime:undname.obj
 0002:000095d8       ??_C@_01FGNFDNOH@?$CF@     00000001801e15d8     libvcruntime:undname.obj
 0002:000095dc       ??_C@_01MNNFJEPP@?$DM@     00000001801e15dc     libvcruntime:undname.obj
 0002:000095e0       ??_C@_02EHCHHCKH@?$DM?$DN@ 00000001801e15e0     libvcruntime:undname.obj
 0002:000095e4       ??_C@_01PPODPGHN@?$DO@     00000001801e15e4     libvcruntime:undname.obj
 0002:000095e8       ??_C@_02EEKDKGMJ@?$DO?$DN@ 00000001801e15e8     libvcruntime:undname.obj
 0002:000095ec       ??_C@_01IHBHIGKO@?0@       00000001801e15ec     libvcruntime:undname.obj
 0002:000095f0       ??_C@_02HCKGKOFO@?$CI?$CJ@ 00000001801e15f0     libvcruntime:undname.obj
 0002:000095f4       ??_C@_01PJKLJHI@?$HO@      00000001801e15f4     libvcruntime:undname.obj
 0002:000095f8       ??_C@_01JKBOJNNK@?$FO@     00000001801e15f8     libvcruntime:undname.obj
 0002:000095fc       ??_C@_01DNKMNLPK@?$HM@     00000001801e15fc     libvcruntime:undname.obj
 0002:00009600       ??_C@_02PPKAJPJL@?$CG?$CG@ 00000001801e1600     libvcruntime:undname.obj
 0002:00009604       ??_C@_02NONPIBCD@?$HM?$HM@ 00000001801e1604     libvcruntime:undname.obj
 0002:00009608       ??_C@_02FPIMKNGF@?$CK?$DN@ 00000001801e1608     libvcruntime:undname.obj
 0002:0000960c       ??_C@_02FOEOMHFC@?$CL?$DN@ 00000001801e160c     libvcruntime:undname.obj
 0002:00009610       ??_C@_02FKMDLLOA@?9?$DN@   00000001801e1610     libvcruntime:undname.obj
 0002:00009614       ??_C@_02FJEHGPIO@?1?$DN@   00000001801e1614     libvcruntime:undname.obj
 0002:00009618       ??_C@_02FENAOKFI@?$CF?$DN@ 00000001801e1618     libvcruntime:undname.obj
 0002:0000961c       ??_C@_03IKFCCPFF@?$DO?$DO?$DN@ 00000001801e161c     libvcruntime:undname.obj
 0002:00009620       ??_C@_03CDNPDDLA@?$DM?$DM?$DN@ 00000001801e1620     libvcruntime:undname.obj
 0002:00009624       ??_C@_02FGJGFEAB@?$CG?$DN@ 00000001801e1624     libvcruntime:undname.obj
 0002:00009628       ??_C@_02DHLNPPGH@?$HM?$DN@ 00000001801e1628     libvcruntime:undname.obj
 0002:0000962c       ??_C@_02MHEGNOJ@?$FO?$DN@  00000001801e162c     libvcruntime:undname.obj
 0002:00009630       ??_C@_09IFPLHPGF@?$GAvftable?8@ 00000001801e1630     libvcruntime:undname.obj
 0002:00009640       ??_C@_09BLBHBJP@?$GAvbtable?8@ 00000001801e1640     libvcruntime:undname.obj
 0002:00009650       ??_C@_07FEEIOKP@?$GAvcall?8@ 00000001801e1650     libvcruntime:undname.obj
 0002:00009658       ??_C@_08LLFFHHDJ@?$GAtypeof?8@ 00000001801e1658     libvcruntime:undname.obj
 0002:00009668       ??_C@_0BF@KDPPACIK@?$GAlocal?5static?5guard?8@ 00000001801e1668     libvcruntime:undname.obj
 0002:00009680       ??_C@_08OBABFOLI@?$GAstring?8@ 00000001801e1680     libvcruntime:undname.obj
 0002:00009690       ??_C@_0BD@JDLKDPAB@?$GAvbase?5destructor?8@ 00000001801e1690     libvcruntime:undname.obj
 0002:000096a8       ??_C@_0BN@DEGPLNFK@?$GAvector?5deleting?5destructor?8@ 00000001801e16a8     libvcruntime:undname.obj
 0002:000096c8       ??_C@_0BO@OBMKPJIG@?$GAdefault?5constructor?5closure?8@ 00000001801e16c8     libvcruntime:undname.obj
 0002:000096e8       ??_C@_0BN@IMDCHIKM@?$GAscalar?5deleting?5destructor?8@ 00000001801e16e8     libvcruntime:undname.obj
 0002:00009708       ??_C@_0BO@PFGOCPJJ@?$GAvector?5constructor?5iterator?8@ 00000001801e1708     libvcruntime:undname.obj
 0002:00009728       ??_C@_0BN@LFPFMEDL@?$GAvector?5destructor?5iterator?8@ 00000001801e1728     libvcruntime:undname.obj
 0002:00009748       ??_C@_0CE@IKBNEHA@?$GAvector?5vbase?5constructor?5itera@ 00000001801e1748     libvcruntime:undname.obj
 0002:00009770       ??_C@_0BL@NILFHHPC@?$GAvirtual?5displacement?5map?8@ 00000001801e1770     libvcruntime:undname.obj
 0002:00009790       ??_C@_0CB@JONCMFFK@?$GAeh?5vector?5constructor?5iterator@ 00000001801e1790     libvcruntime:undname.obj
 0002:000097b8       ??_C@_0CA@GCEOPDGL@?$GAeh?5vector?5destructor?5iterator?8@ 00000001801e17b8     libvcruntime:undname.obj
 0002:000097d8       ??_C@_0CH@OOJPLCPH@?$GAeh?5vector?5vbase?5constructor?5it@ 00000001801e17d8     libvcruntime:undname.obj
 0002:00009800       ??_C@_0BL@LLKPOHJI@?$GAcopy?5constructor?5closure?8@ 00000001801e1800     libvcruntime:undname.obj
 0002:00009820       ??_C@_0BA@KBCDOMBN@?$GAudt?5returning?8@ 00000001801e1820     libvcruntime:undname.obj
 0002:00009830       ??_C@_03KLGMFNMG@?$GAEH@   00000001801e1830     libvcruntime:undname.obj
 0002:00009834       ??_C@_05KHLCHHI@?$GARTTI@  00000001801e1834     libvcruntime:undname.obj
 0002:00009840       ??_C@_0BA@KKLDJDLB@?$GAlocal?5vftable?8@ 00000001801e1840     libvcruntime:undname.obj
 0002:00009850       ??_C@_0CE@IIHCMGGL@?$GAlocal?5vftable?5constructor?5clos@ 00000001801e1850     libvcruntime:undname.obj
 0002:00009874       ??_C@_06FHBGPFGH@?5new?$FL?$FN@ 00000001801e1874     libvcruntime:undname.obj
 0002:00009880       ??_C@_09LBNFPBCA@?5delete?$FL?$FN@ 00000001801e1880     libvcruntime:undname.obj
 0002:00009890       ??_C@_0P@HJKNJFNN@?$GAomni?5callsig?8@ 00000001801e1890     libvcruntime:undname.obj
 0002:000098a0       ??_C@_0BL@CNOONJFP@?$GAplacement?5delete?5closure?8@ 00000001801e18a0     libvcruntime:undname.obj
 0002:000098c0       ??_C@_0BN@CKNJLHMB@?$GAplacement?5delete?$FL?$FN?5closure?8@ 00000001801e18c0     libvcruntime:undname.obj
 0002:000098e0       ??_C@_0CG@CFDHKGGD@?$GAmanaged?5vector?5constructor?5ite@ 00000001801e18e0     libvcruntime:undname.obj
 0002:00009908       ??_C@_0CF@IMGKMJNO@?$GAmanaged?5vector?5destructor?5iter@ 00000001801e1908     libvcruntime:undname.obj
 0002:00009930       ??_C@_0CG@HLDDJMAG@?$GAeh?5vector?5copy?5constructor?5ite@ 00000001801e1930     libvcruntime:undname.obj
 0002:00009958       ??_C@_0CM@FCBBDIGB@?$GAeh?5vector?5vbase?5copy?5construct@ 00000001801e1958     libvcruntime:undname.obj
 0002:00009988       ??_C@_0BL@CLIPGLGB@?$GAdynamic?5initializer?5for?5?8@ 00000001801e1988     libvcruntime:undname.obj
 0002:000099a8       ??_C@_0CB@PDBIFEP@?$GAdynamic?5atexit?5destructor?5for?5@ 00000001801e19a8     libvcruntime:undname.obj
 0002:000099d0       ??_C@_0CD@CGAJBKEJ@?$GAvector?5copy?5constructor?5iterat@ 00000001801e19d0     libvcruntime:undname.obj
 0002:000099f8       ??_C@_0CJ@GJELGAMM@?$GAvector?5vbase?5copy?5constructor?5@ 00000001801e19f8     libvcruntime:undname.obj
 0002:00009a28       ??_C@_0CL@FGIJHLCE@?$GAmanaged?5vector?5copy?5constructo@ 00000001801e1a28     libvcruntime:undname.obj
 0002:00009a58       ??_C@_0BM@PMGGMLDN@?$GAlocal?5static?5thread?5guard?8@ 00000001801e1a58     libvcruntime:undname.obj
 0002:00009a78       ??_C@_0N@BDNMDMOL@operator?5?$CC?$CC?5@ 00000001801e1a78     libvcruntime:undname.obj
 0002:00009a88       ??_C@_0BC@GGEBGALA@operator?5co_await@ 00000001801e1a88     libvcruntime:undname.obj
 0002:00009aa0       ??_C@_0M@GAAIMMOH@operator?$DM?$DN?$DO@ 00000001801e1aa0     libvcruntime:undname.obj
 0002:00009ab0       ??_C@_0BC@DAFEJGAK@?5Type?5Descriptor?8@ 00000001801e1ab0     libvcruntime:undname.obj
 0002:00009ac8       ??_C@_0BM@LDKODKLH@?5Base?5Class?5Descriptor?5at?5?$CI@ 00000001801e1ac8     libvcruntime:undname.obj
 0002:00009ae8       ??_C@_0BD@LGICGFMM@?5Base?5Class?5Array?8@ 00000001801e1ae8     libvcruntime:undname.obj
 0002:00009b00       ??_C@_0BN@MECKDCOJ@?5Class?5Hierarchy?5Descriptor?8@ 00000001801e1b00     libvcruntime:undname.obj
 0002:00009b20       ??_C@_0BK@CFCOFLF@?5Complete?5Object?5Locator?8@ 00000001801e1b20     libvcruntime:undname.obj
 0002:00009b40       ??_C@_0BG@JNJLAMPM@?$GAanonymous?5namespace?8@ 00000001801e1b40     libvcruntime:undname.obj
 0002:00009b58       ??_C@_04HEJADOOB@CV?3?5@   00000001801e1b58     libvcruntime:undname.obj
 0002:00009b60       ??_C@_02MOLJINC@?3?3@      00000001801e1b60     libvcruntime:undname.obj
 0002:00009b68       ??_C@_0BE@JAEOCHPE@template?9parameter?9@ 00000001801e1b68     libvcruntime:undname.obj
 0002:00009b80       ??_C@_0BF@LNLGBBNL@?$GAtemplate?9parameter?9@ 00000001801e1b80     libvcruntime:undname.obj
 0002:00009b98       ??_C@_0O@KHGCOMHP@generic?9type?9@ 00000001801e1b98     libvcruntime:undname.obj
 0002:00009ba8       ??_C@_0P@ODDENDLM@?$GAgeneric?9type?9@ 00000001801e1ba8     libvcruntime:undname.obj
 0002:00009bb8       ??_C@_02OHHJMEON@?8?8@     00000001801e1bb8     libvcruntime:undname.obj
 0002:00009bc0       ??_C@_0BN@IBLMMFAP@?$GAnon?9type?9template?9parameter@ 00000001801e1bc0     libvcruntime:undname.obj
 0002:00009be0       ??_C@_03DLDNIBIK@?$CFlf@   00000001801e1be0     libvcruntime:undname.obj
 0002:00009be4       ??_C@_04OFALKAJ@?$DP?$DP_C@ 00000001801e1be4     libvcruntime:undname.obj
 0002:00009bec       ??_C@_03KHICJKCI@?4?4?4@   00000001801e1bec     libvcruntime:undname.obj
 0002:00009bf0       ??_C@_04HIBGFPH@NULL@      00000001801e1bf0     libvcruntime:undname.obj
 0002:00009bf8       ??_C@_02DPKJAMEF@?$CFd@    00000001801e1bf8     libvcruntime:undname.obj
 0002:00009c00       ??_C@_0BK@IHCCFNEL@?$GAtemplate?9type?9parameter?9@ 00000001801e1c00     libvcruntime:undname.obj
 0002:00009c20       ??_C@_0BK@OFCNNNKO@?$GAgeneric?9class?9parameter?9@ 00000001801e1c20     libvcruntime:undname.obj
 0002:00009c40       ??_C@_0BL@NGJBLFIL@?$GAgeneric?9method?9parameter?9@ 00000001801e1c40     libvcruntime:undname.obj
 0002:00009c60       ??_C@_07OHNGEDJK@nullptr@  00000001801e1c60     libvcruntime:undname.obj
 0002:00009c68       ??_C@_06COJIGPIB@lambda@   00000001801e1c68     libvcruntime:undname.obj
 0002:00009c70       ??_C@_0BE@EODMJLIF@?$GAtemplate?9parameter@ 00000001801e1c70     libvcruntime:undname.obj
 0002:00009c84       ??_C@_03OPGICMGF@?$HN?8?5@ 00000001801e1c84     libvcruntime:undname.obj
 0002:00009c88       ??_C@_02IGFCGPIL@?$HN?8@   00000001801e1c88     libvcruntime:undname.obj
 0002:00009c90       ??_C@_0N@CBHHHENL@?$GAvtordispex?$HL@ 00000001801e1c90     libvcruntime:undname.obj
 0002:00009ca0       ??_C@_0L@GHPFDFH@?$GAvtordisp?$HL@ 00000001801e1ca0     libvcruntime:undname.obj
 0002:00009cb0       ??_C@_0L@HNGCOGAE@?$GAadjustor?$HL@ 00000001801e1cb0     libvcruntime:undname.obj
 0002:00009cc0       ??_C@_0CB@KJDOOODE@?$GAlocal?5static?5destructor?5helper@ 00000001801e1cc0     libvcruntime:undname.obj
 0002:00009ce8       ??_C@_0DB@ILEFOCIJ@?$GAtemplate?5static?5data?5member?5co@ 00000001801e1ce8     libvcruntime:undname.obj
 0002:00009d20       ??_C@_0DA@HGFJFBBE@?$GAtemplate?5static?5data?5member?5de@ 00000001801e1d20     libvcruntime:undname.obj
 0002:00009d50       ??_C@_07PGOEDBHP@static?5@ 00000001801e1d50     libvcruntime:undname.obj
 0002:00009d58       ??_C@_08NIEOINHE@virtual?5@ 00000001801e1d58     libvcruntime:undname.obj
 0002:00009d68       ??_C@_09LAPHOOG@private?3?5@ 00000001801e1d68     libvcruntime:undname.obj
 0002:00009d78       ??_C@_0M@GAIFPFIP@protected?3?5@ 00000001801e1d78     libvcruntime:undname.obj
 0002:00009d88       ??_C@_08GPDDCMKI@public?3?5@ 00000001801e1d88     libvcruntime:undname.obj
 0002:00009d98       ??_C@_08KJLFOPNE@?$FLthunk?$FN?3@ 00000001801e1d98     libvcruntime:undname.obj
 0002:00009da8       ??_C@_0M@DHNBOJMP@extern?5?$CCC?$CC?5@ 00000001801e1da8     libvcruntime:undname.obj
 0002:00009db4       ??_C@_02KCKGHPCA@?$CJ?5@   00000001801e1db4     libvcruntime:undname.obj
 0002:00009db8       ??_C@_05CIHEBHNO@char?5@   00000001801e1db8     libvcruntime:undname.obj
 0002:00009dc0       ??_C@_06EHJMALKF@short?5@  00000001801e1dc0     libvcruntime:undname.obj
 0002:00009dc8       ??_C@_04LAHKHJMA@int?5@    00000001801e1dc8     libvcruntime:undname.obj
 0002:00009dd0       ??_C@_05CJIMAING@long?5@   00000001801e1dd0     libvcruntime:undname.obj
 0002:00009dd8       ??_C@_09EBBEKKIH@unsigned?5@ 00000001801e1dd8     libvcruntime:undname.obj
 0002:00009de4       ??_C@_05BEFAKPML@void?5@   00000001801e1de4     libvcruntime:undname.obj
 0002:00009df0       ??_C@_09GAIEOBLP@volatile?5@ 00000001801e1df0     libvcruntime:undname.obj
 0002:00009e00       ??_C@_08PABEKFH@volatile@  00000001801e1e00     libvcruntime:undname.obj
 0002:00009e10       ??_C@_0BA@LKIJLKPP@std?3?3nullptr_t?5@ 00000001801e1e10     libvcruntime:undname.obj
 0002:00009e20       ??_C@_0P@GCOCNKDM@std?3?3nullptr_t@ 00000001801e1e20     libvcruntime:undname.obj
 0002:00009e30       ??_C@_0L@EGPHHEKN@?$DMellipsis?$DO@ 00000001801e1e30     libvcruntime:undname.obj
 0002:00009e3c       ??_C@_04EENFHACM@?0?4?4?4@ 00000001801e1e3c     libvcruntime:undname.obj
 0002:00009e48       ??_C@_0M@ELJOJFFH@?0?$DMellipsis?$DO@ 00000001801e1e48     libvcruntime:undname.obj
 0002:00009e58       ??_C@_09DNHFEOJI@?5noexcept@ 00000001801e1e58     libvcruntime:undname.obj
 0002:00009e64       ??_C@_03PBJBJNON@cpu@      00000001801e1e64     libvcruntime:undname.obj
 0002:00009e68       ??_C@_03DCBBJBAA@amp@      00000001801e1e68     libvcruntime:undname.obj
 0002:00009e6c       ??_C@_02KEGNLNML@?0?5@     00000001801e1e6c     libvcruntime:undname.obj
 0002:00009e70       ??_C@_04ENMBGAPA@char@     00000001801e1e70     libvcruntime:undname.obj
 0002:00009e78       ??_C@_05BFKKPKCG@short@    00000001801e1e78     libvcruntime:undname.obj
 0002:00009e80       ??_C@_03JBIPMCLC@int@      00000001801e1e80     libvcruntime:undname.obj
 0002:00009e84       ??_C@_04GOKPGOLB@long@     00000001801e1e84     libvcruntime:undname.obj
 0002:00009e8c       ??_C@_06BNJCAIGJ@double@   00000001801e1e8c     libvcruntime:undname.obj
 0002:00009e94       ??_C@_06EBGKOKIG@__int8@   00000001801e1e94     libvcruntime:undname.obj
 0002:00009ea0       ??_C@_07ICFHOGAF@__int16@  00000001801e1ea0     libvcruntime:undname.obj
 0002:00009ea8       ??_C@_07OFLPPHGP@__int32@  00000001801e1ea8     libvcruntime:undname.obj
 0002:00009eb0       ??_C@_07LFCOJCAC@__int64@  00000001801e1eb0     libvcruntime:undname.obj
 0002:00009eb8       ??_C@_08GAHOLHEO@__int128@ 00000001801e1eb8     libvcruntime:undname.obj
 0002:00009ec8       ??_C@_09EEKGDCPH@?$DMunknown?$DO@ 00000001801e1ec8     libvcruntime:undname.obj
 0002:00009ed8       ??_C@_07CFHGOPCN@char8_t@  00000001801e1ed8     libvcruntime:undname.obj
 0002:00009ee0       ??_C@_08HBIPOFJB@char16_t@ 00000001801e1ee0     libvcruntime:undname.obj
 0002:00009ef0       ??_C@_08IECNCBKG@char32_t@ 00000001801e1ef0     libvcruntime:undname.obj
 0002:00009f00       ??_C@_07CLGGIAMF@wchar_t@  00000001801e1f00     libvcruntime:undname.obj
 0002:00009f08       ??_C@_04HAPDLBFF@auto@     00000001801e1f08     libvcruntime:undname.obj
 0002:00009f10       ??_C@_0P@LHCGKIGK@decltype?$CIauto?$CJ@ 00000001801e1f10     libvcruntime:undname.obj
 0002:00009f20       ??_C@_05PCNBGHCF@this?5@   00000001801e1f20     libvcruntime:undname.obj
 0002:00009f28       ??_C@_06GCICPBLB@__w64?5@  00000001801e1f28     libvcruntime:undname.obj
 0002:00009f30       ??_C@_07NFANNNEC@UNKNOWN@  00000001801e1f30     libvcruntime:undname.obj
 0002:00009f38       ??_C@_07EDHNAJHC@signed?5@ 00000001801e1f38     libvcruntime:undname.obj
 0002:00009f40       ??_C@_05BNCCCJPP@const@    00000001801e1f40     libvcruntime:undname.obj
 0002:00009f48       ??_C@_09EFNPDFFP@?5volatile@ 00000001801e1f48     libvcruntime:undname.obj
 0002:00009f58       ??_C@_0P@GCIFDJCJ@?$GAunknown?5ecsu?8@ 00000001801e1f58     libvcruntime:undname.obj
 0002:00009f68       ??_C@_06MOJHIBMG@union?5@  00000001801e1f68     libvcruntime:undname.obj
 0002:00009f70       ??_C@_07DIBCDNGL@struct?5@ 00000001801e1f70     libvcruntime:undname.obj
 0002:00009f78       ??_C@_06LJBABKPM@class?5@  00000001801e1f78     libvcruntime:undname.obj
 0002:00009f80       ??_C@_08KOFANOFK@coclass?5@ 00000001801e1f80     libvcruntime:undname.obj
 0002:00009f90       ??_C@_0N@DLIEFKNA@cointerface?5@ 00000001801e1f90     libvcruntime:undname.obj
 0002:00009fa0       ??_C@_05LJGMCFOG@enum?5@   00000001801e1fa0     libvcruntime:undname.obj
 0002:00009fa8       ??_C@_06LIJLOJAG@const?5@  00000001801e1fa8     libvcruntime:undname.obj
 0002:00009fb0       ??_C@_02KJPKDIBN@?$CG?5@   00000001801e1fb0     libvcruntime:undname.obj
 0002:00009fb4       ??_C@_03PCKGMOPB@?$CG?$CG?5@ 00000001801e1fb4     libvcruntime:undname.obj
 0002:00009fb8       ??_C@_0M@EALIELKG@cli?3?3array?$DM@ 00000001801e1fb8     libvcruntime:undname.obj
 0002:00009fc8       ??_C@_0O@GKABPPIF@cli?3?3pin_ptr?$DM@ 00000001801e1fc8     libvcruntime:undname.obj
 0002:00009fd8       ??_C@_02GOGNNPBN@?$CJ?$FL@ 00000001801e1fd8     libvcruntime:undname.obj
 0002:00009fdc       ??_C@_06EEGAIFAK@?$HLflat?$HN@ 00000001801e1fdc     libvcruntime:undname.obj
 0002:00009fe4       ??_C@_05JIBOFOHK@?$HLfor?5@ 00000001801e1fe4     libvcruntime:undname.obj
 0002:00009fec       ??_C@_02MDINNEEG@s?5@      00000001801e1fec     libvcruntime:undname.obj
 0002:00009ff8       ??_7charNode@@6B@          00000001801e1ff8     libvcruntime:undname.obj
 0002:0000a020       ??_7pcharNode@@6B@         00000001801e2020     libvcruntime:undname.obj
 0002:0000a048       ??_7pDNameNode@@6B@        00000001801e2048     libvcruntime:undname.obj
 0002:0000a070       ??_7DNameStatusNode@@6B@   00000001801e2070     libvcruntime:undname.obj
 0002:0000a098       ??_7pairNode@@6B@          00000001801e2098     libvcruntime:undname.obj
 0002:0000a1c0       ??_C@_04OKOHEJBO@?5?$DP?$DP?5@ 00000001801e21c0     libvcruntime:undname.obj
 0002:0000a1d0       ?nodes@?1??make@DNameStatusNode@@SAPEBV2@W4DNameStatus@@@Z@4QBV2@B 00000001801e21d0     libvcruntime:undname.obj
 0002:0000a210       ?s_negLengthTab@FH4@@3QBCB 00000001801e2210     libvcruntime:risctrnsctrl.obj
 0002:0000a220       ?s_shiftTab@FH4@@3QBEB     00000001801e2220     libvcruntime:risctrnsctrl.obj
 0002:0000a380       ??_C@_1DM@KHCHBNEB@?$AAa?$AAp?$AAi?$AA?9?$AAm?$AAs?$AA?9?$AAw?$AAi?$AAn?$AA?9?$AAc?$AAo?$AAr?$AAe@ 00000001801e2380     libvcruntime:winapi_downlevel.obj
 0002:0000a3c0       ??_C@_1DK@LPPGFMPP@?$AAa?$AAp?$AAi?$AA?9?$AAm?$AAs?$AA?9?$AAw?$AAi?$AAn?$AA?9?$AAc?$AAo?$AAr?$AAe@ 00000001801e23c0     libvcruntime:winapi_downlevel.obj
 0002:0000a400       ??_C@_1BC@GDMECMAK@?$AAk?$AAe?$AAr?$AAn?$AAe?$AAl?$AA3?$AA2@ 00000001801e2400     libvcruntime:winapi_downlevel.obj
 0002:0000a418       ??_C@_1BA@PFFKHIOG@?$AAa?$AAp?$AAi?$AA?9?$AAm?$AAs?$AA?9@ 00000001801e2418     libvcruntime:winapi_downlevel.obj
 0002:0000a430       ??_C@_08KNHFBNJ@FlsAlloc@  00000001801e2430     libvcruntime:winapi_downlevel.obj
 0002:0000a448       ??_C@_07PEJMOBNF@FlsFree@  00000001801e2448     libvcruntime:winapi_downlevel.obj
 0002:0000a458       ??_C@_0M@GDNOONDI@FlsGetValue@ 00000001801e2458     libvcruntime:winapi_downlevel.obj
 0002:0000a470       ??_C@_0M@JCPCPOEF@FlsSetValue@ 00000001801e2470     libvcruntime:winapi_downlevel.obj
 0002:0000a488       ??_C@_0BM@HCFOFFN@InitializeCriticalSectionEx@ 00000001801e2488     libvcruntime:winapi_downlevel.obj
 0002:0000a4b0       ??_7exception@std@@6B@     00000001801e24b0     libvcruntime:frame.obj
 0002:0000a4c0       ??_C@_0BC@EOODALEL@Unknown?5exception@ 00000001801e24c0     libvcruntime:frame.obj
 0002:0000a4e0       ??_7bad_exception@std@@6B@ 00000001801e24e0     libvcruntime:frame.obj
 0002:0000a4f0       ??_C@_0O@DPKOEFFH@bad?5exception@ 00000001801e24f0     libvcruntime:frame.obj
 0002:0000a840       ?standard_lookup_table_spectre@__crt_stdio_output@@3V?$spectre_mitigated_lookup_table@Ustate_transition_pair@__crt_stdio_output@@$0IA@@1@B 00000001801e2840     libucrt:output.obj
 0002:0000a940       ?format_validation_lookup_table_spectre@__crt_stdio_output@@3V?$spectre_mitigated_lookup_table@Ustate_transition_pair@__crt_stdio_output@@$0IA@@1@B 00000001801e2940     libucrt:output.obj
 0002:0000aa40       ??_C@_1O@CEDCILHN@?$AA?$CI?$AAn?$AAu?$AAl?$AAl?$AA?$CJ@ 00000001801e2a40     libucrt:output.obj
 0002:0000aa50       ??_C@_06OJHGLDPL@?$CInull?$CJ@ 00000001801e2a50     libucrt:output.obj
 0002:0000bae8       __real@3f1a36e2eb1c432d    00000001801e3ae8     libucrt:atan2f.obj
 0002:0000baf0       __real@3fb0000000000000    00000001801e3af0     libucrt:atan2f.obj
 0002:0000baf8       __real@3fc2492482bd6be1    00000001801e3af8     libucrt:atan2f.obj
 0002:0000bb00       __real@3fc99999999643a3    00000001801e3b00     libucrt:atan2f.obj
 0002:0000bb08       __real@3fd5555555550877    00000001801e3b08     libucrt:atan2f.obj
 0002:0000bb10       __real@3fd5555555555538    00000001801e3b10     libucrt:atan2f.obj
 0002:0000bb18       __real@3ff921fb54442d18    00000001801e3b18     libucrt:atan2f.obj
 0002:0000bb20       __real@400921fb54442d18    00000001801e3b20     libucrt:atan2f.obj
 0002:0000bb28       __real@40490fdb            00000001801e3b28     libucrt:atan2f.obj
 0002:0000bb30       __real@4070000000000000    00000001801e3b30     libucrt:atan2f.obj
 0002:0000bb38       __real@bf490fdb            00000001801e3b38     libucrt:atan2f.obj
 0002:0000bb3c       __real@bfc90fdb            00000001801e3b3c     libucrt:atan2f.obj
 0002:0000bb40       __real@c016cbe4            00000001801e3b40     libucrt:atan2f.obj
 0002:0000bb44       __real@c0490fdb            00000001801e3b44     libucrt:atan2f.obj
 0002:0000bb48       ??_C@_05FFFCHCED@acosf@    00000001801e3b48     libucrt:acosf.obj
 0002:0000bb50       __real@3b81ce6b            00000001801e3b50     libucrt:acosf.obj
 0002:0000bb58       __real@3c91a62633145c07    00000001801e3b58     libucrt:acosf.obj
 0002:0000bb60       __real@3d678bdd            00000001801e3b60     libucrt:acosf.obj
 0002:0000bb64       __real@3e3c94dc            00000001801e3b64     libucrt:acosf.obj
 0002:0000bb68       __real@3f561f0d            00000001801e3b68     libucrt:acosf.obj
 0002:0000bb6c       __real@3f8d6fa5            00000001801e3b6c     libucrt:acosf.obj
 0002:0000bb70       __real@bc5b3fe1            00000001801e3b70     libucrt:acosf.obj
 0002:0000bb80       __acrt_exception_action_table 00000001801e3b80     libucrt:exception_filter.obj
 0002:0000bc40       __acrt_signal_action_table_count 00000001801e3c40     libucrt:exception_filter.obj
 0002:0000bc48       __acrt_signal_action_first_fpe_index 00000001801e3c48     libucrt:exception_filter.obj
 0002:0000bc50       __acrt_signal_action_fpe_count 00000001801e3c50     libucrt:exception_filter.obj
 0002:0000bca8       ??_C@_1BI@BGOHAHKC@?$AAm?$AAs?$AAc?$AAo?$AAr?$AAe?$AAe?$AA?4?$AAd?$AAl?$AAl@ 00000001801e3ca8     libucrt:exit.obj
 0002:0000bcc0       ??_C@_0P@MIGLKIOC@CorExitProcess@ 00000001801e3cc0     libucrt:exit.obj
 0002:0000bf90       ??_C@_04LAGPAAHP@sinf@     00000001801e3f90     libucrt:sincos_special.obj
 0002:0000bf98       ??_C@_04OBBKPIAC@cosf@     00000001801e3f98     libucrt:sincos_special.obj
 0002:0000bfa0       ??_C@_04MHPLPEIA@tanf@     00000001801e3fa0     libucrt:sincos_special.obj
 0002:0000bfb0       __Lcosfarray               00000001801e3fb0     libucrt:lsincosf_array.obj
 0002:0000bfe0       __Lsinfarray               00000001801e3fe0     libucrt:lsincosf_array.obj
 0002:0000c000       __L_2_by_pi_bits           00000001801e4000     libucrt:l2_by_pi_bits.obj
 0002:0000c370       ??_C@_1EA@JGEFHKEI@?$AAa?$AAp?$AAi?$AA?9?$AAm?$AAs?$AA?9?$AAw?$AAi?$AAn?$AA?9?$AAc?$AAo?$AAr?$AAe@ 00000001801e4370     libucrt:winapi_thunks.obj
 0002:0000c3b0       ??_C@_1DI@KMEPCBPN@?$AAa?$AAp?$AAi?$AA?9?$AAm?$AAs?$AA?9?$AAw?$AAi?$AAn?$AA?9?$AAc?$AAo?$AAr?$AAe@ 00000001801e43b0     libucrt:winapi_thunks.obj
 0002:0000c3e8       ??_C@_1DI@IJCEHOCB@?$AAa?$AAp?$AAi?$AA?9?$AAm?$AAs?$AA?9?$AAw?$AAi?$AAn?$AA?9?$AAc?$AAo?$AAr?$AAe@ 00000001801e43e8     libucrt:winapi_thunks.obj
 0002:0000c420       ??_C@_1EI@MPIAOHOC@?$AAa?$AAp?$AAi?$AA?9?$AAm?$AAs?$AA?9?$AAw?$AAi?$AAn?$AA?9?$AAc?$AAo?$AAr?$AAe@ 00000001801e4420     libucrt:winapi_thunks.obj
 0002:0000c470       ??_C@_1FK@FPHCKFIE@?$AAa?$AAp?$AAi?$AA?9?$AAm?$AAs?$AA?9?$AAw?$AAi?$AAn?$AA?9?$AAc?$AAo?$AAr?$AAe@ 00000001801e4470     libucrt:winapi_thunks.obj
 0002:0000c4d0       ??_C@_1EM@DILCGIIO@?$AAa?$AAp?$AAi?$AA?9?$AAm?$AAs?$AA?9?$AAw?$AAi?$AAn?$AA?9?$AAc?$AAo?$AAr?$AAe@ 00000001801e44d0     libucrt:winapi_thunks.obj
 0002:0000c520       ??_C@_1DM@LNCGDDPN@?$AAa?$AAp?$AAi?$AA?9?$AAm?$AAs?$AA?9?$AAw?$AAi?$AAn?$AA?9?$AAc?$AAo?$AAr?$AAe@ 00000001801e4520     libucrt:winapi_thunks.obj
 0002:0000c560       ??_C@_1DO@FPAPJEMD@?$AAa?$AAp?$AAi?$AA?9?$AAm?$AAs?$AA?9?$AAw?$AAi?$AAn?$AA?9?$AAc?$AAo?$AAr?$AAe@ 00000001801e4560     libucrt:winapi_thunks.obj
 0002:0000c5a0       ??_C@_1DK@NDHNAHIO@?$AAa?$AAp?$AAi?$AA?9?$AAm?$AAs?$AA?9?$AAw?$AAi?$AAn?$AA?9?$AAc?$AAo?$AAr?$AAe@ 00000001801e45a0     libucrt:winapi_thunks.obj
 0002:0000c5e0       ??_C@_1DM@KGHDGBCM@?$AAa?$AAp?$AAi?$AA?9?$AAm?$AAs?$AA?9?$AAw?$AAi?$AAn?$AA?9?$AAc?$AAo?$AAr?$AAe@ 00000001801e45e0     libucrt:winapi_thunks.obj
